
LTC5548_AVR128DB_LIB.elf:     file format elf32-avr

Sections:
Idx Name          Size      VMA       LMA       File off  Algn
  0 .data         000001da  00804000  00005cc4  00005d58  2**0
                  CONTENTS, ALLOC, LOAD, DATA
  1 .text         00005cc4  00000000  00000000  00000094  2**1
                  CONTENTS, ALLOC, LOAD, READONLY, CODE
  2 .bss          000003bc  008041da  008041da  00005f32  2**0
                  ALLOC
  3 .comment      0000005c  00000000  00000000  00005f32  2**0
                  CONTENTS, READONLY
  4 .note.gnu.avr.deviceinfo 00000040  00000000  00000000  00005f90  2**2
                  CONTENTS, READONLY
  5 .debug_aranges 00000878  00000000  00000000  00005fd0  2**3
                  CONTENTS, READONLY, DEBUGGING
  6 .debug_info   0000f33d  00000000  00000000  00006848  2**0
                  CONTENTS, READONLY, DEBUGGING
  7 .debug_abbrev 00005167  00000000  00000000  00015b85  2**0
                  CONTENTS, READONLY, DEBUGGING
  8 .debug_line   00004cc7  00000000  00000000  0001acec  2**0
                  CONTENTS, READONLY, DEBUGGING
  9 .debug_frame  00001740  00000000  00000000  0001f9b4  2**2
                  CONTENTS, READONLY, DEBUGGING
 10 .debug_str    00007143  00000000  00000000  000210f4  2**0
                  CONTENTS, READONLY, DEBUGGING
 11 .debug_loc    00003503  00000000  00000000  00028237  2**0
                  CONTENTS, READONLY, DEBUGGING
 12 .debug_ranges 000006f8  00000000  00000000  0002b73a  2**0
                  CONTENTS, READONLY, DEBUGGING

Disassembly of section .text:

00000000 <__vectors>:
       0:	0c 94 6f 01 	jmp	0x2de	; 0x2de <__dtors_end>
       4:	0c 94 99 01 	jmp	0x332	; 0x332 <__bad_interrupt>
       8:	0c 94 99 01 	jmp	0x332	; 0x332 <__bad_interrupt>
       c:	0c 94 99 01 	jmp	0x332	; 0x332 <__bad_interrupt>
      10:	0c 94 99 01 	jmp	0x332	; 0x332 <__bad_interrupt>
      14:	0c 94 99 03 	jmp	0x732	; 0x732 <__vector_5>
      18:	0c 94 99 01 	jmp	0x332	; 0x332 <__bad_interrupt>
      1c:	0c 94 99 01 	jmp	0x332	; 0x332 <__bad_interrupt>
      20:	0c 94 99 01 	jmp	0x332	; 0x332 <__bad_interrupt>
      24:	0c 94 99 01 	jmp	0x332	; 0x332 <__bad_interrupt>
      28:	0c 94 99 01 	jmp	0x332	; 0x332 <__bad_interrupt>
      2c:	0c 94 99 01 	jmp	0x332	; 0x332 <__bad_interrupt>
      30:	0c 94 99 01 	jmp	0x332	; 0x332 <__bad_interrupt>
      34:	0c 94 99 01 	jmp	0x332	; 0x332 <__bad_interrupt>
      38:	0c 94 f3 23 	jmp	0x47e6	; 0x47e6 <__vector_14>
      3c:	0c 94 35 24 	jmp	0x486a	; 0x486a <__vector_15>
      40:	0c 94 99 01 	jmp	0x332	; 0x332 <__bad_interrupt>
      44:	0c 94 b8 23 	jmp	0x4770	; 0x4770 <__vector_17>
      48:	0c 94 99 01 	jmp	0x332	; 0x332 <__bad_interrupt>
      4c:	0c 94 99 01 	jmp	0x332	; 0x332 <__bad_interrupt>
      50:	0c 94 99 01 	jmp	0x332	; 0x332 <__bad_interrupt>
      54:	0c 94 99 01 	jmp	0x332	; 0x332 <__bad_interrupt>
      58:	0c 94 99 01 	jmp	0x332	; 0x332 <__bad_interrupt>
      5c:	0c 94 99 01 	jmp	0x332	; 0x332 <__bad_interrupt>
      60:	0c 94 99 01 	jmp	0x332	; 0x332 <__bad_interrupt>
      64:	0c 94 99 01 	jmp	0x332	; 0x332 <__bad_interrupt>
      68:	0c 94 99 01 	jmp	0x332	; 0x332 <__bad_interrupt>
      6c:	0c 94 99 01 	jmp	0x332	; 0x332 <__bad_interrupt>
      70:	0c 94 24 23 	jmp	0x4648	; 0x4648 <__vector_28>
      74:	0c 94 99 01 	jmp	0x332	; 0x332 <__bad_interrupt>
      78:	0c 94 99 01 	jmp	0x332	; 0x332 <__bad_interrupt>
      7c:	0c 94 99 01 	jmp	0x332	; 0x332 <__bad_interrupt>
      80:	0c 94 99 01 	jmp	0x332	; 0x332 <__bad_interrupt>
      84:	0c 94 99 01 	jmp	0x332	; 0x332 <__bad_interrupt>
      88:	0c 94 99 01 	jmp	0x332	; 0x332 <__bad_interrupt>
      8c:	0c 94 99 01 	jmp	0x332	; 0x332 <__bad_interrupt>
      90:	0c 94 99 01 	jmp	0x332	; 0x332 <__bad_interrupt>
      94:	0c 94 99 01 	jmp	0x332	; 0x332 <__bad_interrupt>
      98:	0c 94 99 01 	jmp	0x332	; 0x332 <__bad_interrupt>
      9c:	0c 94 99 01 	jmp	0x332	; 0x332 <__bad_interrupt>
      a0:	0c 94 99 01 	jmp	0x332	; 0x332 <__bad_interrupt>
      a4:	0c 94 99 01 	jmp	0x332	; 0x332 <__bad_interrupt>
      a8:	0c 94 99 01 	jmp	0x332	; 0x332 <__bad_interrupt>
      ac:	0c 94 99 01 	jmp	0x332	; 0x332 <__bad_interrupt>
      b0:	0c 94 99 01 	jmp	0x332	; 0x332 <__bad_interrupt>
      b4:	0c 94 99 01 	jmp	0x332	; 0x332 <__bad_interrupt>
      b8:	0c 94 99 01 	jmp	0x332	; 0x332 <__bad_interrupt>
      bc:	0c 94 99 01 	jmp	0x332	; 0x332 <__bad_interrupt>
      c0:	0c 94 99 01 	jmp	0x332	; 0x332 <__bad_interrupt>
      c4:	0c 94 99 01 	jmp	0x332	; 0x332 <__bad_interrupt>
      c8:	0c 94 99 01 	jmp	0x332	; 0x332 <__bad_interrupt>
      cc:	0c 94 99 01 	jmp	0x332	; 0x332 <__bad_interrupt>
      d0:	0c 94 45 23 	jmp	0x468a	; 0x468a <__vector_52>
      d4:	0c 94 99 01 	jmp	0x332	; 0x332 <__bad_interrupt>
      d8:	0c 94 99 01 	jmp	0x332	; 0x332 <__bad_interrupt>
      dc:	0c 94 99 01 	jmp	0x332	; 0x332 <__bad_interrupt>
      e0:	0c 94 99 01 	jmp	0x332	; 0x332 <__bad_interrupt>
      e4:	0c 94 99 01 	jmp	0x332	; 0x332 <__bad_interrupt>
      e8:	0c 94 99 01 	jmp	0x332	; 0x332 <__bad_interrupt>
      ec:	0c 94 99 01 	jmp	0x332	; 0x332 <__bad_interrupt>
      f0:	0c 94 99 01 	jmp	0x332	; 0x332 <__bad_interrupt>
      f4:	2f 0a       	sbc	r2, r31
      f6:	46 0a       	sbc	r4, r22
      f8:	5d 0a       	sbc	r5, r29
      fa:	74 0a       	sbc	r7, r20
      fc:	8b 0a       	sbc	r8, r27
      fe:	a2 0a       	sbc	r10, r18
     100:	b4 0a       	sbc	r11, r20
     102:	cb 0a       	sbc	r12, r27
     104:	e2 0a       	sbc	r14, r18
     106:	f9 0a       	sbc	r15, r25
     108:	10 0b       	sbc	r17, r16
     10a:	27 0b       	sbc	r18, r23
     10c:	b5 0b       	sbc	r27, r21
     10e:	b5 0b       	sbc	r27, r21
     110:	b5 0b       	sbc	r27, r21
     112:	3e 0b       	sbc	r19, r30
     114:	55 0b       	sbc	r21, r21
     116:	b5 0b       	sbc	r27, r21
     118:	b5 0b       	sbc	r27, r21
     11a:	b5 0b       	sbc	r27, r21
     11c:	6c 0b       	sbc	r22, r28
     11e:	87 0b       	sbc	r24, r23
     120:	9e 0b       	sbc	r25, r30
     122:	00 0e       	add	r0, r16
     124:	22 0e       	add	r2, r18
     126:	3e 0e       	add	r3, r30
     128:	0e 10       	cpse	r0, r14
     12a:	0e 10       	cpse	r0, r14
     12c:	61 0e       	add	r6, r17
     12e:	0e 10       	cpse	r0, r14
     130:	0e 10       	cpse	r0, r14
     132:	0e 10       	cpse	r0, r14
     134:	0e 10       	cpse	r0, r14
     136:	0e 10       	cpse	r0, r14
     138:	0e 10       	cpse	r0, r14
     13a:	0e 10       	cpse	r0, r14
     13c:	0e 10       	cpse	r0, r14
     13e:	0e 10       	cpse	r0, r14
     140:	0e 10       	cpse	r0, r14
     142:	0e 10       	cpse	r0, r14
     144:	b5 0e       	add	r11, r21
     146:	e2 0e       	add	r14, r18
     148:	05 0f       	add	r16, r21
     14a:	08 00       	.word	0x0008	; ????
     14c:	00 00       	nop
     14e:	be 92       	st	-X, r11
     150:	24 49       	sbci	r18, 0x94	; 148
     152:	12 3e       	cpi	r17, 0xE2	; 226
     154:	ab aa       	std	Y+51, r10	; 0x33
     156:	aa 2a       	or	r10, r26
     158:	be cd       	rjmp	.-1156   	; 0xfffffcd6 <__eeprom_end+0xff7efcd6>
     15a:	cc cc       	rjmp	.-1640   	; 0xfffffaf4 <__eeprom_end+0xff7efaf4>
     15c:	4c 3e       	cpi	r20, 0xEC	; 236
     15e:	00 00       	nop
     160:	00 80       	ld	r0, Z
     162:	be ab       	std	Y+54, r27	; 0x36
     164:	aa aa       	std	Y+50, r10	; 0x32
     166:	aa 3e       	cpi	r26, 0xEA	; 234
     168:	00 00       	nop
     16a:	00 00       	nop
     16c:	bf 00       	.word	0x00bf	; ????
     16e:	00 00       	nop
     170:	80 3f       	cpi	r24, 0xF0	; 240
     172:	00 00       	nop
     174:	00 00       	nop
     176:	00 08       	sbc	r0, r0
     178:	41 78       	andi	r20, 0x81	; 129
     17a:	d3 bb       	out	0x13, r29	; 19
     17c:	43 87       	std	Z+11, r20	; 0x0b
     17e:	d1 13       	cpse	r29, r17
     180:	3d 19       	sub	r19, r13
     182:	0e 3c       	cpi	r16, 0xCE	; 206
     184:	c3 bd       	out	0x23, r28	; 35
     186:	42 82       	std	Z+2, r4	; 0x02
     188:	ad 2b       	or	r26, r29
     18a:	3e 68       	ori	r19, 0x8E	; 142
     18c:	ec 82       	std	Y+4, r14	; 0x04
     18e:	76 be       	out	0x36, r7	; 54
     190:	d9 8f       	std	Y+25, r29	; 0x19
     192:	e1 a9       	ldd	r30, Z+49	; 0x31
     194:	3e 4c       	sbci	r19, 0xCE	; 206
     196:	80 ef       	ldi	r24, 0xF0	; 240
     198:	ff be       	out	0x3f, r15	; 63
     19a:	01 c4       	rjmp	.+2050   	; 0x99e <_ZN14ADF5610_Driver4InitEv+0x5a>
     19c:	ff 7f       	andi	r31, 0xFF	; 255
     19e:	3f 00       	.word	0x003f	; ????
     1a0:	00 00       	nop
     1a2:	00 00       	nop
     1a4:	07 63       	ori	r16, 0x37	; 55
     1a6:	42 36       	cpi	r20, 0x62	; 98
     1a8:	b7 9b       	sbis	0x16, 7	; 22
     1aa:	d8 a7       	std	Y+40, r29	; 0x28
     1ac:	1a 39       	cpi	r17, 0x9A	; 154
     1ae:	68 56       	subi	r22, 0x68	; 104
     1b0:	18 ae       	std	Y+56, r1	; 0x38
     1b2:	ba ab       	std	Y+50, r27	; 0x32
     1b4:	55 8c       	ldd	r5, Z+29	; 0x1d
     1b6:	1d 3c       	cpi	r17, 0xCD	; 205
     1b8:	b7 cc       	rjmp	.-1682   	; 0xfffffb28 <__eeprom_end+0xff7efb28>
     1ba:	57 63       	ori	r21, 0x37	; 55
     1bc:	bd 6d       	ori	r27, 0xDD	; 221
     1be:	ed fd       	.word	0xfded	; ????
     1c0:	75 3e       	cpi	r23, 0xE5	; 229
     1c2:	f6 17       	cp	r31, r22
     1c4:	72 31       	cpi	r23, 0x12	; 18
     1c6:	bf 00       	.word	0x00bf	; ????
     1c8:	00 00       	nop
     1ca:	80 3f       	cpi	r24, 0xF0	; 240

000001cc <__trampolines_end>:
     1cc:	6e 61       	ori	r22, 0x1E	; 30
     1ce:	6e 00       	.word	0x006e	; ????

000001d0 <__c.2332>:
     1d0:	69 6e 66 00 00 40 7a 10 f3 5a 00 a0 72 4e 18 09     inf..@z..Z..rN..
     1e0:	00 10 a5 d4 e8 00 00 e8 76 48 17 00 00 e4 0b 54     ........vH.....T
     1f0:	02 00 00 ca 9a 3b 00 00 00 e1 f5 05 00 00 80 96     .....;..........
     200:	98 00 00 00 40 42 0f 00 00 00 a0 86 01 00 00 00     ....@B..........
     210:	10 27 00 00 00 00 e8 03 00 00 00 00 64 00 00 00     .'..........d...
     220:	00 00 0a 00 00 00 00 00 01 00 00 00 00 00 2c 76     ..............,v
     230:	d8 88 dc 67 4f 08 23 df c1 df ae 59 e1 b1 b7 96     ...gO.#....Y....
     240:	e5 e3 e4 53 c6 3a e6 51 99 76 96 e8 e6 c2 84 26     ...S.:.Q.v.....&
     250:	eb 89 8c 9b 62 ed 40 7c 6f fc ef bc 9c 9f 40 f2     ....b.@|o.....@.
     260:	ba a5 6f a5 f4 90 05 5a 2a f7 5c 93 6b 6c f9 67     ..o....Z*.\.kl.g
     270:	6d c1 1b fc e0 e4 0d 47 fe f5 20 e6 b5 00 d0 ed     m......G.. .....
     280:	90 2e 03 00 94 35 77 05 00 80 84 1e 08 00 00 20     .....5w........ 
     290:	4e 0a 00 00 00 c8 0c 33 33 33 33 0f 98 6e 12 83     N......3333..n..
     2a0:	11 41 ef 8d 21 14 89 3b e6 55 16 cf fe e6 db 18     .A..!..;.U......
     2b0:	d1 84 4b 38 1b f7 7c 1d 90 1d a4 bb e4 24 20 32     ..K8..|......$ 2
     2c0:	84 72 5e 22 81 00 c9 f1 24 ec a1 e5 3d 27           .r^"....$...='

000002ce <__ctors_start>:
     2ce:	64 03       	mulsu	r22, r20
     2d0:	bd 03       	fmulsu	r19, r21
     2d2:	5d 11       	cpse	r21, r13
     2d4:	31 22       	and	r3, r17

000002d6 <__ctors_end>:
     2d6:	6b 03       	fmul	r22, r19
     2d8:	c4 03       	fmuls	r20, r20
     2da:	6a 11       	cpse	r22, r10
     2dc:	3e 22       	and	r3, r30

000002de <__dtors_end>:
     2de:	11 24       	eor	r1, r1
     2e0:	1f be       	out	0x3f, r1	; 63
     2e2:	cf ef       	ldi	r28, 0xFF	; 255
     2e4:	cd bf       	out	0x3d, r28	; 61
     2e6:	df e7       	ldi	r29, 0x7F	; 127
     2e8:	de bf       	out	0x3e, r29	; 62

000002ea <__do_copy_data>:
     2ea:	11 e4       	ldi	r17, 0x41	; 65
     2ec:	a0 e0       	ldi	r26, 0x00	; 0
     2ee:	b0 e4       	ldi	r27, 0x40	; 64
     2f0:	e4 ec       	ldi	r30, 0xC4	; 196
     2f2:	fc e5       	ldi	r31, 0x5C	; 92
     2f4:	00 e0       	ldi	r16, 0x00	; 0
     2f6:	0b bf       	out	0x3b, r16	; 59
     2f8:	02 c0       	rjmp	.+4      	; 0x2fe <__do_copy_data+0x14>
     2fa:	07 90       	elpm	r0, Z+
     2fc:	0d 92       	st	X+, r0
     2fe:	aa 3d       	cpi	r26, 0xDA	; 218
     300:	b1 07       	cpc	r27, r17
     302:	d9 f7       	brne	.-10     	; 0x2fa <__do_copy_data+0x10>

00000304 <__do_clear_bss>:
     304:	25 e4       	ldi	r18, 0x45	; 69
     306:	aa ed       	ldi	r26, 0xDA	; 218
     308:	b1 e4       	ldi	r27, 0x41	; 65
     30a:	01 c0       	rjmp	.+2      	; 0x30e <.do_clear_bss_start>

0000030c <.do_clear_bss_loop>:
     30c:	1d 92       	st	X+, r1

0000030e <.do_clear_bss_start>:
     30e:	a6 39       	cpi	r26, 0x96	; 150
     310:	b2 07       	cpc	r27, r18
     312:	e1 f7       	brne	.-8      	; 0x30c <.do_clear_bss_loop>

00000314 <__do_global_ctors>:
     314:	11 e0       	ldi	r17, 0x01	; 1
     316:	cb e6       	ldi	r28, 0x6B	; 107
     318:	d1 e0       	ldi	r29, 0x01	; 1
     31a:	04 c0       	rjmp	.+8      	; 0x324 <__do_global_ctors+0x10>
     31c:	21 97       	sbiw	r28, 0x01	; 1
     31e:	fe 01       	movw	r30, r28
     320:	0e 94 95 2c 	call	0x592a	; 0x592a <__tablejump2__>
     324:	c7 36       	cpi	r28, 0x67	; 103
     326:	d1 07       	cpc	r29, r17
     328:	c9 f7       	brne	.-14     	; 0x31c <__do_global_ctors+0x8>
     32a:	0e 94 ab 03 	call	0x756	; 0x756 <main>
     32e:	0c 94 55 2e 	jmp	0x5caa	; 0x5caa <__do_global_dtors>

00000332 <__bad_interrupt>:
     332:	0c 94 00 00 	jmp	0	; 0x0 <__vectors>

00000336 <_Z41__static_initialization_and_destruction_0ii>:

}
uint8_t LTC5548_HANDLER::Read_Index(void){
	
	return max_index;
}
     336:	0f 93       	push	r16
     338:	1f 93       	push	r17
     33a:	cf 93       	push	r28
     33c:	df 93       	push	r29
     33e:	ec 01       	movw	r28, r24
     340:	8b 01       	movw	r16, r22
     342:	01 97       	sbiw	r24, 0x01	; 1
     344:	79 f4       	brne	.+30     	; 0x364 <_Z41__static_initialization_and_destruction_0ii+0x2e>
     346:	6f 3f       	cpi	r22, 0xFF	; 255
     348:	7f 4f       	sbci	r23, 0xFF	; 255
     34a:	61 f4       	brne	.+24     	; 0x364 <_Z41__static_initialization_and_destruction_0ii+0x2e>
     34c:	8b e4       	ldi	r24, 0x4B	; 75
     34e:	93 e4       	ldi	r25, 0x43	; 67
     350:	0e 94 56 14 	call	0x28ac	; 0x28ac <_ZN15lmx2694_HandlerC1Ev>
     354:	86 ee       	ldi	r24, 0xE6	; 230
     356:	91 e4       	ldi	r25, 0x41	; 65
     358:	0e 94 f4 03 	call	0x7e8	; 0x7e8 <_ZN14ADF5610_DriverC1Ev>
     35c:	8a ed       	ldi	r24, 0xDA	; 218
     35e:	91 e4       	ldi	r25, 0x41	; 65
     360:	0e 94 62 23 	call	0x46c4	; 0x46c4 <_ZN18Zero_Cross_CounterC1Ev>
     364:	cd 2b       	or	r28, r29
     366:	79 f4       	brne	.+30     	; 0x386 <_Z41__static_initialization_and_destruction_0ii+0x50>
     368:	0f 3f       	cpi	r16, 0xFF	; 255
     36a:	1f 4f       	sbci	r17, 0xFF	; 255
     36c:	61 f4       	brne	.+24     	; 0x386 <_Z41__static_initialization_and_destruction_0ii+0x50>
     36e:	8a ed       	ldi	r24, 0xDA	; 218
     370:	91 e4       	ldi	r25, 0x41	; 65
     372:	0e 94 67 23 	call	0x46ce	; 0x46ce <_ZN18Zero_Cross_CounterD1Ev>
     376:	86 ee       	ldi	r24, 0xE6	; 230
     378:	91 e4       	ldi	r25, 0x41	; 65
     37a:	0e 94 95 04 	call	0x92a	; 0x92a <_ZN14ADF5610_DriverD1Ev>
     37e:	8b e4       	ldi	r24, 0x4B	; 75
     380:	93 e4       	ldi	r25, 0x43	; 67
     382:	0e 94 b5 14 	call	0x296a	; 0x296a <_ZN15lmx2694_HandlerD1Ev>
     386:	df 91       	pop	r29
     388:	cf 91       	pop	r28
     38a:	1f 91       	pop	r17
     38c:	0f 91       	pop	r16
     38e:	08 95       	ret

00000390 <_ZN15LTC5548_HANDLERC1Ev>:
     390:	fc 01       	movw	r30, r24
     392:	13 86       	std	Z+11, r1	; 0x0b
     394:	14 86       	std	Z+12, r1	; 0x0c
     396:	15 86       	std	Z+13, r1	; 0x0d
     398:	16 86       	std	Z+14, r1	; 0x0e
     39a:	17 86       	std	Z+15, r1	; 0x0f
     39c:	10 8a       	std	Z+16, r1	; 0x10
     39e:	11 8a       	std	Z+17, r1	; 0x11
     3a0:	12 8a       	std	Z+18, r1	; 0x12
     3a2:	13 8a       	std	Z+19, r1	; 0x13
     3a4:	14 8a       	std	Z+20, r1	; 0x14
     3a6:	15 8a       	std	Z+21, r1	; 0x15
     3a8:	16 8a       	std	Z+22, r1	; 0x16
     3aa:	17 8a       	std	Z+23, r1	; 0x17
     3ac:	10 8e       	std	Z+24, r1	; 0x18
     3ae:	11 8e       	std	Z+25, r1	; 0x19
     3b0:	12 8e       	std	Z+26, r1	; 0x1a
     3b2:	08 95       	ret

000003b4 <_ZN15LTC5548_HANDLERD1Ev>:
     3b4:	08 95       	ret

000003b6 <_ZN15LTC5548_HANDLER8Start_RFEv>:
     3b6:	cf 93       	push	r28
     3b8:	df 93       	push	r29
     3ba:	ec 01       	movw	r28, r24
     3bc:	88 81       	ld	r24, Y
     3be:	99 81       	ldd	r25, Y+1	; 0x01
     3c0:	0e 94 c2 14 	call	0x2984	; 0x2984 <_ZN15lmx2694_Handler4InitEv>
     3c4:	81 11       	cpse	r24, r1
     3c6:	0d c0       	rjmp	.+26     	; 0x3e2 <_ZN15LTC5548_HANDLER8Start_RFEv+0x2c>
     3c8:	2f ef       	ldi	r18, 0xFF	; 255
     3ca:	82 e5       	ldi	r24, 0x52	; 82
     3cc:	97 e0       	ldi	r25, 0x07	; 7
     3ce:	21 50       	subi	r18, 0x01	; 1
     3d0:	80 40       	sbci	r24, 0x00	; 0
     3d2:	90 40       	sbci	r25, 0x00	; 0
     3d4:	e1 f7       	brne	.-8      	; 0x3ce <_ZN15LTC5548_HANDLER8Start_RFEv+0x18>
     3d6:	00 c0       	rjmp	.+0      	; 0x3d8 <_ZN15LTC5548_HANDLER8Start_RFEv+0x22>
     3d8:	00 00       	nop
     3da:	86 b1       	in	r24, 0x06	; 6
     3dc:	88 60       	ori	r24, 0x08	; 8
     3de:	86 b9       	out	0x06, r24	; 6
     3e0:	ed cf       	rjmp	.-38     	; 0x3bc <_ZN15LTC5548_HANDLER8Start_RFEv+0x6>
     3e2:	81 e0       	ldi	r24, 0x01	; 1
     3e4:	df 91       	pop	r29
     3e6:	cf 91       	pop	r28
     3e8:	08 95       	ret

000003ea <_ZN15LTC5548_HANDLER8Start_LOEv>:
     3ea:	cf 93       	push	r28
     3ec:	df 93       	push	r29
     3ee:	ec 01       	movw	r28, r24
     3f0:	8a 81       	ldd	r24, Y+2	; 0x02
     3f2:	9b 81       	ldd	r25, Y+3	; 0x03
     3f4:	0e 94 a2 04 	call	0x944	; 0x944 <_ZN14ADF5610_Driver4InitEv>
     3f8:	81 11       	cpse	r24, r1
     3fa:	0d c0       	rjmp	.+26     	; 0x416 <__LOCK_REGION_LENGTH__+0x16>
     3fc:	2f ef       	ldi	r18, 0xFF	; 255
     3fe:	82 e5       	ldi	r24, 0x52	; 82
     400:	97 e0       	ldi	r25, 0x07	; 7
     402:	21 50       	subi	r18, 0x01	; 1
     404:	80 40       	sbci	r24, 0x00	; 0
     406:	90 40       	sbci	r25, 0x00	; 0
     408:	e1 f7       	brne	.-8      	; 0x402 <__LOCK_REGION_LENGTH__+0x2>
     40a:	00 c0       	rjmp	.+0      	; 0x40c <__LOCK_REGION_LENGTH__+0xc>
     40c:	00 00       	nop
     40e:	86 b1       	in	r24, 0x06	; 6
     410:	88 60       	ori	r24, 0x08	; 8
     412:	86 b9       	out	0x06, r24	; 6
     414:	ed cf       	rjmp	.-38     	; 0x3f0 <_ZN15LTC5548_HANDLER8Start_LOEv+0x6>
     416:	81 e0       	ldi	r24, 0x01	; 1
     418:	df 91       	pop	r29
     41a:	cf 91       	pop	r28
     41c:	08 95       	ret

0000041e <_ZN15LTC5548_HANDLER10Set_EnableEb>:
     41e:	fc 01       	movw	r30, r24
     420:	66 83       	std	Z+6, r22	; 0x06
     422:	66 23       	and	r22, r22
     424:	21 f0       	breq	.+8      	; 0x42e <_ZN15LTC5548_HANDLER10Set_EnableEb+0x10>
     426:	8d b1       	in	r24, 0x0d	; 13
     428:	84 60       	ori	r24, 0x04	; 4
     42a:	8d b9       	out	0x0d, r24	; 13
     42c:	03 c0       	rjmp	.+6      	; 0x434 <_ZN15LTC5548_HANDLER10Set_EnableEb+0x16>
     42e:	8d b1       	in	r24, 0x0d	; 13
     430:	8b 7f       	andi	r24, 0xFB	; 251
     432:	8d b9       	out	0x0d, r24	; 13
     434:	86 2f       	mov	r24, r22
     436:	08 95       	ret

00000438 <_ZN15LTC5548_HANDLER11Start_MixerEv>:
     438:	cf 93       	push	r28
     43a:	df 93       	push	r29
     43c:	ec 01       	movw	r28, r24
     43e:	0e 94 f5 01 	call	0x3ea	; 0x3ea <_ZN15LTC5548_HANDLER8Start_LOEv>
     442:	88 23       	and	r24, r24
     444:	09 f4       	brne	.+2      	; 0x448 <_ZN15LTC5548_HANDLER11Start_MixerEv+0x10>
     446:	4f c0       	rjmp	.+158    	; 0x4e6 <_ZN15LTC5548_HANDLER11Start_MixerEv+0xae>
     448:	40 e0       	ldi	r20, 0x00	; 0
     44a:	50 e0       	ldi	r21, 0x00	; 0
     44c:	61 e6       	ldi	r22, 0x61	; 97
     44e:	75 e4       	ldi	r23, 0x45	; 69
     450:	8a 81       	ldd	r24, Y+2	; 0x02
     452:	9b 81       	ldd	r25, Y+3	; 0x03
     454:	0e 94 ae 05 	call	0xb5c	; 0xb5c <_ZN14ADF5610_Driver20Set_Target_FrequencyEf>
     458:	8a 81       	ldd	r24, Y+2	; 0x02
     45a:	9b 81       	ldd	r25, Y+3	; 0x03
     45c:	0e 94 a0 06 	call	0xd40	; 0xd40 <_ZN14ADF5610_Driver9Is_LockedEv>
     460:	81 11       	cpse	r24, r1
     462:	12 c0       	rjmp	.+36     	; 0x488 <_ZN15LTC5548_HANDLER11Start_MixerEv+0x50>
     464:	2f ef       	ldi	r18, 0xFF	; 255
     466:	82 e5       	ldi	r24, 0x52	; 82
     468:	97 e0       	ldi	r25, 0x07	; 7
     46a:	21 50       	subi	r18, 0x01	; 1
     46c:	80 40       	sbci	r24, 0x00	; 0
     46e:	90 40       	sbci	r25, 0x00	; 0
     470:	e1 f7       	brne	.-8      	; 0x46a <_ZN15LTC5548_HANDLER11Start_MixerEv+0x32>
     472:	00 c0       	rjmp	.+0      	; 0x474 <_ZN15LTC5548_HANDLER11Start_MixerEv+0x3c>
     474:	00 00       	nop
     476:	40 e0       	ldi	r20, 0x00	; 0
     478:	50 e0       	ldi	r21, 0x00	; 0
     47a:	61 e6       	ldi	r22, 0x61	; 97
     47c:	75 e4       	ldi	r23, 0x45	; 69
     47e:	8a 81       	ldd	r24, Y+2	; 0x02
     480:	9b 81       	ldd	r25, Y+3	; 0x03
     482:	0e 94 ae 05 	call	0xb5c	; 0xb5c <_ZN14ADF5610_Driver20Set_Target_FrequencyEf>
     486:	e8 cf       	rjmp	.-48     	; 0x458 <_ZN15LTC5548_HANDLER11Start_MixerEv+0x20>
     488:	ce 01       	movw	r24, r28
     48a:	0e 94 db 01 	call	0x3b6	; 0x3b6 <_ZN15LTC5548_HANDLER8Start_RFEv>
     48e:	88 23       	and	r24, r24
     490:	29 f1       	breq	.+74     	; 0x4dc <_ZN15LTC5548_HANDLER11Start_MixerEv+0xa4>
     492:	40 e0       	ldi	r20, 0x00	; 0
     494:	50 e0       	ldi	r21, 0x00	; 0
     496:	61 e6       	ldi	r22, 0x61	; 97
     498:	75 e4       	ldi	r23, 0x45	; 69
     49a:	88 81       	ld	r24, Y
     49c:	99 81       	ldd	r25, Y+1	; 0x01
     49e:	0e 94 96 18 	call	0x312c	; 0x312c <_ZN15lmx2694_Handler20Set_Target_FrequencyEf>
     4a2:	88 81       	ld	r24, Y
     4a4:	99 81       	ldd	r25, Y+1	; 0x01
     4a6:	0e 94 dd 15 	call	0x2bba	; 0x2bba <_ZN15lmx2694_Handler9Is_LockedEv>
     4aa:	81 11       	cpse	r24, r1
     4ac:	12 c0       	rjmp	.+36     	; 0x4d2 <_ZN15LTC5548_HANDLER11Start_MixerEv+0x9a>
     4ae:	2f ef       	ldi	r18, 0xFF	; 255
     4b0:	82 e5       	ldi	r24, 0x52	; 82
     4b2:	97 e0       	ldi	r25, 0x07	; 7
     4b4:	21 50       	subi	r18, 0x01	; 1
     4b6:	80 40       	sbci	r24, 0x00	; 0
     4b8:	90 40       	sbci	r25, 0x00	; 0
     4ba:	e1 f7       	brne	.-8      	; 0x4b4 <_ZN15LTC5548_HANDLER11Start_MixerEv+0x7c>
     4bc:	00 c0       	rjmp	.+0      	; 0x4be <_ZN15LTC5548_HANDLER11Start_MixerEv+0x86>
     4be:	00 00       	nop
     4c0:	40 e0       	ldi	r20, 0x00	; 0
     4c2:	50 e0       	ldi	r21, 0x00	; 0
     4c4:	61 e6       	ldi	r22, 0x61	; 97
     4c6:	75 e4       	ldi	r23, 0x45	; 69
     4c8:	88 81       	ld	r24, Y
     4ca:	99 81       	ldd	r25, Y+1	; 0x01
     4cc:	0e 94 96 18 	call	0x312c	; 0x312c <_ZN15lmx2694_Handler20Set_Target_FrequencyEf>
     4d0:	e8 cf       	rjmp	.-48     	; 0x4a2 <_ZN15LTC5548_HANDLER11Start_MixerEv+0x6a>
     4d2:	61 e0       	ldi	r22, 0x01	; 1
     4d4:	ce 01       	movw	r24, r28
     4d6:	0e 94 0f 02 	call	0x41e	; 0x41e <_ZN15LTC5548_HANDLER10Set_EnableEb>
     4da:	09 c0       	rjmp	.+18     	; 0x4ee <_ZN15LTC5548_HANDLER11Start_MixerEv+0xb6>
     4dc:	60 e0       	ldi	r22, 0x00	; 0
     4de:	ce 01       	movw	r24, r28
     4e0:	0e 94 0f 02 	call	0x41e	; 0x41e <_ZN15LTC5548_HANDLER10Set_EnableEb>
     4e4:	04 c0       	rjmp	.+8      	; 0x4ee <_ZN15LTC5548_HANDLER11Start_MixerEv+0xb6>
     4e6:	60 e0       	ldi	r22, 0x00	; 0
     4e8:	ce 01       	movw	r24, r28
     4ea:	0e 94 0f 02 	call	0x41e	; 0x41e <_ZN15LTC5548_HANDLER10Set_EnableEb>
     4ee:	8e 81       	ldd	r24, Y+6	; 0x06
     4f0:	df 91       	pop	r29
     4f2:	cf 91       	pop	r28
     4f4:	08 95       	ret

000004f6 <_ZN15LTC5548_HANDLER4InitEv>:
     4f6:	cf 93       	push	r28
     4f8:	df 93       	push	r29
     4fa:	ec 01       	movw	r28, r24
     4fc:	60 e0       	ldi	r22, 0x00	; 0
     4fe:	0e 94 0f 02 	call	0x41e	; 0x41e <_ZN15LTC5548_HANDLER10Set_EnableEb>
     502:	8b e4       	ldi	r24, 0x4B	; 75
     504:	93 e4       	ldi	r25, 0x43	; 67
     506:	88 83       	st	Y, r24
     508:	99 83       	std	Y+1, r25	; 0x01
     50a:	86 ee       	ldi	r24, 0xE6	; 230
     50c:	91 e4       	ldi	r25, 0x41	; 65
     50e:	8a 83       	std	Y+2, r24	; 0x02
     510:	9b 83       	std	Y+3, r25	; 0x03
     512:	8a ed       	ldi	r24, 0xDA	; 218
     514:	91 e4       	ldi	r25, 0x41	; 65
     516:	8c 83       	std	Y+4, r24	; 0x04
     518:	9d 83       	std	Y+5, r25	; 0x05
     51a:	ce 01       	movw	r24, r28
     51c:	0e 94 1c 02 	call	0x438	; 0x438 <_ZN15LTC5548_HANDLER11Start_MixerEv>
     520:	8c 81       	ldd	r24, Y+4	; 0x04
     522:	9d 81       	ldd	r25, Y+5	; 0x05
     524:	0e 94 81 23 	call	0x4702	; 0x4702 <_ZN18Zero_Cross_Counter4InitEv>
     528:	9e 81       	ldd	r25, Y+6	; 0x06
     52a:	81 e0       	ldi	r24, 0x01	; 1
     52c:	89 27       	eor	r24, r25
     52e:	df 91       	pop	r29
     530:	cf 91       	pop	r28
     532:	08 95       	ret

00000534 <_ZN15LTC5548_HANDLER21Read_Frequency_ValuesEv>:
     534:	0f 93       	push	r16
     536:	1f 93       	push	r17
     538:	cf 93       	push	r28
     53a:	df 93       	push	r29
     53c:	ec 01       	movw	r28, r24
     53e:	0c 81       	ldd	r16, Y+4	; 0x04
     540:	1d 81       	ldd	r17, Y+5	; 0x05
     542:	f8 01       	movw	r30, r16
     544:	85 81       	ldd	r24, Z+5	; 0x05
     546:	96 81       	ldd	r25, Z+6	; 0x06
     548:	89 2b       	or	r24, r25
     54a:	71 f0       	breq	.+28     	; 0x568 <_ZN15LTC5548_HANDLER21Read_Frequency_ValuesEv+0x34>
     54c:	25 81       	ldd	r18, Z+5	; 0x05
     54e:	36 81       	ldd	r19, Z+6	; 0x06
     550:	40 e0       	ldi	r20, 0x00	; 0
     552:	50 e0       	ldi	r21, 0x00	; 0
     554:	60 e0       	ldi	r22, 0x00	; 0
     556:	76 e3       	ldi	r23, 0x36	; 54
     558:	8e e6       	ldi	r24, 0x6E	; 110
     55a:	91 e0       	ldi	r25, 0x01	; 1
     55c:	0e 94 76 2c 	call	0x58ec	; 0x58ec <__divmodsi4>
     560:	2f 8b       	std	Y+23, r18	; 0x17
     562:	38 8f       	std	Y+24, r19	; 0x18
     564:	49 8f       	std	Y+25, r20	; 0x19
     566:	5a 8f       	std	Y+26, r21	; 0x1a
     568:	4f 85       	ldd	r20, Y+15	; 0x0f
     56a:	58 89       	ldd	r21, Y+16	; 0x10
     56c:	69 89       	ldd	r22, Y+17	; 0x11
     56e:	7a 89       	ldd	r23, Y+18	; 0x12
     570:	8f 89       	ldd	r24, Y+23	; 0x17
     572:	98 8d       	ldd	r25, Y+24	; 0x18
     574:	a9 8d       	ldd	r26, Y+25	; 0x19
     576:	ba 8d       	ldd	r27, Y+26	; 0x1a
     578:	48 17       	cp	r20, r24
     57a:	59 07       	cpc	r21, r25
     57c:	6a 07       	cpc	r22, r26
     57e:	7b 07       	cpc	r23, r27
     580:	c9 f0       	breq	.+50     	; 0x5b4 <_ZN15LTC5548_HANDLER21Read_Frequency_ValuesEv+0x80>
     582:	f8 01       	movw	r30, r16
     584:	25 81       	ldd	r18, Z+5	; 0x05
     586:	36 81       	ldd	r19, Z+6	; 0x06
     588:	23 2b       	or	r18, r19
     58a:	a1 f0       	breq	.+40     	; 0x5b4 <_ZN15LTC5548_HANDLER21Read_Frequency_ValuesEv+0x80>
     58c:	8f 87       	std	Y+15, r24	; 0x0f
     58e:	98 8b       	std	Y+16, r25	; 0x10
     590:	a9 8b       	std	Y+17, r26	; 0x11
     592:	ba 8b       	std	Y+18, r27	; 0x12
     594:	bf 93       	push	r27
     596:	af 93       	push	r26
     598:	9f 93       	push	r25
     59a:	8f 93       	push	r24
     59c:	82 ea       	ldi	r24, 0xA2	; 162
     59e:	90 e4       	ldi	r25, 0x40	; 64
     5a0:	9f 93       	push	r25
     5a2:	8f 93       	push	r24
     5a4:	0e 94 e3 2d 	call	0x5bc6	; 0x5bc6 <printf>
     5a8:	0f 90       	pop	r0
     5aa:	0f 90       	pop	r0
     5ac:	0f 90       	pop	r0
     5ae:	0f 90       	pop	r0
     5b0:	0f 90       	pop	r0
     5b2:	0f 90       	pop	r0
     5b4:	0c 81       	ldd	r16, Y+4	; 0x04
     5b6:	1d 81       	ldd	r17, Y+5	; 0x05
     5b8:	f8 01       	movw	r30, r16
     5ba:	83 81       	ldd	r24, Z+3	; 0x03
     5bc:	94 81       	ldd	r25, Z+4	; 0x04
     5be:	89 2b       	or	r24, r25
     5c0:	71 f0       	breq	.+28     	; 0x5de <_ZN15LTC5548_HANDLER21Read_Frequency_ValuesEv+0xaa>
     5c2:	23 81       	ldd	r18, Z+3	; 0x03
     5c4:	34 81       	ldd	r19, Z+4	; 0x04
     5c6:	40 e0       	ldi	r20, 0x00	; 0
     5c8:	50 e0       	ldi	r21, 0x00	; 0
     5ca:	60 e0       	ldi	r22, 0x00	; 0
     5cc:	76 e3       	ldi	r23, 0x36	; 54
     5ce:	8e e6       	ldi	r24, 0x6E	; 110
     5d0:	91 e0       	ldi	r25, 0x01	; 1
     5d2:	0e 94 76 2c 	call	0x58ec	; 0x58ec <__divmodsi4>
     5d6:	2b 8b       	std	Y+19, r18	; 0x13
     5d8:	3c 8b       	std	Y+20, r19	; 0x14
     5da:	4d 8b       	std	Y+21, r20	; 0x15
     5dc:	5e 8b       	std	Y+22, r21	; 0x16
     5de:	4b 85       	ldd	r20, Y+11	; 0x0b
     5e0:	5c 85       	ldd	r21, Y+12	; 0x0c
     5e2:	6d 85       	ldd	r22, Y+13	; 0x0d
     5e4:	7e 85       	ldd	r23, Y+14	; 0x0e
     5e6:	8b 89       	ldd	r24, Y+19	; 0x13
     5e8:	9c 89       	ldd	r25, Y+20	; 0x14
     5ea:	ad 89       	ldd	r26, Y+21	; 0x15
     5ec:	be 89       	ldd	r27, Y+22	; 0x16
     5ee:	48 17       	cp	r20, r24
     5f0:	59 07       	cpc	r21, r25
     5f2:	6a 07       	cpc	r22, r26
     5f4:	7b 07       	cpc	r23, r27
     5f6:	c9 f0       	breq	.+50     	; 0x62a <_ZN15LTC5548_HANDLER21Read_Frequency_ValuesEv+0xf6>
     5f8:	f8 01       	movw	r30, r16
     5fa:	23 81       	ldd	r18, Z+3	; 0x03
     5fc:	34 81       	ldd	r19, Z+4	; 0x04
     5fe:	23 2b       	or	r18, r19
     600:	a1 f0       	breq	.+40     	; 0x62a <_ZN15LTC5548_HANDLER21Read_Frequency_ValuesEv+0xf6>
     602:	8b 87       	std	Y+11, r24	; 0x0b
     604:	9c 87       	std	Y+12, r25	; 0x0c
     606:	ad 87       	std	Y+13, r26	; 0x0d
     608:	be 87       	std	Y+14, r27	; 0x0e
     60a:	bf 93       	push	r27
     60c:	af 93       	push	r26
     60e:	9f 93       	push	r25
     610:	8f 93       	push	r24
     612:	8c eb       	ldi	r24, 0xBC	; 188
     614:	90 e4       	ldi	r25, 0x40	; 64
     616:	9f 93       	push	r25
     618:	8f 93       	push	r24
     61a:	0e 94 e3 2d 	call	0x5bc6	; 0x5bc6 <printf>
     61e:	0f 90       	pop	r0
     620:	0f 90       	pop	r0
     622:	0f 90       	pop	r0
     624:	0f 90       	pop	r0
     626:	0f 90       	pop	r0
     628:	0f 90       	pop	r0
     62a:	df 91       	pop	r29
     62c:	cf 91       	pop	r28
     62e:	1f 91       	pop	r17
     630:	0f 91       	pop	r16
     632:	08 95       	ret

00000634 <_ZN15LTC5548_HANDLER11Check_MixerEv>:
bool LTC5548_HANDLER::Check_Mixer(void){
     634:	cf 93       	push	r28
     636:	df 93       	push	r29
     638:	ec 01       	movw	r28, r24
	if(enable){
     63a:	8e 81       	ldd	r24, Y+6	; 0x06
     63c:	88 23       	and	r24, r24
     63e:	01 f1       	breq	.+64     	; 0x680 <_ZN15LTC5548_HANDLER11Check_MixerEv+0x4c>
		if(adf->Is_Locked()){
     640:	8a 81       	ldd	r24, Y+2	; 0x02
     642:	9b 81       	ldd	r25, Y+3	; 0x03
     644:	0e 94 a0 06 	call	0xd40	; 0xd40 <_ZN14ADF5610_Driver9Is_LockedEv>
     648:	81 11       	cpse	r24, r1
     64a:	3a c0       	rjmp	.+116    	; 0x6c0 <_ZN15LTC5548_HANDLER11Check_MixerEv+0x8c>
		//	printf("adf frequency : %f \n\r", lmx->current_frequency);
		}else{
			Set_Enable(false);
     64c:	60 e0       	ldi	r22, 0x00	; 0
     64e:	ce 01       	movw	r24, r28
     650:	0e 94 0f 02 	call	0x41e	; 0x41e <_ZN15LTC5548_HANDLER10Set_EnableEb>
			adf->Init();
     654:	8a 81       	ldd	r24, Y+2	; 0x02
     656:	9b 81       	ldd	r25, Y+3	; 0x03
     658:	0e 94 a2 04 	call	0x944	; 0x944 <_ZN14ADF5610_Driver4InitEv>
			adf->Set_Target_Frequency(CENTER_FREQUENCY);
     65c:	40 e0       	ldi	r20, 0x00	; 0
     65e:	50 e0       	ldi	r21, 0x00	; 0
     660:	61 e6       	ldi	r22, 0x61	; 97
     662:	75 e4       	ldi	r23, 0x45	; 69
     664:	8a 81       	ldd	r24, Y+2	; 0x02
     666:	9b 81       	ldd	r25, Y+3	; 0x03
     668:	0e 94 ae 05 	call	0xb5c	; 0xb5c <_ZN14ADF5610_Driver20Set_Target_FrequencyEf>
	#else
		//round up by default
		__ticks_dc = (uint32_t)(ceil(fabs(__tmp)));
	#endif

	__builtin_avr_delay_cycles(__ticks_dc);
     66c:	2f ef       	ldi	r18, 0xFF	; 255
     66e:	82 e5       	ldi	r24, 0x52	; 82
     670:	97 e0       	ldi	r25, 0x07	; 7
     672:	21 50       	subi	r18, 0x01	; 1
     674:	80 40       	sbci	r24, 0x00	; 0
     676:	90 40       	sbci	r25, 0x00	; 0
     678:	e1 f7       	brne	.-8      	; 0x672 <_ZN15LTC5548_HANDLER11Check_MixerEv+0x3e>
     67a:	00 c0       	rjmp	.+0      	; 0x67c <_ZN15LTC5548_HANDLER11Check_MixerEv+0x48>
     67c:	00 00       	nop
     67e:	20 c0       	rjmp	.+64     	; 0x6c0 <_ZN15LTC5548_HANDLER11Check_MixerEv+0x8c>
			_delay_ms(100);
		}
	}else{
		if (adf->Is_Locked())
     680:	8a 81       	ldd	r24, Y+2	; 0x02
     682:	9b 81       	ldd	r25, Y+3	; 0x03
     684:	0e 94 a0 06 	call	0xd40	; 0xd40 <_ZN14ADF5610_Driver9Is_LockedEv>
     688:	88 23       	and	r24, r24
     68a:	29 f0       	breq	.+10     	; 0x696 <_ZN15LTC5548_HANDLER11Check_MixerEv+0x62>
		{
			Set_Enable(true);
     68c:	61 e0       	ldi	r22, 0x01	; 1
     68e:	ce 01       	movw	r24, r28
     690:	0e 94 0f 02 	call	0x41e	; 0x41e <_ZN15LTC5548_HANDLER10Set_EnableEb>
     694:	15 c0       	rjmp	.+42     	; 0x6c0 <_ZN15LTC5548_HANDLER11Check_MixerEv+0x8c>
		} 
		else
		{
			adf->Init();
     696:	8a 81       	ldd	r24, Y+2	; 0x02
     698:	9b 81       	ldd	r25, Y+3	; 0x03
     69a:	0e 94 a2 04 	call	0x944	; 0x944 <_ZN14ADF5610_Driver4InitEv>
			adf->Set_Target_Frequency(CENTER_FREQUENCY);
     69e:	40 e0       	ldi	r20, 0x00	; 0
     6a0:	50 e0       	ldi	r21, 0x00	; 0
     6a2:	61 e6       	ldi	r22, 0x61	; 97
     6a4:	75 e4       	ldi	r23, 0x45	; 69
     6a6:	8a 81       	ldd	r24, Y+2	; 0x02
     6a8:	9b 81       	ldd	r25, Y+3	; 0x03
     6aa:	0e 94 ae 05 	call	0xb5c	; 0xb5c <_ZN14ADF5610_Driver20Set_Target_FrequencyEf>
     6ae:	2f ef       	ldi	r18, 0xFF	; 255
     6b0:	82 e5       	ldi	r24, 0x52	; 82
     6b2:	97 e0       	ldi	r25, 0x07	; 7
     6b4:	21 50       	subi	r18, 0x01	; 1
     6b6:	80 40       	sbci	r24, 0x00	; 0
     6b8:	90 40       	sbci	r25, 0x00	; 0
     6ba:	e1 f7       	brne	.-8      	; 0x6b4 <_ZN15LTC5548_HANDLER11Check_MixerEv+0x80>
     6bc:	00 c0       	rjmp	.+0      	; 0x6be <_ZN15LTC5548_HANDLER11Check_MixerEv+0x8a>
     6be:	00 00       	nop
			_delay_ms(100);
		}
		
	}
	return enable;
}
     6c0:	8e 81       	ldd	r24, Y+6	; 0x06
     6c2:	df 91       	pop	r29
     6c4:	cf 91       	pop	r28
     6c6:	08 95       	ret

000006c8 <_GLOBAL__sub_I__ZN15LTC5548_HANDLERC2Ev>:
     6c8:	6f ef       	ldi	r22, 0xFF	; 255
     6ca:	7f ef       	ldi	r23, 0xFF	; 255
     6cc:	81 e0       	ldi	r24, 0x01	; 1
     6ce:	90 e0       	ldi	r25, 0x00	; 0
     6d0:	0e 94 9b 01 	call	0x336	; 0x336 <_Z41__static_initialization_and_destruction_0ii>
     6d4:	08 95       	ret

000006d6 <_GLOBAL__sub_D__ZN15LTC5548_HANDLERC2Ev>:
     6d6:	6f ef       	ldi	r22, 0xFF	; 255
     6d8:	7f ef       	ldi	r23, 0xFF	; 255
     6da:	80 e0       	ldi	r24, 0x00	; 0
     6dc:	90 e0       	ldi	r25, 0x00	; 0
     6de:	0e 94 9b 01 	call	0x336	; 0x336 <_Z41__static_initialization_and_destruction_0ii>
     6e2:	08 95       	ret

000006e4 <_Z41__static_initialization_and_destruction_0ii>:
		//	DISABLE_INTERRUPTS();
		//ltc.lmx->Keep_Woobling();
		ltc.Check_Mixer();
		
    }
}
     6e4:	0f 93       	push	r16
     6e6:	1f 93       	push	r17
     6e8:	cf 93       	push	r28
     6ea:	df 93       	push	r29
     6ec:	ec 01       	movw	r28, r24
     6ee:	8b 01       	movw	r16, r22
     6f0:	01 97       	sbiw	r24, 0x01	; 1
     6f2:	39 f4       	brne	.+14     	; 0x702 <_Z41__static_initialization_and_destruction_0ii+0x1e>
     6f4:	6f 3f       	cpi	r22, 0xFF	; 255
     6f6:	7f 4f       	sbci	r23, 0xFF	; 255
     6f8:	21 f4       	brne	.+8      	; 0x702 <_Z41__static_initialization_and_destruction_0ii+0x1e>
#include <avr/interrupt.h>
#include <util/delay.h>

#include "LTC5548HANDLER.h"

static LTC5548_HANDLER	ltc;
     6fa:	83 e9       	ldi	r24, 0x93	; 147
     6fc:	93 e4       	ldi	r25, 0x43	; 67
     6fe:	0e 94 c8 01 	call	0x390	; 0x390 <_ZN15LTC5548_HANDLERC1Ev>
     702:	cd 2b       	or	r28, r29
     704:	39 f4       	brne	.+14     	; 0x714 <_Z41__static_initialization_and_destruction_0ii+0x30>
     706:	0f 3f       	cpi	r16, 0xFF	; 255
     708:	1f 4f       	sbci	r17, 0xFF	; 255
     70a:	21 f4       	brne	.+8      	; 0x714 <_Z41__static_initialization_and_destruction_0ii+0x30>
     70c:	83 e9       	ldi	r24, 0x93	; 147
     70e:	93 e4       	ldi	r25, 0x43	; 67
     710:	0e 94 da 01 	call	0x3b4	; 0x3b4 <_ZN15LTC5548_HANDLERD1Ev>
		//	DISABLE_INTERRUPTS();
		//ltc.lmx->Keep_Woobling();
		ltc.Check_Mixer();
		
    }
}
     714:	df 91       	pop	r29
     716:	cf 91       	pop	r28
     718:	1f 91       	pop	r17
     71a:	0f 91       	pop	r16
     71c:	08 95       	ret

0000071e <_Z10RTC_enablev>:
static LTC5548_HANDLER	ltc;

void RTC_enable(void)
{
	// Wait for RTC CTRLA to be unsynchronized
	while (RTC.STATUS & RTC_CTRLABUSY_bm) {
     71e:	80 91 41 01 	lds	r24, 0x0141	; 0x800141 <__TEXT_REGION_LENGTH__+0x7e0141>
     722:	80 fd       	sbrc	r24, 0
     724:	fc cf       	rjmp	.-8      	; 0x71e <_Z10RTC_enablev>
	}

	// Enable RTC
	RTC.CTRLA |= RTC_RTCEN_bm;
     726:	e0 e4       	ldi	r30, 0x40	; 64
     728:	f1 e0       	ldi	r31, 0x01	; 1
     72a:	80 81       	ld	r24, Z
     72c:	81 60       	ori	r24, 0x01	; 1
     72e:	80 83       	st	Z, r24
     730:	08 95       	ret

00000732 <__vector_5>:
}

ISR(RTC_CNT_vect)
{
     732:	1f 92       	push	r1
     734:	0f 92       	push	r0
     736:	0f b6       	in	r0, 0x3f	; 63
     738:	0f 92       	push	r0
     73a:	11 24       	eor	r1, r1
     73c:	8f 93       	push	r24
 *
 * \param[in] pin       The pin number within port
 */
static inline void PORTB_toggle_pin_level(const uint8_t pin)
{
	VPORTB.IN |= 1 << pin;
     73e:	86 b1       	in	r24, 0x06	; 6
     740:	88 60       	ori	r24, 0x08	; 8
     742:	86 b9       	out	0x06, r24	; 6
	/* Toggle LED0 */
	LED0_toggle_level();

	/* Overflow interrupt flag has to be cleared manually */
	RTC.INTFLAGS = RTC_OVF_bm;
     744:	81 e0       	ldi	r24, 0x01	; 1
     746:	80 93 43 01 	sts	0x0143, r24	; 0x800143 <__TEXT_REGION_LENGTH__+0x7e0143>
}
     74a:	8f 91       	pop	r24
     74c:	0f 90       	pop	r0
     74e:	0f be       	out	0x3f, r0	; 63
     750:	0f 90       	pop	r0
     752:	1f 90       	pop	r1
     754:	18 95       	reti

00000756 <main>:


int main(void)
{
	atmel_start_init();
     756:	0e 94 54 12 	call	0x24a8	; 0x24a8 <atmel_start_init>

	RTC_enable();
     75a:	0e 94 8f 03 	call	0x71e	; 0x71e <_Z10RTC_enablev>
	
	ltc.Init();
     75e:	83 e9       	ldi	r24, 0x93	; 147
     760:	93 e4       	ldi	r25, 0x43	; 67
     762:	0e 94 7b 02 	call	0x4f6	; 0x4f6 <_ZN15LTC5548_HANDLER4InitEv>
	
ENABLE_INTERRUPTS();
     766:	78 94       	sei
    /* Replace with your application code */
    while (1) 
    {
			
		ltc.Read_Frequency_Values();
     768:	83 e9       	ldi	r24, 0x93	; 147
     76a:	93 e4       	ldi	r25, 0x43	; 67
     76c:	0e 94 9a 02 	call	0x534	; 0x534 <_ZN15LTC5548_HANDLER21Read_Frequency_ValuesEv>
		//	DISABLE_INTERRUPTS();
		//ltc.lmx->Keep_Woobling();
		ltc.Check_Mixer();
     770:	83 e9       	ldi	r24, 0x93	; 147
     772:	93 e4       	ldi	r25, 0x43	; 67
     774:	0e 94 1a 03 	call	0x634	; 0x634 <_ZN15LTC5548_HANDLER11Check_MixerEv>
     778:	f7 cf       	rjmp	.-18     	; 0x768 <main+0x12>

0000077a <_GLOBAL__sub_I__Z10RTC_enablev>:
		
    }
}
     77a:	6f ef       	ldi	r22, 0xFF	; 255
     77c:	7f ef       	ldi	r23, 0xFF	; 255
     77e:	81 e0       	ldi	r24, 0x01	; 1
     780:	90 e0       	ldi	r25, 0x00	; 0
     782:	0e 94 72 03 	call	0x6e4	; 0x6e4 <_Z41__static_initialization_and_destruction_0ii>
     786:	08 95       	ret

00000788 <_GLOBAL__sub_D__Z10RTC_enablev>:
     788:	6f ef       	ldi	r22, 0xFF	; 255
     78a:	7f ef       	ldi	r23, 0xFF	; 255
     78c:	80 e0       	ldi	r24, 0x00	; 0
     78e:	90 e0       	ldi	r25, 0x00	; 0
     790:	0e 94 72 03 	call	0x6e4	; 0x6e4 <_Z41__static_initialization_and_destruction_0ii>
     794:	08 95       	ret

00000796 <PORTA_get_pin_level>:
			usleep(10000);
		
			return false;
		}
	
}
     796:	cf 93       	push	r28
     798:	df 93       	push	r29
     79a:	1f 92       	push	r1
     79c:	cd b7       	in	r28, 0x3d	; 61
     79e:	de b7       	in	r29, 0x3e	; 62
     7a0:	89 83       	std	Y+1, r24	; 0x01
     7a2:	80 e0       	ldi	r24, 0x00	; 0
     7a4:	90 e0       	ldi	r25, 0x00	; 0
     7a6:	fc 01       	movw	r30, r24
     7a8:	82 81       	ldd	r24, Z+2	; 0x02
     7aa:	88 2f       	mov	r24, r24
     7ac:	90 e0       	ldi	r25, 0x00	; 0
     7ae:	29 81       	ldd	r18, Y+1	; 0x01
     7b0:	22 2f       	mov	r18, r18
     7b2:	30 e0       	ldi	r19, 0x00	; 0
     7b4:	02 c0       	rjmp	.+4      	; 0x7ba <PORTA_get_pin_level+0x24>
     7b6:	95 95       	asr	r25
     7b8:	87 95       	ror	r24
     7ba:	2a 95       	dec	r18
     7bc:	e2 f7       	brpl	.-8      	; 0x7b6 <PORTA_get_pin_level+0x20>
     7be:	81 70       	andi	r24, 0x01	; 1
     7c0:	99 27       	eor	r25, r25
     7c2:	21 e0       	ldi	r18, 0x01	; 1
     7c4:	89 2b       	or	r24, r25
     7c6:	09 f4       	brne	.+2      	; 0x7ca <PORTA_get_pin_level+0x34>
     7c8:	20 e0       	ldi	r18, 0x00	; 0
     7ca:	82 2f       	mov	r24, r18
     7cc:	0f 90       	pop	r0
     7ce:	df 91       	pop	r29
     7d0:	cf 91       	pop	r28
     7d2:	08 95       	ret

000007d4 <CS_ADF_get_level>:
     7d4:	cf 93       	push	r28
     7d6:	df 93       	push	r29
     7d8:	cd b7       	in	r28, 0x3d	; 61
     7da:	de b7       	in	r29, 0x3e	; 62
     7dc:	87 e0       	ldi	r24, 0x07	; 7
     7de:	0e 94 cb 03 	call	0x796	; 0x796 <PORTA_get_pin_level>
     7e2:	df 91       	pop	r29
     7e4:	cf 91       	pop	r28
     7e6:	08 95       	ret

000007e8 <_ZN14ADF5610_DriverC1Ev>:
     7e8:	cf 93       	push	r28
     7ea:	df 93       	push	r29
     7ec:	00 d0       	rcall	.+0      	; 0x7ee <_ZN14ADF5610_DriverC1Ev+0x6>
     7ee:	cd b7       	in	r28, 0x3d	; 61
     7f0:	de b7       	in	r29, 0x3e	; 62
     7f2:	89 83       	std	Y+1, r24	; 0x01
     7f4:	9a 83       	std	Y+2, r25	; 0x02
     7f6:	29 81       	ldd	r18, Y+1	; 0x01
     7f8:	3a 81       	ldd	r19, Y+2	; 0x02
     7fa:	80 e0       	ldi	r24, 0x00	; 0
     7fc:	90 e0       	ldi	r25, 0x00	; 0
     7fe:	a1 e6       	ldi	r26, 0x61	; 97
     800:	b5 e4       	ldi	r27, 0x45	; 69
     802:	f9 01       	movw	r30, r18
     804:	80 83       	st	Z, r24
     806:	91 83       	std	Z+1, r25	; 0x01
     808:	a2 83       	std	Z+2, r26	; 0x02
     80a:	b3 83       	std	Z+3, r27	; 0x03
     80c:	89 81       	ldd	r24, Y+1	; 0x01
     80e:	9a 81       	ldd	r25, Y+2	; 0x02
     810:	8e 5d       	subi	r24, 0xDE	; 222
     812:	9e 4f       	sbci	r25, 0xFE	; 254
     814:	fc 01       	movw	r30, r24
     816:	10 82       	st	Z, r1
     818:	11 82       	std	Z+1, r1	; 0x01
     81a:	12 82       	std	Z+2, r1	; 0x02
     81c:	13 82       	std	Z+3, r1	; 0x03
     81e:	89 81       	ldd	r24, Y+1	; 0x01
     820:	9a 81       	ldd	r25, Y+2	; 0x02
     822:	8d 5c       	subi	r24, 0xCD	; 205
     824:	9e 4f       	sbci	r25, 0xFE	; 254
     826:	21 e0       	ldi	r18, 0x01	; 1
     828:	30 e0       	ldi	r19, 0x00	; 0
     82a:	fc 01       	movw	r30, r24
     82c:	20 83       	st	Z, r18
     82e:	31 83       	std	Z+1, r19	; 0x01
     830:	89 81       	ldd	r24, Y+1	; 0x01
     832:	9a 81       	ldd	r25, Y+2	; 0x02
     834:	2e ea       	ldi	r18, 0xAE	; 174
     836:	33 e4       	ldi	r19, 0x43	; 67
     838:	fc 01       	movw	r30, r24
     83a:	24 83       	std	Z+4, r18	; 0x04
     83c:	35 83       	std	Z+5, r19	; 0x05
     83e:	89 81       	ldd	r24, Y+1	; 0x01
     840:	9a 81       	ldd	r25, Y+2	; 0x02
     842:	8b 5c       	subi	r24, 0xCB	; 203
     844:	9e 4f       	sbci	r25, 0xFE	; 254
     846:	fc 01       	movw	r30, r24
     848:	10 82       	st	Z, r1
     84a:	29 81       	ldd	r18, Y+1	; 0x01
     84c:	3a 81       	ldd	r19, Y+2	; 0x02
     84e:	80 e0       	ldi	r24, 0x00	; 0
     850:	90 e8       	ldi	r25, 0x80	; 128
     852:	a9 e8       	ldi	r26, 0x89	; 137
     854:	b5 e4       	ldi	r27, 0x45	; 69
     856:	f9 01       	movw	r30, r18
     858:	86 83       	std	Z+6, r24	; 0x06
     85a:	97 83       	std	Z+7, r25	; 0x07
     85c:	a0 87       	std	Z+8, r26	; 0x08
     85e:	b1 87       	std	Z+9, r27	; 0x09
     860:	29 81       	ldd	r18, Y+1	; 0x01
     862:	3a 81       	ldd	r19, Y+2	; 0x02
     864:	80 e0       	ldi	r24, 0x00	; 0
     866:	90 e0       	ldi	r25, 0x00	; 0
     868:	a1 e6       	ldi	r26, 0x61	; 97
     86a:	b5 e4       	ldi	r27, 0x45	; 69
     86c:	f9 01       	movw	r30, r18
     86e:	82 87       	std	Z+10, r24	; 0x0a
     870:	93 87       	std	Z+11, r25	; 0x0b
     872:	a4 87       	std	Z+12, r26	; 0x0c
     874:	b5 87       	std	Z+13, r27	; 0x0d
     876:	89 81       	ldd	r24, Y+1	; 0x01
     878:	9a 81       	ldd	r25, Y+2	; 0x02
     87a:	fc 01       	movw	r30, r24
     87c:	86 81       	ldd	r24, Z+6	; 0x06
     87e:	97 81       	ldd	r25, Z+7	; 0x07
     880:	a0 85       	ldd	r26, Z+8	; 0x08
     882:	b1 85       	ldd	r27, Z+9	; 0x09
     884:	29 81       	ldd	r18, Y+1	; 0x01
     886:	3a 81       	ldd	r19, Y+2	; 0x02
     888:	f9 01       	movw	r30, r18
     88a:	22 85       	ldd	r18, Z+10	; 0x0a
     88c:	33 85       	ldd	r19, Z+11	; 0x0b
     88e:	44 85       	ldd	r20, Z+12	; 0x0c
     890:	55 85       	ldd	r21, Z+13	; 0x0d
     892:	bc 01       	movw	r22, r24
     894:	cd 01       	movw	r24, r26
     896:	0e 94 6f 24 	call	0x48de	; 0x48de <__subsf3>
     89a:	dc 01       	movw	r26, r24
     89c:	cb 01       	movw	r24, r22
     89e:	20 e0       	ldi	r18, 0x00	; 0
     8a0:	30 e0       	ldi	r19, 0x00	; 0
     8a2:	40 e8       	ldi	r20, 0x80	; 128
     8a4:	54 e4       	ldi	r21, 0x44	; 68
     8a6:	bc 01       	movw	r22, r24
     8a8:	cd 01       	movw	r24, r26
     8aa:	0e 94 e1 24 	call	0x49c2	; 0x49c2 <__divsf3>
     8ae:	dc 01       	movw	r26, r24
     8b0:	cb 01       	movw	r24, r22
     8b2:	9c 01       	movw	r18, r24
     8b4:	ad 01       	movw	r20, r26
     8b6:	bc 01       	movw	r22, r24
     8b8:	cd 01       	movw	r24, r26
     8ba:	0e 94 70 24 	call	0x48e0	; 0x48e0 <__addsf3>
     8be:	dc 01       	movw	r26, r24
     8c0:	cb 01       	movw	r24, r22
     8c2:	29 81       	ldd	r18, Y+1	; 0x01
     8c4:	3a 81       	ldd	r19, Y+2	; 0x02
     8c6:	25 5d       	subi	r18, 0xD5	; 213
     8c8:	3e 4f       	sbci	r19, 0xFE	; 254
     8ca:	f9 01       	movw	r30, r18
     8cc:	80 83       	st	Z, r24
     8ce:	91 83       	std	Z+1, r25	; 0x01
     8d0:	a2 83       	std	Z+2, r26	; 0x02
     8d2:	b3 83       	std	Z+3, r27	; 0x03
     8d4:	89 81       	ldd	r24, Y+1	; 0x01
     8d6:	9a 81       	ldd	r25, Y+2	; 0x02
     8d8:	fc 01       	movw	r30, r24
     8da:	80 81       	ld	r24, Z
     8dc:	91 81       	ldd	r25, Z+1	; 0x01
     8de:	a2 81       	ldd	r26, Z+2	; 0x02
     8e0:	b3 81       	ldd	r27, Z+3	; 0x03
     8e2:	29 81       	ldd	r18, Y+1	; 0x01
     8e4:	3a 81       	ldd	r19, Y+2	; 0x02
     8e6:	25 5d       	subi	r18, 0xD5	; 213
     8e8:	3e 4f       	sbci	r19, 0xFE	; 254
     8ea:	f9 01       	movw	r30, r18
     8ec:	20 81       	ld	r18, Z
     8ee:	31 81       	ldd	r19, Z+1	; 0x01
     8f0:	42 81       	ldd	r20, Z+2	; 0x02
     8f2:	53 81       	ldd	r21, Z+3	; 0x03
     8f4:	bc 01       	movw	r22, r24
     8f6:	cd 01       	movw	r24, r26
     8f8:	0e 94 70 24 	call	0x48e0	; 0x48e0 <__addsf3>
     8fc:	dc 01       	movw	r26, r24
     8fe:	cb 01       	movw	r24, r22
     900:	29 81       	ldd	r18, Y+1	; 0x01
     902:	3a 81       	ldd	r19, Y+2	; 0x02
     904:	21 5d       	subi	r18, 0xD1	; 209
     906:	3e 4f       	sbci	r19, 0xFE	; 254
     908:	f9 01       	movw	r30, r18
     90a:	80 83       	st	Z, r24
     90c:	91 83       	std	Z+1, r25	; 0x01
     90e:	a2 83       	std	Z+2, r26	; 0x02
     910:	b3 83       	std	Z+3, r27	; 0x03
     912:	89 81       	ldd	r24, Y+1	; 0x01
     914:	9a 81       	ldd	r25, Y+2	; 0x02
     916:	88 5b       	subi	r24, 0xB8	; 184
     918:	9e 4f       	sbci	r25, 0xFE	; 254
     91a:	fc 01       	movw	r30, r24
     91c:	10 82       	st	Z, r1
     91e:	00 00       	nop
     920:	0f 90       	pop	r0
     922:	0f 90       	pop	r0
     924:	df 91       	pop	r29
     926:	cf 91       	pop	r28
     928:	08 95       	ret

0000092a <_ZN14ADF5610_DriverD1Ev>:
     92a:	cf 93       	push	r28
     92c:	df 93       	push	r29
     92e:	00 d0       	rcall	.+0      	; 0x930 <_ZN14ADF5610_DriverD1Ev+0x6>
     930:	cd b7       	in	r28, 0x3d	; 61
     932:	de b7       	in	r29, 0x3e	; 62
     934:	89 83       	std	Y+1, r24	; 0x01
     936:	9a 83       	std	Y+2, r25	; 0x02
     938:	00 00       	nop
     93a:	0f 90       	pop	r0
     93c:	0f 90       	pop	r0
     93e:	df 91       	pop	r29
     940:	cf 91       	pop	r28
     942:	08 95       	ret

00000944 <_ZN14ADF5610_Driver4InitEv>:
     944:	cf 93       	push	r28
     946:	df 93       	push	r29
     948:	00 d0       	rcall	.+0      	; 0x94a <_ZN14ADF5610_Driver4InitEv+0x6>
     94a:	cd b7       	in	r28, 0x3d	; 61
     94c:	de b7       	in	r29, 0x3e	; 62
     94e:	89 83       	std	Y+1, r24	; 0x01
     950:	9a 83       	std	Y+2, r25	; 0x02
     952:	89 81       	ldd	r24, Y+1	; 0x01
     954:	9a 81       	ldd	r25, Y+2	; 0x02
     956:	2e ea       	ldi	r18, 0xAE	; 174
     958:	33 e4       	ldi	r19, 0x43	; 67
     95a:	fc 01       	movw	r30, r24
     95c:	24 83       	std	Z+4, r18	; 0x04
     95e:	35 83       	std	Z+5, r19	; 0x05
     960:	89 81       	ldd	r24, Y+1	; 0x01
     962:	9a 81       	ldd	r25, Y+2	; 0x02
     964:	fc 01       	movw	r30, r24
     966:	84 81       	ldd	r24, Z+4	; 0x04
     968:	95 81       	ldd	r25, Z+5	; 0x05
     96a:	0e 94 e0 11 	call	0x23c0	; 0x23c0 <_ZN17SPI_Syn_Class_ADF4InitEv>
     96e:	89 81       	ldd	r24, Y+1	; 0x01
     970:	9a 81       	ldd	r25, Y+2	; 0x02
     972:	8d 5b       	subi	r24, 0xBD	; 189
     974:	9e 4f       	sbci	r25, 0xFE	; 254
     976:	44 e0       	ldi	r20, 0x04	; 4
     978:	50 e0       	ldi	r21, 0x00	; 0
     97a:	60 e0       	ldi	r22, 0x00	; 0
     97c:	70 e0       	ldi	r23, 0x00	; 0
     97e:	0e 94 95 2d 	call	0x5b2a	; 0x5b2a <memset>
     982:	89 81       	ldd	r24, Y+1	; 0x01
     984:	9a 81       	ldd	r25, Y+2	; 0x02
     986:	9c 01       	movw	r18, r24
     988:	2d 5b       	subi	r18, 0xBD	; 189
     98a:	3e 4f       	sbci	r19, 0xFE	; 254
     98c:	89 81       	ldd	r24, Y+1	; 0x01
     98e:	9a 81       	ldd	r25, Y+2	; 0x02
     990:	fc 01       	movw	r30, r24
     992:	84 81       	ldd	r24, Z+4	; 0x04
     994:	95 81       	ldd	r25, Z+5	; 0x05
     996:	44 e0       	ldi	r20, 0x04	; 4
     998:	b9 01       	movw	r22, r18
     99a:	0e 94 05 12 	call	0x240a	; 0x240a <_ZN17SPI_Syn_Class_ADF5WriteEPKhh>
     99e:	89 81       	ldd	r24, Y+1	; 0x01
     9a0:	9a 81       	ldd	r25, Y+2	; 0x02
     9a2:	fc 01       	movw	r30, r24
     9a4:	84 81       	ldd	r24, Z+4	; 0x04
     9a6:	95 81       	ldd	r25, Z+5	; 0x05
     9a8:	61 e0       	ldi	r22, 0x01	; 1
     9aa:	0e 94 41 12 	call	0x2482	; 0x2482 <_ZN17SPI_Syn_Class_ADF5SetCSEb>
     9ae:	89 81       	ldd	r24, Y+1	; 0x01
     9b0:	9a 81       	ldd	r25, Y+2	; 0x02
     9b2:	0e 94 0b 0a 	call	0x1416	; 0x1416 <_ZN14ADF5610_Driver17InitiateRegistersEv>
     9b6:	89 81       	ldd	r24, Y+1	; 0x01
     9b8:	9a 81       	ldd	r25, Y+2	; 0x02
     9ba:	0e 94 e4 04 	call	0x9c8	; 0x9c8 <_ZN14ADF5610_Driver7InitPLLEv>
     9be:	0f 90       	pop	r0
     9c0:	0f 90       	pop	r0
     9c2:	df 91       	pop	r29
     9c4:	cf 91       	pop	r28
     9c6:	08 95       	ret

000009c8 <_ZN14ADF5610_Driver7InitPLLEv>:
     9c8:	cf 93       	push	r28
     9ca:	df 93       	push	r29
     9cc:	cd b7       	in	r28, 0x3d	; 61
     9ce:	de b7       	in	r29, 0x3e	; 62
     9d0:	60 97       	sbiw	r28, 0x10	; 16
     9d2:	cd bf       	out	0x3d, r28	; 61
     9d4:	de bf       	out	0x3e, r29	; 62
     9d6:	8f 87       	std	Y+15, r24	; 0x0f
     9d8:	98 8b       	std	Y+16, r25	; 0x10
     9da:	8f 85       	ldd	r24, Y+15	; 0x0f
     9dc:	98 89       	ldd	r25, Y+16	; 0x10
     9de:	60 e0       	ldi	r22, 0x00	; 0
     9e0:	70 e0       	ldi	r23, 0x00	; 0
     9e2:	0e 94 f6 0b 	call	0x17ec	; 0x17ec <_ZN14ADF5610_Driver25CompleteConfigurationFlowEj>
     9e6:	8f 85       	ldd	r24, Y+15	; 0x0f
     9e8:	98 89       	ldd	r25, Y+16	; 0x10
     9ea:	0e 94 90 0c 	call	0x1920	; 0x1920 <_ZN14ADF5610_Driver16ReadAllRegistersEv>
     9ee:	8f 85       	ldd	r24, Y+15	; 0x0f
     9f0:	98 89       	ldd	r25, Y+16	; 0x10
     9f2:	fc 01       	movw	r30, r24
     9f4:	82 89       	ldd	r24, Z+18	; 0x12
     9f6:	93 89       	ldd	r25, Z+19	; 0x13
     9f8:	a4 89       	ldd	r26, Z+20	; 0x14
     9fa:	b5 89       	ldd	r27, Z+21	; 0x15
     9fc:	b6 95       	lsr	r27
     9fe:	a7 95       	ror	r26
     a00:	97 95       	ror	r25
     a02:	87 95       	ror	r24
     a04:	28 2f       	mov	r18, r24
     a06:	21 70       	andi	r18, 0x01	; 1
     a08:	8f 85       	ldd	r24, Y+15	; 0x0f
     a0a:	98 89       	ldd	r25, Y+16	; 0x10
     a0c:	fc 01       	movw	r30, r24
     a0e:	82 89       	ldd	r24, Z+18	; 0x12
     a10:	93 89       	ldd	r25, Z+19	; 0x13
     a12:	a4 89       	ldd	r26, Z+20	; 0x14
     a14:	b5 89       	ldd	r27, Z+21	; 0x15
     a16:	81 70       	andi	r24, 0x01	; 1
     a18:	99 27       	eor	r25, r25
     a1a:	aa 27       	eor	r26, r26
     a1c:	bb 27       	eor	r27, r27
     a1e:	31 e0       	ldi	r19, 0x01	; 1
     a20:	89 2b       	or	r24, r25
     a22:	8a 2b       	or	r24, r26
     a24:	8b 2b       	or	r24, r27
     a26:	09 f0       	breq	.+2      	; 0xa2a <_ZN14ADF5610_Driver7InitPLLEv+0x62>
     a28:	30 e0       	ldi	r19, 0x00	; 0
     a2a:	23 23       	and	r18, r19
     a2c:	8f 85       	ldd	r24, Y+15	; 0x0f
     a2e:	98 89       	ldd	r25, Y+16	; 0x10
     a30:	88 5b       	subi	r24, 0xB8	; 184
     a32:	9e 4f       	sbci	r25, 0xFE	; 254
     a34:	fc 01       	movw	r30, r24
     a36:	20 83       	st	Z, r18
     a38:	80 e0       	ldi	r24, 0x00	; 0
     a3a:	90 e0       	ldi	r25, 0x00	; 0
     a3c:	a8 ec       	ldi	r26, 0xC8	; 200
     a3e:	b2 e4       	ldi	r27, 0x42	; 66
     a40:	89 83       	std	Y+1, r24	; 0x01
     a42:	9a 83       	std	Y+2, r25	; 0x02
     a44:	ab 83       	std	Y+3, r26	; 0x03
     a46:	bc 83       	std	Y+4, r27	; 0x04
     a48:	20 e0       	ldi	r18, 0x00	; 0
     a4a:	30 e8       	ldi	r19, 0x80	; 128
     a4c:	4b eb       	ldi	r20, 0xBB	; 187
     a4e:	55 e4       	ldi	r21, 0x45	; 69
     a50:	69 81       	ldd	r22, Y+1	; 0x01
     a52:	7a 81       	ldd	r23, Y+2	; 0x02
     a54:	8b 81       	ldd	r24, Y+3	; 0x03
     a56:	9c 81       	ldd	r25, Y+4	; 0x04
     a58:	0e 94 e8 26 	call	0x4dd0	; 0x4dd0 <__mulsf3>
     a5c:	dc 01       	movw	r26, r24
     a5e:	cb 01       	movw	r24, r22
     a60:	8d 83       	std	Y+5, r24	; 0x05
     a62:	9e 83       	std	Y+6, r25	; 0x06
     a64:	af 83       	std	Y+7, r26	; 0x07
     a66:	b8 87       	std	Y+8, r27	; 0x08
     a68:	20 e0       	ldi	r18, 0x00	; 0
     a6a:	30 e0       	ldi	r19, 0x00	; 0
     a6c:	40 e8       	ldi	r20, 0x80	; 128
     a6e:	5f e3       	ldi	r21, 0x3F	; 63
     a70:	6d 81       	ldd	r22, Y+5	; 0x05
     a72:	7e 81       	ldd	r23, Y+6	; 0x06
     a74:	8f 81       	ldd	r24, Y+7	; 0x07
     a76:	98 85       	ldd	r25, Y+8	; 0x08
     a78:	0e 94 dc 24 	call	0x49b8	; 0x49b8 <__cmpsf2>
     a7c:	88 23       	and	r24, r24
     a7e:	2c f4       	brge	.+10     	; 0xa8a <_ZN14ADF5610_Driver7InitPLLEv+0xc2>
     a80:	81 e0       	ldi	r24, 0x01	; 1
     a82:	90 e0       	ldi	r25, 0x00	; 0
     a84:	89 87       	std	Y+9, r24	; 0x09
     a86:	9a 87       	std	Y+10, r25	; 0x0a
     a88:	3e c0       	rjmp	.+124    	; 0xb06 <_ZN14ADF5610_Driver7InitPLLEv+0x13e>
     a8a:	20 e0       	ldi	r18, 0x00	; 0
     a8c:	3f ef       	ldi	r19, 0xFF	; 255
     a8e:	4f e7       	ldi	r20, 0x7F	; 127
     a90:	57 e4       	ldi	r21, 0x47	; 71
     a92:	6d 81       	ldd	r22, Y+5	; 0x05
     a94:	7e 81       	ldd	r23, Y+6	; 0x06
     a96:	8f 81       	ldd	r24, Y+7	; 0x07
     a98:	98 85       	ldd	r25, Y+8	; 0x08
     a9a:	0e 94 93 26 	call	0x4d26	; 0x4d26 <__gesf2>
     a9e:	18 16       	cp	r1, r24
     aa0:	44 f5       	brge	.+80     	; 0xaf2 <_ZN14ADF5610_Driver7InitPLLEv+0x12a>
     aa2:	20 e0       	ldi	r18, 0x00	; 0
     aa4:	30 e0       	ldi	r19, 0x00	; 0
     aa6:	40 e2       	ldi	r20, 0x20	; 32
     aa8:	51 e4       	ldi	r21, 0x41	; 65
     aaa:	69 81       	ldd	r22, Y+1	; 0x01
     aac:	7a 81       	ldd	r23, Y+2	; 0x02
     aae:	8b 81       	ldd	r24, Y+3	; 0x03
     ab0:	9c 81       	ldd	r25, Y+4	; 0x04
     ab2:	0e 94 e8 26 	call	0x4dd0	; 0x4dd0 <__mulsf3>
     ab6:	dc 01       	movw	r26, r24
     ab8:	cb 01       	movw	r24, r22
     aba:	bc 01       	movw	r22, r24
     abc:	cd 01       	movw	r24, r26
     abe:	0e 94 5a 25 	call	0x4ab4	; 0x4ab4 <__fixunssfsi>
     ac2:	dc 01       	movw	r26, r24
     ac4:	cb 01       	movw	r24, r22
     ac6:	89 87       	std	Y+9, r24	; 0x09
     ac8:	9a 87       	std	Y+10, r25	; 0x0a
     aca:	89 85       	ldd	r24, Y+9	; 0x09
     acc:	9a 85       	ldd	r25, Y+10	; 0x0a
     ace:	89 2b       	or	r24, r25
     ad0:	21 f1       	breq	.+72     	; 0xb1a <_ZN14ADF5610_Driver7InitPLLEv+0x152>
     ad2:	88 e5       	ldi	r24, 0x58	; 88
     ad4:	92 e0       	ldi	r25, 0x02	; 2
     ad6:	8b 87       	std	Y+11, r24	; 0x0b
     ad8:	9c 87       	std	Y+12, r25	; 0x0c
     ada:	8b 85       	ldd	r24, Y+11	; 0x0b
     adc:	9c 85       	ldd	r25, Y+12	; 0x0c
     ade:	01 97       	sbiw	r24, 0x01	; 1
     ae0:	f1 f7       	brne	.-4      	; 0xade <_ZN14ADF5610_Driver7InitPLLEv+0x116>
     ae2:	8b 87       	std	Y+11, r24	; 0x0b
     ae4:	9c 87       	std	Y+12, r25	; 0x0c
     ae6:	89 85       	ldd	r24, Y+9	; 0x09
     ae8:	9a 85       	ldd	r25, Y+10	; 0x0a
     aea:	01 97       	sbiw	r24, 0x01	; 1
     aec:	89 87       	std	Y+9, r24	; 0x09
     aee:	9a 87       	std	Y+10, r25	; 0x0a
     af0:	ec cf       	rjmp	.-40     	; 0xaca <_ZN14ADF5610_Driver7InitPLLEv+0x102>
     af2:	6d 81       	ldd	r22, Y+5	; 0x05
     af4:	7e 81       	ldd	r23, Y+6	; 0x06
     af6:	8f 81       	ldd	r24, Y+7	; 0x07
     af8:	98 85       	ldd	r25, Y+8	; 0x08
     afa:	0e 94 5a 25 	call	0x4ab4	; 0x4ab4 <__fixunssfsi>
     afe:	dc 01       	movw	r26, r24
     b00:	cb 01       	movw	r24, r22
     b02:	89 87       	std	Y+9, r24	; 0x09
     b04:	9a 87       	std	Y+10, r25	; 0x0a
     b06:	89 85       	ldd	r24, Y+9	; 0x09
     b08:	9a 85       	ldd	r25, Y+10	; 0x0a
     b0a:	8d 87       	std	Y+13, r24	; 0x0d
     b0c:	9e 87       	std	Y+14, r25	; 0x0e
     b0e:	8d 85       	ldd	r24, Y+13	; 0x0d
     b10:	9e 85       	ldd	r25, Y+14	; 0x0e
     b12:	01 97       	sbiw	r24, 0x01	; 1
     b14:	f1 f7       	brne	.-4      	; 0xb12 <_ZN14ADF5610_Driver7InitPLLEv+0x14a>
     b16:	8d 87       	std	Y+13, r24	; 0x0d
     b18:	9e 87       	std	Y+14, r25	; 0x0e
     b1a:	00 00       	nop
     b1c:	8f 85       	ldd	r24, Y+15	; 0x0f
     b1e:	98 89       	ldd	r25, Y+16	; 0x10
     b20:	0e 94 a0 06 	call	0xd40	; 0xd40 <_ZN14ADF5610_Driver9Is_LockedEv>
     b24:	98 2f       	mov	r25, r24
     b26:	81 e0       	ldi	r24, 0x01	; 1
     b28:	29 2f       	mov	r18, r25
     b2a:	28 27       	eor	r18, r24
     b2c:	8f 85       	ldd	r24, Y+15	; 0x0f
     b2e:	98 89       	ldd	r25, Y+16	; 0x10
     b30:	88 5b       	subi	r24, 0xB8	; 184
     b32:	9e 4f       	sbci	r25, 0xFE	; 254
     b34:	fc 01       	movw	r30, r24
     b36:	90 81       	ld	r25, Z
     b38:	81 e0       	ldi	r24, 0x01	; 1
     b3a:	89 27       	eor	r24, r25
     b3c:	82 2b       	or	r24, r18
     b3e:	88 23       	and	r24, r24
     b40:	09 f0       	breq	.+2      	; 0xb44 <_ZN14ADF5610_Driver7InitPLLEv+0x17c>
     b42:	4b cf       	rjmp	.-362    	; 0x9da <_ZN14ADF5610_Driver7InitPLLEv+0x12>
     b44:	8f 85       	ldd	r24, Y+15	; 0x0f
     b46:	98 89       	ldd	r25, Y+16	; 0x10
     b48:	88 5b       	subi	r24, 0xB8	; 184
     b4a:	9e 4f       	sbci	r25, 0xFE	; 254
     b4c:	fc 01       	movw	r30, r24
     b4e:	80 81       	ld	r24, Z
     b50:	60 96       	adiw	r28, 0x10	; 16
     b52:	cd bf       	out	0x3d, r28	; 61
     b54:	de bf       	out	0x3e, r29	; 62
     b56:	df 91       	pop	r29
     b58:	cf 91       	pop	r28
     b5a:	08 95       	ret

00000b5c <_ZN14ADF5610_Driver20Set_Target_FrequencyEf>:
     b5c:	cf 93       	push	r28
     b5e:	df 93       	push	r29
     b60:	cd b7       	in	r28, 0x3d	; 61
     b62:	de b7       	in	r29, 0x3e	; 62
     b64:	26 97       	sbiw	r28, 0x06	; 6
     b66:	cd bf       	out	0x3d, r28	; 61
     b68:	de bf       	out	0x3e, r29	; 62
     b6a:	89 83       	std	Y+1, r24	; 0x01
     b6c:	9a 83       	std	Y+2, r25	; 0x02
     b6e:	4b 83       	std	Y+3, r20	; 0x03
     b70:	5c 83       	std	Y+4, r21	; 0x04
     b72:	6d 83       	std	Y+5, r22	; 0x05
     b74:	7e 83       	std	Y+6, r23	; 0x06
     b76:	89 81       	ldd	r24, Y+1	; 0x01
     b78:	9a 81       	ldd	r25, Y+2	; 0x02
     b7a:	9c 01       	movw	r18, r24
     b7c:	21 5d       	subi	r18, 0xD1	; 209
     b7e:	3e 4f       	sbci	r19, 0xFE	; 254
     b80:	8b 81       	ldd	r24, Y+3	; 0x03
     b82:	9c 81       	ldd	r25, Y+4	; 0x04
     b84:	ad 81       	ldd	r26, Y+5	; 0x05
     b86:	be 81       	ldd	r27, Y+6	; 0x06
     b88:	f9 01       	movw	r30, r18
     b8a:	80 83       	st	Z, r24
     b8c:	91 83       	std	Z+1, r25	; 0x01
     b8e:	a2 83       	std	Z+2, r26	; 0x02
     b90:	b3 83       	std	Z+3, r27	; 0x03
     b92:	89 81       	ldd	r24, Y+1	; 0x01
     b94:	9a 81       	ldd	r25, Y+2	; 0x02
     b96:	0e 94 b1 0c 	call	0x1962	; 0x1962 <_ZN14ADF5610_Driver18CalculateVCOValuesEv>
     b9a:	89 81       	ldd	r24, Y+1	; 0x01
     b9c:	9a 81       	ldd	r25, Y+2	; 0x02
     b9e:	0e 94 54 0c 	call	0x18a8	; 0x18a8 <_ZN14ADF5610_Driver22ShortConfigurationFlowEv>
     ba2:	00 00       	nop
     ba4:	26 96       	adiw	r28, 0x06	; 6
     ba6:	cd bf       	out	0x3d, r28	; 61
     ba8:	de bf       	out	0x3e, r29	; 62
     baa:	df 91       	pop	r29
     bac:	cf 91       	pop	r28
     bae:	08 95       	ret

00000bb0 <_ZN14ADF5610_Driver13ShowRegistersEi>:
     bb0:	cf 93       	push	r28
     bb2:	df 93       	push	r29
     bb4:	00 d0       	rcall	.+0      	; 0xbb6 <_ZN14ADF5610_Driver13ShowRegistersEi+0x6>
     bb6:	00 d0       	rcall	.+0      	; 0xbb8 <_ZN14ADF5610_Driver13ShowRegistersEi+0x8>
     bb8:	cd b7       	in	r28, 0x3d	; 61
     bba:	de b7       	in	r29, 0x3e	; 62
     bbc:	89 83       	std	Y+1, r24	; 0x01
     bbe:	9a 83       	std	Y+2, r25	; 0x02
     bc0:	6b 83       	std	Y+3, r22	; 0x03
     bc2:	7c 83       	std	Y+4, r23	; 0x04
     bc4:	8b 81       	ldd	r24, Y+3	; 0x03
     bc6:	9c 81       	ldd	r25, Y+4	; 0x04
     bc8:	82 31       	cpi	r24, 0x12	; 18
     bca:	91 05       	cpc	r25, r1
     bcc:	09 f4       	brne	.+2      	; 0xbd0 <_ZN14ADF5610_Driver13ShowRegistersEi+0x20>
     bce:	ae c0       	rjmp	.+348    	; 0xd2c <_ZN14ADF5610_Driver13ShowRegistersEi+0x17c>
     bd0:	83 31       	cpi	r24, 0x13	; 19
     bd2:	91 05       	cpc	r25, r1
     bd4:	09 f4       	brne	.+2      	; 0xbd8 <_ZN14ADF5610_Driver13ShowRegistersEi+0x28>
     bd6:	ac c0       	rjmp	.+344    	; 0xd30 <_ZN14ADF5610_Driver13ShowRegistersEi+0x180>
     bd8:	89 2b       	or	r24, r25
     bda:	c1 f5       	brne	.+112    	; 0xc4c <_ZN14ADF5610_Driver13ShowRegistersEi+0x9c>
     bdc:	8c 81       	ldd	r24, Y+4	; 0x04
     bde:	8f 93       	push	r24
     be0:	8b 81       	ldd	r24, Y+3	; 0x03
     be2:	8f 93       	push	r24
     be4:	8e e0       	ldi	r24, 0x0E	; 14
     be6:	90 e4       	ldi	r25, 0x40	; 64
     be8:	89 2f       	mov	r24, r25
     bea:	8f 93       	push	r24
     bec:	8e e0       	ldi	r24, 0x0E	; 14
     bee:	90 e4       	ldi	r25, 0x40	; 64
     bf0:	8f 93       	push	r24
     bf2:	0e 94 e3 2d 	call	0x5bc6	; 0x5bc6 <printf>
     bf6:	0f 90       	pop	r0
     bf8:	0f 90       	pop	r0
     bfa:	0f 90       	pop	r0
     bfc:	0f 90       	pop	r0
     bfe:	29 81       	ldd	r18, Y+1	; 0x01
     c00:	3a 81       	ldd	r19, Y+2	; 0x02
     c02:	8b 81       	ldd	r24, Y+3	; 0x03
     c04:	9c 81       	ldd	r25, Y+4	; 0x04
     c06:	88 0f       	add	r24, r24
     c08:	99 1f       	adc	r25, r25
     c0a:	88 0f       	add	r24, r24
     c0c:	99 1f       	adc	r25, r25
     c0e:	82 0f       	add	r24, r18
     c10:	93 1f       	adc	r25, r19
     c12:	0e 96       	adiw	r24, 0x0e	; 14
     c14:	fc 01       	movw	r30, r24
     c16:	80 81       	ld	r24, Z
     c18:	91 81       	ldd	r25, Z+1	; 0x01
     c1a:	a2 81       	ldd	r26, Z+2	; 0x02
     c1c:	b3 81       	ldd	r27, Z+3	; 0x03
     c1e:	2b 2f       	mov	r18, r27
     c20:	2f 93       	push	r18
     c22:	2a 2f       	mov	r18, r26
     c24:	2f 93       	push	r18
     c26:	29 2f       	mov	r18, r25
     c28:	2f 93       	push	r18
     c2a:	8f 93       	push	r24
     c2c:	87 e1       	ldi	r24, 0x17	; 23
     c2e:	90 e4       	ldi	r25, 0x40	; 64
     c30:	89 2f       	mov	r24, r25
     c32:	8f 93       	push	r24
     c34:	87 e1       	ldi	r24, 0x17	; 23
     c36:	90 e4       	ldi	r25, 0x40	; 64
     c38:	8f 93       	push	r24
     c3a:	0e 94 e3 2d 	call	0x5bc6	; 0x5bc6 <printf>
     c3e:	0f 90       	pop	r0
     c40:	0f 90       	pop	r0
     c42:	0f 90       	pop	r0
     c44:	0f 90       	pop	r0
     c46:	0f 90       	pop	r0
     c48:	0f 90       	pop	r0
     c4a:	73 c0       	rjmp	.+230    	; 0xd32 <_ZN14ADF5610_Driver13ShowRegistersEi+0x182>
     c4c:	8c 81       	ldd	r24, Y+4	; 0x04
     c4e:	8f 93       	push	r24
     c50:	8b 81       	ldd	r24, Y+3	; 0x03
     c52:	8f 93       	push	r24
     c54:	83 e2       	ldi	r24, 0x23	; 35
     c56:	90 e4       	ldi	r25, 0x40	; 64
     c58:	89 2f       	mov	r24, r25
     c5a:	8f 93       	push	r24
     c5c:	83 e2       	ldi	r24, 0x23	; 35
     c5e:	90 e4       	ldi	r25, 0x40	; 64
     c60:	8f 93       	push	r24
     c62:	0e 94 e3 2d 	call	0x5bc6	; 0x5bc6 <printf>
     c66:	0f 90       	pop	r0
     c68:	0f 90       	pop	r0
     c6a:	0f 90       	pop	r0
     c6c:	0f 90       	pop	r0
     c6e:	29 81       	ldd	r18, Y+1	; 0x01
     c70:	3a 81       	ldd	r19, Y+2	; 0x02
     c72:	8b 81       	ldd	r24, Y+3	; 0x03
     c74:	9c 81       	ldd	r25, Y+4	; 0x04
     c76:	88 0f       	add	r24, r24
     c78:	99 1f       	adc	r25, r25
     c7a:	88 0f       	add	r24, r24
     c7c:	99 1f       	adc	r25, r25
     c7e:	82 0f       	add	r24, r18
     c80:	93 1f       	adc	r25, r19
     c82:	86 59       	subi	r24, 0x96	; 150
     c84:	9f 4f       	sbci	r25, 0xFF	; 255
     c86:	fc 01       	movw	r30, r24
     c88:	80 81       	ld	r24, Z
     c8a:	91 81       	ldd	r25, Z+1	; 0x01
     c8c:	a2 81       	ldd	r26, Z+2	; 0x02
     c8e:	b3 81       	ldd	r27, Z+3	; 0x03
     c90:	2b 2f       	mov	r18, r27
     c92:	2f 93       	push	r18
     c94:	2a 2f       	mov	r18, r26
     c96:	2f 93       	push	r18
     c98:	29 2f       	mov	r18, r25
     c9a:	2f 93       	push	r18
     c9c:	8f 93       	push	r24
     c9e:	8d e2       	ldi	r24, 0x2D	; 45
     ca0:	90 e4       	ldi	r25, 0x40	; 64
     ca2:	89 2f       	mov	r24, r25
     ca4:	8f 93       	push	r24
     ca6:	8d e2       	ldi	r24, 0x2D	; 45
     ca8:	90 e4       	ldi	r25, 0x40	; 64
     caa:	8f 93       	push	r24
     cac:	0e 94 e3 2d 	call	0x5bc6	; 0x5bc6 <printf>
     cb0:	0f 90       	pop	r0
     cb2:	0f 90       	pop	r0
     cb4:	0f 90       	pop	r0
     cb6:	0f 90       	pop	r0
     cb8:	0f 90       	pop	r0
     cba:	0f 90       	pop	r0
     cbc:	8c 81       	ldd	r24, Y+4	; 0x04
     cbe:	8f 93       	push	r24
     cc0:	8b 81       	ldd	r24, Y+3	; 0x03
     cc2:	8f 93       	push	r24
     cc4:	8e e0       	ldi	r24, 0x0E	; 14
     cc6:	90 e4       	ldi	r25, 0x40	; 64
     cc8:	89 2f       	mov	r24, r25
     cca:	8f 93       	push	r24
     ccc:	8e e0       	ldi	r24, 0x0E	; 14
     cce:	90 e4       	ldi	r25, 0x40	; 64
     cd0:	8f 93       	push	r24
     cd2:	0e 94 e3 2d 	call	0x5bc6	; 0x5bc6 <printf>
     cd6:	0f 90       	pop	r0
     cd8:	0f 90       	pop	r0
     cda:	0f 90       	pop	r0
     cdc:	0f 90       	pop	r0
     cde:	29 81       	ldd	r18, Y+1	; 0x01
     ce0:	3a 81       	ldd	r19, Y+2	; 0x02
     ce2:	8b 81       	ldd	r24, Y+3	; 0x03
     ce4:	9c 81       	ldd	r25, Y+4	; 0x04
     ce6:	88 0f       	add	r24, r24
     ce8:	99 1f       	adc	r25, r25
     cea:	88 0f       	add	r24, r24
     cec:	99 1f       	adc	r25, r25
     cee:	82 0f       	add	r24, r18
     cf0:	93 1f       	adc	r25, r19
     cf2:	0e 96       	adiw	r24, 0x0e	; 14
     cf4:	fc 01       	movw	r30, r24
     cf6:	80 81       	ld	r24, Z
     cf8:	91 81       	ldd	r25, Z+1	; 0x01
     cfa:	a2 81       	ldd	r26, Z+2	; 0x02
     cfc:	b3 81       	ldd	r27, Z+3	; 0x03
     cfe:	2b 2f       	mov	r18, r27
     d00:	2f 93       	push	r18
     d02:	2a 2f       	mov	r18, r26
     d04:	2f 93       	push	r18
     d06:	29 2f       	mov	r18, r25
     d08:	2f 93       	push	r18
     d0a:	8f 93       	push	r24
     d0c:	87 e1       	ldi	r24, 0x17	; 23
     d0e:	90 e4       	ldi	r25, 0x40	; 64
     d10:	89 2f       	mov	r24, r25
     d12:	8f 93       	push	r24
     d14:	87 e1       	ldi	r24, 0x17	; 23
     d16:	90 e4       	ldi	r25, 0x40	; 64
     d18:	8f 93       	push	r24
     d1a:	0e 94 e3 2d 	call	0x5bc6	; 0x5bc6 <printf>
     d1e:	0f 90       	pop	r0
     d20:	0f 90       	pop	r0
     d22:	0f 90       	pop	r0
     d24:	0f 90       	pop	r0
     d26:	0f 90       	pop	r0
     d28:	0f 90       	pop	r0
     d2a:	03 c0       	rjmp	.+6      	; 0xd32 <_ZN14ADF5610_Driver13ShowRegistersEi+0x182>
     d2c:	00 00       	nop
     d2e:	01 c0       	rjmp	.+2      	; 0xd32 <_ZN14ADF5610_Driver13ShowRegistersEi+0x182>
     d30:	00 00       	nop
     d32:	00 00       	nop
     d34:	24 96       	adiw	r28, 0x04	; 4
     d36:	cd bf       	out	0x3d, r28	; 61
     d38:	de bf       	out	0x3e, r29	; 62
     d3a:	df 91       	pop	r29
     d3c:	cf 91       	pop	r28
     d3e:	08 95       	ret

00000d40 <_ZN14ADF5610_Driver9Is_LockedEv>:
     d40:	cf 93       	push	r28
     d42:	df 93       	push	r29
     d44:	00 d0       	rcall	.+0      	; 0xd46 <_ZN14ADF5610_Driver9Is_LockedEv+0x6>
     d46:	cd b7       	in	r28, 0x3d	; 61
     d48:	de b7       	in	r29, 0x3e	; 62
     d4a:	89 83       	std	Y+1, r24	; 0x01
     d4c:	9a 83       	std	Y+2, r25	; 0x02
     d4e:	0e 94 ea 03 	call	0x7d4	; 0x7d4 <CS_ADF_get_level>
     d52:	28 2f       	mov	r18, r24
     d54:	89 81       	ldd	r24, Y+1	; 0x01
     d56:	9a 81       	ldd	r25, Y+2	; 0x02
     d58:	8b 5c       	subi	r24, 0xCB	; 203
     d5a:	9e 4f       	sbci	r25, 0xFE	; 254
     d5c:	fc 01       	movw	r30, r24
     d5e:	20 83       	st	Z, r18
     d60:	89 81       	ldd	r24, Y+1	; 0x01
     d62:	9a 81       	ldd	r25, Y+2	; 0x02
     d64:	8b 5c       	subi	r24, 0xCB	; 203
     d66:	9e 4f       	sbci	r25, 0xFE	; 254
     d68:	fc 01       	movw	r30, r24
     d6a:	80 81       	ld	r24, Z
     d6c:	0f 90       	pop	r0
     d6e:	0f 90       	pop	r0
     d70:	df 91       	pop	r29
     d72:	cf 91       	pop	r28
     d74:	08 95       	ret

00000d76 <_ZN14ADF5610_Driver14WriteRegistersEh>:
     d76:	cf 93       	push	r28
     d78:	df 93       	push	r29
     d7a:	00 d0       	rcall	.+0      	; 0xd7c <_ZN14ADF5610_Driver14WriteRegistersEh+0x6>
     d7c:	1f 92       	push	r1
     d7e:	cd b7       	in	r28, 0x3d	; 61
     d80:	de b7       	in	r29, 0x3e	; 62
     d82:	89 83       	std	Y+1, r24	; 0x01
     d84:	9a 83       	std	Y+2, r25	; 0x02
     d86:	6b 83       	std	Y+3, r22	; 0x03
     d88:	89 81       	ldd	r24, Y+1	; 0x01
     d8a:	9a 81       	ldd	r25, Y+2	; 0x02
     d8c:	86 5c       	subi	r24, 0xC6	; 198
     d8e:	9e 4f       	sbci	r25, 0xFE	; 254
     d90:	fc 01       	movw	r30, r24
     d92:	10 82       	st	Z, r1
     d94:	89 81       	ldd	r24, Y+1	; 0x01
     d96:	9a 81       	ldd	r25, Y+2	; 0x02
     d98:	8e 5d       	subi	r24, 0xDE	; 222
     d9a:	9e 4f       	sbci	r25, 0xFE	; 254
     d9c:	fc 01       	movw	r30, r24
     d9e:	10 82       	st	Z, r1
     da0:	11 82       	std	Z+1, r1	; 0x01
     da2:	12 82       	std	Z+2, r1	; 0x02
     da4:	13 82       	std	Z+3, r1	; 0x03
     da6:	8b 81       	ldd	r24, Y+3	; 0x03
     da8:	84 31       	cpi	r24, 0x14	; 20
     daa:	48 f1       	brcs	.+82     	; 0xdfe <_ZN14ADF5610_Driver14WriteRegistersEh+0x88>
     dac:	8b 81       	ldd	r24, Y+3	; 0x03
     dae:	87 31       	cpi	r24, 0x17	; 23
     db0:	f0 f0       	brcs	.+60     	; 0xdee <_ZN14ADF5610_Driver14WriteRegistersEh+0x78>
     db2:	8b 81       	ldd	r24, Y+3	; 0x03
     db4:	88 31       	cpi	r24, 0x18	; 24
     db6:	98 f0       	brcs	.+38     	; 0xdde <_ZN14ADF5610_Driver14WriteRegistersEh+0x68>
     db8:	8b 81       	ldd	r24, Y+3	; 0x03
     dba:	88 31       	cpi	r24, 0x18	; 24
     dbc:	41 f4       	brne	.+16     	; 0xdce <_ZN14ADF5610_Driver14WriteRegistersEh+0x58>
     dbe:	89 81       	ldd	r24, Y+1	; 0x01
     dc0:	9a 81       	ldd	r25, Y+2	; 0x02
     dc2:	86 5c       	subi	r24, 0xC6	; 198
     dc4:	9e 4f       	sbci	r25, 0xFE	; 254
     dc6:	24 e0       	ldi	r18, 0x04	; 4
     dc8:	fc 01       	movw	r30, r24
     dca:	20 83       	st	Z, r18
     dcc:	1f c0       	rjmp	.+62     	; 0xe0c <_ZN14ADF5610_Driver14WriteRegistersEh+0x96>
     dce:	89 81       	ldd	r24, Y+1	; 0x01
     dd0:	9a 81       	ldd	r25, Y+2	; 0x02
     dd2:	86 5c       	subi	r24, 0xC6	; 198
     dd4:	9e 4f       	sbci	r25, 0xFE	; 254
     dd6:	23 e0       	ldi	r18, 0x03	; 3
     dd8:	fc 01       	movw	r30, r24
     dda:	20 83       	st	Z, r18
     ddc:	17 c0       	rjmp	.+46     	; 0xe0c <_ZN14ADF5610_Driver14WriteRegistersEh+0x96>
     dde:	89 81       	ldd	r24, Y+1	; 0x01
     de0:	9a 81       	ldd	r25, Y+2	; 0x02
     de2:	86 5c       	subi	r24, 0xC6	; 198
     de4:	9e 4f       	sbci	r25, 0xFE	; 254
     de6:	23 e0       	ldi	r18, 0x03	; 3
     de8:	fc 01       	movw	r30, r24
     dea:	20 83       	st	Z, r18
     dec:	0f c0       	rjmp	.+30     	; 0xe0c <_ZN14ADF5610_Driver14WriteRegistersEh+0x96>
     dee:	89 81       	ldd	r24, Y+1	; 0x01
     df0:	9a 81       	ldd	r25, Y+2	; 0x02
     df2:	86 5c       	subi	r24, 0xC6	; 198
     df4:	9e 4f       	sbci	r25, 0xFE	; 254
     df6:	25 e0       	ldi	r18, 0x05	; 5
     df8:	fc 01       	movw	r30, r24
     dfa:	20 83       	st	Z, r18
     dfc:	07 c0       	rjmp	.+14     	; 0xe0c <_ZN14ADF5610_Driver14WriteRegistersEh+0x96>
     dfe:	89 81       	ldd	r24, Y+1	; 0x01
     e00:	9a 81       	ldd	r25, Y+2	; 0x02
     e02:	86 5c       	subi	r24, 0xC6	; 198
     e04:	9e 4f       	sbci	r25, 0xFE	; 254
     e06:	2b 81       	ldd	r18, Y+3	; 0x03
     e08:	fc 01       	movw	r30, r24
     e0a:	20 83       	st	Z, r18
     e0c:	89 81       	ldd	r24, Y+1	; 0x01
     e0e:	9a 81       	ldd	r25, Y+2	; 0x02
     e10:	86 5c       	subi	r24, 0xC6	; 198
     e12:	9e 4f       	sbci	r25, 0xFE	; 254
     e14:	fc 01       	movw	r30, r24
     e16:	80 81       	ld	r24, Z
     e18:	88 2f       	mov	r24, r24
     e1a:	90 e0       	ldi	r25, 0x00	; 0
     e1c:	81 31       	cpi	r24, 0x11	; 17
     e1e:	91 05       	cpc	r25, r1
     e20:	09 f4       	brne	.+2      	; 0xe24 <_ZN14ADF5610_Driver14WriteRegistersEh+0xae>
     e22:	d8 c0       	rjmp	.+432    	; 0xfd4 <_ZN14ADF5610_Driver14WriteRegistersEh+0x25e>
     e24:	82 31       	cpi	r24, 0x12	; 18
     e26:	91 05       	cpc	r25, r1
     e28:	24 f4       	brge	.+8      	; 0xe32 <_ZN14ADF5610_Driver14WriteRegistersEh+0xbc>
     e2a:	40 97       	sbiw	r24, 0x10	; 16
     e2c:	09 f4       	brne	.+2      	; 0xe30 <_ZN14ADF5610_Driver14WriteRegistersEh+0xba>
     e2e:	d4 c0       	rjmp	.+424    	; 0xfd8 <_ZN14ADF5610_Driver14WriteRegistersEh+0x262>
     e30:	07 c0       	rjmp	.+14     	; 0xe40 <_ZN14ADF5610_Driver14WriteRegistersEh+0xca>
     e32:	82 31       	cpi	r24, 0x12	; 18
     e34:	91 05       	cpc	r25, r1
     e36:	09 f4       	brne	.+2      	; 0xe3a <_ZN14ADF5610_Driver14WriteRegistersEh+0xc4>
     e38:	d1 c0       	rjmp	.+418    	; 0xfdc <_ZN14ADF5610_Driver14WriteRegistersEh+0x266>
     e3a:	43 97       	sbiw	r24, 0x13	; 19
     e3c:	09 f4       	brne	.+2      	; 0xe40 <_ZN14ADF5610_Driver14WriteRegistersEh+0xca>
     e3e:	d0 c0       	rjmp	.+416    	; 0xfe0 <_ZN14ADF5610_Driver14WriteRegistersEh+0x26a>
     e40:	89 81       	ldd	r24, Y+1	; 0x01
     e42:	9a 81       	ldd	r25, Y+2	; 0x02
     e44:	fc 01       	movw	r30, r24
     e46:	84 81       	ldd	r24, Z+4	; 0x04
     e48:	95 81       	ldd	r25, Z+5	; 0x05
     e4a:	60 e0       	ldi	r22, 0x00	; 0
     e4c:	0e 94 41 12 	call	0x2482	; 0x2482 <_ZN17SPI_Syn_Class_ADF5SetCSEb>
     e50:	89 81       	ldd	r24, Y+1	; 0x01
     e52:	9a 81       	ldd	r25, Y+2	; 0x02
     e54:	86 5c       	subi	r24, 0xC6	; 198
     e56:	9e 4f       	sbci	r25, 0xFE	; 254
     e58:	fc 01       	movw	r30, r24
     e5a:	80 81       	ld	r24, Z
     e5c:	88 2f       	mov	r24, r24
     e5e:	90 e0       	ldi	r25, 0x00	; 0
     e60:	a0 e0       	ldi	r26, 0x00	; 0
     e62:	b0 e0       	ldi	r27, 0x00	; 0
     e64:	88 0f       	add	r24, r24
     e66:	99 1f       	adc	r25, r25
     e68:	aa 1f       	adc	r26, r26
     e6a:	bb 1f       	adc	r27, r27
     e6c:	88 0f       	add	r24, r24
     e6e:	99 1f       	adc	r25, r25
     e70:	aa 1f       	adc	r26, r26
     e72:	bb 1f       	adc	r27, r27
     e74:	88 0f       	add	r24, r24
     e76:	99 1f       	adc	r25, r25
     e78:	aa 1f       	adc	r26, r26
     e7a:	bb 1f       	adc	r27, r27
     e7c:	9c 01       	movw	r18, r24
     e7e:	ad 01       	movw	r20, r26
     e80:	8b 81       	ldd	r24, Y+3	; 0x03
     e82:	88 2f       	mov	r24, r24
     e84:	90 e0       	ldi	r25, 0x00	; 0
     e86:	69 81       	ldd	r22, Y+1	; 0x01
     e88:	7a 81       	ldd	r23, Y+2	; 0x02
     e8a:	88 0f       	add	r24, r24
     e8c:	99 1f       	adc	r25, r25
     e8e:	88 0f       	add	r24, r24
     e90:	99 1f       	adc	r25, r25
     e92:	86 0f       	add	r24, r22
     e94:	97 1f       	adc	r25, r23
     e96:	86 59       	subi	r24, 0x96	; 150
     e98:	9f 4f       	sbci	r25, 0xFF	; 255
     e9a:	fc 01       	movw	r30, r24
     e9c:	80 81       	ld	r24, Z
     e9e:	91 81       	ldd	r25, Z+1	; 0x01
     ea0:	a2 81       	ldd	r26, Z+2	; 0x02
     ea2:	b3 81       	ldd	r27, Z+3	; 0x03
     ea4:	ba 2f       	mov	r27, r26
     ea6:	a9 2f       	mov	r26, r25
     ea8:	98 2f       	mov	r25, r24
     eaa:	88 27       	eor	r24, r24
     eac:	82 2b       	or	r24, r18
     eae:	93 2b       	or	r25, r19
     eb0:	a4 2b       	or	r26, r20
     eb2:	b5 2b       	or	r27, r21
     eb4:	29 81       	ldd	r18, Y+1	; 0x01
     eb6:	3a 81       	ldd	r19, Y+2	; 0x02
     eb8:	2e 5d       	subi	r18, 0xDE	; 222
     eba:	3e 4f       	sbci	r19, 0xFE	; 254
     ebc:	f9 01       	movw	r30, r18
     ebe:	80 83       	st	Z, r24
     ec0:	91 83       	std	Z+1, r25	; 0x01
     ec2:	a2 83       	std	Z+2, r26	; 0x02
     ec4:	b3 83       	std	Z+3, r27	; 0x03
     ec6:	89 81       	ldd	r24, Y+1	; 0x01
     ec8:	9a 81       	ldd	r25, Y+2	; 0x02
     eca:	8e 5d       	subi	r24, 0xDE	; 222
     ecc:	9e 4f       	sbci	r25, 0xFE	; 254
     ece:	fc 01       	movw	r30, r24
     ed0:	80 81       	ld	r24, Z
     ed2:	91 81       	ldd	r25, Z+1	; 0x01
     ed4:	a2 81       	ldd	r26, Z+2	; 0x02
     ed6:	b3 81       	ldd	r27, Z+3	; 0x03
     ed8:	29 81       	ldd	r18, Y+1	; 0x01
     eda:	3a 81       	ldd	r19, Y+2	; 0x02
     edc:	b9 01       	movw	r22, r18
     ede:	6d 5b       	subi	r22, 0xBD	; 189
     ee0:	7e 4f       	sbci	r23, 0xFE	; 254
     ee2:	e9 81       	ldd	r30, Y+1	; 0x01
     ee4:	fa 81       	ldd	r31, Y+2	; 0x02
     ee6:	9c 01       	movw	r18, r24
     ee8:	ad 01       	movw	r20, r26
     eea:	cf 01       	movw	r24, r30
     eec:	0e 94 fa 07 	call	0xff4	; 0xff4 <_ZN14ADF5610_Driver23ConvertU32FourByteArrayEPhm>
     ef0:	89 81       	ldd	r24, Y+1	; 0x01
     ef2:	9a 81       	ldd	r25, Y+2	; 0x02
     ef4:	9c 01       	movw	r18, r24
     ef6:	2d 5b       	subi	r18, 0xBD	; 189
     ef8:	3e 4f       	sbci	r19, 0xFE	; 254
     efa:	89 81       	ldd	r24, Y+1	; 0x01
     efc:	9a 81       	ldd	r25, Y+2	; 0x02
     efe:	fc 01       	movw	r30, r24
     f00:	84 81       	ldd	r24, Z+4	; 0x04
     f02:	95 81       	ldd	r25, Z+5	; 0x05
     f04:	44 e0       	ldi	r20, 0x04	; 4
     f06:	b9 01       	movw	r22, r18
     f08:	0e 94 05 12 	call	0x240a	; 0x240a <_ZN17SPI_Syn_Class_ADF5WriteEPKhh>
     f0c:	89 81       	ldd	r24, Y+1	; 0x01
     f0e:	9a 81       	ldd	r25, Y+2	; 0x02
     f10:	4a e0       	ldi	r20, 0x0A	; 10
     f12:	50 e0       	ldi	r21, 0x00	; 0
     f14:	60 e0       	ldi	r22, 0x00	; 0
     f16:	70 e0       	ldi	r23, 0x00	; 0
     f18:	0e 94 22 10 	call	0x2044	; 0x2044 <_ZN14ADF5610_Driver6usleepEl>
     f1c:	89 81       	ldd	r24, Y+1	; 0x01
     f1e:	9a 81       	ldd	r25, Y+2	; 0x02
     f20:	fc 01       	movw	r30, r24
     f22:	84 81       	ldd	r24, Z+4	; 0x04
     f24:	95 81       	ldd	r25, Z+5	; 0x05
     f26:	61 e0       	ldi	r22, 0x01	; 1
     f28:	0e 94 41 12 	call	0x2482	; 0x2482 <_ZN17SPI_Syn_Class_ADF5SetCSEb>
     f2c:	89 81       	ldd	r24, Y+1	; 0x01
     f2e:	9a 81       	ldd	r25, Y+2	; 0x02
     f30:	8b 5c       	subi	r24, 0xCB	; 203
     f32:	9e 4f       	sbci	r25, 0xFE	; 254
     f34:	fc 01       	movw	r30, r24
     f36:	90 81       	ld	r25, Z
     f38:	81 e0       	ldi	r24, 0x01	; 1
     f3a:	89 27       	eor	r24, r25
     f3c:	88 23       	and	r24, r24
     f3e:	09 f4       	brne	.+2      	; 0xf42 <_ZN14ADF5610_Driver14WriteRegistersEh+0x1cc>
     f40:	51 c0       	rjmp	.+162    	; 0xfe4 <_ZN14ADF5610_Driver14WriteRegistersEh+0x26e>
     f42:	89 81       	ldd	r24, Y+1	; 0x01
     f44:	9a 81       	ldd	r25, Y+2	; 0x02
     f46:	41 e0       	ldi	r20, 0x01	; 1
     f48:	50 e0       	ldi	r21, 0x00	; 0
     f4a:	60 e0       	ldi	r22, 0x00	; 0
     f4c:	70 e0       	ldi	r23, 0x00	; 0
     f4e:	0e 94 22 10 	call	0x2044	; 0x2044 <_ZN14ADF5610_Driver6usleepEl>
     f52:	89 81       	ldd	r24, Y+1	; 0x01
     f54:	9a 81       	ldd	r25, Y+2	; 0x02
     f56:	86 5c       	subi	r24, 0xC6	; 198
     f58:	9e 4f       	sbci	r25, 0xFE	; 254
     f5a:	fc 01       	movw	r30, r24
     f5c:	20 81       	ld	r18, Z
     f5e:	89 81       	ldd	r24, Y+1	; 0x01
     f60:	9a 81       	ldd	r25, Y+2	; 0x02
     f62:	62 2f       	mov	r22, r18
     f64:	0e 94 3e 08 	call	0x107c	; 0x107c <_ZN14ADF5610_Driver13ReadRegistersEh>
     f68:	89 81       	ldd	r24, Y+1	; 0x01
     f6a:	9a 81       	ldd	r25, Y+2	; 0x02
     f6c:	86 5c       	subi	r24, 0xC6	; 198
     f6e:	9e 4f       	sbci	r25, 0xFE	; 254
     f70:	fc 01       	movw	r30, r24
     f72:	80 81       	ld	r24, Z
     f74:	88 2f       	mov	r24, r24
     f76:	90 e0       	ldi	r25, 0x00	; 0
     f78:	29 81       	ldd	r18, Y+1	; 0x01
     f7a:	3a 81       	ldd	r19, Y+2	; 0x02
     f7c:	88 0f       	add	r24, r24
     f7e:	99 1f       	adc	r25, r25
     f80:	88 0f       	add	r24, r24
     f82:	99 1f       	adc	r25, r25
     f84:	82 0f       	add	r24, r18
     f86:	93 1f       	adc	r25, r19
     f88:	0e 96       	adiw	r24, 0x0e	; 14
     f8a:	fc 01       	movw	r30, r24
     f8c:	20 81       	ld	r18, Z
     f8e:	31 81       	ldd	r19, Z+1	; 0x01
     f90:	42 81       	ldd	r20, Z+2	; 0x02
     f92:	53 81       	ldd	r21, Z+3	; 0x03
     f94:	8b 81       	ldd	r24, Y+3	; 0x03
     f96:	88 2f       	mov	r24, r24
     f98:	90 e0       	ldi	r25, 0x00	; 0
     f9a:	69 81       	ldd	r22, Y+1	; 0x01
     f9c:	7a 81       	ldd	r23, Y+2	; 0x02
     f9e:	88 0f       	add	r24, r24
     fa0:	99 1f       	adc	r25, r25
     fa2:	88 0f       	add	r24, r24
     fa4:	99 1f       	adc	r25, r25
     fa6:	86 0f       	add	r24, r22
     fa8:	97 1f       	adc	r25, r23
     faa:	86 59       	subi	r24, 0x96	; 150
     fac:	9f 4f       	sbci	r25, 0xFF	; 255
     fae:	fc 01       	movw	r30, r24
     fb0:	80 81       	ld	r24, Z
     fb2:	91 81       	ldd	r25, Z+1	; 0x01
     fb4:	a2 81       	ldd	r26, Z+2	; 0x02
     fb6:	b3 81       	ldd	r27, Z+3	; 0x03
     fb8:	28 17       	cp	r18, r24
     fba:	39 07       	cpc	r19, r25
     fbc:	4a 07       	cpc	r20, r26
     fbe:	5b 07       	cpc	r21, r27
     fc0:	89 f0       	breq	.+34     	; 0xfe4 <_ZN14ADF5610_Driver14WriteRegistersEh+0x26e>
     fc2:	8b 81       	ldd	r24, Y+3	; 0x03
     fc4:	28 2f       	mov	r18, r24
     fc6:	30 e0       	ldi	r19, 0x00	; 0
     fc8:	89 81       	ldd	r24, Y+1	; 0x01
     fca:	9a 81       	ldd	r25, Y+2	; 0x02
     fcc:	b9 01       	movw	r22, r18
     fce:	0e 94 d8 05 	call	0xbb0	; 0xbb0 <_ZN14ADF5610_Driver13ShowRegistersEi>
     fd2:	08 c0       	rjmp	.+16     	; 0xfe4 <_ZN14ADF5610_Driver14WriteRegistersEh+0x26e>
     fd4:	00 00       	nop
     fd6:	07 c0       	rjmp	.+14     	; 0xfe6 <_ZN14ADF5610_Driver14WriteRegistersEh+0x270>
     fd8:	00 00       	nop
     fda:	05 c0       	rjmp	.+10     	; 0xfe6 <_ZN14ADF5610_Driver14WriteRegistersEh+0x270>
     fdc:	00 00       	nop
     fde:	03 c0       	rjmp	.+6      	; 0xfe6 <_ZN14ADF5610_Driver14WriteRegistersEh+0x270>
     fe0:	00 00       	nop
     fe2:	01 c0       	rjmp	.+2      	; 0xfe6 <_ZN14ADF5610_Driver14WriteRegistersEh+0x270>
     fe4:	00 00       	nop
     fe6:	00 00       	nop
     fe8:	23 96       	adiw	r28, 0x03	; 3
     fea:	cd bf       	out	0x3d, r28	; 61
     fec:	de bf       	out	0x3e, r29	; 62
     fee:	df 91       	pop	r29
     ff0:	cf 91       	pop	r28
     ff2:	08 95       	ret

00000ff4 <_ZN14ADF5610_Driver23ConvertU32FourByteArrayEPhm>:
     ff4:	cf 93       	push	r28
     ff6:	df 93       	push	r29
     ff8:	cd b7       	in	r28, 0x3d	; 61
     ffa:	de b7       	in	r29, 0x3e	; 62
     ffc:	2a 97       	sbiw	r28, 0x0a	; 10
     ffe:	cd bf       	out	0x3d, r28	; 61
    1000:	de bf       	out	0x3e, r29	; 62
    1002:	8b 83       	std	Y+3, r24	; 0x03
    1004:	9c 83       	std	Y+4, r25	; 0x04
    1006:	6d 83       	std	Y+5, r22	; 0x05
    1008:	7e 83       	std	Y+6, r23	; 0x06
    100a:	2f 83       	std	Y+7, r18	; 0x07
    100c:	38 87       	std	Y+8, r19	; 0x08
    100e:	49 87       	std	Y+9, r20	; 0x09
    1010:	5a 87       	std	Y+10, r21	; 0x0a
    1012:	19 82       	std	Y+1, r1	; 0x01
    1014:	1a 82       	std	Y+2, r1	; 0x02
    1016:	89 81       	ldd	r24, Y+1	; 0x01
    1018:	9a 81       	ldd	r25, Y+2	; 0x02
    101a:	04 97       	sbiw	r24, 0x04	; 4
    101c:	44 f5       	brge	.+80     	; 0x106e <_ZN14ADF5610_Driver23ConvertU32FourByteArrayEPhm+0x7a>
    101e:	89 81       	ldd	r24, Y+1	; 0x01
    1020:	9a 81       	ldd	r25, Y+2	; 0x02
    1022:	2d 81       	ldd	r18, Y+5	; 0x05
    1024:	3e 81       	ldd	r19, Y+6	; 0x06
    1026:	28 0f       	add	r18, r24
    1028:	39 1f       	adc	r19, r25
    102a:	43 e0       	ldi	r20, 0x03	; 3
    102c:	50 e0       	ldi	r21, 0x00	; 0
    102e:	89 81       	ldd	r24, Y+1	; 0x01
    1030:	9a 81       	ldd	r25, Y+2	; 0x02
    1032:	ba 01       	movw	r22, r20
    1034:	68 1b       	sub	r22, r24
    1036:	79 0b       	sbc	r23, r25
    1038:	cb 01       	movw	r24, r22
    103a:	ac 01       	movw	r20, r24
    103c:	44 0f       	add	r20, r20
    103e:	55 1f       	adc	r21, r21
    1040:	44 0f       	add	r20, r20
    1042:	55 1f       	adc	r21, r21
    1044:	44 0f       	add	r20, r20
    1046:	55 1f       	adc	r21, r21
    1048:	8f 81       	ldd	r24, Y+7	; 0x07
    104a:	98 85       	ldd	r25, Y+8	; 0x08
    104c:	a9 85       	ldd	r26, Y+9	; 0x09
    104e:	ba 85       	ldd	r27, Y+10	; 0x0a
    1050:	04 c0       	rjmp	.+8      	; 0x105a <_ZN14ADF5610_Driver23ConvertU32FourByteArrayEPhm+0x66>
    1052:	b6 95       	lsr	r27
    1054:	a7 95       	ror	r26
    1056:	97 95       	ror	r25
    1058:	87 95       	ror	r24
    105a:	4a 95       	dec	r20
    105c:	d2 f7       	brpl	.-12     	; 0x1052 <_ZN14ADF5610_Driver23ConvertU32FourByteArrayEPhm+0x5e>
    105e:	f9 01       	movw	r30, r18
    1060:	80 83       	st	Z, r24
    1062:	89 81       	ldd	r24, Y+1	; 0x01
    1064:	9a 81       	ldd	r25, Y+2	; 0x02
    1066:	01 96       	adiw	r24, 0x01	; 1
    1068:	89 83       	std	Y+1, r24	; 0x01
    106a:	9a 83       	std	Y+2, r25	; 0x02
    106c:	d4 cf       	rjmp	.-88     	; 0x1016 <_ZN14ADF5610_Driver23ConvertU32FourByteArrayEPhm+0x22>
    106e:	00 00       	nop
    1070:	2a 96       	adiw	r28, 0x0a	; 10
    1072:	cd bf       	out	0x3d, r28	; 61
    1074:	de bf       	out	0x3e, r29	; 62
    1076:	df 91       	pop	r29
    1078:	cf 91       	pop	r28
    107a:	08 95       	ret

0000107c <_ZN14ADF5610_Driver13ReadRegistersEh>:
    107c:	ef 92       	push	r14
    107e:	ff 92       	push	r15
    1080:	0f 93       	push	r16
    1082:	1f 93       	push	r17
    1084:	cf 93       	push	r28
    1086:	df 93       	push	r29
    1088:	cd b7       	in	r28, 0x3d	; 61
    108a:	de b7       	in	r29, 0x3e	; 62
    108c:	61 97       	sbiw	r28, 0x11	; 17
    108e:	cd bf       	out	0x3d, r28	; 61
    1090:	de bf       	out	0x3e, r29	; 62
    1092:	8f 87       	std	Y+15, r24	; 0x0f
    1094:	98 8b       	std	Y+16, r25	; 0x10
    1096:	69 8b       	std	Y+17, r22	; 0x11
    1098:	8f 85       	ldd	r24, Y+15	; 0x0f
    109a:	98 89       	ldd	r25, Y+16	; 0x10
    109c:	fc 01       	movw	r30, r24
    109e:	84 81       	ldd	r24, Z+4	; 0x04
    10a0:	95 81       	ldd	r25, Z+5	; 0x05
    10a2:	60 e0       	ldi	r22, 0x00	; 0
    10a4:	0e 94 41 12 	call	0x2482	; 0x2482 <_ZN17SPI_Syn_Class_ADF5SetCSEb>
    10a8:	8f 85       	ldd	r24, Y+15	; 0x0f
    10aa:	98 89       	ldd	r25, Y+16	; 0x10
    10ac:	8d 5b       	subi	r24, 0xBD	; 189
    10ae:	9e 4f       	sbci	r25, 0xFE	; 254
    10b0:	fc 01       	movw	r30, r24
    10b2:	10 82       	st	Z, r1
    10b4:	8f 85       	ldd	r24, Y+15	; 0x0f
    10b6:	98 89       	ldd	r25, Y+16	; 0x10
    10b8:	8c 5b       	subi	r24, 0xBC	; 188
    10ba:	9e 4f       	sbci	r25, 0xFE	; 254
    10bc:	fc 01       	movw	r30, r24
    10be:	10 82       	st	Z, r1
    10c0:	8f 85       	ldd	r24, Y+15	; 0x0f
    10c2:	98 89       	ldd	r25, Y+16	; 0x10
    10c4:	8b 5b       	subi	r24, 0xBB	; 187
    10c6:	9e 4f       	sbci	r25, 0xFE	; 254
    10c8:	29 89       	ldd	r18, Y+17	; 0x11
    10ca:	fc 01       	movw	r30, r24
    10cc:	20 83       	st	Z, r18
    10ce:	8f 85       	ldd	r24, Y+15	; 0x0f
    10d0:	98 89       	ldd	r25, Y+16	; 0x10
    10d2:	8a 5b       	subi	r24, 0xBA	; 186
    10d4:	9e 4f       	sbci	r25, 0xFE	; 254
    10d6:	fc 01       	movw	r30, r24
    10d8:	10 82       	st	Z, r1
    10da:	8f 85       	ldd	r24, Y+15	; 0x0f
    10dc:	98 89       	ldd	r25, Y+16	; 0x10
    10de:	9c 01       	movw	r18, r24
    10e0:	2d 5b       	subi	r18, 0xBD	; 189
    10e2:	3e 4f       	sbci	r19, 0xFE	; 254
    10e4:	8f 85       	ldd	r24, Y+15	; 0x0f
    10e6:	98 89       	ldd	r25, Y+16	; 0x10
    10e8:	fc 01       	movw	r30, r24
    10ea:	84 81       	ldd	r24, Z+4	; 0x04
    10ec:	95 81       	ldd	r25, Z+5	; 0x05
    10ee:	44 e0       	ldi	r20, 0x04	; 4
    10f0:	b9 01       	movw	r22, r18
    10f2:	0e 94 05 12 	call	0x240a	; 0x240a <_ZN17SPI_Syn_Class_ADF5WriteEPKhh>
    10f6:	8f 85       	ldd	r24, Y+15	; 0x0f
    10f8:	98 89       	ldd	r25, Y+16	; 0x10
    10fa:	fc 01       	movw	r30, r24
    10fc:	84 81       	ldd	r24, Z+4	; 0x04
    10fe:	95 81       	ldd	r25, Z+5	; 0x05
    1100:	61 e0       	ldi	r22, 0x01	; 1
    1102:	0e 94 41 12 	call	0x2482	; 0x2482 <_ZN17SPI_Syn_Class_ADF5SetCSEb>
    1106:	80 e0       	ldi	r24, 0x00	; 0
    1108:	90 e0       	ldi	r25, 0x00	; 0
    110a:	a0 e8       	ldi	r26, 0x80	; 128
    110c:	bf e3       	ldi	r27, 0x3F	; 63
    110e:	89 83       	std	Y+1, r24	; 0x01
    1110:	9a 83       	std	Y+2, r25	; 0x02
    1112:	ab 83       	std	Y+3, r26	; 0x03
    1114:	bc 83       	std	Y+4, r27	; 0x04
    1116:	20 e0       	ldi	r18, 0x00	; 0
    1118:	30 e8       	ldi	r19, 0x80	; 128
    111a:	4b eb       	ldi	r20, 0xBB	; 187
    111c:	55 e4       	ldi	r21, 0x45	; 69
    111e:	69 81       	ldd	r22, Y+1	; 0x01
    1120:	7a 81       	ldd	r23, Y+2	; 0x02
    1122:	8b 81       	ldd	r24, Y+3	; 0x03
    1124:	9c 81       	ldd	r25, Y+4	; 0x04
    1126:	0e 94 e8 26 	call	0x4dd0	; 0x4dd0 <__mulsf3>
    112a:	dc 01       	movw	r26, r24
    112c:	cb 01       	movw	r24, r22
    112e:	8d 83       	std	Y+5, r24	; 0x05
    1130:	9e 83       	std	Y+6, r25	; 0x06
    1132:	af 83       	std	Y+7, r26	; 0x07
    1134:	b8 87       	std	Y+8, r27	; 0x08
    1136:	20 e0       	ldi	r18, 0x00	; 0
    1138:	30 e0       	ldi	r19, 0x00	; 0
    113a:	40 e8       	ldi	r20, 0x80	; 128
    113c:	5f e3       	ldi	r21, 0x3F	; 63
    113e:	6d 81       	ldd	r22, Y+5	; 0x05
    1140:	7e 81       	ldd	r23, Y+6	; 0x06
    1142:	8f 81       	ldd	r24, Y+7	; 0x07
    1144:	98 85       	ldd	r25, Y+8	; 0x08
    1146:	0e 94 dc 24 	call	0x49b8	; 0x49b8 <__cmpsf2>
    114a:	88 23       	and	r24, r24
    114c:	2c f4       	brge	.+10     	; 0x1158 <_ZN14ADF5610_Driver13ReadRegistersEh+0xdc>
    114e:	81 e0       	ldi	r24, 0x01	; 1
    1150:	90 e0       	ldi	r25, 0x00	; 0
    1152:	89 87       	std	Y+9, r24	; 0x09
    1154:	9a 87       	std	Y+10, r25	; 0x0a
    1156:	3e c0       	rjmp	.+124    	; 0x11d4 <_ZN14ADF5610_Driver13ReadRegistersEh+0x158>
    1158:	20 e0       	ldi	r18, 0x00	; 0
    115a:	3f ef       	ldi	r19, 0xFF	; 255
    115c:	4f e7       	ldi	r20, 0x7F	; 127
    115e:	57 e4       	ldi	r21, 0x47	; 71
    1160:	6d 81       	ldd	r22, Y+5	; 0x05
    1162:	7e 81       	ldd	r23, Y+6	; 0x06
    1164:	8f 81       	ldd	r24, Y+7	; 0x07
    1166:	98 85       	ldd	r25, Y+8	; 0x08
    1168:	0e 94 93 26 	call	0x4d26	; 0x4d26 <__gesf2>
    116c:	18 16       	cp	r1, r24
    116e:	44 f5       	brge	.+80     	; 0x11c0 <_ZN14ADF5610_Driver13ReadRegistersEh+0x144>
    1170:	20 e0       	ldi	r18, 0x00	; 0
    1172:	30 e0       	ldi	r19, 0x00	; 0
    1174:	40 e2       	ldi	r20, 0x20	; 32
    1176:	51 e4       	ldi	r21, 0x41	; 65
    1178:	69 81       	ldd	r22, Y+1	; 0x01
    117a:	7a 81       	ldd	r23, Y+2	; 0x02
    117c:	8b 81       	ldd	r24, Y+3	; 0x03
    117e:	9c 81       	ldd	r25, Y+4	; 0x04
    1180:	0e 94 e8 26 	call	0x4dd0	; 0x4dd0 <__mulsf3>
    1184:	dc 01       	movw	r26, r24
    1186:	cb 01       	movw	r24, r22
    1188:	bc 01       	movw	r22, r24
    118a:	cd 01       	movw	r24, r26
    118c:	0e 94 5a 25 	call	0x4ab4	; 0x4ab4 <__fixunssfsi>
    1190:	dc 01       	movw	r26, r24
    1192:	cb 01       	movw	r24, r22
    1194:	89 87       	std	Y+9, r24	; 0x09
    1196:	9a 87       	std	Y+10, r25	; 0x0a
    1198:	89 85       	ldd	r24, Y+9	; 0x09
    119a:	9a 85       	ldd	r25, Y+10	; 0x0a
    119c:	89 2b       	or	r24, r25
    119e:	21 f1       	breq	.+72     	; 0x11e8 <_ZN14ADF5610_Driver13ReadRegistersEh+0x16c>
    11a0:	88 e5       	ldi	r24, 0x58	; 88
    11a2:	92 e0       	ldi	r25, 0x02	; 2
    11a4:	8b 87       	std	Y+11, r24	; 0x0b
    11a6:	9c 87       	std	Y+12, r25	; 0x0c
    11a8:	8b 85       	ldd	r24, Y+11	; 0x0b
    11aa:	9c 85       	ldd	r25, Y+12	; 0x0c
    11ac:	01 97       	sbiw	r24, 0x01	; 1
    11ae:	f1 f7       	brne	.-4      	; 0x11ac <_ZN14ADF5610_Driver13ReadRegistersEh+0x130>
    11b0:	8b 87       	std	Y+11, r24	; 0x0b
    11b2:	9c 87       	std	Y+12, r25	; 0x0c
    11b4:	89 85       	ldd	r24, Y+9	; 0x09
    11b6:	9a 85       	ldd	r25, Y+10	; 0x0a
    11b8:	01 97       	sbiw	r24, 0x01	; 1
    11ba:	89 87       	std	Y+9, r24	; 0x09
    11bc:	9a 87       	std	Y+10, r25	; 0x0a
    11be:	ec cf       	rjmp	.-40     	; 0x1198 <_ZN14ADF5610_Driver13ReadRegistersEh+0x11c>
    11c0:	6d 81       	ldd	r22, Y+5	; 0x05
    11c2:	7e 81       	ldd	r23, Y+6	; 0x06
    11c4:	8f 81       	ldd	r24, Y+7	; 0x07
    11c6:	98 85       	ldd	r25, Y+8	; 0x08
    11c8:	0e 94 5a 25 	call	0x4ab4	; 0x4ab4 <__fixunssfsi>
    11cc:	dc 01       	movw	r26, r24
    11ce:	cb 01       	movw	r24, r22
    11d0:	89 87       	std	Y+9, r24	; 0x09
    11d2:	9a 87       	std	Y+10, r25	; 0x0a
    11d4:	89 85       	ldd	r24, Y+9	; 0x09
    11d6:	9a 85       	ldd	r25, Y+10	; 0x0a
    11d8:	8d 87       	std	Y+13, r24	; 0x0d
    11da:	9e 87       	std	Y+14, r25	; 0x0e
    11dc:	8d 85       	ldd	r24, Y+13	; 0x0d
    11de:	9e 85       	ldd	r25, Y+14	; 0x0e
    11e0:	01 97       	sbiw	r24, 0x01	; 1
    11e2:	f1 f7       	brne	.-4      	; 0x11e0 <_ZN14ADF5610_Driver13ReadRegistersEh+0x164>
    11e4:	8d 87       	std	Y+13, r24	; 0x0d
    11e6:	9e 87       	std	Y+14, r25	; 0x0e
    11e8:	8f 85       	ldd	r24, Y+15	; 0x0f
    11ea:	98 89       	ldd	r25, Y+16	; 0x10
    11ec:	fc 01       	movw	r30, r24
    11ee:	84 81       	ldd	r24, Z+4	; 0x04
    11f0:	95 81       	ldd	r25, Z+5	; 0x05
    11f2:	60 e0       	ldi	r22, 0x00	; 0
    11f4:	0e 94 41 12 	call	0x2482	; 0x2482 <_ZN17SPI_Syn_Class_ADF5SetCSEb>
    11f8:	8f 85       	ldd	r24, Y+15	; 0x0f
    11fa:	98 89       	ldd	r25, Y+16	; 0x10
    11fc:	9c 01       	movw	r18, r24
    11fe:	25 5c       	subi	r18, 0xC5	; 197
    1200:	3e 4f       	sbci	r19, 0xFE	; 254
    1202:	8f 85       	ldd	r24, Y+15	; 0x0f
    1204:	98 89       	ldd	r25, Y+16	; 0x10
    1206:	fc 01       	movw	r30, r24
    1208:	84 81       	ldd	r24, Z+4	; 0x04
    120a:	95 81       	ldd	r25, Z+5	; 0x05
    120c:	44 e0       	ldi	r20, 0x04	; 4
    120e:	b9 01       	movw	r22, r18
    1210:	0e 94 23 12 	call	0x2446	; 0x2446 <_ZN17SPI_Syn_Class_ADF4ReadEPhh>
    1214:	89 89       	ldd	r24, Y+17	; 0x11
    1216:	88 2f       	mov	r24, r24
    1218:	90 e0       	ldi	r25, 0x00	; 0
    121a:	2f 85       	ldd	r18, Y+15	; 0x0f
    121c:	38 89       	ldd	r19, Y+16	; 0x10
    121e:	88 0f       	add	r24, r24
    1220:	99 1f       	adc	r25, r25
    1222:	88 0f       	add	r24, r24
    1224:	99 1f       	adc	r25, r25
    1226:	82 0f       	add	r24, r18
    1228:	93 1f       	adc	r25, r19
    122a:	0e 96       	adiw	r24, 0x0e	; 14
    122c:	fc 01       	movw	r30, r24
    122e:	10 82       	st	Z, r1
    1230:	11 82       	std	Z+1, r1	; 0x01
    1232:	12 82       	std	Z+2, r1	; 0x02
    1234:	13 82       	std	Z+3, r1	; 0x03
    1236:	89 89       	ldd	r24, Y+17	; 0x11
    1238:	88 2f       	mov	r24, r24
    123a:	90 e0       	ldi	r25, 0x00	; 0
    123c:	2f 85       	ldd	r18, Y+15	; 0x0f
    123e:	38 89       	ldd	r19, Y+16	; 0x10
    1240:	88 0f       	add	r24, r24
    1242:	99 1f       	adc	r25, r25
    1244:	88 0f       	add	r24, r24
    1246:	99 1f       	adc	r25, r25
    1248:	82 0f       	add	r24, r18
    124a:	93 1f       	adc	r25, r19
    124c:	0e 96       	adiw	r24, 0x0e	; 14
    124e:	fc 01       	movw	r30, r24
    1250:	10 82       	st	Z, r1
    1252:	11 82       	std	Z+1, r1	; 0x01
    1254:	12 82       	std	Z+2, r1	; 0x02
    1256:	13 82       	std	Z+3, r1	; 0x03
    1258:	89 89       	ldd	r24, Y+17	; 0x11
    125a:	68 2f       	mov	r22, r24
    125c:	70 e0       	ldi	r23, 0x00	; 0
    125e:	8f 85       	ldd	r24, Y+15	; 0x0f
    1260:	98 89       	ldd	r25, Y+16	; 0x10
    1262:	85 5c       	subi	r24, 0xC5	; 197
    1264:	9e 4f       	sbci	r25, 0xFE	; 254
    1266:	fc 01       	movw	r30, r24
    1268:	80 81       	ld	r24, Z
    126a:	91 81       	ldd	r25, Z+1	; 0x01
    126c:	a2 81       	ldd	r26, Z+2	; 0x02
    126e:	b3 81       	ldd	r27, Z+3	; 0x03
    1270:	58 2f       	mov	r21, r24
    1272:	44 27       	eor	r20, r20
    1274:	33 27       	eor	r19, r19
    1276:	22 27       	eor	r18, r18
    1278:	8f 85       	ldd	r24, Y+15	; 0x0f
    127a:	98 89       	ldd	r25, Y+16	; 0x10
    127c:	85 5c       	subi	r24, 0xC5	; 197
    127e:	9e 4f       	sbci	r25, 0xFE	; 254
    1280:	fc 01       	movw	r30, r24
    1282:	80 81       	ld	r24, Z
    1284:	91 81       	ldd	r25, Z+1	; 0x01
    1286:	a2 81       	ldd	r26, Z+2	; 0x02
    1288:	b3 81       	ldd	r27, Z+3	; 0x03
    128a:	88 27       	eor	r24, r24
    128c:	aa 27       	eor	r26, r26
    128e:	bb 27       	eor	r27, r27
    1290:	ba 2f       	mov	r27, r26
    1292:	a9 2f       	mov	r26, r25
    1294:	98 2f       	mov	r25, r24
    1296:	88 27       	eor	r24, r24
    1298:	82 2b       	or	r24, r18
    129a:	93 2b       	or	r25, r19
    129c:	a4 2b       	or	r26, r20
    129e:	b5 2b       	or	r27, r21
    12a0:	4f 85       	ldd	r20, Y+15	; 0x0f
    12a2:	58 89       	ldd	r21, Y+16	; 0x10
    12a4:	9b 01       	movw	r18, r22
    12a6:	22 0f       	add	r18, r18
    12a8:	33 1f       	adc	r19, r19
    12aa:	22 0f       	add	r18, r18
    12ac:	33 1f       	adc	r19, r19
    12ae:	24 0f       	add	r18, r20
    12b0:	35 1f       	adc	r19, r21
    12b2:	22 5f       	subi	r18, 0xF2	; 242
    12b4:	3f 4f       	sbci	r19, 0xFF	; 255
    12b6:	f9 01       	movw	r30, r18
    12b8:	80 83       	st	Z, r24
    12ba:	91 83       	std	Z+1, r25	; 0x01
    12bc:	a2 83       	std	Z+2, r26	; 0x02
    12be:	b3 83       	std	Z+3, r27	; 0x03
    12c0:	89 89       	ldd	r24, Y+17	; 0x11
    12c2:	68 2f       	mov	r22, r24
    12c4:	70 e0       	ldi	r23, 0x00	; 0
    12c6:	89 89       	ldd	r24, Y+17	; 0x11
    12c8:	88 2f       	mov	r24, r24
    12ca:	90 e0       	ldi	r25, 0x00	; 0
    12cc:	2f 85       	ldd	r18, Y+15	; 0x0f
    12ce:	38 89       	ldd	r19, Y+16	; 0x10
    12d0:	88 0f       	add	r24, r24
    12d2:	99 1f       	adc	r25, r25
    12d4:	88 0f       	add	r24, r24
    12d6:	99 1f       	adc	r25, r25
    12d8:	82 0f       	add	r24, r18
    12da:	93 1f       	adc	r25, r19
    12dc:	0e 96       	adiw	r24, 0x0e	; 14
    12de:	fc 01       	movw	r30, r24
    12e0:	20 81       	ld	r18, Z
    12e2:	31 81       	ldd	r19, Z+1	; 0x01
    12e4:	42 81       	ldd	r20, Z+2	; 0x02
    12e6:	53 81       	ldd	r21, Z+3	; 0x03
    12e8:	8f 85       	ldd	r24, Y+15	; 0x0f
    12ea:	98 89       	ldd	r25, Y+16	; 0x10
    12ec:	85 5c       	subi	r24, 0xC5	; 197
    12ee:	9e 4f       	sbci	r25, 0xFE	; 254
    12f0:	fc 01       	movw	r30, r24
    12f2:	80 81       	ld	r24, Z
    12f4:	91 81       	ldd	r25, Z+1	; 0x01
    12f6:	a2 81       	ldd	r26, Z+2	; 0x02
    12f8:	b3 81       	ldd	r27, Z+3	; 0x03
    12fa:	eb 2e       	mov	r14, r27
    12fc:	ff 24       	eor	r15, r15
    12fe:	00 27       	eor	r16, r16
    1300:	11 27       	eor	r17, r17
    1302:	8f 85       	ldd	r24, Y+15	; 0x0f
    1304:	98 89       	ldd	r25, Y+16	; 0x10
    1306:	85 5c       	subi	r24, 0xC5	; 197
    1308:	9e 4f       	sbci	r25, 0xFE	; 254
    130a:	fc 01       	movw	r30, r24
    130c:	80 81       	ld	r24, Z
    130e:	91 81       	ldd	r25, Z+1	; 0x01
    1310:	a2 81       	ldd	r26, Z+2	; 0x02
    1312:	b3 81       	ldd	r27, Z+3	; 0x03
    1314:	88 27       	eor	r24, r24
    1316:	99 27       	eor	r25, r25
    1318:	bb 27       	eor	r27, r27
    131a:	89 2f       	mov	r24, r25
    131c:	9a 2f       	mov	r25, r26
    131e:	ab 2f       	mov	r26, r27
    1320:	bb 27       	eor	r27, r27
    1322:	8e 29       	or	r24, r14
    1324:	9f 29       	or	r25, r15
    1326:	a0 2b       	or	r26, r16
    1328:	b1 2b       	or	r27, r17
    132a:	82 2b       	or	r24, r18
    132c:	93 2b       	or	r25, r19
    132e:	a4 2b       	or	r26, r20
    1330:	b5 2b       	or	r27, r21
    1332:	4f 85       	ldd	r20, Y+15	; 0x0f
    1334:	58 89       	ldd	r21, Y+16	; 0x10
    1336:	9b 01       	movw	r18, r22
    1338:	22 0f       	add	r18, r18
    133a:	33 1f       	adc	r19, r19
    133c:	22 0f       	add	r18, r18
    133e:	33 1f       	adc	r19, r19
    1340:	24 0f       	add	r18, r20
    1342:	35 1f       	adc	r19, r21
    1344:	22 5f       	subi	r18, 0xF2	; 242
    1346:	3f 4f       	sbci	r19, 0xFF	; 255
    1348:	f9 01       	movw	r30, r18
    134a:	80 83       	st	Z, r24
    134c:	91 83       	std	Z+1, r25	; 0x01
    134e:	a2 83       	std	Z+2, r26	; 0x02
    1350:	b3 83       	std	Z+3, r27	; 0x03
    1352:	89 89       	ldd	r24, Y+17	; 0x11
    1354:	28 2f       	mov	r18, r24
    1356:	30 e0       	ldi	r19, 0x00	; 0
    1358:	89 89       	ldd	r24, Y+17	; 0x11
    135a:	88 2f       	mov	r24, r24
    135c:	90 e0       	ldi	r25, 0x00	; 0
    135e:	4f 85       	ldd	r20, Y+15	; 0x0f
    1360:	58 89       	ldd	r21, Y+16	; 0x10
    1362:	88 0f       	add	r24, r24
    1364:	99 1f       	adc	r25, r25
    1366:	88 0f       	add	r24, r24
    1368:	99 1f       	adc	r25, r25
    136a:	84 0f       	add	r24, r20
    136c:	95 1f       	adc	r25, r21
    136e:	0e 96       	adiw	r24, 0x0e	; 14
    1370:	fc 01       	movw	r30, r24
    1372:	80 81       	ld	r24, Z
    1374:	91 81       	ldd	r25, Z+1	; 0x01
    1376:	a2 81       	ldd	r26, Z+2	; 0x02
    1378:	b3 81       	ldd	r27, Z+3	; 0x03
    137a:	68 94       	set
    137c:	16 f8       	bld	r1, 6
    137e:	b6 95       	lsr	r27
    1380:	a7 95       	ror	r26
    1382:	97 95       	ror	r25
    1384:	87 95       	ror	r24
    1386:	16 94       	lsr	r1
    1388:	d1 f7       	brne	.-12     	; 0x137e <_ZN14ADF5610_Driver13ReadRegistersEh+0x302>
    138a:	4f 85       	ldd	r20, Y+15	; 0x0f
    138c:	58 89       	ldd	r21, Y+16	; 0x10
    138e:	22 0f       	add	r18, r18
    1390:	33 1f       	adc	r19, r19
    1392:	22 0f       	add	r18, r18
    1394:	33 1f       	adc	r19, r19
    1396:	24 0f       	add	r18, r20
    1398:	35 1f       	adc	r19, r21
    139a:	22 5f       	subi	r18, 0xF2	; 242
    139c:	3f 4f       	sbci	r19, 0xFF	; 255
    139e:	f9 01       	movw	r30, r18
    13a0:	80 83       	st	Z, r24
    13a2:	91 83       	std	Z+1, r25	; 0x01
    13a4:	a2 83       	std	Z+2, r26	; 0x02
    13a6:	b3 83       	std	Z+3, r27	; 0x03
    13a8:	89 89       	ldd	r24, Y+17	; 0x11
    13aa:	28 2f       	mov	r18, r24
    13ac:	30 e0       	ldi	r19, 0x00	; 0
    13ae:	89 89       	ldd	r24, Y+17	; 0x11
    13b0:	88 2f       	mov	r24, r24
    13b2:	90 e0       	ldi	r25, 0x00	; 0
    13b4:	4f 85       	ldd	r20, Y+15	; 0x0f
    13b6:	58 89       	ldd	r21, Y+16	; 0x10
    13b8:	88 0f       	add	r24, r24
    13ba:	99 1f       	adc	r25, r25
    13bc:	88 0f       	add	r24, r24
    13be:	99 1f       	adc	r25, r25
    13c0:	84 0f       	add	r24, r20
    13c2:	95 1f       	adc	r25, r21
    13c4:	0e 96       	adiw	r24, 0x0e	; 14
    13c6:	fc 01       	movw	r30, r24
    13c8:	80 81       	ld	r24, Z
    13ca:	91 81       	ldd	r25, Z+1	; 0x01
    13cc:	a2 81       	ldd	r26, Z+2	; 0x02
    13ce:	b3 81       	ldd	r27, Z+3	; 0x03
    13d0:	be 7f       	andi	r27, 0xFE	; 254
    13d2:	4f 85       	ldd	r20, Y+15	; 0x0f
    13d4:	58 89       	ldd	r21, Y+16	; 0x10
    13d6:	22 0f       	add	r18, r18
    13d8:	33 1f       	adc	r19, r19
    13da:	22 0f       	add	r18, r18
    13dc:	33 1f       	adc	r19, r19
    13de:	24 0f       	add	r18, r20
    13e0:	35 1f       	adc	r19, r21
    13e2:	22 5f       	subi	r18, 0xF2	; 242
    13e4:	3f 4f       	sbci	r19, 0xFF	; 255
    13e6:	f9 01       	movw	r30, r18
    13e8:	80 83       	st	Z, r24
    13ea:	91 83       	std	Z+1, r25	; 0x01
    13ec:	a2 83       	std	Z+2, r26	; 0x02
    13ee:	b3 83       	std	Z+3, r27	; 0x03
    13f0:	8f 85       	ldd	r24, Y+15	; 0x0f
    13f2:	98 89       	ldd	r25, Y+16	; 0x10
    13f4:	fc 01       	movw	r30, r24
    13f6:	84 81       	ldd	r24, Z+4	; 0x04
    13f8:	95 81       	ldd	r25, Z+5	; 0x05
    13fa:	61 e0       	ldi	r22, 0x01	; 1
    13fc:	0e 94 41 12 	call	0x2482	; 0x2482 <_ZN17SPI_Syn_Class_ADF5SetCSEb>
    1400:	00 00       	nop
    1402:	61 96       	adiw	r28, 0x11	; 17
    1404:	cd bf       	out	0x3d, r28	; 61
    1406:	de bf       	out	0x3e, r29	; 62
    1408:	df 91       	pop	r29
    140a:	cf 91       	pop	r28
    140c:	1f 91       	pop	r17
    140e:	0f 91       	pop	r16
    1410:	ff 90       	pop	r15
    1412:	ef 90       	pop	r14
    1414:	08 95       	ret

00001416 <_ZN14ADF5610_Driver17InitiateRegistersEv>:
    1416:	cf 93       	push	r28
    1418:	df 93       	push	r29
    141a:	00 d0       	rcall	.+0      	; 0x141c <_ZN14ADF5610_Driver17InitiateRegistersEv+0x6>
    141c:	00 d0       	rcall	.+0      	; 0x141e <_ZN14ADF5610_Driver17InitiateRegistersEv+0x8>
    141e:	cd b7       	in	r28, 0x3d	; 61
    1420:	de b7       	in	r29, 0x3e	; 62
    1422:	8b 83       	std	Y+3, r24	; 0x03
    1424:	9c 83       	std	Y+4, r25	; 0x04
    1426:	19 82       	std	Y+1, r1	; 0x01
    1428:	1a 82       	std	Y+2, r1	; 0x02
    142a:	89 81       	ldd	r24, Y+1	; 0x01
    142c:	9a 81       	ldd	r25, Y+2	; 0x02
    142e:	47 97       	sbiw	r24, 0x17	; 23
    1430:	0c f0       	brlt	.+2      	; 0x1434 <_ZN14ADF5610_Driver17InitiateRegistersEv+0x1e>
    1432:	d5 c1       	rjmp	.+938    	; 0x17de <_ZN14ADF5610_Driver17InitiateRegistersEv+0x3c8>
    1434:	89 81       	ldd	r24, Y+1	; 0x01
    1436:	9a 81       	ldd	r25, Y+2	; 0x02
    1438:	09 2e       	mov	r0, r25
    143a:	00 0c       	add	r0, r0
    143c:	aa 0b       	sbc	r26, r26
    143e:	bb 0b       	sbc	r27, r27
    1440:	40 e0       	ldi	r20, 0x00	; 0
    1442:	50 e0       	ldi	r21, 0x00	; 0
    1444:	26 e1       	ldi	r18, 0x16	; 22
    1446:	30 e0       	ldi	r19, 0x00	; 0
    1448:	84 1b       	sub	r24, r20
    144a:	95 0b       	sbc	r25, r21
    144c:	28 17       	cp	r18, r24
    144e:	39 07       	cpc	r19, r25
    1450:	08 f4       	brcc	.+2      	; 0x1454 <_ZN14ADF5610_Driver17InitiateRegistersEv+0x3e>
    1452:	8b c1       	rjmp	.+790    	; 0x176a <_ZN14ADF5610_Driver17InitiateRegistersEv+0x354>
    1454:	86 58       	subi	r24, 0x86	; 134
    1456:	9f 4f       	sbci	r25, 0xFF	; 255
    1458:	fc 01       	movw	r30, r24
    145a:	0c 94 95 2c 	jmp	0x592a	; 0x592a <__tablejump2__>
    145e:	2b 81       	ldd	r18, Y+3	; 0x03
    1460:	3c 81       	ldd	r19, Y+4	; 0x04
    1462:	89 81       	ldd	r24, Y+1	; 0x01
    1464:	9a 81       	ldd	r25, Y+2	; 0x02
    1466:	88 0f       	add	r24, r24
    1468:	99 1f       	adc	r25, r25
    146a:	88 0f       	add	r24, r24
    146c:	99 1f       	adc	r25, r25
    146e:	82 0f       	add	r24, r18
    1470:	93 1f       	adc	r25, r19
    1472:	9c 01       	movw	r18, r24
    1474:	2a 53       	subi	r18, 0x3A	; 58
    1476:	3f 4f       	sbci	r19, 0xFF	; 255
    1478:	80 e2       	ldi	r24, 0x20	; 32
    147a:	90 e0       	ldi	r25, 0x00	; 0
    147c:	a0 e0       	ldi	r26, 0x00	; 0
    147e:	b0 e0       	ldi	r27, 0x00	; 0
    1480:	f9 01       	movw	r30, r18
    1482:	80 83       	st	Z, r24
    1484:	91 83       	std	Z+1, r25	; 0x01
    1486:	a2 83       	std	Z+2, r26	; 0x02
    1488:	b3 83       	std	Z+3, r27	; 0x03
    148a:	81 c1       	rjmp	.+770    	; 0x178e <_ZN14ADF5610_Driver17InitiateRegistersEv+0x378>
    148c:	2b 81       	ldd	r18, Y+3	; 0x03
    148e:	3c 81       	ldd	r19, Y+4	; 0x04
    1490:	89 81       	ldd	r24, Y+1	; 0x01
    1492:	9a 81       	ldd	r25, Y+2	; 0x02
    1494:	88 0f       	add	r24, r24
    1496:	99 1f       	adc	r25, r25
    1498:	88 0f       	add	r24, r24
    149a:	99 1f       	adc	r25, r25
    149c:	82 0f       	add	r24, r18
    149e:	93 1f       	adc	r25, r19
    14a0:	9c 01       	movw	r18, r24
    14a2:	2a 53       	subi	r18, 0x3A	; 58
    14a4:	3f 4f       	sbci	r19, 0xFF	; 255
    14a6:	82 e0       	ldi	r24, 0x02	; 2
    14a8:	90 e0       	ldi	r25, 0x00	; 0
    14aa:	a0 e0       	ldi	r26, 0x00	; 0
    14ac:	b0 e0       	ldi	r27, 0x00	; 0
    14ae:	f9 01       	movw	r30, r18
    14b0:	80 83       	st	Z, r24
    14b2:	91 83       	std	Z+1, r25	; 0x01
    14b4:	a2 83       	std	Z+2, r26	; 0x02
    14b6:	b3 83       	std	Z+3, r27	; 0x03
    14b8:	6a c1       	rjmp	.+724    	; 0x178e <_ZN14ADF5610_Driver17InitiateRegistersEv+0x378>
    14ba:	2b 81       	ldd	r18, Y+3	; 0x03
    14bc:	3c 81       	ldd	r19, Y+4	; 0x04
    14be:	89 81       	ldd	r24, Y+1	; 0x01
    14c0:	9a 81       	ldd	r25, Y+2	; 0x02
    14c2:	88 0f       	add	r24, r24
    14c4:	99 1f       	adc	r25, r25
    14c6:	88 0f       	add	r24, r24
    14c8:	99 1f       	adc	r25, r25
    14ca:	82 0f       	add	r24, r18
    14cc:	93 1f       	adc	r25, r19
    14ce:	9c 01       	movw	r18, r24
    14d0:	2a 53       	subi	r18, 0x3A	; 58
    14d2:	3f 4f       	sbci	r19, 0xFF	; 255
    14d4:	81 e0       	ldi	r24, 0x01	; 1
    14d6:	90 e0       	ldi	r25, 0x00	; 0
    14d8:	a0 e0       	ldi	r26, 0x00	; 0
    14da:	b0 e0       	ldi	r27, 0x00	; 0
    14dc:	f9 01       	movw	r30, r18
    14de:	80 83       	st	Z, r24
    14e0:	91 83       	std	Z+1, r25	; 0x01
    14e2:	a2 83       	std	Z+2, r26	; 0x02
    14e4:	b3 83       	std	Z+3, r27	; 0x03
    14e6:	53 c1       	rjmp	.+678    	; 0x178e <_ZN14ADF5610_Driver17InitiateRegistersEv+0x378>
    14e8:	2b 81       	ldd	r18, Y+3	; 0x03
    14ea:	3c 81       	ldd	r19, Y+4	; 0x04
    14ec:	89 81       	ldd	r24, Y+1	; 0x01
    14ee:	9a 81       	ldd	r25, Y+2	; 0x02
    14f0:	88 0f       	add	r24, r24
    14f2:	99 1f       	adc	r25, r25
    14f4:	88 0f       	add	r24, r24
    14f6:	99 1f       	adc	r25, r25
    14f8:	82 0f       	add	r24, r18
    14fa:	93 1f       	adc	r25, r19
    14fc:	9c 01       	movw	r18, r24
    14fe:	2a 53       	subi	r18, 0x3A	; 58
    1500:	3f 4f       	sbci	r19, 0xFF	; 255
    1502:	81 e3       	ldi	r24, 0x31	; 49
    1504:	90 e0       	ldi	r25, 0x00	; 0
    1506:	a0 e0       	ldi	r26, 0x00	; 0
    1508:	b0 e0       	ldi	r27, 0x00	; 0
    150a:	f9 01       	movw	r30, r18
    150c:	80 83       	st	Z, r24
    150e:	91 83       	std	Z+1, r25	; 0x01
    1510:	a2 83       	std	Z+2, r26	; 0x02
    1512:	b3 83       	std	Z+3, r27	; 0x03
    1514:	3c c1       	rjmp	.+632    	; 0x178e <_ZN14ADF5610_Driver17InitiateRegistersEv+0x378>
    1516:	2b 81       	ldd	r18, Y+3	; 0x03
    1518:	3c 81       	ldd	r19, Y+4	; 0x04
    151a:	89 81       	ldd	r24, Y+1	; 0x01
    151c:	9a 81       	ldd	r25, Y+2	; 0x02
    151e:	88 0f       	add	r24, r24
    1520:	99 1f       	adc	r25, r25
    1522:	88 0f       	add	r24, r24
    1524:	99 1f       	adc	r25, r25
    1526:	82 0f       	add	r24, r18
    1528:	93 1f       	adc	r25, r19
    152a:	9c 01       	movw	r18, r24
    152c:	2a 53       	subi	r18, 0x3A	; 58
    152e:	3f 4f       	sbci	r19, 0xFF	; 255
    1530:	83 ea       	ldi	r24, 0xA3	; 163
    1532:	90 e7       	ldi	r25, 0x70	; 112
    1534:	ad ef       	ldi	r26, 0xFD	; 253
    1536:	b0 e0       	ldi	r27, 0x00	; 0
    1538:	f9 01       	movw	r30, r18
    153a:	80 83       	st	Z, r24
    153c:	91 83       	std	Z+1, r25	; 0x01
    153e:	a2 83       	std	Z+2, r26	; 0x02
    1540:	b3 83       	std	Z+3, r27	; 0x03
    1542:	25 c1       	rjmp	.+586    	; 0x178e <_ZN14ADF5610_Driver17InitiateRegistersEv+0x378>
    1544:	2b 81       	ldd	r18, Y+3	; 0x03
    1546:	3c 81       	ldd	r19, Y+4	; 0x04
    1548:	89 81       	ldd	r24, Y+1	; 0x01
    154a:	9a 81       	ldd	r25, Y+2	; 0x02
    154c:	88 0f       	add	r24, r24
    154e:	99 1f       	adc	r25, r25
    1550:	88 0f       	add	r24, r24
    1552:	99 1f       	adc	r25, r25
    1554:	82 0f       	add	r24, r18
    1556:	93 1f       	adc	r25, r19
    1558:	8a 53       	subi	r24, 0x3A	; 58
    155a:	9f 4f       	sbci	r25, 0xFF	; 255
    155c:	fc 01       	movw	r30, r24
    155e:	10 82       	st	Z, r1
    1560:	11 82       	std	Z+1, r1	; 0x01
    1562:	12 82       	std	Z+2, r1	; 0x02
    1564:	13 82       	std	Z+3, r1	; 0x03
    1566:	13 c1       	rjmp	.+550    	; 0x178e <_ZN14ADF5610_Driver17InitiateRegistersEv+0x378>
    1568:	2b 81       	ldd	r18, Y+3	; 0x03
    156a:	3c 81       	ldd	r19, Y+4	; 0x04
    156c:	89 81       	ldd	r24, Y+1	; 0x01
    156e:	9a 81       	ldd	r25, Y+2	; 0x02
    1570:	88 0f       	add	r24, r24
    1572:	99 1f       	adc	r25, r25
    1574:	88 0f       	add	r24, r24
    1576:	99 1f       	adc	r25, r25
    1578:	82 0f       	add	r24, r18
    157a:	93 1f       	adc	r25, r19
    157c:	9c 01       	movw	r18, r24
    157e:	2a 53       	subi	r18, 0x3A	; 58
    1580:	3f 4f       	sbci	r19, 0xFF	; 255
    1582:	8a e4       	ldi	r24, 0x4A	; 74
    1584:	9f e2       	ldi	r25, 0x2F	; 47
    1586:	a0 e0       	ldi	r26, 0x00	; 0
    1588:	b0 e0       	ldi	r27, 0x00	; 0
    158a:	f9 01       	movw	r30, r18
    158c:	80 83       	st	Z, r24
    158e:	91 83       	std	Z+1, r25	; 0x01
    1590:	a2 83       	std	Z+2, r26	; 0x02
    1592:	b3 83       	std	Z+3, r27	; 0x03
    1594:	fc c0       	rjmp	.+504    	; 0x178e <_ZN14ADF5610_Driver17InitiateRegistersEv+0x378>
    1596:	2b 81       	ldd	r18, Y+3	; 0x03
    1598:	3c 81       	ldd	r19, Y+4	; 0x04
    159a:	89 81       	ldd	r24, Y+1	; 0x01
    159c:	9a 81       	ldd	r25, Y+2	; 0x02
    159e:	88 0f       	add	r24, r24
    15a0:	99 1f       	adc	r25, r25
    15a2:	88 0f       	add	r24, r24
    15a4:	99 1f       	adc	r25, r25
    15a6:	82 0f       	add	r24, r18
    15a8:	93 1f       	adc	r25, r19
    15aa:	9c 01       	movw	r18, r24
    15ac:	2a 53       	subi	r18, 0x3A	; 58
    15ae:	3f 4f       	sbci	r19, 0xFF	; 255
    15b0:	8d e4       	ldi	r24, 0x4D	; 77
    15b2:	91 e2       	ldi	r25, 0x21	; 33
    15b4:	a0 e0       	ldi	r26, 0x00	; 0
    15b6:	b0 e0       	ldi	r27, 0x00	; 0
    15b8:	f9 01       	movw	r30, r18
    15ba:	80 83       	st	Z, r24
    15bc:	91 83       	std	Z+1, r25	; 0x01
    15be:	a2 83       	std	Z+2, r26	; 0x02
    15c0:	b3 83       	std	Z+3, r27	; 0x03
    15c2:	e5 c0       	rjmp	.+458    	; 0x178e <_ZN14ADF5610_Driver17InitiateRegistersEv+0x378>
    15c4:	2b 81       	ldd	r18, Y+3	; 0x03
    15c6:	3c 81       	ldd	r19, Y+4	; 0x04
    15c8:	89 81       	ldd	r24, Y+1	; 0x01
    15ca:	9a 81       	ldd	r25, Y+2	; 0x02
    15cc:	88 0f       	add	r24, r24
    15ce:	99 1f       	adc	r25, r25
    15d0:	88 0f       	add	r24, r24
    15d2:	99 1f       	adc	r25, r25
    15d4:	82 0f       	add	r24, r18
    15d6:	93 1f       	adc	r25, r19
    15d8:	9c 01       	movw	r18, r24
    15da:	2a 53       	subi	r18, 0x3A	; 58
    15dc:	3f 4f       	sbci	r19, 0xFF	; 255
    15de:	8f ef       	ldi	r24, 0xFF	; 255
    15e0:	9e eb       	ldi	r25, 0xBE	; 190
    15e2:	a9 ec       	ldi	r26, 0xC9	; 201
    15e4:	b0 e0       	ldi	r27, 0x00	; 0
    15e6:	f9 01       	movw	r30, r18
    15e8:	80 83       	st	Z, r24
    15ea:	91 83       	std	Z+1, r25	; 0x01
    15ec:	a2 83       	std	Z+2, r26	; 0x02
    15ee:	b3 83       	std	Z+3, r27	; 0x03
    15f0:	ce c0       	rjmp	.+412    	; 0x178e <_ZN14ADF5610_Driver17InitiateRegistersEv+0x378>
    15f2:	2b 81       	ldd	r18, Y+3	; 0x03
    15f4:	3c 81       	ldd	r19, Y+4	; 0x04
    15f6:	89 81       	ldd	r24, Y+1	; 0x01
    15f8:	9a 81       	ldd	r25, Y+2	; 0x02
    15fa:	88 0f       	add	r24, r24
    15fc:	99 1f       	adc	r25, r25
    15fe:	88 0f       	add	r24, r24
    1600:	99 1f       	adc	r25, r25
    1602:	82 0f       	add	r24, r18
    1604:	93 1f       	adc	r25, r19
    1606:	9c 01       	movw	r18, r24
    1608:	2a 53       	subi	r18, 0x3A	; 58
    160a:	3f 4f       	sbci	r19, 0xFF	; 255
    160c:	8f ef       	ldi	r24, 0xFF	; 255
    160e:	9f e3       	ldi	r25, 0x3F	; 63
    1610:	a0 e0       	ldi	r26, 0x00	; 0
    1612:	b0 e0       	ldi	r27, 0x00	; 0
    1614:	f9 01       	movw	r30, r18
    1616:	80 83       	st	Z, r24
    1618:	91 83       	std	Z+1, r25	; 0x01
    161a:	a2 83       	std	Z+2, r26	; 0x02
    161c:	b3 83       	std	Z+3, r27	; 0x03
    161e:	b7 c0       	rjmp	.+366    	; 0x178e <_ZN14ADF5610_Driver17InitiateRegistersEv+0x378>
    1620:	2b 81       	ldd	r18, Y+3	; 0x03
    1622:	3c 81       	ldd	r19, Y+4	; 0x04
    1624:	89 81       	ldd	r24, Y+1	; 0x01
    1626:	9a 81       	ldd	r25, Y+2	; 0x02
    1628:	88 0f       	add	r24, r24
    162a:	99 1f       	adc	r25, r25
    162c:	88 0f       	add	r24, r24
    162e:	99 1f       	adc	r25, r25
    1630:	82 0f       	add	r24, r18
    1632:	93 1f       	adc	r25, r19
    1634:	9c 01       	movw	r18, r24
    1636:	2a 53       	subi	r18, 0x3A	; 58
    1638:	3f 4f       	sbci	r19, 0xFF	; 255
    163a:	87 e4       	ldi	r24, 0x47	; 71
    163c:	90 e2       	ldi	r25, 0x20	; 32
    163e:	a0 e0       	ldi	r26, 0x00	; 0
    1640:	b0 e0       	ldi	r27, 0x00	; 0
    1642:	f9 01       	movw	r30, r18
    1644:	80 83       	st	Z, r24
    1646:	91 83       	std	Z+1, r25	; 0x01
    1648:	a2 83       	std	Z+2, r26	; 0x02
    164a:	b3 83       	std	Z+3, r27	; 0x03
    164c:	a0 c0       	rjmp	.+320    	; 0x178e <_ZN14ADF5610_Driver17InitiateRegistersEv+0x378>
    164e:	2b 81       	ldd	r18, Y+3	; 0x03
    1650:	3c 81       	ldd	r19, Y+4	; 0x04
    1652:	89 81       	ldd	r24, Y+1	; 0x01
    1654:	9a 81       	ldd	r25, Y+2	; 0x02
    1656:	88 0f       	add	r24, r24
    1658:	99 1f       	adc	r25, r25
    165a:	88 0f       	add	r24, r24
    165c:	99 1f       	adc	r25, r25
    165e:	82 0f       	add	r24, r18
    1660:	93 1f       	adc	r25, r19
    1662:	9c 01       	movw	r18, r24
    1664:	2a 53       	subi	r18, 0x3A	; 58
    1666:	3f 4f       	sbci	r19, 0xFF	; 255
    1668:	81 e6       	ldi	r24, 0x61	; 97
    166a:	90 e8       	ldi	r25, 0x80	; 128
    166c:	af e0       	ldi	r26, 0x0F	; 15
    166e:	b0 e0       	ldi	r27, 0x00	; 0
    1670:	f9 01       	movw	r30, r18
    1672:	80 83       	st	Z, r24
    1674:	91 83       	std	Z+1, r25	; 0x01
    1676:	a2 83       	std	Z+2, r26	; 0x02
    1678:	b3 83       	std	Z+3, r27	; 0x03
    167a:	89 c0       	rjmp	.+274    	; 0x178e <_ZN14ADF5610_Driver17InitiateRegistersEv+0x378>
    167c:	2b 81       	ldd	r18, Y+3	; 0x03
    167e:	3c 81       	ldd	r19, Y+4	; 0x04
    1680:	89 81       	ldd	r24, Y+1	; 0x01
    1682:	9a 81       	ldd	r25, Y+2	; 0x02
    1684:	88 0f       	add	r24, r24
    1686:	99 1f       	adc	r25, r25
    1688:	88 0f       	add	r24, r24
    168a:	99 1f       	adc	r25, r25
    168c:	82 0f       	add	r24, r18
    168e:	93 1f       	adc	r25, r19
    1690:	9c 01       	movw	r18, r24
    1692:	2a 53       	subi	r18, 0x3A	; 58
    1694:	3f 4f       	sbci	r19, 0xFF	; 255
    1696:	81 e8       	ldi	r24, 0x81	; 129
    1698:	90 e0       	ldi	r25, 0x00	; 0
    169a:	a0 e0       	ldi	r26, 0x00	; 0
    169c:	b0 e0       	ldi	r27, 0x00	; 0
    169e:	f9 01       	movw	r30, r18
    16a0:	80 83       	st	Z, r24
    16a2:	91 83       	std	Z+1, r25	; 0x01
    16a4:	a2 83       	std	Z+2, r26	; 0x02
    16a6:	b3 83       	std	Z+3, r27	; 0x03
    16a8:	72 c0       	rjmp	.+228    	; 0x178e <_ZN14ADF5610_Driver17InitiateRegistersEv+0x378>
    16aa:	2b 81       	ldd	r18, Y+3	; 0x03
    16ac:	3c 81       	ldd	r19, Y+4	; 0x04
    16ae:	89 81       	ldd	r24, Y+1	; 0x01
    16b0:	9a 81       	ldd	r25, Y+2	; 0x02
    16b2:	88 0f       	add	r24, r24
    16b4:	99 1f       	adc	r25, r25
    16b6:	88 0f       	add	r24, r24
    16b8:	99 1f       	adc	r25, r25
    16ba:	82 0f       	add	r24, r18
    16bc:	93 1f       	adc	r25, r19
    16be:	9c 01       	movw	r18, r24
    16c0:	2a 53       	subi	r18, 0x3A	; 58
    16c2:	3f 4f       	sbci	r19, 0xFF	; 255
    16c4:	80 e2       	ldi	r24, 0x20	; 32
    16c6:	90 e0       	ldi	r25, 0x00	; 0
    16c8:	a0 e0       	ldi	r26, 0x00	; 0
    16ca:	b0 e0       	ldi	r27, 0x00	; 0
    16cc:	f9 01       	movw	r30, r18
    16ce:	80 83       	st	Z, r24
    16d0:	91 83       	std	Z+1, r25	; 0x01
    16d2:	a2 83       	std	Z+2, r26	; 0x02
    16d4:	b3 83       	std	Z+3, r27	; 0x03
    16d6:	5b c0       	rjmp	.+182    	; 0x178e <_ZN14ADF5610_Driver17InitiateRegistersEv+0x378>
    16d8:	8b 81       	ldd	r24, Y+3	; 0x03
    16da:	9c 81       	ldd	r25, Y+4	; 0x04
    16dc:	86 52       	subi	r24, 0x26	; 38
    16de:	9f 4f       	sbci	r25, 0xFF	; 255
    16e0:	fc 01       	movw	r30, r24
    16e2:	80 81       	ld	r24, Z
    16e4:	91 81       	ldd	r25, Z+1	; 0x01
    16e6:	a2 81       	ldd	r26, Z+2	; 0x02
    16e8:	b3 81       	ldd	r27, Z+3	; 0x03
    16ea:	4b 81       	ldd	r20, Y+3	; 0x03
    16ec:	5c 81       	ldd	r21, Y+4	; 0x04
    16ee:	29 81       	ldd	r18, Y+1	; 0x01
    16f0:	3a 81       	ldd	r19, Y+2	; 0x02
    16f2:	22 0f       	add	r18, r18
    16f4:	33 1f       	adc	r19, r19
    16f6:	22 0f       	add	r18, r18
    16f8:	33 1f       	adc	r19, r19
    16fa:	24 0f       	add	r18, r20
    16fc:	35 1f       	adc	r19, r21
    16fe:	2a 53       	subi	r18, 0x3A	; 58
    1700:	3f 4f       	sbci	r19, 0xFF	; 255
    1702:	f9 01       	movw	r30, r18
    1704:	80 83       	st	Z, r24
    1706:	91 83       	std	Z+1, r25	; 0x01
    1708:	a2 83       	std	Z+2, r26	; 0x02
    170a:	b3 83       	std	Z+3, r27	; 0x03
    170c:	40 c0       	rjmp	.+128    	; 0x178e <_ZN14ADF5610_Driver17InitiateRegistersEv+0x378>
    170e:	2b 81       	ldd	r18, Y+3	; 0x03
    1710:	3c 81       	ldd	r19, Y+4	; 0x04
    1712:	89 81       	ldd	r24, Y+1	; 0x01
    1714:	9a 81       	ldd	r25, Y+2	; 0x02
    1716:	88 0f       	add	r24, r24
    1718:	99 1f       	adc	r25, r25
    171a:	88 0f       	add	r24, r24
    171c:	99 1f       	adc	r25, r25
    171e:	82 0f       	add	r24, r18
    1720:	93 1f       	adc	r25, r19
    1722:	9c 01       	movw	r18, r24
    1724:	2a 53       	subi	r18, 0x3A	; 58
    1726:	3f 4f       	sbci	r19, 0xFF	; 255
    1728:	88 e0       	ldi	r24, 0x08	; 8
    172a:	9e eb       	ldi	r25, 0xBE	; 190
    172c:	af ef       	ldi	r26, 0xFF	; 255
    172e:	bf ef       	ldi	r27, 0xFF	; 255
    1730:	f9 01       	movw	r30, r18
    1732:	80 83       	st	Z, r24
    1734:	91 83       	std	Z+1, r25	; 0x01
    1736:	a2 83       	std	Z+2, r26	; 0x02
    1738:	b3 83       	std	Z+3, r27	; 0x03
    173a:	29 c0       	rjmp	.+82     	; 0x178e <_ZN14ADF5610_Driver17InitiateRegistersEv+0x378>
    173c:	2b 81       	ldd	r18, Y+3	; 0x03
    173e:	3c 81       	ldd	r19, Y+4	; 0x04
    1740:	89 81       	ldd	r24, Y+1	; 0x01
    1742:	9a 81       	ldd	r25, Y+2	; 0x02
    1744:	88 0f       	add	r24, r24
    1746:	99 1f       	adc	r25, r25
    1748:	88 0f       	add	r24, r24
    174a:	99 1f       	adc	r25, r25
    174c:	82 0f       	add	r24, r18
    174e:	93 1f       	adc	r25, r19
    1750:	9c 01       	movw	r18, r24
    1752:	2a 53       	subi	r18, 0x3A	; 58
    1754:	3f 4f       	sbci	r19, 0xFF	; 255
    1756:	80 e9       	ldi	r24, 0x90	; 144
    1758:	93 e0       	ldi	r25, 0x03	; 3
    175a:	a0 e0       	ldi	r26, 0x00	; 0
    175c:	b0 e0       	ldi	r27, 0x00	; 0
    175e:	f9 01       	movw	r30, r18
    1760:	80 83       	st	Z, r24
    1762:	91 83       	std	Z+1, r25	; 0x01
    1764:	a2 83       	std	Z+2, r26	; 0x02
    1766:	b3 83       	std	Z+3, r27	; 0x03
    1768:	12 c0       	rjmp	.+36     	; 0x178e <_ZN14ADF5610_Driver17InitiateRegistersEv+0x378>
    176a:	2b 81       	ldd	r18, Y+3	; 0x03
    176c:	3c 81       	ldd	r19, Y+4	; 0x04
    176e:	89 81       	ldd	r24, Y+1	; 0x01
    1770:	9a 81       	ldd	r25, Y+2	; 0x02
    1772:	88 0f       	add	r24, r24
    1774:	99 1f       	adc	r25, r25
    1776:	88 0f       	add	r24, r24
    1778:	99 1f       	adc	r25, r25
    177a:	82 0f       	add	r24, r18
    177c:	93 1f       	adc	r25, r19
    177e:	8a 53       	subi	r24, 0x3A	; 58
    1780:	9f 4f       	sbci	r25, 0xFF	; 255
    1782:	fc 01       	movw	r30, r24
    1784:	10 82       	st	Z, r1
    1786:	11 82       	std	Z+1, r1	; 0x01
    1788:	12 82       	std	Z+2, r1	; 0x02
    178a:	13 82       	std	Z+3, r1	; 0x03
    178c:	00 00       	nop
    178e:	2b 81       	ldd	r18, Y+3	; 0x03
    1790:	3c 81       	ldd	r19, Y+4	; 0x04
    1792:	89 81       	ldd	r24, Y+1	; 0x01
    1794:	9a 81       	ldd	r25, Y+2	; 0x02
    1796:	88 0f       	add	r24, r24
    1798:	99 1f       	adc	r25, r25
    179a:	88 0f       	add	r24, r24
    179c:	99 1f       	adc	r25, r25
    179e:	82 0f       	add	r24, r18
    17a0:	93 1f       	adc	r25, r19
    17a2:	8a 53       	subi	r24, 0x3A	; 58
    17a4:	9f 4f       	sbci	r25, 0xFF	; 255
    17a6:	fc 01       	movw	r30, r24
    17a8:	80 81       	ld	r24, Z
    17aa:	91 81       	ldd	r25, Z+1	; 0x01
    17ac:	a2 81       	ldd	r26, Z+2	; 0x02
    17ae:	b3 81       	ldd	r27, Z+3	; 0x03
    17b0:	4b 81       	ldd	r20, Y+3	; 0x03
    17b2:	5c 81       	ldd	r21, Y+4	; 0x04
    17b4:	29 81       	ldd	r18, Y+1	; 0x01
    17b6:	3a 81       	ldd	r19, Y+2	; 0x02
    17b8:	22 0f       	add	r18, r18
    17ba:	33 1f       	adc	r19, r19
    17bc:	22 0f       	add	r18, r18
    17be:	33 1f       	adc	r19, r19
    17c0:	24 0f       	add	r18, r20
    17c2:	35 1f       	adc	r19, r21
    17c4:	26 59       	subi	r18, 0x96	; 150
    17c6:	3f 4f       	sbci	r19, 0xFF	; 255
    17c8:	f9 01       	movw	r30, r18
    17ca:	80 83       	st	Z, r24
    17cc:	91 83       	std	Z+1, r25	; 0x01
    17ce:	a2 83       	std	Z+2, r26	; 0x02
    17d0:	b3 83       	std	Z+3, r27	; 0x03
    17d2:	89 81       	ldd	r24, Y+1	; 0x01
    17d4:	9a 81       	ldd	r25, Y+2	; 0x02
    17d6:	01 96       	adiw	r24, 0x01	; 1
    17d8:	89 83       	std	Y+1, r24	; 0x01
    17da:	9a 83       	std	Y+2, r25	; 0x02
    17dc:	26 ce       	rjmp	.-948    	; 0x142a <_ZN14ADF5610_Driver17InitiateRegistersEv+0x14>
    17de:	00 00       	nop
    17e0:	24 96       	adiw	r28, 0x04	; 4
    17e2:	cd bf       	out	0x3d, r28	; 61
    17e4:	de bf       	out	0x3e, r29	; 62
    17e6:	df 91       	pop	r29
    17e8:	cf 91       	pop	r28
    17ea:	08 95       	ret

000017ec <_ZN14ADF5610_Driver25CompleteConfigurationFlowEj>:
    17ec:	cf 93       	push	r28
    17ee:	df 93       	push	r29
    17f0:	cd b7       	in	r28, 0x3d	; 61
    17f2:	de b7       	in	r29, 0x3e	; 62
    17f4:	28 97       	sbiw	r28, 0x08	; 8
    17f6:	cd bf       	out	0x3d, r28	; 61
    17f8:	de bf       	out	0x3e, r29	; 62
    17fa:	8d 83       	std	Y+5, r24	; 0x05
    17fc:	9e 83       	std	Y+6, r25	; 0x06
    17fe:	6f 83       	std	Y+7, r22	; 0x07
    1800:	78 87       	std	Y+8, r23	; 0x08
    1802:	8f 81       	ldd	r24, Y+7	; 0x07
    1804:	98 85       	ldd	r25, Y+8	; 0x08
    1806:	89 83       	std	Y+1, r24	; 0x01
    1808:	9a 83       	std	Y+2, r25	; 0x02
    180a:	89 81       	ldd	r24, Y+1	; 0x01
    180c:	9a 81       	ldd	r25, Y+2	; 0x02
    180e:	44 97       	sbiw	r24, 0x14	; 20
    1810:	d4 f5       	brge	.+116    	; 0x1886 <_ZN14ADF5610_Driver25CompleteConfigurationFlowEj+0x9a>
    1812:	89 81       	ldd	r24, Y+1	; 0x01
    1814:	9a 81       	ldd	r25, Y+2	; 0x02
    1816:	05 97       	sbiw	r24, 0x05	; 5
    1818:	d1 f4       	brne	.+52     	; 0x184e <_ZN14ADF5610_Driver25CompleteConfigurationFlowEj+0x62>
    181a:	86 e1       	ldi	r24, 0x16	; 22
    181c:	90 e0       	ldi	r25, 0x00	; 0
    181e:	8b 83       	std	Y+3, r24	; 0x03
    1820:	9c 83       	std	Y+4, r25	; 0x04
    1822:	8b 81       	ldd	r24, Y+3	; 0x03
    1824:	9c 81       	ldd	r25, Y+4	; 0x04
    1826:	44 97       	sbiw	r24, 0x14	; 20
    1828:	64 f0       	brlt	.+24     	; 0x1842 <_ZN14ADF5610_Driver25CompleteConfigurationFlowEj+0x56>
    182a:	2b 81       	ldd	r18, Y+3	; 0x03
    182c:	8d 81       	ldd	r24, Y+5	; 0x05
    182e:	9e 81       	ldd	r25, Y+6	; 0x06
    1830:	62 2f       	mov	r22, r18
    1832:	0e 94 bb 06 	call	0xd76	; 0xd76 <_ZN14ADF5610_Driver14WriteRegistersEh>
    1836:	8b 81       	ldd	r24, Y+3	; 0x03
    1838:	9c 81       	ldd	r25, Y+4	; 0x04
    183a:	01 97       	sbiw	r24, 0x01	; 1
    183c:	8b 83       	std	Y+3, r24	; 0x03
    183e:	9c 83       	std	Y+4, r25	; 0x04
    1840:	f0 cf       	rjmp	.-32     	; 0x1822 <_ZN14ADF5610_Driver25CompleteConfigurationFlowEj+0x36>
    1842:	8d 81       	ldd	r24, Y+5	; 0x05
    1844:	9e 81       	ldd	r25, Y+6	; 0x06
    1846:	65 e0       	ldi	r22, 0x05	; 5
    1848:	0e 94 bb 06 	call	0xd76	; 0xd76 <_ZN14ADF5610_Driver14WriteRegistersEh>
    184c:	16 c0       	rjmp	.+44     	; 0x187a <_ZN14ADF5610_Driver25CompleteConfigurationFlowEj+0x8e>
    184e:	31 e0       	ldi	r19, 0x01	; 1
    1850:	89 81       	ldd	r24, Y+1	; 0x01
    1852:	9a 81       	ldd	r25, Y+2	; 0x02
    1854:	04 97       	sbiw	r24, 0x04	; 4
    1856:	09 f4       	brne	.+2      	; 0x185a <_ZN14ADF5610_Driver25CompleteConfigurationFlowEj+0x6e>
    1858:	30 e0       	ldi	r19, 0x00	; 0
    185a:	21 e0       	ldi	r18, 0x01	; 1
    185c:	89 81       	ldd	r24, Y+1	; 0x01
    185e:	9a 81       	ldd	r25, Y+2	; 0x02
    1860:	03 97       	sbiw	r24, 0x03	; 3
    1862:	09 f4       	brne	.+2      	; 0x1866 <_ZN14ADF5610_Driver25CompleteConfigurationFlowEj+0x7a>
    1864:	20 e0       	ldi	r18, 0x00	; 0
    1866:	83 2f       	mov	r24, r19
    1868:	82 2b       	or	r24, r18
    186a:	88 23       	and	r24, r24
    186c:	31 f0       	breq	.+12     	; 0x187a <_ZN14ADF5610_Driver25CompleteConfigurationFlowEj+0x8e>
    186e:	29 81       	ldd	r18, Y+1	; 0x01
    1870:	8d 81       	ldd	r24, Y+5	; 0x05
    1872:	9e 81       	ldd	r25, Y+6	; 0x06
    1874:	62 2f       	mov	r22, r18
    1876:	0e 94 bb 06 	call	0xd76	; 0xd76 <_ZN14ADF5610_Driver14WriteRegistersEh>
    187a:	89 81       	ldd	r24, Y+1	; 0x01
    187c:	9a 81       	ldd	r25, Y+2	; 0x02
    187e:	01 96       	adiw	r24, 0x01	; 1
    1880:	89 83       	std	Y+1, r24	; 0x01
    1882:	9a 83       	std	Y+2, r25	; 0x02
    1884:	c2 cf       	rjmp	.-124    	; 0x180a <_ZN14ADF5610_Driver25CompleteConfigurationFlowEj+0x1e>
    1886:	8d 81       	ldd	r24, Y+5	; 0x05
    1888:	9e 81       	ldd	r25, Y+6	; 0x06
    188a:	63 e0       	ldi	r22, 0x03	; 3
    188c:	0e 94 bb 06 	call	0xd76	; 0xd76 <_ZN14ADF5610_Driver14WriteRegistersEh>
    1890:	8d 81       	ldd	r24, Y+5	; 0x05
    1892:	9e 81       	ldd	r25, Y+6	; 0x06
    1894:	64 e0       	ldi	r22, 0x04	; 4
    1896:	0e 94 bb 06 	call	0xd76	; 0xd76 <_ZN14ADF5610_Driver14WriteRegistersEh>
    189a:	00 00       	nop
    189c:	28 96       	adiw	r28, 0x08	; 8
    189e:	cd bf       	out	0x3d, r28	; 61
    18a0:	de bf       	out	0x3e, r29	; 62
    18a2:	df 91       	pop	r29
    18a4:	cf 91       	pop	r28
    18a6:	08 95       	ret

000018a8 <_ZN14ADF5610_Driver22ShortConfigurationFlowEv>:
    18a8:	cf 93       	push	r28
    18aa:	df 93       	push	r29
    18ac:	00 d0       	rcall	.+0      	; 0x18ae <_ZN14ADF5610_Driver22ShortConfigurationFlowEv+0x6>
    18ae:	cd b7       	in	r28, 0x3d	; 61
    18b0:	de b7       	in	r29, 0x3e	; 62
    18b2:	89 83       	std	Y+1, r24	; 0x01
    18b4:	9a 83       	std	Y+2, r25	; 0x02
    18b6:	89 81       	ldd	r24, Y+1	; 0x01
    18b8:	9a 81       	ldd	r25, Y+2	; 0x02
    18ba:	68 e0       	ldi	r22, 0x08	; 8
    18bc:	0e 94 bb 06 	call	0xd76	; 0xd76 <_ZN14ADF5610_Driver14WriteRegistersEh>
    18c0:	89 81       	ldd	r24, Y+1	; 0x01
    18c2:	9a 81       	ldd	r25, Y+2	; 0x02
    18c4:	0e 94 74 0c 	call	0x18e8	; 0x18e8 <_ZN14ADF5610_Driver11WriteSubVCOEv>
    18c8:	89 81       	ldd	r24, Y+1	; 0x01
    18ca:	9a 81       	ldd	r25, Y+2	; 0x02
    18cc:	63 e0       	ldi	r22, 0x03	; 3
    18ce:	0e 94 bb 06 	call	0xd76	; 0xd76 <_ZN14ADF5610_Driver14WriteRegistersEh>
    18d2:	89 81       	ldd	r24, Y+1	; 0x01
    18d4:	9a 81       	ldd	r25, Y+2	; 0x02
    18d6:	64 e0       	ldi	r22, 0x04	; 4
    18d8:	0e 94 bb 06 	call	0xd76	; 0xd76 <_ZN14ADF5610_Driver14WriteRegistersEh>
    18dc:	00 00       	nop
    18de:	0f 90       	pop	r0
    18e0:	0f 90       	pop	r0
    18e2:	df 91       	pop	r29
    18e4:	cf 91       	pop	r28
    18e6:	08 95       	ret

000018e8 <_ZN14ADF5610_Driver11WriteSubVCOEv>:
    18e8:	cf 93       	push	r28
    18ea:	df 93       	push	r29
    18ec:	00 d0       	rcall	.+0      	; 0x18ee <_ZN14ADF5610_Driver11WriteSubVCOEv+0x6>
    18ee:	cd b7       	in	r28, 0x3d	; 61
    18f0:	de b7       	in	r29, 0x3e	; 62
    18f2:	89 83       	std	Y+1, r24	; 0x01
    18f4:	9a 83       	std	Y+2, r25	; 0x02
    18f6:	89 81       	ldd	r24, Y+1	; 0x01
    18f8:	9a 81       	ldd	r25, Y+2	; 0x02
    18fa:	66 e1       	ldi	r22, 0x16	; 22
    18fc:	0e 94 bb 06 	call	0xd76	; 0xd76 <_ZN14ADF5610_Driver14WriteRegistersEh>
    1900:	89 81       	ldd	r24, Y+1	; 0x01
    1902:	9a 81       	ldd	r25, Y+2	; 0x02
    1904:	64 e1       	ldi	r22, 0x14	; 20
    1906:	0e 94 bb 06 	call	0xd76	; 0xd76 <_ZN14ADF5610_Driver14WriteRegistersEh>
    190a:	89 81       	ldd	r24, Y+1	; 0x01
    190c:	9a 81       	ldd	r25, Y+2	; 0x02
    190e:	65 e0       	ldi	r22, 0x05	; 5
    1910:	0e 94 bb 06 	call	0xd76	; 0xd76 <_ZN14ADF5610_Driver14WriteRegistersEh>
    1914:	00 00       	nop
    1916:	0f 90       	pop	r0
    1918:	0f 90       	pop	r0
    191a:	df 91       	pop	r29
    191c:	cf 91       	pop	r28
    191e:	08 95       	ret

00001920 <_ZN14ADF5610_Driver16ReadAllRegistersEv>:
    1920:	cf 93       	push	r28
    1922:	df 93       	push	r29
    1924:	00 d0       	rcall	.+0      	; 0x1926 <_ZN14ADF5610_Driver16ReadAllRegistersEv+0x6>
    1926:	00 d0       	rcall	.+0      	; 0x1928 <_ZN14ADF5610_Driver16ReadAllRegistersEv+0x8>
    1928:	cd b7       	in	r28, 0x3d	; 61
    192a:	de b7       	in	r29, 0x3e	; 62
    192c:	8b 83       	std	Y+3, r24	; 0x03
    192e:	9c 83       	std	Y+4, r25	; 0x04
    1930:	19 82       	std	Y+1, r1	; 0x01
    1932:	1a 82       	std	Y+2, r1	; 0x02
    1934:	89 81       	ldd	r24, Y+1	; 0x01
    1936:	9a 81       	ldd	r25, Y+2	; 0x02
    1938:	44 97       	sbiw	r24, 0x14	; 20
    193a:	64 f4       	brge	.+24     	; 0x1954 <_ZN14ADF5610_Driver16ReadAllRegistersEv+0x34>
    193c:	29 81       	ldd	r18, Y+1	; 0x01
    193e:	8b 81       	ldd	r24, Y+3	; 0x03
    1940:	9c 81       	ldd	r25, Y+4	; 0x04
    1942:	62 2f       	mov	r22, r18
    1944:	0e 94 3e 08 	call	0x107c	; 0x107c <_ZN14ADF5610_Driver13ReadRegistersEh>
    1948:	89 81       	ldd	r24, Y+1	; 0x01
    194a:	9a 81       	ldd	r25, Y+2	; 0x02
    194c:	01 96       	adiw	r24, 0x01	; 1
    194e:	89 83       	std	Y+1, r24	; 0x01
    1950:	9a 83       	std	Y+2, r25	; 0x02
    1952:	f0 cf       	rjmp	.-32     	; 0x1934 <_ZN14ADF5610_Driver16ReadAllRegistersEv+0x14>
    1954:	00 00       	nop
    1956:	24 96       	adiw	r28, 0x04	; 4
    1958:	cd bf       	out	0x3d, r28	; 61
    195a:	de bf       	out	0x3e, r29	; 62
    195c:	df 91       	pop	r29
    195e:	cf 91       	pop	r28
    1960:	08 95       	ret

00001962 <_ZN14ADF5610_Driver18CalculateVCOValuesEv>:
    1962:	cf 92       	push	r12
    1964:	df 92       	push	r13
    1966:	ef 92       	push	r14
    1968:	ff 92       	push	r15
    196a:	cf 93       	push	r28
    196c:	df 93       	push	r29
    196e:	cd b7       	in	r28, 0x3d	; 61
    1970:	de b7       	in	r29, 0x3e	; 62
    1972:	6a 97       	sbiw	r28, 0x1a	; 26
    1974:	cd bf       	out	0x3d, r28	; 61
    1976:	de bf       	out	0x3e, r29	; 62
    1978:	89 8f       	std	Y+25, r24	; 0x19
    197a:	9a 8f       	std	Y+26, r25	; 0x1a
    197c:	19 86       	std	Y+9, r1	; 0x09
    197e:	89 8d       	ldd	r24, Y+25	; 0x19
    1980:	9a 8d       	ldd	r25, Y+26	; 0x1a
    1982:	8a 5c       	subi	r24, 0xCA	; 202
    1984:	9e 4f       	sbci	r25, 0xFE	; 254
    1986:	fc 01       	movw	r30, r24
    1988:	10 82       	st	Z, r1
    198a:	11 82       	std	Z+1, r1	; 0x01
    198c:	12 82       	std	Z+2, r1	; 0x02
    198e:	13 82       	std	Z+3, r1	; 0x03
    1990:	80 e0       	ldi	r24, 0x00	; 0
    1992:	90 e0       	ldi	r25, 0x00	; 0
    1994:	a8 e4       	ldi	r26, 0x48	; 72
    1996:	b2 e4       	ldi	r27, 0x42	; 66
    1998:	8a 87       	std	Y+10, r24	; 0x0a
    199a:	9b 87       	std	Y+11, r25	; 0x0b
    199c:	ac 87       	std	Y+12, r26	; 0x0c
    199e:	bd 87       	std	Y+13, r27	; 0x0d
    19a0:	89 8d       	ldd	r24, Y+25	; 0x19
    19a2:	9a 8d       	ldd	r25, Y+26	; 0x1a
    19a4:	81 5d       	subi	r24, 0xD1	; 209
    19a6:	9e 4f       	sbci	r25, 0xFE	; 254
    19a8:	fc 01       	movw	r30, r24
    19aa:	80 81       	ld	r24, Z
    19ac:	91 81       	ldd	r25, Z+1	; 0x01
    19ae:	a2 81       	ldd	r26, Z+2	; 0x02
    19b0:	b3 81       	ldd	r27, Z+3	; 0x03
    19b2:	8e 87       	std	Y+14, r24	; 0x0e
    19b4:	9f 87       	std	Y+15, r25	; 0x0f
    19b6:	a8 8b       	std	Y+16, r26	; 0x10
    19b8:	b9 8b       	std	Y+17, r27	; 0x11
    19ba:	2e 85       	ldd	r18, Y+14	; 0x0e
    19bc:	3f 85       	ldd	r19, Y+15	; 0x0f
    19be:	48 89       	ldd	r20, Y+16	; 0x10
    19c0:	59 89       	ldd	r21, Y+17	; 0x11
    19c2:	60 e0       	ldi	r22, 0x00	; 0
    19c4:	70 e2       	ldi	r23, 0x20	; 32
    19c6:	84 e6       	ldi	r24, 0x64	; 100
    19c8:	96 e4       	ldi	r25, 0x46	; 70
    19ca:	0e 94 e1 24 	call	0x49c2	; 0x49c2 <__divsf3>
    19ce:	dc 01       	movw	r26, r24
    19d0:	cb 01       	movw	r24, r22
    19d2:	bc 01       	movw	r22, r24
    19d4:	cd 01       	movw	r24, r26
    19d6:	0e 94 a0 26 	call	0x4d40	; 0x4d40 <log>
    19da:	dc 01       	movw	r26, r24
    19dc:	cb 01       	movw	r24, r22
    19de:	28 e1       	ldi	r18, 0x18	; 24
    19e0:	32 e7       	ldi	r19, 0x72	; 114
    19e2:	41 e3       	ldi	r20, 0x31	; 49
    19e4:	5f e3       	ldi	r21, 0x3F	; 63
    19e6:	bc 01       	movw	r22, r24
    19e8:	cd 01       	movw	r24, r26
    19ea:	0e 94 e1 24 	call	0x49c2	; 0x49c2 <__divsf3>
    19ee:	dc 01       	movw	r26, r24
    19f0:	cb 01       	movw	r24, r22
    19f2:	bc 01       	movw	r22, r24
    19f4:	cd 01       	movw	r24, r26
    19f6:	0e 94 c6 25 	call	0x4b8c	; 0x4b8c <floor>
    19fa:	dc 01       	movw	r26, r24
    19fc:	cb 01       	movw	r24, r22
    19fe:	bc 01       	movw	r22, r24
    1a00:	cd 01       	movw	r24, r26
    1a02:	0e 94 53 25 	call	0x4aa6	; 0x4aa6 <__fixsfsi>
    1a06:	dc 01       	movw	r26, r24
    1a08:	cb 01       	movw	r24, r22
    1a0a:	8a 8b       	std	Y+18, r24	; 0x12
    1a0c:	9b 8b       	std	Y+19, r25	; 0x13
    1a0e:	8a 89       	ldd	r24, Y+18	; 0x12
    1a10:	97 e0       	ldi	r25, 0x07	; 7
    1a12:	f9 2f       	mov	r31, r25
    1a14:	f8 1b       	sub	r31, r24
    1a16:	8f 2f       	mov	r24, r31
    1a18:	8c 8b       	std	Y+20, r24	; 0x14
    1a1a:	89 8d       	ldd	r24, Y+25	; 0x19
    1a1c:	9a 8d       	ldd	r25, Y+26	; 0x1a
    1a1e:	81 5d       	subi	r24, 0xD1	; 209
    1a20:	9e 4f       	sbci	r25, 0xFE	; 254
    1a22:	fc 01       	movw	r30, r24
    1a24:	c0 80       	ld	r12, Z
    1a26:	d1 80       	ldd	r13, Z+1	; 0x01
    1a28:	e2 80       	ldd	r14, Z+2	; 0x02
    1a2a:	f3 80       	ldd	r15, Z+3	; 0x03
    1a2c:	8a 89       	ldd	r24, Y+18	; 0x12
    1a2e:	9b 89       	ldd	r25, Y+19	; 0x13
    1a30:	09 2e       	mov	r0, r25
    1a32:	00 0c       	add	r0, r0
    1a34:	aa 0b       	sbc	r26, r26
    1a36:	bb 0b       	sbc	r27, r27
    1a38:	bc 01       	movw	r22, r24
    1a3a:	cd 01       	movw	r24, r26
    1a3c:	0e 94 8b 25 	call	0x4b16	; 0x4b16 <__floatsisf>
    1a40:	dc 01       	movw	r26, r24
    1a42:	cb 01       	movw	r24, r22
    1a44:	9c 01       	movw	r18, r24
    1a46:	ad 01       	movw	r20, r26
    1a48:	60 e0       	ldi	r22, 0x00	; 0
    1a4a:	70 e0       	ldi	r23, 0x00	; 0
    1a4c:	80 e0       	ldi	r24, 0x00	; 0
    1a4e:	90 e4       	ldi	r25, 0x40	; 64
    1a50:	0e 94 55 27 	call	0x4eaa	; 0x4eaa <pow>
    1a54:	dc 01       	movw	r26, r24
    1a56:	cb 01       	movw	r24, r22
    1a58:	9c 01       	movw	r18, r24
    1a5a:	ad 01       	movw	r20, r26
    1a5c:	c7 01       	movw	r24, r14
    1a5e:	b6 01       	movw	r22, r12
    1a60:	0e 94 e8 26 	call	0x4dd0	; 0x4dd0 <__mulsf3>
    1a64:	dc 01       	movw	r26, r24
    1a66:	cb 01       	movw	r24, r22
    1a68:	20 e0       	ldi	r18, 0x00	; 0
    1a6a:	30 e2       	ldi	r19, 0x20	; 32
    1a6c:	44 e6       	ldi	r20, 0x64	; 100
    1a6e:	56 e4       	ldi	r21, 0x46	; 70
    1a70:	bc 01       	movw	r22, r24
    1a72:	cd 01       	movw	r24, r26
    1a74:	0e 94 e1 24 	call	0x49c2	; 0x49c2 <__divsf3>
    1a78:	dc 01       	movw	r26, r24
    1a7a:	cb 01       	movw	r24, r22
    1a7c:	20 e0       	ldi	r18, 0x00	; 0
    1a7e:	30 e2       	ldi	r19, 0x20	; 32
    1a80:	44 ee       	ldi	r20, 0xE4	; 228
    1a82:	55 e4       	ldi	r21, 0x45	; 69
    1a84:	bc 01       	movw	r22, r24
    1a86:	cd 01       	movw	r24, r26
    1a88:	0e 94 e8 26 	call	0x4dd0	; 0x4dd0 <__mulsf3>
    1a8c:	dc 01       	movw	r26, r24
    1a8e:	cb 01       	movw	r24, r22
    1a90:	8d 8b       	std	Y+21, r24	; 0x15
    1a92:	9e 8b       	std	Y+22, r25	; 0x16
    1a94:	af 8b       	std	Y+23, r26	; 0x17
    1a96:	b8 8f       	std	Y+24, r27	; 0x18
    1a98:	20 e0       	ldi	r18, 0x00	; 0
    1a9a:	30 e0       	ldi	r19, 0x00	; 0
    1a9c:	4a e7       	ldi	r20, 0x7A	; 122
    1a9e:	55 e4       	ldi	r21, 0x45	; 69
    1aa0:	6d 89       	ldd	r22, Y+21	; 0x15
    1aa2:	7e 89       	ldd	r23, Y+22	; 0x16
    1aa4:	8f 89       	ldd	r24, Y+23	; 0x17
    1aa6:	98 8d       	ldd	r25, Y+24	; 0x18
    1aa8:	0e 94 dc 24 	call	0x49b8	; 0x49b8 <__cmpsf2>
    1aac:	88 23       	and	r24, r24
    1aae:	4c f4       	brge	.+18     	; 0x1ac2 <_ZN14ADF5610_Driver18CalculateVCOValuesEv+0x160>
    1ab0:	8a 85       	ldd	r24, Y+10	; 0x0a
    1ab2:	9b 85       	ldd	r25, Y+11	; 0x0b
    1ab4:	ac 85       	ldd	r26, Y+12	; 0x0c
    1ab6:	bd 85       	ldd	r27, Y+13	; 0x0d
    1ab8:	89 83       	std	Y+1, r24	; 0x01
    1aba:	9a 83       	std	Y+2, r25	; 0x02
    1abc:	ab 83       	std	Y+3, r26	; 0x03
    1abe:	bc 83       	std	Y+4, r27	; 0x04
    1ac0:	10 c0       	rjmp	.+32     	; 0x1ae2 <_ZN14ADF5610_Driver18CalculateVCOValuesEv+0x180>
    1ac2:	8a 85       	ldd	r24, Y+10	; 0x0a
    1ac4:	9b 85       	ldd	r25, Y+11	; 0x0b
    1ac6:	ac 85       	ldd	r26, Y+12	; 0x0c
    1ac8:	bd 85       	ldd	r27, Y+13	; 0x0d
    1aca:	9c 01       	movw	r18, r24
    1acc:	ad 01       	movw	r20, r26
    1ace:	bc 01       	movw	r22, r24
    1ad0:	cd 01       	movw	r24, r26
    1ad2:	0e 94 70 24 	call	0x48e0	; 0x48e0 <__addsf3>
    1ad6:	dc 01       	movw	r26, r24
    1ad8:	cb 01       	movw	r24, r22
    1ada:	89 83       	std	Y+1, r24	; 0x01
    1adc:	9a 83       	std	Y+2, r25	; 0x02
    1ade:	ab 83       	std	Y+3, r26	; 0x03
    1ae0:	bc 83       	std	Y+4, r27	; 0x04
    1ae2:	29 81       	ldd	r18, Y+1	; 0x01
    1ae4:	3a 81       	ldd	r19, Y+2	; 0x02
    1ae6:	4b 81       	ldd	r20, Y+3	; 0x03
    1ae8:	5c 81       	ldd	r21, Y+4	; 0x04
    1aea:	6d 89       	ldd	r22, Y+21	; 0x15
    1aec:	7e 89       	ldd	r23, Y+22	; 0x16
    1aee:	8f 89       	ldd	r24, Y+23	; 0x17
    1af0:	98 8d       	ldd	r25, Y+24	; 0x18
    1af2:	0e 94 e1 24 	call	0x49c2	; 0x49c2 <__divsf3>
    1af6:	dc 01       	movw	r26, r24
    1af8:	cb 01       	movw	r24, r22
    1afa:	29 8d       	ldd	r18, Y+25	; 0x19
    1afc:	3a 8d       	ldd	r19, Y+26	; 0x1a
    1afe:	2b 5a       	subi	r18, 0xAB	; 171
    1b00:	3e 4f       	sbci	r19, 0xFE	; 254
    1b02:	f9 01       	movw	r30, r18
    1b04:	80 83       	st	Z, r24
    1b06:	91 83       	std	Z+1, r25	; 0x01
    1b08:	a2 83       	std	Z+2, r26	; 0x02
    1b0a:	b3 83       	std	Z+3, r27	; 0x03
    1b0c:	29 81       	ldd	r18, Y+1	; 0x01
    1b0e:	3a 81       	ldd	r19, Y+2	; 0x02
    1b10:	4b 81       	ldd	r20, Y+3	; 0x03
    1b12:	5c 81       	ldd	r21, Y+4	; 0x04
    1b14:	6d 89       	ldd	r22, Y+21	; 0x15
    1b16:	7e 89       	ldd	r23, Y+22	; 0x16
    1b18:	8f 89       	ldd	r24, Y+23	; 0x17
    1b1a:	98 8d       	ldd	r25, Y+24	; 0x18
    1b1c:	0e 94 e1 24 	call	0x49c2	; 0x49c2 <__divsf3>
    1b20:	dc 01       	movw	r26, r24
    1b22:	cb 01       	movw	r24, r22
    1b24:	bc 01       	movw	r22, r24
    1b26:	cd 01       	movw	r24, r26
    1b28:	0e 94 c6 25 	call	0x4b8c	; 0x4b8c <floor>
    1b2c:	dc 01       	movw	r26, r24
    1b2e:	cb 01       	movw	r24, r22
    1b30:	29 8d       	ldd	r18, Y+25	; 0x19
    1b32:	3a 8d       	ldd	r19, Y+26	; 0x1a
    1b34:	2f 5a       	subi	r18, 0xAF	; 175
    1b36:	3e 4f       	sbci	r19, 0xFE	; 254
    1b38:	f9 01       	movw	r30, r18
    1b3a:	80 83       	st	Z, r24
    1b3c:	91 83       	std	Z+1, r25	; 0x01
    1b3e:	a2 83       	std	Z+2, r26	; 0x02
    1b40:	b3 83       	std	Z+3, r27	; 0x03
    1b42:	89 8d       	ldd	r24, Y+25	; 0x19
    1b44:	9a 8d       	ldd	r25, Y+26	; 0x1a
    1b46:	8b 5a       	subi	r24, 0xAB	; 171
    1b48:	9e 4f       	sbci	r25, 0xFE	; 254
    1b4a:	fc 01       	movw	r30, r24
    1b4c:	80 81       	ld	r24, Z
    1b4e:	91 81       	ldd	r25, Z+1	; 0x01
    1b50:	a2 81       	ldd	r26, Z+2	; 0x02
    1b52:	b3 81       	ldd	r27, Z+3	; 0x03
    1b54:	29 8d       	ldd	r18, Y+25	; 0x19
    1b56:	3a 8d       	ldd	r19, Y+26	; 0x1a
    1b58:	2f 5a       	subi	r18, 0xAF	; 175
    1b5a:	3e 4f       	sbci	r19, 0xFE	; 254
    1b5c:	f9 01       	movw	r30, r18
    1b5e:	20 81       	ld	r18, Z
    1b60:	31 81       	ldd	r19, Z+1	; 0x01
    1b62:	42 81       	ldd	r20, Z+2	; 0x02
    1b64:	53 81       	ldd	r21, Z+3	; 0x03
    1b66:	bc 01       	movw	r22, r24
    1b68:	cd 01       	movw	r24, r26
    1b6a:	0e 94 6f 24 	call	0x48de	; 0x48de <__subsf3>
    1b6e:	dc 01       	movw	r26, r24
    1b70:	cb 01       	movw	r24, r22
    1b72:	20 e0       	ldi	r18, 0x00	; 0
    1b74:	30 e0       	ldi	r19, 0x00	; 0
    1b76:	40 e8       	ldi	r20, 0x80	; 128
    1b78:	5b e4       	ldi	r21, 0x4B	; 75
    1b7a:	bc 01       	movw	r22, r24
    1b7c:	cd 01       	movw	r24, r26
    1b7e:	0e 94 e8 26 	call	0x4dd0	; 0x4dd0 <__mulsf3>
    1b82:	dc 01       	movw	r26, r24
    1b84:	cb 01       	movw	r24, r22
    1b86:	29 8d       	ldd	r18, Y+25	; 0x19
    1b88:	3a 8d       	ldd	r19, Y+26	; 0x1a
    1b8a:	27 5a       	subi	r18, 0xA7	; 167
    1b8c:	3e 4f       	sbci	r19, 0xFE	; 254
    1b8e:	f9 01       	movw	r30, r18
    1b90:	80 83       	st	Z, r24
    1b92:	91 83       	std	Z+1, r25	; 0x01
    1b94:	a2 83       	std	Z+2, r26	; 0x02
    1b96:	b3 83       	std	Z+3, r27	; 0x03
    1b98:	89 8d       	ldd	r24, Y+25	; 0x19
    1b9a:	9a 8d       	ldd	r25, Y+26	; 0x1a
    1b9c:	87 5a       	subi	r24, 0xA7	; 167
    1b9e:	9e 4f       	sbci	r25, 0xFE	; 254
    1ba0:	fc 01       	movw	r30, r24
    1ba2:	80 81       	ld	r24, Z
    1ba4:	91 81       	ldd	r25, Z+1	; 0x01
    1ba6:	a2 81       	ldd	r26, Z+2	; 0x02
    1ba8:	b3 81       	ldd	r27, Z+3	; 0x03
    1baa:	bc 01       	movw	r22, r24
    1bac:	cd 01       	movw	r24, r26
    1bae:	0e 94 5a 25 	call	0x4ab4	; 0x4ab4 <__fixunssfsi>
    1bb2:	dc 01       	movw	r26, r24
    1bb4:	cb 01       	movw	r24, r22
    1bb6:	29 8d       	ldd	r18, Y+25	; 0x19
    1bb8:	3a 8d       	ldd	r19, Y+26	; 0x1a
    1bba:	23 5a       	subi	r18, 0xA3	; 163
    1bbc:	3e 4f       	sbci	r19, 0xFE	; 254
    1bbe:	f9 01       	movw	r30, r18
    1bc0:	80 83       	st	Z, r24
    1bc2:	91 83       	std	Z+1, r25	; 0x01
    1bc4:	a2 83       	std	Z+2, r26	; 0x02
    1bc6:	b3 83       	std	Z+3, r27	; 0x03
    1bc8:	1d 82       	std	Y+5, r1	; 0x05
    1bca:	1e 82       	std	Y+6, r1	; 0x06
    1bcc:	8d 81       	ldd	r24, Y+5	; 0x05
    1bce:	9e 81       	ldd	r25, Y+6	; 0x06
    1bd0:	47 97       	sbiw	r24, 0x17	; 23
    1bd2:	0c f0       	brlt	.+2      	; 0x1bd6 <_ZN14ADF5610_Driver18CalculateVCOValuesEv+0x274>
    1bd4:	2c c2       	rjmp	.+1112   	; 0x202e <_ZN14ADF5610_Driver18CalculateVCOValuesEv+0x6cc>
    1bd6:	8d 81       	ldd	r24, Y+5	; 0x05
    1bd8:	9e 81       	ldd	r25, Y+6	; 0x06
    1bda:	09 2e       	mov	r0, r25
    1bdc:	00 0c       	add	r0, r0
    1bde:	aa 0b       	sbc	r26, r26
    1be0:	bb 0b       	sbc	r27, r27
    1be2:	43 e0       	ldi	r20, 0x03	; 3
    1be4:	50 e0       	ldi	r21, 0x00	; 0
    1be6:	23 e1       	ldi	r18, 0x13	; 19
    1be8:	30 e0       	ldi	r19, 0x00	; 0
    1bea:	84 1b       	sub	r24, r20
    1bec:	95 0b       	sbc	r25, r21
    1bee:	28 17       	cp	r18, r24
    1bf0:	39 07       	cpc	r19, r25
    1bf2:	08 f4       	brcc	.+2      	; 0x1bf6 <_ZN14ADF5610_Driver18CalculateVCOValuesEv+0x294>
    1bf4:	13 c2       	rjmp	.+1062   	; 0x201c <_ZN14ADF5610_Driver18CalculateVCOValuesEv+0x6ba>
    1bf6:	8f 56       	subi	r24, 0x6F	; 111
    1bf8:	9f 4f       	sbci	r25, 0xFF	; 255
    1bfa:	fc 01       	movw	r30, r24
    1bfc:	0c 94 95 2c 	jmp	0x592a	; 0x592a <__tablejump2__>
    1c00:	89 8d       	ldd	r24, Y+25	; 0x19
    1c02:	9a 8d       	ldd	r25, Y+26	; 0x1a
    1c04:	8f 5a       	subi	r24, 0xAF	; 175
    1c06:	9e 4f       	sbci	r25, 0xFE	; 254
    1c08:	fc 01       	movw	r30, r24
    1c0a:	80 81       	ld	r24, Z
    1c0c:	91 81       	ldd	r25, Z+1	; 0x01
    1c0e:	a2 81       	ldd	r26, Z+2	; 0x02
    1c10:	b3 81       	ldd	r27, Z+3	; 0x03
    1c12:	bc 01       	movw	r22, r24
    1c14:	cd 01       	movw	r24, r26
    1c16:	0e 94 53 25 	call	0x4aa6	; 0x4aa6 <__fixsfsi>
    1c1a:	dc 01       	movw	r26, r24
    1c1c:	cb 01       	movw	r24, r22
    1c1e:	bb 27       	eor	r27, r27
    1c20:	49 8d       	ldd	r20, Y+25	; 0x19
    1c22:	5a 8d       	ldd	r21, Y+26	; 0x1a
    1c24:	2d 81       	ldd	r18, Y+5	; 0x05
    1c26:	3e 81       	ldd	r19, Y+6	; 0x06
    1c28:	22 0f       	add	r18, r18
    1c2a:	33 1f       	adc	r19, r19
    1c2c:	22 0f       	add	r18, r18
    1c2e:	33 1f       	adc	r19, r19
    1c30:	24 0f       	add	r18, r20
    1c32:	35 1f       	adc	r19, r21
    1c34:	26 59       	subi	r18, 0x96	; 150
    1c36:	3f 4f       	sbci	r19, 0xFF	; 255
    1c38:	f9 01       	movw	r30, r18
    1c3a:	80 83       	st	Z, r24
    1c3c:	91 83       	std	Z+1, r25	; 0x01
    1c3e:	a2 83       	std	Z+2, r26	; 0x02
    1c40:	b3 83       	std	Z+3, r27	; 0x03
    1c42:	ef c1       	rjmp	.+990    	; 0x2022 <_ZN14ADF5610_Driver18CalculateVCOValuesEv+0x6c0>
    1c44:	89 8d       	ldd	r24, Y+25	; 0x19
    1c46:	9a 8d       	ldd	r25, Y+26	; 0x1a
    1c48:	83 5a       	subi	r24, 0xA3	; 163
    1c4a:	9e 4f       	sbci	r25, 0xFE	; 254
    1c4c:	fc 01       	movw	r30, r24
    1c4e:	80 81       	ld	r24, Z
    1c50:	91 81       	ldd	r25, Z+1	; 0x01
    1c52:	a2 81       	ldd	r26, Z+2	; 0x02
    1c54:	b3 81       	ldd	r27, Z+3	; 0x03
    1c56:	bb 27       	eor	r27, r27
    1c58:	49 8d       	ldd	r20, Y+25	; 0x19
    1c5a:	5a 8d       	ldd	r21, Y+26	; 0x1a
    1c5c:	2d 81       	ldd	r18, Y+5	; 0x05
    1c5e:	3e 81       	ldd	r19, Y+6	; 0x06
    1c60:	22 0f       	add	r18, r18
    1c62:	33 1f       	adc	r19, r19
    1c64:	22 0f       	add	r18, r18
    1c66:	33 1f       	adc	r19, r19
    1c68:	24 0f       	add	r18, r20
    1c6a:	35 1f       	adc	r19, r21
    1c6c:	26 59       	subi	r18, 0x96	; 150
    1c6e:	3f 4f       	sbci	r19, 0xFF	; 255
    1c70:	f9 01       	movw	r30, r18
    1c72:	80 83       	st	Z, r24
    1c74:	91 83       	std	Z+1, r25	; 0x01
    1c76:	a2 83       	std	Z+2, r26	; 0x02
    1c78:	b3 83       	std	Z+3, r27	; 0x03
    1c7a:	d3 c1       	rjmp	.+934    	; 0x2022 <_ZN14ADF5610_Driver18CalculateVCOValuesEv+0x6c0>
    1c7c:	29 8d       	ldd	r18, Y+25	; 0x19
    1c7e:	3a 8d       	ldd	r19, Y+26	; 0x1a
    1c80:	8d 81       	ldd	r24, Y+5	; 0x05
    1c82:	9e 81       	ldd	r25, Y+6	; 0x06
    1c84:	88 0f       	add	r24, r24
    1c86:	99 1f       	adc	r25, r25
    1c88:	88 0f       	add	r24, r24
    1c8a:	99 1f       	adc	r25, r25
    1c8c:	82 0f       	add	r24, r18
    1c8e:	93 1f       	adc	r25, r19
    1c90:	8a 53       	subi	r24, 0x3A	; 58
    1c92:	9f 4f       	sbci	r25, 0xFF	; 255
    1c94:	fc 01       	movw	r30, r24
    1c96:	80 81       	ld	r24, Z
    1c98:	91 81       	ldd	r25, Z+1	; 0x01
    1c9a:	a2 81       	ldd	r26, Z+2	; 0x02
    1c9c:	b3 81       	ldd	r27, Z+3	; 0x03
    1c9e:	49 8d       	ldd	r20, Y+25	; 0x19
    1ca0:	5a 8d       	ldd	r21, Y+26	; 0x1a
    1ca2:	2d 81       	ldd	r18, Y+5	; 0x05
    1ca4:	3e 81       	ldd	r19, Y+6	; 0x06
    1ca6:	22 0f       	add	r18, r18
    1ca8:	33 1f       	adc	r19, r19
    1caa:	22 0f       	add	r18, r18
    1cac:	33 1f       	adc	r19, r19
    1cae:	24 0f       	add	r18, r20
    1cb0:	35 1f       	adc	r19, r21
    1cb2:	26 59       	subi	r18, 0x96	; 150
    1cb4:	3f 4f       	sbci	r19, 0xFF	; 255
    1cb6:	f9 01       	movw	r30, r18
    1cb8:	80 83       	st	Z, r24
    1cba:	91 83       	std	Z+1, r25	; 0x01
    1cbc:	a2 83       	std	Z+2, r26	; 0x02
    1cbe:	b3 83       	std	Z+3, r27	; 0x03
    1cc0:	b0 c1       	rjmp	.+864    	; 0x2022 <_ZN14ADF5610_Driver18CalculateVCOValuesEv+0x6c0>
    1cc2:	20 e0       	ldi	r18, 0x00	; 0
    1cc4:	30 e0       	ldi	r19, 0x00	; 0
    1cc6:	4a e7       	ldi	r20, 0x7A	; 122
    1cc8:	55 e4       	ldi	r21, 0x45	; 69
    1cca:	6d 89       	ldd	r22, Y+21	; 0x15
    1ccc:	7e 89       	ldd	r23, Y+22	; 0x16
    1cce:	8f 89       	ldd	r24, Y+23	; 0x17
    1cd0:	98 8d       	ldd	r25, Y+24	; 0x18
    1cd2:	0e 94 dc 24 	call	0x49b8	; 0x49b8 <__cmpsf2>
    1cd6:	88 23       	and	r24, r24
    1cd8:	24 f5       	brge	.+72     	; 0x1d22 <_ZN14ADF5610_Driver18CalculateVCOValuesEv+0x3c0>
    1cda:	29 8d       	ldd	r18, Y+25	; 0x19
    1cdc:	3a 8d       	ldd	r19, Y+26	; 0x1a
    1cde:	8d 81       	ldd	r24, Y+5	; 0x05
    1ce0:	9e 81       	ldd	r25, Y+6	; 0x06
    1ce2:	88 0f       	add	r24, r24
    1ce4:	99 1f       	adc	r25, r25
    1ce6:	88 0f       	add	r24, r24
    1ce8:	99 1f       	adc	r25, r25
    1cea:	82 0f       	add	r24, r18
    1cec:	93 1f       	adc	r25, r19
    1cee:	86 59       	subi	r24, 0x96	; 150
    1cf0:	9f 4f       	sbci	r25, 0xFF	; 255
    1cf2:	fc 01       	movw	r30, r24
    1cf4:	80 81       	ld	r24, Z
    1cf6:	91 81       	ldd	r25, Z+1	; 0x01
    1cf8:	a2 81       	ldd	r26, Z+2	; 0x02
    1cfa:	b3 81       	ldd	r27, Z+3	; 0x03
    1cfc:	a7 7f       	andi	r26, 0xF7	; 247
    1cfe:	49 8d       	ldd	r20, Y+25	; 0x19
    1d00:	5a 8d       	ldd	r21, Y+26	; 0x1a
    1d02:	2d 81       	ldd	r18, Y+5	; 0x05
    1d04:	3e 81       	ldd	r19, Y+6	; 0x06
    1d06:	22 0f       	add	r18, r18
    1d08:	33 1f       	adc	r19, r19
    1d0a:	22 0f       	add	r18, r18
    1d0c:	33 1f       	adc	r19, r19
    1d0e:	24 0f       	add	r18, r20
    1d10:	35 1f       	adc	r19, r21
    1d12:	26 59       	subi	r18, 0x96	; 150
    1d14:	3f 4f       	sbci	r19, 0xFF	; 255
    1d16:	f9 01       	movw	r30, r18
    1d18:	80 83       	st	Z, r24
    1d1a:	91 83       	std	Z+1, r25	; 0x01
    1d1c:	a2 83       	std	Z+2, r26	; 0x02
    1d1e:	b3 83       	std	Z+3, r27	; 0x03
    1d20:	80 c1       	rjmp	.+768    	; 0x2022 <_ZN14ADF5610_Driver18CalculateVCOValuesEv+0x6c0>
    1d22:	29 8d       	ldd	r18, Y+25	; 0x19
    1d24:	3a 8d       	ldd	r19, Y+26	; 0x1a
    1d26:	8d 81       	ldd	r24, Y+5	; 0x05
    1d28:	9e 81       	ldd	r25, Y+6	; 0x06
    1d2a:	88 0f       	add	r24, r24
    1d2c:	99 1f       	adc	r25, r25
    1d2e:	88 0f       	add	r24, r24
    1d30:	99 1f       	adc	r25, r25
    1d32:	82 0f       	add	r24, r18
    1d34:	93 1f       	adc	r25, r19
    1d36:	86 59       	subi	r24, 0x96	; 150
    1d38:	9f 4f       	sbci	r25, 0xFF	; 255
    1d3a:	fc 01       	movw	r30, r24
    1d3c:	80 81       	ld	r24, Z
    1d3e:	91 81       	ldd	r25, Z+1	; 0x01
    1d40:	a2 81       	ldd	r26, Z+2	; 0x02
    1d42:	b3 81       	ldd	r27, Z+3	; 0x03
    1d44:	a8 60       	ori	r26, 0x08	; 8
    1d46:	49 8d       	ldd	r20, Y+25	; 0x19
    1d48:	5a 8d       	ldd	r21, Y+26	; 0x1a
    1d4a:	2d 81       	ldd	r18, Y+5	; 0x05
    1d4c:	3e 81       	ldd	r19, Y+6	; 0x06
    1d4e:	22 0f       	add	r18, r18
    1d50:	33 1f       	adc	r19, r19
    1d52:	22 0f       	add	r18, r18
    1d54:	33 1f       	adc	r19, r19
    1d56:	24 0f       	add	r18, r20
    1d58:	35 1f       	adc	r19, r21
    1d5a:	26 59       	subi	r18, 0x96	; 150
    1d5c:	3f 4f       	sbci	r19, 0xFF	; 255
    1d5e:	f9 01       	movw	r30, r18
    1d60:	80 83       	st	Z, r24
    1d62:	91 83       	std	Z+1, r25	; 0x01
    1d64:	a2 83       	std	Z+2, r26	; 0x02
    1d66:	b3 83       	std	Z+3, r27	; 0x03
    1d68:	5c c1       	rjmp	.+696    	; 0x2022 <_ZN14ADF5610_Driver18CalculateVCOValuesEv+0x6c0>
    1d6a:	89 8d       	ldd	r24, Y+25	; 0x19
    1d6c:	9a 8d       	ldd	r25, Y+26	; 0x1a
    1d6e:	82 58       	subi	r24, 0x82	; 130
    1d70:	9f 4f       	sbci	r25, 0xFF	; 255
    1d72:	fc 01       	movw	r30, r24
    1d74:	80 81       	ld	r24, Z
    1d76:	91 81       	ldd	r25, Z+1	; 0x01
    1d78:	a2 81       	ldd	r26, Z+2	; 0x02
    1d7a:	b3 81       	ldd	r27, Z+3	; 0x03
    1d7c:	29 8d       	ldd	r18, Y+25	; 0x19
    1d7e:	3a 8d       	ldd	r19, Y+26	; 0x1a
    1d80:	2a 5c       	subi	r18, 0xCA	; 202
    1d82:	3e 4f       	sbci	r19, 0xFE	; 254
    1d84:	f9 01       	movw	r30, r18
    1d86:	80 83       	st	Z, r24
    1d88:	91 83       	std	Z+1, r25	; 0x01
    1d8a:	a2 83       	std	Z+2, r26	; 0x02
    1d8c:	b3 83       	std	Z+3, r27	; 0x03
    1d8e:	89 8d       	ldd	r24, Y+25	; 0x19
    1d90:	9a 8d       	ldd	r25, Y+26	; 0x1a
    1d92:	8a 5c       	subi	r24, 0xCA	; 202
    1d94:	9e 4f       	sbci	r25, 0xFE	; 254
    1d96:	fc 01       	movw	r30, r24
    1d98:	80 81       	ld	r24, Z
    1d9a:	91 81       	ldd	r25, Z+1	; 0x01
    1d9c:	a2 81       	ldd	r26, Z+2	; 0x02
    1d9e:	b3 81       	ldd	r27, Z+3	; 0x03
    1da0:	49 8d       	ldd	r20, Y+25	; 0x19
    1da2:	5a 8d       	ldd	r21, Y+26	; 0x1a
    1da4:	2d 81       	ldd	r18, Y+5	; 0x05
    1da6:	3e 81       	ldd	r19, Y+6	; 0x06
    1da8:	22 0f       	add	r18, r18
    1daa:	33 1f       	adc	r19, r19
    1dac:	22 0f       	add	r18, r18
    1dae:	33 1f       	adc	r19, r19
    1db0:	24 0f       	add	r18, r20
    1db2:	35 1f       	adc	r19, r21
    1db4:	26 59       	subi	r18, 0x96	; 150
    1db6:	3f 4f       	sbci	r19, 0xFF	; 255
    1db8:	f9 01       	movw	r30, r18
    1dba:	80 83       	st	Z, r24
    1dbc:	91 83       	std	Z+1, r25	; 0x01
    1dbe:	a2 83       	std	Z+2, r26	; 0x02
    1dc0:	b3 83       	std	Z+3, r27	; 0x03
    1dc2:	2f c1       	rjmp	.+606    	; 0x2022 <_ZN14ADF5610_Driver18CalculateVCOValuesEv+0x6c0>
    1dc4:	29 8d       	ldd	r18, Y+25	; 0x19
    1dc6:	3a 8d       	ldd	r19, Y+26	; 0x1a
    1dc8:	8d 81       	ldd	r24, Y+5	; 0x05
    1dca:	9e 81       	ldd	r25, Y+6	; 0x06
    1dcc:	88 0f       	add	r24, r24
    1dce:	99 1f       	adc	r25, r25
    1dd0:	88 0f       	add	r24, r24
    1dd2:	99 1f       	adc	r25, r25
    1dd4:	82 0f       	add	r24, r18
    1dd6:	93 1f       	adc	r25, r19
    1dd8:	8a 53       	subi	r24, 0x3A	; 58
    1dda:	9f 4f       	sbci	r25, 0xFF	; 255
    1ddc:	fc 01       	movw	r30, r24
    1dde:	80 81       	ld	r24, Z
    1de0:	91 81       	ldd	r25, Z+1	; 0x01
    1de2:	a2 81       	ldd	r26, Z+2	; 0x02
    1de4:	b3 81       	ldd	r27, Z+3	; 0x03
    1de6:	49 8d       	ldd	r20, Y+25	; 0x19
    1de8:	5a 8d       	ldd	r21, Y+26	; 0x1a
    1dea:	2d 81       	ldd	r18, Y+5	; 0x05
    1dec:	3e 81       	ldd	r19, Y+6	; 0x06
    1dee:	22 0f       	add	r18, r18
    1df0:	33 1f       	adc	r19, r19
    1df2:	22 0f       	add	r18, r18
    1df4:	33 1f       	adc	r19, r19
    1df6:	24 0f       	add	r18, r20
    1df8:	35 1f       	adc	r19, r21
    1dfa:	26 59       	subi	r18, 0x96	; 150
    1dfc:	3f 4f       	sbci	r19, 0xFF	; 255
    1dfe:	f9 01       	movw	r30, r18
    1e00:	80 83       	st	Z, r24
    1e02:	91 83       	std	Z+1, r25	; 0x01
    1e04:	a2 83       	std	Z+2, r26	; 0x02
    1e06:	b3 83       	std	Z+3, r27	; 0x03
    1e08:	0c c1       	rjmp	.+536    	; 0x2022 <_ZN14ADF5610_Driver18CalculateVCOValuesEv+0x6c0>
    1e0a:	82 e0       	ldi	r24, 0x02	; 2
    1e0c:	89 87       	std	Y+9, r24	; 0x09
    1e0e:	83 e0       	ldi	r24, 0x03	; 3
    1e10:	90 e0       	ldi	r25, 0x00	; 0
    1e12:	8f 83       	std	Y+7, r24	; 0x07
    1e14:	98 87       	std	Y+8, r25	; 0x08
    1e16:	8f 81       	ldd	r24, Y+7	; 0x07
    1e18:	98 85       	ldd	r25, Y+8	; 0x08
    1e1a:	40 97       	sbiw	r24, 0x10	; 16
    1e1c:	0c f0       	brlt	.+2      	; 0x1e20 <_ZN14ADF5610_Driver18CalculateVCOValuesEv+0x4be>
    1e1e:	00 c1       	rjmp	.+512    	; 0x2020 <_ZN14ADF5610_Driver18CalculateVCOValuesEv+0x6be>
    1e20:	8f 81       	ldd	r24, Y+7	; 0x07
    1e22:	98 85       	ldd	r25, Y+8	; 0x08
    1e24:	07 97       	sbiw	r24, 0x07	; 7
    1e26:	0c f0       	brlt	.+2      	; 0x1e2a <_ZN14ADF5610_Driver18CalculateVCOValuesEv+0x4c8>
    1e28:	7a c0       	rjmp	.+244    	; 0x1f1e <_ZN14ADF5610_Driver18CalculateVCOValuesEv+0x5bc>
    1e2a:	89 85       	ldd	r24, Y+9	; 0x09
    1e2c:	88 2f       	mov	r24, r24
    1e2e:	90 e0       	ldi	r25, 0x00	; 0
    1e30:	2f 81       	ldd	r18, Y+7	; 0x07
    1e32:	38 85       	ldd	r19, Y+8	; 0x08
    1e34:	23 50       	subi	r18, 0x03	; 3
    1e36:	31 09       	sbc	r19, r1
    1e38:	02 c0       	rjmp	.+4      	; 0x1e3e <_ZN14ADF5610_Driver18CalculateVCOValuesEv+0x4dc>
    1e3a:	95 95       	asr	r25
    1e3c:	87 95       	ror	r24
    1e3e:	2a 95       	dec	r18
    1e40:	e2 f7       	brpl	.-8      	; 0x1e3a <_ZN14ADF5610_Driver18CalculateVCOValuesEv+0x4d8>
    1e42:	81 70       	andi	r24, 0x01	; 1
    1e44:	99 27       	eor	r25, r25
    1e46:	89 2b       	or	r24, r25
    1e48:	99 f1       	breq	.+102    	; 0x1eb0 <_ZN14ADF5610_Driver18CalculateVCOValuesEv+0x54e>
    1e4a:	29 8d       	ldd	r18, Y+25	; 0x19
    1e4c:	3a 8d       	ldd	r19, Y+26	; 0x1a
    1e4e:	8d 81       	ldd	r24, Y+5	; 0x05
    1e50:	9e 81       	ldd	r25, Y+6	; 0x06
    1e52:	88 0f       	add	r24, r24
    1e54:	99 1f       	adc	r25, r25
    1e56:	88 0f       	add	r24, r24
    1e58:	99 1f       	adc	r25, r25
    1e5a:	82 0f       	add	r24, r18
    1e5c:	93 1f       	adc	r25, r19
    1e5e:	86 59       	subi	r24, 0x96	; 150
    1e60:	9f 4f       	sbci	r25, 0xFF	; 255
    1e62:	fc 01       	movw	r30, r24
    1e64:	20 81       	ld	r18, Z
    1e66:	31 81       	ldd	r19, Z+1	; 0x01
    1e68:	42 81       	ldd	r20, Z+2	; 0x02
    1e6a:	53 81       	ldd	r21, Z+3	; 0x03
    1e6c:	81 e0       	ldi	r24, 0x01	; 1
    1e6e:	90 e0       	ldi	r25, 0x00	; 0
    1e70:	a0 e0       	ldi	r26, 0x00	; 0
    1e72:	b0 e0       	ldi	r27, 0x00	; 0
    1e74:	0f 80       	ldd	r0, Y+7	; 0x07
    1e76:	04 c0       	rjmp	.+8      	; 0x1e80 <_ZN14ADF5610_Driver18CalculateVCOValuesEv+0x51e>
    1e78:	88 0f       	add	r24, r24
    1e7a:	99 1f       	adc	r25, r25
    1e7c:	aa 1f       	adc	r26, r26
    1e7e:	bb 1f       	adc	r27, r27
    1e80:	0a 94       	dec	r0
    1e82:	d2 f7       	brpl	.-12     	; 0x1e78 <_ZN14ADF5610_Driver18CalculateVCOValuesEv+0x516>
    1e84:	82 2b       	or	r24, r18
    1e86:	93 2b       	or	r25, r19
    1e88:	a4 2b       	or	r26, r20
    1e8a:	b5 2b       	or	r27, r21
    1e8c:	49 8d       	ldd	r20, Y+25	; 0x19
    1e8e:	5a 8d       	ldd	r21, Y+26	; 0x1a
    1e90:	2d 81       	ldd	r18, Y+5	; 0x05
    1e92:	3e 81       	ldd	r19, Y+6	; 0x06
    1e94:	22 0f       	add	r18, r18
    1e96:	33 1f       	adc	r19, r19
    1e98:	22 0f       	add	r18, r18
    1e9a:	33 1f       	adc	r19, r19
    1e9c:	24 0f       	add	r18, r20
    1e9e:	35 1f       	adc	r19, r21
    1ea0:	26 59       	subi	r18, 0x96	; 150
    1ea2:	3f 4f       	sbci	r19, 0xFF	; 255
    1ea4:	f9 01       	movw	r30, r18
    1ea6:	80 83       	st	Z, r24
    1ea8:	91 83       	std	Z+1, r25	; 0x01
    1eaa:	a2 83       	std	Z+2, r26	; 0x02
    1eac:	b3 83       	std	Z+3, r27	; 0x03
    1eae:	b0 c0       	rjmp	.+352    	; 0x2010 <_ZN14ADF5610_Driver18CalculateVCOValuesEv+0x6ae>
    1eb0:	29 8d       	ldd	r18, Y+25	; 0x19
    1eb2:	3a 8d       	ldd	r19, Y+26	; 0x1a
    1eb4:	8d 81       	ldd	r24, Y+5	; 0x05
    1eb6:	9e 81       	ldd	r25, Y+6	; 0x06
    1eb8:	88 0f       	add	r24, r24
    1eba:	99 1f       	adc	r25, r25
    1ebc:	88 0f       	add	r24, r24
    1ebe:	99 1f       	adc	r25, r25
    1ec0:	82 0f       	add	r24, r18
    1ec2:	93 1f       	adc	r25, r19
    1ec4:	86 59       	subi	r24, 0x96	; 150
    1ec6:	9f 4f       	sbci	r25, 0xFF	; 255
    1ec8:	fc 01       	movw	r30, r24
    1eca:	20 81       	ld	r18, Z
    1ecc:	31 81       	ldd	r19, Z+1	; 0x01
    1ece:	42 81       	ldd	r20, Z+2	; 0x02
    1ed0:	53 81       	ldd	r21, Z+3	; 0x03
    1ed2:	81 e0       	ldi	r24, 0x01	; 1
    1ed4:	90 e0       	ldi	r25, 0x00	; 0
    1ed6:	a0 e0       	ldi	r26, 0x00	; 0
    1ed8:	b0 e0       	ldi	r27, 0x00	; 0
    1eda:	0f 80       	ldd	r0, Y+7	; 0x07
    1edc:	04 c0       	rjmp	.+8      	; 0x1ee6 <_ZN14ADF5610_Driver18CalculateVCOValuesEv+0x584>
    1ede:	88 0f       	add	r24, r24
    1ee0:	99 1f       	adc	r25, r25
    1ee2:	aa 1f       	adc	r26, r26
    1ee4:	bb 1f       	adc	r27, r27
    1ee6:	0a 94       	dec	r0
    1ee8:	d2 f7       	brpl	.-12     	; 0x1ede <_ZN14ADF5610_Driver18CalculateVCOValuesEv+0x57c>
    1eea:	80 95       	com	r24
    1eec:	90 95       	com	r25
    1eee:	a0 95       	com	r26
    1ef0:	b0 95       	com	r27
    1ef2:	82 23       	and	r24, r18
    1ef4:	93 23       	and	r25, r19
    1ef6:	a4 23       	and	r26, r20
    1ef8:	b5 23       	and	r27, r21
    1efa:	49 8d       	ldd	r20, Y+25	; 0x19
    1efc:	5a 8d       	ldd	r21, Y+26	; 0x1a
    1efe:	2d 81       	ldd	r18, Y+5	; 0x05
    1f00:	3e 81       	ldd	r19, Y+6	; 0x06
    1f02:	22 0f       	add	r18, r18
    1f04:	33 1f       	adc	r19, r19
    1f06:	22 0f       	add	r18, r18
    1f08:	33 1f       	adc	r19, r19
    1f0a:	24 0f       	add	r18, r20
    1f0c:	35 1f       	adc	r19, r21
    1f0e:	26 59       	subi	r18, 0x96	; 150
    1f10:	3f 4f       	sbci	r19, 0xFF	; 255
    1f12:	f9 01       	movw	r30, r18
    1f14:	80 83       	st	Z, r24
    1f16:	91 83       	std	Z+1, r25	; 0x01
    1f18:	a2 83       	std	Z+2, r26	; 0x02
    1f1a:	b3 83       	std	Z+3, r27	; 0x03
    1f1c:	79 c0       	rjmp	.+242    	; 0x2010 <_ZN14ADF5610_Driver18CalculateVCOValuesEv+0x6ae>
    1f1e:	8c 89       	ldd	r24, Y+20	; 0x14
    1f20:	88 2f       	mov	r24, r24
    1f22:	90 e0       	ldi	r25, 0x00	; 0
    1f24:	2f 81       	ldd	r18, Y+7	; 0x07
    1f26:	38 85       	ldd	r19, Y+8	; 0x08
    1f28:	27 50       	subi	r18, 0x07	; 7
    1f2a:	31 09       	sbc	r19, r1
    1f2c:	02 c0       	rjmp	.+4      	; 0x1f32 <_ZN14ADF5610_Driver18CalculateVCOValuesEv+0x5d0>
    1f2e:	95 95       	asr	r25
    1f30:	87 95       	ror	r24
    1f32:	2a 95       	dec	r18
    1f34:	e2 f7       	brpl	.-8      	; 0x1f2e <_ZN14ADF5610_Driver18CalculateVCOValuesEv+0x5cc>
    1f36:	81 70       	andi	r24, 0x01	; 1
    1f38:	99 27       	eor	r25, r25
    1f3a:	89 2b       	or	r24, r25
    1f3c:	99 f1       	breq	.+102    	; 0x1fa4 <_ZN14ADF5610_Driver18CalculateVCOValuesEv+0x642>
    1f3e:	29 8d       	ldd	r18, Y+25	; 0x19
    1f40:	3a 8d       	ldd	r19, Y+26	; 0x1a
    1f42:	8d 81       	ldd	r24, Y+5	; 0x05
    1f44:	9e 81       	ldd	r25, Y+6	; 0x06
    1f46:	88 0f       	add	r24, r24
    1f48:	99 1f       	adc	r25, r25
    1f4a:	88 0f       	add	r24, r24
    1f4c:	99 1f       	adc	r25, r25
    1f4e:	82 0f       	add	r24, r18
    1f50:	93 1f       	adc	r25, r19
    1f52:	86 59       	subi	r24, 0x96	; 150
    1f54:	9f 4f       	sbci	r25, 0xFF	; 255
    1f56:	fc 01       	movw	r30, r24
    1f58:	20 81       	ld	r18, Z
    1f5a:	31 81       	ldd	r19, Z+1	; 0x01
    1f5c:	42 81       	ldd	r20, Z+2	; 0x02
    1f5e:	53 81       	ldd	r21, Z+3	; 0x03
    1f60:	81 e0       	ldi	r24, 0x01	; 1
    1f62:	90 e0       	ldi	r25, 0x00	; 0
    1f64:	a0 e0       	ldi	r26, 0x00	; 0
    1f66:	b0 e0       	ldi	r27, 0x00	; 0
    1f68:	0f 80       	ldd	r0, Y+7	; 0x07
    1f6a:	04 c0       	rjmp	.+8      	; 0x1f74 <_ZN14ADF5610_Driver18CalculateVCOValuesEv+0x612>
    1f6c:	88 0f       	add	r24, r24
    1f6e:	99 1f       	adc	r25, r25
    1f70:	aa 1f       	adc	r26, r26
    1f72:	bb 1f       	adc	r27, r27
    1f74:	0a 94       	dec	r0
    1f76:	d2 f7       	brpl	.-12     	; 0x1f6c <_ZN14ADF5610_Driver18CalculateVCOValuesEv+0x60a>
    1f78:	82 2b       	or	r24, r18
    1f7a:	93 2b       	or	r25, r19
    1f7c:	a4 2b       	or	r26, r20
    1f7e:	b5 2b       	or	r27, r21
    1f80:	49 8d       	ldd	r20, Y+25	; 0x19
    1f82:	5a 8d       	ldd	r21, Y+26	; 0x1a
    1f84:	2d 81       	ldd	r18, Y+5	; 0x05
    1f86:	3e 81       	ldd	r19, Y+6	; 0x06
    1f88:	22 0f       	add	r18, r18
    1f8a:	33 1f       	adc	r19, r19
    1f8c:	22 0f       	add	r18, r18
    1f8e:	33 1f       	adc	r19, r19
    1f90:	24 0f       	add	r18, r20
    1f92:	35 1f       	adc	r19, r21
    1f94:	26 59       	subi	r18, 0x96	; 150
    1f96:	3f 4f       	sbci	r19, 0xFF	; 255
    1f98:	f9 01       	movw	r30, r18
    1f9a:	80 83       	st	Z, r24
    1f9c:	91 83       	std	Z+1, r25	; 0x01
    1f9e:	a2 83       	std	Z+2, r26	; 0x02
    1fa0:	b3 83       	std	Z+3, r27	; 0x03
    1fa2:	36 c0       	rjmp	.+108    	; 0x2010 <_ZN14ADF5610_Driver18CalculateVCOValuesEv+0x6ae>
    1fa4:	29 8d       	ldd	r18, Y+25	; 0x19
    1fa6:	3a 8d       	ldd	r19, Y+26	; 0x1a
    1fa8:	8d 81       	ldd	r24, Y+5	; 0x05
    1faa:	9e 81       	ldd	r25, Y+6	; 0x06
    1fac:	88 0f       	add	r24, r24
    1fae:	99 1f       	adc	r25, r25
    1fb0:	88 0f       	add	r24, r24
    1fb2:	99 1f       	adc	r25, r25
    1fb4:	82 0f       	add	r24, r18
    1fb6:	93 1f       	adc	r25, r19
    1fb8:	86 59       	subi	r24, 0x96	; 150
    1fba:	9f 4f       	sbci	r25, 0xFF	; 255
    1fbc:	fc 01       	movw	r30, r24
    1fbe:	20 81       	ld	r18, Z
    1fc0:	31 81       	ldd	r19, Z+1	; 0x01
    1fc2:	42 81       	ldd	r20, Z+2	; 0x02
    1fc4:	53 81       	ldd	r21, Z+3	; 0x03
    1fc6:	81 e0       	ldi	r24, 0x01	; 1
    1fc8:	90 e0       	ldi	r25, 0x00	; 0
    1fca:	a0 e0       	ldi	r26, 0x00	; 0
    1fcc:	b0 e0       	ldi	r27, 0x00	; 0
    1fce:	0f 80       	ldd	r0, Y+7	; 0x07
    1fd0:	04 c0       	rjmp	.+8      	; 0x1fda <_ZN14ADF5610_Driver18CalculateVCOValuesEv+0x678>
    1fd2:	88 0f       	add	r24, r24
    1fd4:	99 1f       	adc	r25, r25
    1fd6:	aa 1f       	adc	r26, r26
    1fd8:	bb 1f       	adc	r27, r27
    1fda:	0a 94       	dec	r0
    1fdc:	d2 f7       	brpl	.-12     	; 0x1fd2 <_ZN14ADF5610_Driver18CalculateVCOValuesEv+0x670>
    1fde:	80 95       	com	r24
    1fe0:	90 95       	com	r25
    1fe2:	a0 95       	com	r26
    1fe4:	b0 95       	com	r27
    1fe6:	82 23       	and	r24, r18
    1fe8:	93 23       	and	r25, r19
    1fea:	a4 23       	and	r26, r20
    1fec:	b5 23       	and	r27, r21
    1fee:	49 8d       	ldd	r20, Y+25	; 0x19
    1ff0:	5a 8d       	ldd	r21, Y+26	; 0x1a
    1ff2:	2d 81       	ldd	r18, Y+5	; 0x05
    1ff4:	3e 81       	ldd	r19, Y+6	; 0x06
    1ff6:	22 0f       	add	r18, r18
    1ff8:	33 1f       	adc	r19, r19
    1ffa:	22 0f       	add	r18, r18
    1ffc:	33 1f       	adc	r19, r19
    1ffe:	24 0f       	add	r18, r20
    2000:	35 1f       	adc	r19, r21
    2002:	26 59       	subi	r18, 0x96	; 150
    2004:	3f 4f       	sbci	r19, 0xFF	; 255
    2006:	f9 01       	movw	r30, r18
    2008:	80 83       	st	Z, r24
    200a:	91 83       	std	Z+1, r25	; 0x01
    200c:	a2 83       	std	Z+2, r26	; 0x02
    200e:	b3 83       	std	Z+3, r27	; 0x03
    2010:	8f 81       	ldd	r24, Y+7	; 0x07
    2012:	98 85       	ldd	r25, Y+8	; 0x08
    2014:	01 96       	adiw	r24, 0x01	; 1
    2016:	8f 83       	std	Y+7, r24	; 0x07
    2018:	98 87       	std	Y+8, r25	; 0x08
    201a:	fd ce       	rjmp	.-518    	; 0x1e16 <_ZN14ADF5610_Driver18CalculateVCOValuesEv+0x4b4>
    201c:	00 00       	nop
    201e:	01 c0       	rjmp	.+2      	; 0x2022 <_ZN14ADF5610_Driver18CalculateVCOValuesEv+0x6c0>
    2020:	00 00       	nop
    2022:	8d 81       	ldd	r24, Y+5	; 0x05
    2024:	9e 81       	ldd	r25, Y+6	; 0x06
    2026:	01 96       	adiw	r24, 0x01	; 1
    2028:	8d 83       	std	Y+5, r24	; 0x05
    202a:	9e 83       	std	Y+6, r25	; 0x06
    202c:	cf cd       	rjmp	.-1122   	; 0x1bcc <_ZN14ADF5610_Driver18CalculateVCOValuesEv+0x26a>
    202e:	00 00       	nop
    2030:	6a 96       	adiw	r28, 0x1a	; 26
    2032:	cd bf       	out	0x3d, r28	; 61
    2034:	de bf       	out	0x3e, r29	; 62
    2036:	df 91       	pop	r29
    2038:	cf 91       	pop	r28
    203a:	ff 90       	pop	r15
    203c:	ef 90       	pop	r14
    203e:	df 90       	pop	r13
    2040:	cf 90       	pop	r12
    2042:	08 95       	ret

00002044 <_ZN14ADF5610_Driver6usleepEl>:
#ifdef ARDUINO_AVR_UNO
#else

void ADF5610_Driver::usleep(long us){
    2044:	cf 93       	push	r28
    2046:	df 93       	push	r29
    2048:	cd b7       	in	r28, 0x3d	; 61
    204a:	de b7       	in	r29, 0x3e	; 62
    204c:	a2 97       	sbiw	r28, 0x22	; 34
    204e:	cd bf       	out	0x3d, r28	; 61
    2050:	de bf       	out	0x3e, r29	; 62
    2052:	8d 8f       	std	Y+29, r24	; 0x1d
    2054:	9e 8f       	std	Y+30, r25	; 0x1e
    2056:	4f 8f       	std	Y+31, r20	; 0x1f
    2058:	58 a3       	std	Y+32, r21	; 0x20
    205a:	69 a3       	std	Y+33, r22	; 0x21
    205c:	7a a3       	std	Y+34, r23	; 0x22
	if (us/1000>1)
    205e:	8f 8d       	ldd	r24, Y+31	; 0x1f
    2060:	98 a1       	ldd	r25, Y+32	; 0x20
    2062:	a9 a1       	ldd	r26, Y+33	; 0x21
    2064:	ba a1       	ldd	r27, Y+34	; 0x22
    2066:	80 3d       	cpi	r24, 0xD0	; 208
    2068:	97 40       	sbci	r25, 0x07	; 7
    206a:	a1 05       	cpc	r26, r1
    206c:	b1 05       	cpc	r27, r1
    206e:	0c f4       	brge	.+2      	; 0x2072 <_ZN14ADF5610_Driver6usleepEl+0x2e>
    2070:	83 c0       	rjmp	.+262    	; 0x2178 <_ZN14ADF5610_Driver6usleepEl+0x134>
	{
		_delay_ms(us/1000);
    2072:	8f 8d       	ldd	r24, Y+31	; 0x1f
    2074:	98 a1       	ldd	r25, Y+32	; 0x20
    2076:	a9 a1       	ldd	r26, Y+33	; 0x21
    2078:	ba a1       	ldd	r27, Y+34	; 0x22
    207a:	28 ee       	ldi	r18, 0xE8	; 232
    207c:	33 e0       	ldi	r19, 0x03	; 3
    207e:	40 e0       	ldi	r20, 0x00	; 0
    2080:	50 e0       	ldi	r21, 0x00	; 0
    2082:	bc 01       	movw	r22, r24
    2084:	cd 01       	movw	r24, r26
    2086:	0e 94 76 2c 	call	0x58ec	; 0x58ec <__divmodsi4>
    208a:	da 01       	movw	r26, r20
    208c:	c9 01       	movw	r24, r18
    208e:	bc 01       	movw	r22, r24
    2090:	cd 01       	movw	r24, r26
    2092:	0e 94 8b 25 	call	0x4b16	; 0x4b16 <__floatsisf>
    2096:	dc 01       	movw	r26, r24
    2098:	cb 01       	movw	r24, r22
    209a:	8d 83       	std	Y+5, r24	; 0x05
    209c:	9e 83       	std	Y+6, r25	; 0x06
    209e:	af 83       	std	Y+7, r26	; 0x07
    20a0:	b8 87       	std	Y+8, r27	; 0x08

#else
	uint16_t __ticks;
	__tmp = ((F_CPU) / 4e3) * __ms;
    20a2:	20 e0       	ldi	r18, 0x00	; 0
    20a4:	30 e8       	ldi	r19, 0x80	; 128
    20a6:	4b eb       	ldi	r20, 0xBB	; 187
    20a8:	55 e4       	ldi	r21, 0x45	; 69
    20aa:	6d 81       	ldd	r22, Y+5	; 0x05
    20ac:	7e 81       	ldd	r23, Y+6	; 0x06
    20ae:	8f 81       	ldd	r24, Y+7	; 0x07
    20b0:	98 85       	ldd	r25, Y+8	; 0x08
    20b2:	0e 94 e8 26 	call	0x4dd0	; 0x4dd0 <__mulsf3>
    20b6:	dc 01       	movw	r26, r24
    20b8:	cb 01       	movw	r24, r22
    20ba:	89 87       	std	Y+9, r24	; 0x09
    20bc:	9a 87       	std	Y+10, r25	; 0x0a
    20be:	ab 87       	std	Y+11, r26	; 0x0b
    20c0:	bc 87       	std	Y+12, r27	; 0x0c
	if (__tmp < 1.0)
    20c2:	20 e0       	ldi	r18, 0x00	; 0
    20c4:	30 e0       	ldi	r19, 0x00	; 0
    20c6:	40 e8       	ldi	r20, 0x80	; 128
    20c8:	5f e3       	ldi	r21, 0x3F	; 63
    20ca:	69 85       	ldd	r22, Y+9	; 0x09
    20cc:	7a 85       	ldd	r23, Y+10	; 0x0a
    20ce:	8b 85       	ldd	r24, Y+11	; 0x0b
    20d0:	9c 85       	ldd	r25, Y+12	; 0x0c
    20d2:	0e 94 dc 24 	call	0x49b8	; 0x49b8 <__cmpsf2>
    20d6:	88 23       	and	r24, r24
    20d8:	2c f4       	brge	.+10     	; 0x20e4 <_ZN14ADF5610_Driver6usleepEl+0xa0>
		__ticks = 1;
    20da:	81 e0       	ldi	r24, 0x01	; 1
    20dc:	90 e0       	ldi	r25, 0x00	; 0
    20de:	8d 87       	std	Y+13, r24	; 0x0d
    20e0:	9e 87       	std	Y+14, r25	; 0x0e
    20e2:	3f c0       	rjmp	.+126    	; 0x2162 <_ZN14ADF5610_Driver6usleepEl+0x11e>
	else if (__tmp > 65535)
    20e4:	20 e0       	ldi	r18, 0x00	; 0
    20e6:	3f ef       	ldi	r19, 0xFF	; 255
    20e8:	4f e7       	ldi	r20, 0x7F	; 127
    20ea:	57 e4       	ldi	r21, 0x47	; 71
    20ec:	69 85       	ldd	r22, Y+9	; 0x09
    20ee:	7a 85       	ldd	r23, Y+10	; 0x0a
    20f0:	8b 85       	ldd	r24, Y+11	; 0x0b
    20f2:	9c 85       	ldd	r25, Y+12	; 0x0c
    20f4:	0e 94 93 26 	call	0x4d26	; 0x4d26 <__gesf2>
    20f8:	18 16       	cp	r1, r24
    20fa:	4c f5       	brge	.+82     	; 0x214e <_ZN14ADF5610_Driver6usleepEl+0x10a>
	{
		//	__ticks = requested delay in 1/10 ms
		__ticks = (uint16_t) (__ms * 10.0);
    20fc:	20 e0       	ldi	r18, 0x00	; 0
    20fe:	30 e0       	ldi	r19, 0x00	; 0
    2100:	40 e2       	ldi	r20, 0x20	; 32
    2102:	51 e4       	ldi	r21, 0x41	; 65
    2104:	6d 81       	ldd	r22, Y+5	; 0x05
    2106:	7e 81       	ldd	r23, Y+6	; 0x06
    2108:	8f 81       	ldd	r24, Y+7	; 0x07
    210a:	98 85       	ldd	r25, Y+8	; 0x08
    210c:	0e 94 e8 26 	call	0x4dd0	; 0x4dd0 <__mulsf3>
    2110:	dc 01       	movw	r26, r24
    2112:	cb 01       	movw	r24, r22
    2114:	bc 01       	movw	r22, r24
    2116:	cd 01       	movw	r24, r26
    2118:	0e 94 5a 25 	call	0x4ab4	; 0x4ab4 <__fixunssfsi>
    211c:	dc 01       	movw	r26, r24
    211e:	cb 01       	movw	r24, r22
    2120:	8d 87       	std	Y+13, r24	; 0x0d
    2122:	9e 87       	std	Y+14, r25	; 0x0e
		while(__ticks)
    2124:	8d 85       	ldd	r24, Y+13	; 0x0d
    2126:	9e 85       	ldd	r25, Y+14	; 0x0e
    2128:	89 2b       	or	r24, r25
    212a:	09 f4       	brne	.+2      	; 0x212e <_ZN14ADF5610_Driver6usleepEl+0xea>
    212c:	96 c0       	rjmp	.+300    	; 0x225a <_ZN14ADF5610_Driver6usleepEl+0x216>
    212e:	88 e5       	ldi	r24, 0x58	; 88
    2130:	92 e0       	ldi	r25, 0x02	; 2
    2132:	8f 87       	std	Y+15, r24	; 0x0f
    2134:	98 8b       	std	Y+16, r25	; 0x10
	__asm__ volatile (
		"1: sbiw %0,1" "\n\t"
		"brne 1b"
		: "=w" (__count)
		: "0" (__count)
	);
    2136:	8f 85       	ldd	r24, Y+15	; 0x0f
    2138:	98 89       	ldd	r25, Y+16	; 0x10
    213a:	01 97       	sbiw	r24, 0x01	; 1
    213c:	f1 f7       	brne	.-4      	; 0x213a <_ZN14ADF5610_Driver6usleepEl+0xf6>
    213e:	8f 87       	std	Y+15, r24	; 0x0f
    2140:	98 8b       	std	Y+16, r25	; 0x10
		{
			// wait 1/10 ms
			_delay_loop_2(((F_CPU) / 4e3) / 10);
			__ticks --;
    2142:	8d 85       	ldd	r24, Y+13	; 0x0d
    2144:	9e 85       	ldd	r25, Y+14	; 0x0e
    2146:	01 97       	sbiw	r24, 0x01	; 1
    2148:	8d 87       	std	Y+13, r24	; 0x0d
    214a:	9e 87       	std	Y+14, r25	; 0x0e
    214c:	eb cf       	rjmp	.-42     	; 0x2124 <_ZN14ADF5610_Driver6usleepEl+0xe0>
		}
		return;
	}
	else
		__ticks = (uint16_t)__tmp;
    214e:	69 85       	ldd	r22, Y+9	; 0x09
    2150:	7a 85       	ldd	r23, Y+10	; 0x0a
    2152:	8b 85       	ldd	r24, Y+11	; 0x0b
    2154:	9c 85       	ldd	r25, Y+12	; 0x0c
    2156:	0e 94 5a 25 	call	0x4ab4	; 0x4ab4 <__fixunssfsi>
    215a:	dc 01       	movw	r26, r24
    215c:	cb 01       	movw	r24, r22
    215e:	8d 87       	std	Y+13, r24	; 0x0d
    2160:	9e 87       	std	Y+14, r25	; 0x0e
    2162:	8d 85       	ldd	r24, Y+13	; 0x0d
    2164:	9e 85       	ldd	r25, Y+14	; 0x0e
    2166:	89 8b       	std	Y+17, r24	; 0x11
    2168:	9a 8b       	std	Y+18, r25	; 0x12
    216a:	89 89       	ldd	r24, Y+17	; 0x11
    216c:	9a 89       	ldd	r25, Y+18	; 0x12
    216e:	01 97       	sbiw	r24, 0x01	; 1
    2170:	f1 f7       	brne	.-4      	; 0x216e <_ZN14ADF5610_Driver6usleepEl+0x12a>
    2172:	89 8b       	std	Y+17, r24	; 0x11
    2174:	9a 8b       	std	Y+18, r25	; 0x12
	else
	{
		_delay_ms(1);
	}
	
}
    2176:	71 c0       	rjmp	.+226    	; 0x225a <_ZN14ADF5610_Driver6usleepEl+0x216>
    2178:	80 e0       	ldi	r24, 0x00	; 0
    217a:	90 e0       	ldi	r25, 0x00	; 0
    217c:	a0 e8       	ldi	r26, 0x80	; 128
    217e:	bf e3       	ldi	r27, 0x3F	; 63
    2180:	89 83       	std	Y+1, r24	; 0x01
    2182:	9a 83       	std	Y+2, r25	; 0x02
    2184:	ab 83       	std	Y+3, r26	; 0x03
    2186:	bc 83       	std	Y+4, r27	; 0x04

	__builtin_avr_delay_cycles(__ticks_dc);

#else
	uint16_t __ticks;
	__tmp = ((F_CPU) / 4e3) * __ms;
    2188:	20 e0       	ldi	r18, 0x00	; 0
    218a:	30 e8       	ldi	r19, 0x80	; 128
    218c:	4b eb       	ldi	r20, 0xBB	; 187
    218e:	55 e4       	ldi	r21, 0x45	; 69
    2190:	69 81       	ldd	r22, Y+1	; 0x01
    2192:	7a 81       	ldd	r23, Y+2	; 0x02
    2194:	8b 81       	ldd	r24, Y+3	; 0x03
    2196:	9c 81       	ldd	r25, Y+4	; 0x04
    2198:	0e 94 e8 26 	call	0x4dd0	; 0x4dd0 <__mulsf3>
    219c:	dc 01       	movw	r26, r24
    219e:	cb 01       	movw	r24, r22
    21a0:	8b 8b       	std	Y+19, r24	; 0x13
    21a2:	9c 8b       	std	Y+20, r25	; 0x14
    21a4:	ad 8b       	std	Y+21, r26	; 0x15
    21a6:	be 8b       	std	Y+22, r27	; 0x16
	if (__tmp < 1.0)
    21a8:	20 e0       	ldi	r18, 0x00	; 0
    21aa:	30 e0       	ldi	r19, 0x00	; 0
    21ac:	40 e8       	ldi	r20, 0x80	; 128
    21ae:	5f e3       	ldi	r21, 0x3F	; 63
    21b0:	6b 89       	ldd	r22, Y+19	; 0x13
    21b2:	7c 89       	ldd	r23, Y+20	; 0x14
    21b4:	8d 89       	ldd	r24, Y+21	; 0x15
    21b6:	9e 89       	ldd	r25, Y+22	; 0x16
    21b8:	0e 94 dc 24 	call	0x49b8	; 0x49b8 <__cmpsf2>
    21bc:	88 23       	and	r24, r24
    21be:	2c f4       	brge	.+10     	; 0x21ca <_ZN14ADF5610_Driver6usleepEl+0x186>
		__ticks = 1;
    21c0:	81 e0       	ldi	r24, 0x01	; 1
    21c2:	90 e0       	ldi	r25, 0x00	; 0
    21c4:	8f 8b       	std	Y+23, r24	; 0x17
    21c6:	98 8f       	std	Y+24, r25	; 0x18
    21c8:	3e c0       	rjmp	.+124    	; 0x2246 <_ZN14ADF5610_Driver6usleepEl+0x202>
	else if (__tmp > 65535)
    21ca:	20 e0       	ldi	r18, 0x00	; 0
    21cc:	3f ef       	ldi	r19, 0xFF	; 255
    21ce:	4f e7       	ldi	r20, 0x7F	; 127
    21d0:	57 e4       	ldi	r21, 0x47	; 71
    21d2:	6b 89       	ldd	r22, Y+19	; 0x13
    21d4:	7c 89       	ldd	r23, Y+20	; 0x14
    21d6:	8d 89       	ldd	r24, Y+21	; 0x15
    21d8:	9e 89       	ldd	r25, Y+22	; 0x16
    21da:	0e 94 93 26 	call	0x4d26	; 0x4d26 <__gesf2>
    21de:	18 16       	cp	r1, r24
    21e0:	44 f5       	brge	.+80     	; 0x2232 <_ZN14ADF5610_Driver6usleepEl+0x1ee>
	{
		//	__ticks = requested delay in 1/10 ms
		__ticks = (uint16_t) (__ms * 10.0);
    21e2:	20 e0       	ldi	r18, 0x00	; 0
    21e4:	30 e0       	ldi	r19, 0x00	; 0
    21e6:	40 e2       	ldi	r20, 0x20	; 32
    21e8:	51 e4       	ldi	r21, 0x41	; 65
    21ea:	69 81       	ldd	r22, Y+1	; 0x01
    21ec:	7a 81       	ldd	r23, Y+2	; 0x02
    21ee:	8b 81       	ldd	r24, Y+3	; 0x03
    21f0:	9c 81       	ldd	r25, Y+4	; 0x04
    21f2:	0e 94 e8 26 	call	0x4dd0	; 0x4dd0 <__mulsf3>
    21f6:	dc 01       	movw	r26, r24
    21f8:	cb 01       	movw	r24, r22
    21fa:	bc 01       	movw	r22, r24
    21fc:	cd 01       	movw	r24, r26
    21fe:	0e 94 5a 25 	call	0x4ab4	; 0x4ab4 <__fixunssfsi>
    2202:	dc 01       	movw	r26, r24
    2204:	cb 01       	movw	r24, r22
    2206:	8f 8b       	std	Y+23, r24	; 0x17
    2208:	98 8f       	std	Y+24, r25	; 0x18
		while(__ticks)
    220a:	8f 89       	ldd	r24, Y+23	; 0x17
    220c:	98 8d       	ldd	r25, Y+24	; 0x18
    220e:	89 2b       	or	r24, r25
    2210:	21 f1       	breq	.+72     	; 0x225a <_ZN14ADF5610_Driver6usleepEl+0x216>
    2212:	88 e5       	ldi	r24, 0x58	; 88
    2214:	92 e0       	ldi	r25, 0x02	; 2
    2216:	89 8f       	std	Y+25, r24	; 0x19
    2218:	9a 8f       	std	Y+26, r25	; 0x1a
    221a:	89 8d       	ldd	r24, Y+25	; 0x19
    221c:	9a 8d       	ldd	r25, Y+26	; 0x1a
    221e:	01 97       	sbiw	r24, 0x01	; 1
    2220:	f1 f7       	brne	.-4      	; 0x221e <_ZN14ADF5610_Driver6usleepEl+0x1da>
    2222:	89 8f       	std	Y+25, r24	; 0x19
    2224:	9a 8f       	std	Y+26, r25	; 0x1a
		{
			// wait 1/10 ms
			_delay_loop_2(((F_CPU) / 4e3) / 10);
			__ticks --;
    2226:	8f 89       	ldd	r24, Y+23	; 0x17
    2228:	98 8d       	ldd	r25, Y+24	; 0x18
    222a:	01 97       	sbiw	r24, 0x01	; 1
    222c:	8f 8b       	std	Y+23, r24	; 0x17
    222e:	98 8f       	std	Y+24, r25	; 0x18
    2230:	ec cf       	rjmp	.-40     	; 0x220a <_ZN14ADF5610_Driver6usleepEl+0x1c6>
		}
		return;
	}
	else
		__ticks = (uint16_t)__tmp;
    2232:	6b 89       	ldd	r22, Y+19	; 0x13
    2234:	7c 89       	ldd	r23, Y+20	; 0x14
    2236:	8d 89       	ldd	r24, Y+21	; 0x15
    2238:	9e 89       	ldd	r25, Y+22	; 0x16
    223a:	0e 94 5a 25 	call	0x4ab4	; 0x4ab4 <__fixunssfsi>
    223e:	dc 01       	movw	r26, r24
    2240:	cb 01       	movw	r24, r22
    2242:	8f 8b       	std	Y+23, r24	; 0x17
    2244:	98 8f       	std	Y+24, r25	; 0x18
    2246:	8f 89       	ldd	r24, Y+23	; 0x17
    2248:	98 8d       	ldd	r25, Y+24	; 0x18
    224a:	8b 8f       	std	Y+27, r24	; 0x1b
    224c:	9c 8f       	std	Y+28, r25	; 0x1c
    224e:	8b 8d       	ldd	r24, Y+27	; 0x1b
    2250:	9c 8d       	ldd	r25, Y+28	; 0x1c
    2252:	01 97       	sbiw	r24, 0x01	; 1
    2254:	f1 f7       	brne	.-4      	; 0x2252 <_ZN14ADF5610_Driver6usleepEl+0x20e>
    2256:	8b 8f       	std	Y+27, r24	; 0x1b
    2258:	9c 8f       	std	Y+28, r25	; 0x1c
    225a:	00 00       	nop
    225c:	a2 96       	adiw	r28, 0x22	; 34
    225e:	cd bf       	out	0x3d, r28	; 61
    2260:	de bf       	out	0x3e, r29	; 62
    2262:	df 91       	pop	r29
    2264:	cf 91       	pop	r28
    2266:	08 95       	ret

00002268 <_Z41__static_initialization_and_destruction_0ii>:
    2268:	cf 93       	push	r28
    226a:	df 93       	push	r29
    226c:	00 d0       	rcall	.+0      	; 0x226e <_Z41__static_initialization_and_destruction_0ii+0x6>
    226e:	00 d0       	rcall	.+0      	; 0x2270 <_Z41__static_initialization_and_destruction_0ii+0x8>
    2270:	cd b7       	in	r28, 0x3d	; 61
    2272:	de b7       	in	r29, 0x3e	; 62
    2274:	89 83       	std	Y+1, r24	; 0x01
    2276:	9a 83       	std	Y+2, r25	; 0x02
    2278:	6b 83       	std	Y+3, r22	; 0x03
    227a:	7c 83       	std	Y+4, r23	; 0x04
    227c:	89 81       	ldd	r24, Y+1	; 0x01
    227e:	9a 81       	ldd	r25, Y+2	; 0x02
    2280:	01 97       	sbiw	r24, 0x01	; 1
    2282:	41 f4       	brne	.+16     	; 0x2294 <_Z41__static_initialization_and_destruction_0ii+0x2c>
    2284:	8b 81       	ldd	r24, Y+3	; 0x03
    2286:	9c 81       	ldd	r25, Y+4	; 0x04
    2288:	01 96       	adiw	r24, 0x01	; 1
    228a:	21 f4       	brne	.+8      	; 0x2294 <_Z41__static_initialization_and_destruction_0ii+0x2c>
	#define bitWrite(value, bit, bitvalue) ((bitvalue) ? bitSet(value, bit) : bitClear(value, bit))
#endif


//static SPI_Handler staticSPI;
static SPI_Syn_Class_ADF staticSPI;
    228c:	8e ea       	ldi	r24, 0xAE	; 174
    228e:	93 e4       	ldi	r25, 0x43	; 67
    2290:	0e 94 c0 11 	call	0x2380	; 0x2380 <_ZN17SPI_Syn_Class_ADFC1Ev>
    2294:	89 81       	ldd	r24, Y+1	; 0x01
    2296:	9a 81       	ldd	r25, Y+2	; 0x02
    2298:	89 2b       	or	r24, r25
    229a:	41 f4       	brne	.+16     	; 0x22ac <_Z41__static_initialization_and_destruction_0ii+0x44>
    229c:	8b 81       	ldd	r24, Y+3	; 0x03
    229e:	9c 81       	ldd	r25, Y+4	; 0x04
    22a0:	01 96       	adiw	r24, 0x01	; 1
    22a2:	21 f4       	brne	.+8      	; 0x22ac <_Z41__static_initialization_and_destruction_0ii+0x44>
    22a4:	8e ea       	ldi	r24, 0xAE	; 174
    22a6:	93 e4       	ldi	r25, 0x43	; 67
    22a8:	0e 94 d3 11 	call	0x23a6	; 0x23a6 <_ZN17SPI_Syn_Class_ADFD1Ev>
	else
	{
		_delay_ms(1);
	}
	
}
    22ac:	00 00       	nop
    22ae:	24 96       	adiw	r28, 0x04	; 4
    22b0:	cd bf       	out	0x3d, r28	; 61
    22b2:	de bf       	out	0x3e, r29	; 62
    22b4:	df 91       	pop	r29
    22b6:	cf 91       	pop	r28
    22b8:	08 95       	ret

000022ba <_GLOBAL__sub_I__ZN14ADF5610_DriverC2Ev>:
    22ba:	cf 93       	push	r28
    22bc:	df 93       	push	r29
    22be:	cd b7       	in	r28, 0x3d	; 61
    22c0:	de b7       	in	r29, 0x3e	; 62
    22c2:	6f ef       	ldi	r22, 0xFF	; 255
    22c4:	7f ef       	ldi	r23, 0xFF	; 255
    22c6:	81 e0       	ldi	r24, 0x01	; 1
    22c8:	90 e0       	ldi	r25, 0x00	; 0
    22ca:	0e 94 34 11 	call	0x2268	; 0x2268 <_Z41__static_initialization_and_destruction_0ii>
    22ce:	df 91       	pop	r29
    22d0:	cf 91       	pop	r28
    22d2:	08 95       	ret

000022d4 <_GLOBAL__sub_D__ZN14ADF5610_DriverC2Ev>:
    22d4:	cf 93       	push	r28
    22d6:	df 93       	push	r29
    22d8:	cd b7       	in	r28, 0x3d	; 61
    22da:	de b7       	in	r29, 0x3e	; 62
    22dc:	6f ef       	ldi	r22, 0xFF	; 255
    22de:	7f ef       	ldi	r23, 0xFF	; 255
    22e0:	80 e0       	ldi	r24, 0x00	; 0
    22e2:	90 e0       	ldi	r25, 0x00	; 0
    22e4:	0e 94 34 11 	call	0x2268	; 0x2268 <_Z41__static_initialization_and_destruction_0ii>
    22e8:	df 91       	pop	r29
    22ea:	cf 91       	pop	r28
    22ec:	08 95       	ret

000022ee <PORTA_set_pin_level>:
}
void SPI_Syn_Class_ADF::Disable(void){
	SPI_ADF_disable();
	//spi_m_sync_disable(SPI);
	
}
    22ee:	cf 93       	push	r28
    22f0:	df 93       	push	r29
    22f2:	00 d0       	rcall	.+0      	; 0x22f4 <PORTA_set_pin_level+0x6>
    22f4:	cd b7       	in	r28, 0x3d	; 61
    22f6:	de b7       	in	r29, 0x3e	; 62
    22f8:	89 83       	std	Y+1, r24	; 0x01
    22fa:	6a 83       	std	Y+2, r22	; 0x02
    22fc:	8a 81       	ldd	r24, Y+2	; 0x02
    22fe:	88 23       	and	r24, r24
    2300:	a9 f0       	breq	.+42     	; 0x232c <PORTA_set_pin_level+0x3e>
    2302:	20 e0       	ldi	r18, 0x00	; 0
    2304:	30 e0       	ldi	r19, 0x00	; 0
    2306:	80 e0       	ldi	r24, 0x00	; 0
    2308:	90 e0       	ldi	r25, 0x00	; 0
    230a:	fc 01       	movw	r30, r24
    230c:	81 81       	ldd	r24, Z+1	; 0x01
    230e:	68 2f       	mov	r22, r24
    2310:	89 81       	ldd	r24, Y+1	; 0x01
    2312:	48 2f       	mov	r20, r24
    2314:	50 e0       	ldi	r21, 0x00	; 0
    2316:	81 e0       	ldi	r24, 0x01	; 1
    2318:	90 e0       	ldi	r25, 0x00	; 0
    231a:	02 c0       	rjmp	.+4      	; 0x2320 <PORTA_set_pin_level+0x32>
    231c:	88 0f       	add	r24, r24
    231e:	99 1f       	adc	r25, r25
    2320:	4a 95       	dec	r20
    2322:	e2 f7       	brpl	.-8      	; 0x231c <PORTA_set_pin_level+0x2e>
    2324:	86 2b       	or	r24, r22
    2326:	f9 01       	movw	r30, r18
    2328:	81 83       	std	Z+1, r24	; 0x01
    232a:	15 c0       	rjmp	.+42     	; 0x2356 <PORTA_set_pin_level+0x68>
    232c:	20 e0       	ldi	r18, 0x00	; 0
    232e:	30 e0       	ldi	r19, 0x00	; 0
    2330:	80 e0       	ldi	r24, 0x00	; 0
    2332:	90 e0       	ldi	r25, 0x00	; 0
    2334:	fc 01       	movw	r30, r24
    2336:	81 81       	ldd	r24, Z+1	; 0x01
    2338:	68 2f       	mov	r22, r24
    233a:	89 81       	ldd	r24, Y+1	; 0x01
    233c:	48 2f       	mov	r20, r24
    233e:	50 e0       	ldi	r21, 0x00	; 0
    2340:	81 e0       	ldi	r24, 0x01	; 1
    2342:	90 e0       	ldi	r25, 0x00	; 0
    2344:	02 c0       	rjmp	.+4      	; 0x234a <PORTA_set_pin_level+0x5c>
    2346:	88 0f       	add	r24, r24
    2348:	99 1f       	adc	r25, r25
    234a:	4a 95       	dec	r20
    234c:	e2 f7       	brpl	.-8      	; 0x2346 <PORTA_set_pin_level+0x58>
    234e:	80 95       	com	r24
    2350:	86 23       	and	r24, r22
    2352:	f9 01       	movw	r30, r18
    2354:	81 83       	std	Z+1, r24	; 0x01
    2356:	00 00       	nop
    2358:	0f 90       	pop	r0
    235a:	0f 90       	pop	r0
    235c:	df 91       	pop	r29
    235e:	cf 91       	pop	r28
    2360:	08 95       	ret

00002362 <CS_ADF_set_level>:
    2362:	cf 93       	push	r28
    2364:	df 93       	push	r29
    2366:	1f 92       	push	r1
    2368:	cd b7       	in	r28, 0x3d	; 61
    236a:	de b7       	in	r29, 0x3e	; 62
    236c:	89 83       	std	Y+1, r24	; 0x01
    236e:	69 81       	ldd	r22, Y+1	; 0x01
    2370:	87 e0       	ldi	r24, 0x07	; 7
    2372:	0e 94 77 11 	call	0x22ee	; 0x22ee <PORTA_set_pin_level>
    2376:	00 00       	nop
    2378:	0f 90       	pop	r0
    237a:	df 91       	pop	r29
    237c:	cf 91       	pop	r28
    237e:	08 95       	ret

00002380 <_ZN17SPI_Syn_Class_ADFC1Ev>:
    2380:	cf 93       	push	r28
    2382:	df 93       	push	r29
    2384:	00 d0       	rcall	.+0      	; 0x2386 <_ZN17SPI_Syn_Class_ADFC1Ev+0x6>
    2386:	cd b7       	in	r28, 0x3d	; 61
    2388:	de b7       	in	r29, 0x3e	; 62
    238a:	89 83       	std	Y+1, r24	; 0x01
    238c:	9a 83       	std	Y+2, r25	; 0x02
    238e:	89 81       	ldd	r24, Y+1	; 0x01
    2390:	9a 81       	ldd	r25, Y+2	; 0x02
    2392:	80 93 b3 43 	sts	0x43B3, r24	; 0x8043b3 <ptrSPISync_adf>
    2396:	90 93 b4 43 	sts	0x43B4, r25	; 0x8043b4 <ptrSPISync_adf+0x1>
    239a:	00 00       	nop
    239c:	0f 90       	pop	r0
    239e:	0f 90       	pop	r0
    23a0:	df 91       	pop	r29
    23a2:	cf 91       	pop	r28
    23a4:	08 95       	ret

000023a6 <_ZN17SPI_Syn_Class_ADFD1Ev>:
    23a6:	cf 93       	push	r28
    23a8:	df 93       	push	r29
    23aa:	00 d0       	rcall	.+0      	; 0x23ac <_ZN17SPI_Syn_Class_ADFD1Ev+0x6>
    23ac:	cd b7       	in	r28, 0x3d	; 61
    23ae:	de b7       	in	r29, 0x3e	; 62
    23b0:	89 83       	std	Y+1, r24	; 0x01
    23b2:	9a 83       	std	Y+2, r25	; 0x02
    23b4:	00 00       	nop
    23b6:	0f 90       	pop	r0
    23b8:	0f 90       	pop	r0
    23ba:	df 91       	pop	r29
    23bc:	cf 91       	pop	r28
    23be:	08 95       	ret

000023c0 <_ZN17SPI_Syn_Class_ADF4InitEv>:
    23c0:	cf 93       	push	r28
    23c2:	df 93       	push	r29
    23c4:	00 d0       	rcall	.+0      	; 0x23c6 <_ZN17SPI_Syn_Class_ADF4InitEv+0x6>
    23c6:	cd b7       	in	r28, 0x3d	; 61
    23c8:	de b7       	in	r29, 0x3e	; 62
    23ca:	89 83       	std	Y+1, r24	; 0x01
    23cc:	9a 83       	std	Y+2, r25	; 0x02
    23ce:	89 81       	ldd	r24, Y+1	; 0x01
    23d0:	9a 81       	ldd	r25, Y+2	; 0x02
    23d2:	0e 94 f6 11 	call	0x23ec	; 0x23ec <_ZN17SPI_Syn_Class_ADF6EnableEv>
    23d6:	89 81       	ldd	r24, Y+1	; 0x01
    23d8:	9a 81       	ldd	r25, Y+2	; 0x02
    23da:	21 e0       	ldi	r18, 0x01	; 1
    23dc:	fc 01       	movw	r30, r24
    23de:	20 83       	st	Z, r18
    23e0:	00 00       	nop
    23e2:	0f 90       	pop	r0
    23e4:	0f 90       	pop	r0
    23e6:	df 91       	pop	r29
    23e8:	cf 91       	pop	r28
    23ea:	08 95       	ret

000023ec <_ZN17SPI_Syn_Class_ADF6EnableEv>:
    23ec:	cf 93       	push	r28
    23ee:	df 93       	push	r29
    23f0:	00 d0       	rcall	.+0      	; 0x23f2 <_ZN17SPI_Syn_Class_ADF6EnableEv+0x6>
    23f2:	cd b7       	in	r28, 0x3d	; 61
    23f4:	de b7       	in	r29, 0x3e	; 62
    23f6:	89 83       	std	Y+1, r24	; 0x01
    23f8:	9a 83       	std	Y+2, r25	; 0x02
    23fa:	0e 94 73 13 	call	0x26e6	; 0x26e6 <SPI_ADF_enable>
    23fe:	80 e0       	ldi	r24, 0x00	; 0
    2400:	0f 90       	pop	r0
    2402:	0f 90       	pop	r0
    2404:	df 91       	pop	r29
    2406:	cf 91       	pop	r28
    2408:	08 95       	ret

0000240a <_ZN17SPI_Syn_Class_ADF5WriteEPKhh>:
    240a:	cf 93       	push	r28
    240c:	df 93       	push	r29
    240e:	cd b7       	in	r28, 0x3d	; 61
    2410:	de b7       	in	r29, 0x3e	; 62
    2412:	25 97       	sbiw	r28, 0x05	; 5
    2414:	cd bf       	out	0x3d, r28	; 61
    2416:	de bf       	out	0x3e, r29	; 62
    2418:	89 83       	std	Y+1, r24	; 0x01
    241a:	9a 83       	std	Y+2, r25	; 0x02
    241c:	6b 83       	std	Y+3, r22	; 0x03
    241e:	7c 83       	std	Y+4, r23	; 0x04
    2420:	4d 83       	std	Y+5, r20	; 0x05
    2422:	89 81       	ldd	r24, Y+1	; 0x01
    2424:	9a 81       	ldd	r25, Y+2	; 0x02
    2426:	fc 01       	movw	r30, r24
    2428:	10 82       	st	Z, r1
    242a:	f8 94       	cli
    242c:	8b 81       	ldd	r24, Y+3	; 0x03
    242e:	9c 81       	ldd	r25, Y+4	; 0x04
    2430:	6d 81       	ldd	r22, Y+5	; 0x05
    2432:	0e 94 79 13 	call	0x26f2	; 0x26f2 <SPI_ADF_write_block>
    2436:	78 94       	sei
    2438:	8d 81       	ldd	r24, Y+5	; 0x05
    243a:	25 96       	adiw	r28, 0x05	; 5
    243c:	cd bf       	out	0x3d, r28	; 61
    243e:	de bf       	out	0x3e, r29	; 62
    2440:	df 91       	pop	r29
    2442:	cf 91       	pop	r28
    2444:	08 95       	ret

00002446 <_ZN17SPI_Syn_Class_ADF4ReadEPhh>:
    2446:	cf 93       	push	r28
    2448:	df 93       	push	r29
    244a:	cd b7       	in	r28, 0x3d	; 61
    244c:	de b7       	in	r29, 0x3e	; 62
    244e:	25 97       	sbiw	r28, 0x05	; 5
    2450:	cd bf       	out	0x3d, r28	; 61
    2452:	de bf       	out	0x3e, r29	; 62
    2454:	89 83       	std	Y+1, r24	; 0x01
    2456:	9a 83       	std	Y+2, r25	; 0x02
    2458:	6b 83       	std	Y+3, r22	; 0x03
    245a:	7c 83       	std	Y+4, r23	; 0x04
    245c:	4d 83       	std	Y+5, r20	; 0x05
    245e:	89 81       	ldd	r24, Y+1	; 0x01
    2460:	9a 81       	ldd	r25, Y+2	; 0x02
    2462:	fc 01       	movw	r30, r24
    2464:	10 82       	st	Z, r1
    2466:	f8 94       	cli
    2468:	8b 81       	ldd	r24, Y+3	; 0x03
    246a:	9c 81       	ldd	r25, Y+4	; 0x04
    246c:	6d 81       	ldd	r22, Y+5	; 0x05
    246e:	0e 94 89 13 	call	0x2712	; 0x2712 <SPI_ADF_read_block>
    2472:	78 94       	sei
    2474:	8d 81       	ldd	r24, Y+5	; 0x05
    2476:	25 96       	adiw	r28, 0x05	; 5
    2478:	cd bf       	out	0x3d, r28	; 61
    247a:	de bf       	out	0x3e, r29	; 62
    247c:	df 91       	pop	r29
    247e:	cf 91       	pop	r28
    2480:	08 95       	ret

00002482 <_ZN17SPI_Syn_Class_ADF5SetCSEb>:
void SPI_Syn_Class_ADF::SetCS(bool st){
    2482:	cf 93       	push	r28
    2484:	df 93       	push	r29
    2486:	00 d0       	rcall	.+0      	; 0x2488 <_ZN17SPI_Syn_Class_ADF5SetCSEb+0x6>
    2488:	1f 92       	push	r1
    248a:	cd b7       	in	r28, 0x3d	; 61
    248c:	de b7       	in	r29, 0x3e	; 62
    248e:	89 83       	std	Y+1, r24	; 0x01
    2490:	9a 83       	std	Y+2, r25	; 0x02
    2492:	6b 83       	std	Y+3, r22	; 0x03
	//PORTA_set_pin_level(7, st);
	CS_ADF_set_level(st);
    2494:	8b 81       	ldd	r24, Y+3	; 0x03
    2496:	0e 94 b1 11 	call	0x2362	; 0x2362 <CS_ADF_set_level>
}
    249a:	00 00       	nop
    249c:	23 96       	adiw	r28, 0x03	; 3
    249e:	cd bf       	out	0x3d, r28	; 61
    24a0:	de bf       	out	0x3e, r29	; 62
    24a2:	df 91       	pop	r29
    24a4:	cf 91       	pop	r28
    24a6:	08 95       	ret

000024a8 <atmel_start_init>:
/**
 * Initializes MCU, drivers and middleware in the project
 **/
void atmel_start_init(void)
{
	system_init();
    24a8:	0e 94 09 13 	call	0x2612	; 0x2612 <system_init>
    24ac:	08 95       	ret

000024ae <mcu_init>:
}

void TIMER_RISING_initialization(void)
{

	TIMER_RISING_init();
    24ae:	80 e0       	ldi	r24, 0x00	; 0
    24b0:	08 c0       	rjmp	.+16     	; 0x24c2 <mcu_init+0x14>
    24b2:	e8 2f       	mov	r30, r24
    24b4:	f0 e0       	ldi	r31, 0x00	; 0
    24b6:	e0 5f       	subi	r30, 0xF0	; 240
    24b8:	fb 4f       	sbci	r31, 0xFB	; 251
    24ba:	90 81       	ld	r25, Z
    24bc:	98 60       	ori	r25, 0x08	; 8
    24be:	90 83       	st	Z, r25
    24c0:	8f 5f       	subi	r24, 0xFF	; 255
    24c2:	88 30       	cpi	r24, 0x08	; 8
    24c4:	b0 f3       	brcs	.-20     	; 0x24b2 <mcu_init+0x4>
    24c6:	80 e0       	ldi	r24, 0x00	; 0
    24c8:	08 c0       	rjmp	.+16     	; 0x24da <mcu_init+0x2c>
    24ca:	e8 2f       	mov	r30, r24
    24cc:	f0 e0       	ldi	r31, 0x00	; 0
    24ce:	e0 5d       	subi	r30, 0xD0	; 208
    24d0:	fb 4f       	sbci	r31, 0xFB	; 251
    24d2:	90 81       	ld	r25, Z
    24d4:	98 60       	ori	r25, 0x08	; 8
    24d6:	90 83       	st	Z, r25
    24d8:	8f 5f       	subi	r24, 0xFF	; 255
    24da:	88 30       	cpi	r24, 0x08	; 8
    24dc:	b0 f3       	brcs	.-20     	; 0x24ca <mcu_init+0x1c>
    24de:	80 e0       	ldi	r24, 0x00	; 0
    24e0:	08 c0       	rjmp	.+16     	; 0x24f2 <mcu_init+0x44>
    24e2:	e8 2f       	mov	r30, r24
    24e4:	f0 e0       	ldi	r31, 0x00	; 0
    24e6:	e0 5b       	subi	r30, 0xB0	; 176
    24e8:	fb 4f       	sbci	r31, 0xFB	; 251
    24ea:	90 81       	ld	r25, Z
    24ec:	98 60       	ori	r25, 0x08	; 8
    24ee:	90 83       	st	Z, r25
    24f0:	8f 5f       	subi	r24, 0xFF	; 255
    24f2:	88 30       	cpi	r24, 0x08	; 8
    24f4:	b0 f3       	brcs	.-20     	; 0x24e2 <mcu_init+0x34>
    24f6:	80 e0       	ldi	r24, 0x00	; 0
    24f8:	08 c0       	rjmp	.+16     	; 0x250a <mcu_init+0x5c>
    24fa:	e8 2f       	mov	r30, r24
    24fc:	f0 e0       	ldi	r31, 0x00	; 0
    24fe:	e0 59       	subi	r30, 0x90	; 144
    2500:	fb 4f       	sbci	r31, 0xFB	; 251
    2502:	90 81       	ld	r25, Z
    2504:	98 60       	ori	r25, 0x08	; 8
    2506:	90 83       	st	Z, r25
    2508:	8f 5f       	subi	r24, 0xFF	; 255
    250a:	88 30       	cpi	r24, 0x08	; 8
    250c:	b0 f3       	brcs	.-20     	; 0x24fa <mcu_init+0x4c>
    250e:	80 e0       	ldi	r24, 0x00	; 0
    2510:	08 c0       	rjmp	.+16     	; 0x2522 <mcu_init+0x74>
    2512:	e8 2f       	mov	r30, r24
    2514:	f0 e0       	ldi	r31, 0x00	; 0
    2516:	e0 57       	subi	r30, 0x70	; 112
    2518:	fb 4f       	sbci	r31, 0xFB	; 251
    251a:	90 81       	ld	r25, Z
    251c:	98 60       	ori	r25, 0x08	; 8
    251e:	90 83       	st	Z, r25
    2520:	8f 5f       	subi	r24, 0xFF	; 255
    2522:	88 30       	cpi	r24, 0x08	; 8
    2524:	b0 f3       	brcs	.-20     	; 0x2512 <mcu_init+0x64>
    2526:	80 e0       	ldi	r24, 0x00	; 0
    2528:	08 c0       	rjmp	.+16     	; 0x253a <mcu_init+0x8c>
    252a:	e8 2f       	mov	r30, r24
    252c:	f0 e0       	ldi	r31, 0x00	; 0
    252e:	e0 55       	subi	r30, 0x50	; 80
    2530:	fb 4f       	sbci	r31, 0xFB	; 251
    2532:	90 81       	ld	r25, Z
    2534:	98 60       	ori	r25, 0x08	; 8
    2536:	90 83       	st	Z, r25
    2538:	8f 5f       	subi	r24, 0xFF	; 255
    253a:	88 30       	cpi	r24, 0x08	; 8
    253c:	b0 f3       	brcs	.-20     	; 0x252a <mcu_init+0x7c>
    253e:	08 95       	ret

00002540 <OPERATIONAL_AMPLIFIER_0_initialization>:
    2540:	e7 e7       	ldi	r30, 0x77	; 119
    2542:	f4 e0       	ldi	r31, 0x04	; 4
    2544:	80 81       	ld	r24, Z
    2546:	88 7f       	andi	r24, 0xF8	; 248
    2548:	84 60       	ori	r24, 0x04	; 4
    254a:	80 83       	st	Z, r24
    254c:	80 81       	ld	r24, Z
    254e:	87 7f       	andi	r24, 0xF7	; 247
    2550:	80 83       	st	Z, r24
    2552:	e5 e7       	ldi	r30, 0x75	; 117
    2554:	f4 e0       	ldi	r31, 0x04	; 4
    2556:	80 81       	ld	r24, Z
    2558:	88 7f       	andi	r24, 0xF8	; 248
    255a:	84 60       	ori	r24, 0x04	; 4
    255c:	80 83       	st	Z, r24
    255e:	80 81       	ld	r24, Z
    2560:	87 7f       	andi	r24, 0xF7	; 247
    2562:	80 83       	st	Z, r24
    2564:	0e 94 49 13 	call	0x2692	; 0x2692 <OPERATIONAL_AMPLIFIER_0_init>
    2568:	08 95       	ret

0000256a <USART_0_initialization>:
    256a:	84 b1       	in	r24, 0x04	; 4
    256c:	8d 7f       	andi	r24, 0xFD	; 253
    256e:	84 b9       	out	0x04, r24	; 4
    2570:	e1 e3       	ldi	r30, 0x31	; 49
    2572:	f4 e0       	ldi	r31, 0x04	; 4
    2574:	80 81       	ld	r24, Z
    2576:	87 7f       	andi	r24, 0xF7	; 247
    2578:	80 83       	st	Z, r24
    257a:	85 b1       	in	r24, 0x05	; 5
    257c:	8e 7f       	andi	r24, 0xFE	; 254
    257e:	85 b9       	out	0x05, r24	; 5
    2580:	84 b1       	in	r24, 0x04	; 4
    2582:	81 60       	ori	r24, 0x01	; 1
    2584:	84 b9       	out	0x04, r24	; 4
    2586:	0e 94 ee 13 	call	0x27dc	; 0x27dc <USART_0_init>
    258a:	08 95       	ret

0000258c <EVENT_SYSTEM_0_initialization>:
    258c:	0e 94 3a 13 	call	0x2674	; 0x2674 <EVENT_SYSTEM_0_init>
    2590:	08 95       	ret

00002592 <ZCD_FALLING_initialization>:
    2592:	e3 e9       	ldi	r30, 0x93	; 147
    2594:	f4 e0       	ldi	r31, 0x04	; 4
    2596:	80 81       	ld	r24, Z
    2598:	88 7f       	andi	r24, 0xF8	; 248
    259a:	84 60       	ori	r24, 0x04	; 4
    259c:	80 83       	st	Z, r24
    259e:	80 81       	ld	r24, Z
    25a0:	87 7f       	andi	r24, 0xF7	; 247
    25a2:	80 83       	st	Z, r24
    25a4:	0e 94 0f 14 	call	0x281e	; 0x281e <ZCD_FALLING_init>
    25a8:	08 95       	ret

000025aa <SPI_ADF_initialization>:
    25aa:	80 b1       	in	r24, 0x00	; 0
    25ac:	8f 7d       	andi	r24, 0xDF	; 223
    25ae:	80 b9       	out	0x00, r24	; 0
    25b0:	e5 e1       	ldi	r30, 0x15	; 21
    25b2:	f4 e0       	ldi	r31, 0x04	; 4
    25b4:	80 81       	ld	r24, Z
    25b6:	87 7f       	andi	r24, 0xF7	; 247
    25b8:	80 83       	st	Z, r24
    25ba:	81 b1       	in	r24, 0x01	; 1
    25bc:	8f 7e       	andi	r24, 0xEF	; 239
    25be:	81 b9       	out	0x01, r24	; 1
    25c0:	80 b1       	in	r24, 0x00	; 0
    25c2:	80 61       	ori	r24, 0x10	; 16
    25c4:	80 b9       	out	0x00, r24	; 0
    25c6:	81 b1       	in	r24, 0x01	; 1
    25c8:	80 64       	ori	r24, 0x40	; 64
    25ca:	81 b9       	out	0x01, r24	; 1
    25cc:	80 b1       	in	r24, 0x00	; 0
    25ce:	80 64       	ori	r24, 0x40	; 64
    25d0:	80 b9       	out	0x00, r24	; 0
    25d2:	0e 94 6d 13 	call	0x26da	; 0x26da <SPI_ADF_init>
    25d6:	08 95       	ret

000025d8 <SPI_LMX_initialization>:
    25d8:	88 b1       	in	r24, 0x08	; 8
    25da:	8d 7f       	andi	r24, 0xFD	; 253
    25dc:	88 b9       	out	0x08, r24	; 8
    25de:	e1 e5       	ldi	r30, 0x51	; 81
    25e0:	f4 e0       	ldi	r31, 0x04	; 4
    25e2:	80 81       	ld	r24, Z
    25e4:	87 7f       	andi	r24, 0xF7	; 247
    25e6:	80 83       	st	Z, r24
    25e8:	89 b1       	in	r24, 0x09	; 9
    25ea:	8e 7f       	andi	r24, 0xFE	; 254
    25ec:	89 b9       	out	0x09, r24	; 9
    25ee:	88 b1       	in	r24, 0x08	; 8
    25f0:	81 60       	ori	r24, 0x01	; 1
    25f2:	88 b9       	out	0x08, r24	; 8
    25f4:	89 b1       	in	r24, 0x09	; 9
    25f6:	8b 7f       	andi	r24, 0xFB	; 251
    25f8:	89 b9       	out	0x09, r24	; 9
    25fa:	88 b1       	in	r24, 0x08	; 8
    25fc:	84 60       	ori	r24, 0x04	; 4
    25fe:	88 b9       	out	0x08, r24	; 8
    2600:	0e 94 9a 13 	call	0x2734	; 0x2734 <SPI_LMX_init>
    2604:	08 95       	ret

00002606 <TIMER_FALLING_initialization>:
}

void TIMER_FALLING_initialization(void)
{

	TIMER_FALLING_init();
    2606:	0e 94 c7 13 	call	0x278e	; 0x278e <TIMER_FALLING_init>
    260a:	08 95       	ret

0000260c <TIMER_0_initialization>:
}

void TIMER_0_initialization(void)
{

	TIMER_0_init();
    260c:	0e 94 d9 13 	call	0x27b2	; 0x27b2 <TIMER_0_init>
    2610:	08 95       	ret

00002612 <system_init>:
/**
 * \brief System initialization
 */
void system_init()
{
	mcu_init();
    2612:	0e 94 57 12 	call	0x24ae	; 0x24ae <mcu_init>
static inline void PORTA_set_pin_level(const uint8_t pin, const bool level)
{
	if (level == true) {
		VPORTA.OUT |= (1 << pin);
	} else {
		VPORTA.OUT &= ~(1 << pin);
    2616:	81 b1       	in	r24, 0x01	; 1
    2618:	8f 77       	andi	r24, 0x7F	; 127
    261a:	81 b9       	out	0x01, r24	; 1
	switch (dir) {
	case PORT_DIR_IN:
		VPORTA.DIR &= ~(1 << pin);
		break;
	case PORT_DIR_OUT:
		VPORTA.DIR |= (1 << pin);
    261c:	80 b1       	in	r24, 0x00	; 0
    261e:	80 68       	ori	r24, 0x80	; 128
    2620:	80 b9       	out	0x00, r24	; 0
static inline void PORTB_set_pin_level(const uint8_t pin, const bool level)
{
	if (level == true) {
		VPORTB.OUT |= (1 << pin);
	} else {
		VPORTB.OUT &= ~(1 << pin);
    2622:	85 b1       	in	r24, 0x05	; 5
    2624:	87 7f       	andi	r24, 0xF7	; 247
    2626:	85 b9       	out	0x05, r24	; 5
	switch (dir) {
	case PORT_DIR_IN:
		VPORTB.DIR &= ~(1 << pin);
		break;
	case PORT_DIR_OUT:
		VPORTB.DIR |= (1 << pin);
    2628:	84 b1       	in	r24, 0x04	; 4
    262a:	88 60       	ori	r24, 0x08	; 8
    262c:	84 b9       	out	0x04, r24	; 4
 *                  false = Pin level set to "low" state
 */
static inline void PORTC_set_pin_level(const uint8_t pin, const bool level)
{
	if (level == true) {
		VPORTC.OUT |= (1 << pin);
    262e:	89 b1       	in	r24, 0x09	; 9
    2630:	88 60       	ori	r24, 0x08	; 8
    2632:	89 b9       	out	0x09, r24	; 9
	switch (dir) {
	case PORT_DIR_IN:
		VPORTC.DIR &= ~(1 << pin);
		break;
	case PORT_DIR_OUT:
		VPORTC.DIR |= (1 << pin);
    2634:	88 b1       	in	r24, 0x08	; 8
    2636:	88 60       	ori	r24, 0x08	; 8
    2638:	88 b9       	out	0x08, r24	; 8
	    // <true"> High
	    true);

	CS_LMX_set_dir(PORT_DIR_OUT);

	OPERATIONAL_AMPLIFIER_0_initialization();
    263a:	0e 94 a0 12 	call	0x2540	; 0x2540 <OPERATIONAL_AMPLIFIER_0_initialization>

	CLKCTRL_init();
    263e:	0e 94 18 14 	call	0x2830	; 0x2830 <CLKCTRL_init>

	USART_0_initialization();
    2642:	0e 94 b5 12 	call	0x256a	; 0x256a <USART_0_initialization>

	EVENT_SYSTEM_0_initialization();
    2646:	0e 94 c6 12 	call	0x258c	; 0x258c <EVENT_SYSTEM_0_initialization>

	SLPCTRL_init();
    264a:	0e 94 6b 13 	call	0x26d6	; 0x26d6 <SLPCTRL_init>

	CPUINT_init();
    264e:	0e 94 26 14 	call	0x284c	; 0x284c <CPUINT_init>

//	ZCD_RISING_initialization();

	ZCD_FALLING_initialization();
    2652:	0e 94 c9 12 	call	0x2592	; 0x2592 <ZCD_FALLING_initialization>

	SPI_ADF_initialization();
    2656:	0e 94 d5 12 	call	0x25aa	; 0x25aa <SPI_ADF_initialization>

	SPI_LMX_initialization();
    265a:	0e 94 ec 12 	call	0x25d8	; 0x25d8 <SPI_LMX_initialization>

	RTC_0_init();
    265e:	0e 94 5a 13 	call	0x26b4	; 0x26b4 <RTC_0_init>

//	TIMER_RISING_initialization();

	TIMER_FALLING_initialization();
    2662:	0e 94 03 13 	call	0x2606	; 0x2606 <TIMER_FALLING_initialization>

	TIMER_0_initialization();
    2666:	0e 94 06 13 	call	0x260c	; 0x260c <TIMER_0_initialization>

	VREF_0_init();
    266a:	0e 94 0a 14 	call	0x2814	; 0x2814 <VREF_0_init>

	BOD_init();
    266e:	0e 94 14 14 	call	0x2828	; 0x2828 <BOD_init>
    2672:	08 95       	ret

00002674 <EVENT_SYSTEM_0_init>:
 * \return Initialization status.
 */
int8_t EVENT_SYSTEM_0_init()
{

	EVSYS.CHANNEL0 = EVSYS_CHANNEL0_ZCD0_gc; /* Zero Cross Detect 0 out */
    2674:	e0 e0       	ldi	r30, 0x00	; 0
    2676:	f2 e0       	ldi	r31, 0x02	; 2
    2678:	80 e3       	ldi	r24, 0x30	; 48
    267a:	80 8b       	std	Z+16, r24	; 0x10

	EVSYS.CHANNEL1 = EVSYS_CHANNEL1_ZCD1_gc; /* Zero Cross Detect 1 out */
    267c:	81 e3       	ldi	r24, 0x31	; 49
    267e:	81 8b       	std	Z+17, r24	; 0x11

	// EVSYS.USERTCA1CNTA = EVSYS_USER_OFF_gc; /* Off */

	// EVSYS.USERTCA1CNTB = EVSYS_USER_OFF_gc; /* Off */

	EVSYS.USERTCB0CAPT = EVSYS_USER_CHANNEL0_gc; /* Connect user to event channel 0 */
    2680:	81 e0       	ldi	r24, 0x01	; 1
    2682:	86 af       	std	Z+62, r24	; 0x3e

	// EVSYS.USERTCB0COUNT = EVSYS_USER_OFF_gc; /* Off */

	EVSYS.USERTCB1CAPT = EVSYS_USER_CHANNEL1_gc; /* Connect user to event channel 1 */
    2684:	92 e0       	ldi	r25, 0x02	; 2
    2686:	90 93 40 02 	sts	0x0240, r25	; 0x800240 <__TEXT_REGION_LENGTH__+0x7e0240>

	//EVSYS.USERTCB3CAPT = EVSYS_USER_CHANNEL1_gc; /* Connect user to event channel 1 */

	// EVSYS.USERTCB3COUNT = EVSYS_USER_OFF_gc; /* Off */

	EVSYS.USERTCD0INPUTA = EVSYS_USER_CHANNEL0_gc; /* Connect user to event channel 0 */
    268a:	80 93 48 02 	sts	0x0248, r24	; 0x800248 <__TEXT_REGION_LENGTH__+0x7e0248>
	// EVSYS.USEROPAMP2DUMP = EVSYS_USER_OFF_gc; /* Off */

	// EVSYS.USEROPAMP2DISABLE = EVSYS_USER_OFF_gc; /* Off */

	return 0;
}
    268e:	80 e0       	ldi	r24, 0x00	; 0
    2690:	08 95       	ret

00002692 <OPERATIONAL_AMPLIFIER_0_init>:
 * \return Initialization status.
 */
int8_t OPERATIONAL_AMPLIFIER_0_init()
{

	OPAMP.CTRLA = 1 << OPAMP_ENABLE_bp; /* OPAMP Peripheral Enable: enabled */
    2692:	e0 e0       	ldi	r30, 0x00	; 0
    2694:	f7 e0       	ldi	r31, 0x07	; 7
    2696:	81 e0       	ldi	r24, 0x01	; 1
    2698:	80 83       	st	Z, r24

	OPAMP.DBGCTRL = 1 << OPAMP_DBGRUN_bp; /* Run in Debug mode: enabled */
    269a:	81 83       	std	Z+1, r24	; 0x01

	OPAMP.TIMEBASE = OPAMP_TIMEBASE_VALUE << OPAMP_TIMEBASE_gp;
    269c:	87 e1       	ldi	r24, 0x17	; 23
    269e:	82 83       	std	Z+2, r24	; 0x02

	// OPAMP.PWRCTRL = OPAMP_PWRCTRL_IRSEL_FULL_gc; /* Full Input Range */

	OPAMP.OP1SETTLE = 0x7f << OPAMP_SETTLE_gp; /* Setting: 0x7f */
    26a0:	8f e7       	ldi	r24, 0x7F	; 127
    26a2:	84 8f       	std	Z+28, r24	; 0x1c

	OPAMP.OP1CTRLA = 1 << OPAMP_ALWAYSON_bp             /* Always ON: enabled */
    26a4:	85 e0       	ldi	r24, 0x05	; 5
    26a6:	80 8f       	std	Z+24, r24	; 0x18
	                 | 0 << OPAMP_EVENTEN_bp            /* Event Enable: disabled */
	                 | OPAMP_OP1CTRLA_OUTMODE_NORMAL_gc /* Output Driver in Normal Mode */
	                 | 0 << OPAMP_RUNSTBY_bp;           /* Run is standby mode: disabled */

	OPAMP.OP1RESMUX = OPAMP_OP1RESMUX_MUXTOP_OUT_gc     /* OPn output */
    26a8:	89 ee       	ldi	r24, 0xE9	; 233
    26aa:	82 8f       	std	Z+26, r24	; 0x1a
	                  | OPAMP_OP1RESMUX_MUXBOT_INN_gc   /* Negative input pin for OPn */
	                  | OPAMP_OP1RESMUX_MUXWIP_WIP7_gc; /* R1 = 1R, R2 = 15R, R2/R1 = 15 */

	OPAMP.OP1INMUX = OPAMP_OP1INMUX_MUXPOS_VDDDIV2_gc /* VDD/2 */
    26ac:	84 e1       	ldi	r24, 0x14	; 20
    26ae:	83 8f       	std	Z+27, r24	; 0x1b
	                 | OPAMP_OP1INMUX_MUXNEG_WIP_gc;  /* Wiper from OPn's resistor ladder */

	return 0;
}
    26b0:	80 e0       	ldi	r24, 0x00	; 0
    26b2:	08 95       	ret

000026b4 <RTC_0_init>:
 * \return Initialization status.
 */
int8_t RTC_0_init()
{

	while (RTC.STATUS > 0) { /* Wait for all register to be synchronized */
    26b4:	80 91 41 01 	lds	r24, 0x0141	; 0x800141 <__TEXT_REGION_LENGTH__+0x7e0141>
    26b8:	81 11       	cpse	r24, r1
    26ba:	fc cf       	rjmp	.-8      	; 0x26b4 <RTC_0_init>

	// RTC.CMP = 0x0; /* Compare: 0x0 */

	// RTC.CNT = 0x0; /* Counter: 0x0 */

	RTC.CTRLA = RTC_PRESCALER_DIV32_gc  /* 32 */
    26bc:	e0 e4       	ldi	r30, 0x40	; 64
    26be:	f1 e0       	ldi	r31, 0x01	; 1
    26c0:	88 ea       	ldi	r24, 0xA8	; 168
    26c2:	80 83       	st	Z, r24
	            | 0 << RTC_RTCEN_bp     /* Enable: disabled */
	            | 1 << RTC_RUNSTDBY_bp; /* Run In Standby: enabled */

	RTC.PER = 0x1ff; /* Period: 0x1ff */
    26c4:	8f ef       	ldi	r24, 0xFF	; 255
    26c6:	91 e0       	ldi	r25, 0x01	; 1
    26c8:	82 87       	std	Z+10, r24	; 0x0a
    26ca:	93 87       	std	Z+11, r25	; 0x0b

	RTC.CLKSEL = RTC_CLKSEL_OSC32K_gc; /* Internal 32.768 kHz oscillator */
    26cc:	17 82       	std	Z+7, r1	; 0x07

	// RTC.DBGCTRL = 0 << RTC_DBGRUN_bp; /* Run in debug: disabled */

	RTC.INTCTRL = 0 << RTC_CMP_bp    /* Compare Match Interrupt enable: disabled */
    26ce:	81 e0       	ldi	r24, 0x01	; 1
    26d0:	82 83       	std	Z+2, r24	; 0x02
	// RTC.PITDBGCTRL = 0 << RTC_DBGRUN_bp; /* Run in debug: disabled */

	// RTC.PITINTCTRL = 0 << RTC_PI_bp; /* Periodic Interrupt: disabled */

	return 0;
}
    26d2:	80 e0       	ldi	r24, 0x00	; 0
    26d4:	08 95       	ret

000026d6 <SLPCTRL_init>:

	// SLPCTRL.CTRLA = 0 << SLPCTRL_SEN_bp /* Sleep enable: disabled */
	//		 | SLPCTRL_SMODE_IDLE_gc; /* Idle mode */

	return 0;
}
    26d6:	80 e0       	ldi	r24, 0x00	; 0
    26d8:	08 95       	ret

000026da <SPI_ADF_init>:
		while (!(SPI1.INTFLAGS & SPI_RXCIF_bm))
			;
		*b = SPI1.DATA;
		b++;
	}
}
    26da:	81 e2       	ldi	r24, 0x21	; 33
    26dc:	80 93 40 09 	sts	0x0940, r24	; 0x800940 <__TEXT_REGION_LENGTH__+0x7e0940>
    26e0:	10 92 b6 43 	sts	0x43B6, r1	; 0x8043b6 <SPI_ADF_desc>
    26e4:	08 95       	ret

000026e6 <SPI_ADF_enable>:
    26e6:	e0 e4       	ldi	r30, 0x40	; 64
    26e8:	f9 e0       	ldi	r31, 0x09	; 9
    26ea:	80 81       	ld	r24, Z
    26ec:	81 60       	ori	r24, 0x01	; 1
    26ee:	80 83       	st	Z, r24
    26f0:	08 95       	ret

000026f2 <SPI_ADF_write_block>:
    26f2:	fc 01       	movw	r30, r24
    26f4:	09 c0       	rjmp	.+18     	; 0x2708 <SPI_ADF_write_block+0x16>
    26f6:	90 81       	ld	r25, Z
    26f8:	90 93 44 09 	sts	0x0944, r25	; 0x800944 <__TEXT_REGION_LENGTH__+0x7e0944>
    26fc:	90 91 43 09 	lds	r25, 0x0943	; 0x800943 <__TEXT_REGION_LENGTH__+0x7e0943>
    2700:	99 23       	and	r25, r25
    2702:	e4 f7       	brge	.-8      	; 0x26fc <SPI_ADF_write_block+0xa>
    2704:	31 96       	adiw	r30, 0x01	; 1
    2706:	68 2f       	mov	r22, r24
    2708:	8f ef       	ldi	r24, 0xFF	; 255
    270a:	86 0f       	add	r24, r22
    270c:	61 11       	cpse	r22, r1
    270e:	f3 cf       	rjmp	.-26     	; 0x26f6 <SPI_ADF_write_block+0x4>
    2710:	08 95       	ret

00002712 <SPI_ADF_read_block>:
    2712:	fc 01       	movw	r30, r24
    2714:	0a c0       	rjmp	.+20     	; 0x272a <SPI_ADF_read_block+0x18>
    2716:	10 92 44 09 	sts	0x0944, r1	; 0x800944 <__TEXT_REGION_LENGTH__+0x7e0944>
    271a:	90 91 43 09 	lds	r25, 0x0943	; 0x800943 <__TEXT_REGION_LENGTH__+0x7e0943>
    271e:	99 23       	and	r25, r25
    2720:	e4 f7       	brge	.-8      	; 0x271a <SPI_ADF_read_block+0x8>
    2722:	90 91 44 09 	lds	r25, 0x0944	; 0x800944 <__TEXT_REGION_LENGTH__+0x7e0944>
    2726:	91 93       	st	Z+, r25
    2728:	68 2f       	mov	r22, r24
    272a:	8f ef       	ldi	r24, 0xFF	; 255
    272c:	86 0f       	add	r24, r22
    272e:	61 11       	cpse	r22, r1
    2730:	f2 cf       	rjmp	.-28     	; 0x2716 <SPI_ADF_read_block+0x4>
    2732:	08 95       	ret

00002734 <SPI_LMX_init>:
    2734:	81 e2       	ldi	r24, 0x21	; 33
    2736:	80 93 60 09 	sts	0x0960, r24	; 0x800960 <__TEXT_REGION_LENGTH__+0x7e0960>
    273a:	10 92 b5 43 	sts	0x43B5, r1	; 0x8043b5 <SPI_LMX_desc>
    273e:	08 95       	ret

00002740 <SPI_LMX_enable>:
    2740:	e0 e6       	ldi	r30, 0x60	; 96
    2742:	f9 e0       	ldi	r31, 0x09	; 9
    2744:	80 81       	ld	r24, Z
    2746:	81 60       	ori	r24, 0x01	; 1
    2748:	80 83       	st	Z, r24
    274a:	08 95       	ret

0000274c <SPI_LMX_write_block>:
 * \param[in] size The size of buffer to transfer
 *
 * \return Nothing.
 */
void SPI_LMX_write_block(void *block, uint8_t size)
{
    274c:	fc 01       	movw	r30, r24
	uint8_t *b = (uint8_t *)block;
	while (size--) {
    274e:	09 c0       	rjmp	.+18     	; 0x2762 <SPI_LMX_write_block+0x16>
		SPI1.DATA = *b;
    2750:	90 81       	ld	r25, Z
    2752:	90 93 64 09 	sts	0x0964, r25	; 0x800964 <__TEXT_REGION_LENGTH__+0x7e0964>
		while (!(SPI1.INTFLAGS & SPI_RXCIF_bm))
    2756:	90 91 63 09 	lds	r25, 0x0963	; 0x800963 <__TEXT_REGION_LENGTH__+0x7e0963>
    275a:	99 23       	and	r25, r25
    275c:	e4 f7       	brge	.-8      	; 0x2756 <SPI_LMX_write_block+0xa>
			;
		b++;
    275e:	31 96       	adiw	r30, 0x01	; 1
 * \return Nothing.
 */
void SPI_LMX_write_block(void *block, uint8_t size)
{
	uint8_t *b = (uint8_t *)block;
	while (size--) {
    2760:	68 2f       	mov	r22, r24
    2762:	8f ef       	ldi	r24, 0xFF	; 255
    2764:	86 0f       	add	r24, r22
    2766:	61 11       	cpse	r22, r1
    2768:	f3 cf       	rjmp	.-26     	; 0x2750 <SPI_LMX_write_block+0x4>
		SPI1.DATA = *b;
		while (!(SPI1.INTFLAGS & SPI_RXCIF_bm))
			;
		b++;
	}
}
    276a:	08 95       	ret

0000276c <SPI_LMX_read_block>:
 * \param[in] size The size of buffer to transfer
 *
 * \return Nothing.
 */
void SPI_LMX_read_block(void *block, uint8_t size)
{
    276c:	fc 01       	movw	r30, r24
	uint8_t *b = (uint8_t *)block;
	while (size--) {
    276e:	0a c0       	rjmp	.+20     	; 0x2784 <SPI_LMX_read_block+0x18>
		SPI1.DATA = 0;
    2770:	10 92 64 09 	sts	0x0964, r1	; 0x800964 <__TEXT_REGION_LENGTH__+0x7e0964>
		while (!(SPI1.INTFLAGS & SPI_RXCIF_bm))
    2774:	90 91 63 09 	lds	r25, 0x0963	; 0x800963 <__TEXT_REGION_LENGTH__+0x7e0963>
    2778:	99 23       	and	r25, r25
    277a:	e4 f7       	brge	.-8      	; 0x2774 <SPI_LMX_read_block+0x8>
			;
		*b = SPI1.DATA;
    277c:	90 91 64 09 	lds	r25, 0x0964	; 0x800964 <__TEXT_REGION_LENGTH__+0x7e0964>
    2780:	91 93       	st	Z+, r25
 * \return Nothing.
 */
void SPI_LMX_read_block(void *block, uint8_t size)
{
	uint8_t *b = (uint8_t *)block;
	while (size--) {
    2782:	68 2f       	mov	r22, r24
    2784:	8f ef       	ldi	r24, 0xFF	; 255
    2786:	86 0f       	add	r24, r22
    2788:	61 11       	cpse	r22, r1
    278a:	f2 cf       	rjmp	.-28     	; 0x2770 <SPI_LMX_read_block+0x4>
		while (!(SPI1.INTFLAGS & SPI_RXCIF_bm))
			;
		*b = SPI1.DATA;
		b++;
	}
}
    278c:	08 95       	ret

0000278e <TIMER_FALLING_init>:
 * \return Initialization status.
 */
int8_t TIMER_FALLING_init()
{

	 TCB1.CCMP = 0xffff; /* Compare or Capture: 0x0 */
    278e:	e0 e1       	ldi	r30, 0x10	; 16
    2790:	fb e0       	ldi	r31, 0x0B	; 11
    2792:	8f ef       	ldi	r24, 0xFF	; 255
    2794:	9f ef       	ldi	r25, 0xFF	; 255
    2796:	84 87       	std	Z+12, r24	; 0x0c
    2798:	95 87       	std	Z+13, r25	; 0x0d

	 TCB1.CNT = 0xffff; /* Count: 0x0 */
    279a:	82 87       	std	Z+10, r24	; 0x0a
    279c:	93 87       	std	Z+11, r25	; 0x0b

	TCB1.CTRLB = 1 << TCB_ASYNC_bp      /* Asynchronous Enable: enabled */
    279e:	83 e4       	ldi	r24, 0x43	; 67
    27a0:	81 83       	std	Z+1, r24	; 0x01
	             | 0 << TCB_CCMPEN_bp   /* Pin Output Enable: disabled */
	             | 0 << TCB_CCMPINIT_bp /* Pin Initial State: disabled */
	             | TCB_CNTMODE_FRQ_gc;  /* Input Capture Frequency measurement */

	TCB1.DBGCTRL = 1 << TCB_DBGRUN_bp; /* Debug Run: enabled */
    27a2:	81 e0       	ldi	r24, 0x01	; 1
    27a4:	80 87       	std	Z+8, r24	; 0x08

	TCB1.EVCTRL = 1 << TCB_CAPTEI_bp    /* Event Input Enable: enabled */
    27a6:	84 83       	std	Z+4, r24	; 0x04
	              | 0 << TCB_EDGE_bp    /* Event Edge: disabled */
	              | 0 << TCB_FILTER_bp; /* Input Capture Noise Cancellation Filter: disabled */

	TCB1.INTCTRL = 1 << TCB_CAPT_bp   /* Capture or Timeout: enabled */
    27a8:	85 83       	std	Z+5, r24	; 0x05
	               | 0 << TCB_OVF_bp; /* OverFlow Interrupt: disabled */

	TCB1.CTRLA = TCB_CLKSEL_DIV1_gc     /* CLK_PER */
    27aa:	81 e1       	ldi	r24, 0x11	; 17
    27ac:	80 83       	st	Z, r24
	             | 0 << TCB_RUNSTDBY_bp /* Run Standby: disabled */
	             | 1 << TCB_SYNCUPD_bp  /* Synchronize Update: enabled */
	             | 0 << TCB_CASCADE_bp; /* Cascade Two Timer/Counters: disabled */

	return 0;
}
    27ae:	80 e0       	ldi	r24, 0x00	; 0
    27b0:	08 95       	ret

000027b2 <TIMER_0_init>:
int8_t TIMER_0_init()
{

	// Enable Protected register, peripheral must be disabled (ENABLE=0, in TCD.CTRLA).

	 TCD0.CMPASET = 0xfff; /* Compare A Set: 0 */
    27b2:	e0 e8       	ldi	r30, 0x80	; 128
    27b4:	fb e0       	ldi	r31, 0x0B	; 11
    27b6:	8f ef       	ldi	r24, 0xFF	; 255
    27b8:	9f e0       	ldi	r25, 0x0F	; 15
    27ba:	80 a7       	std	Z+40, r24	; 0x28
    27bc:	91 a7       	std	Z+41, r25	; 0x29

	 TCD0.CMPACLR = 0xfff; /* Compare A Clear: 0 */
    27be:	82 a7       	std	Z+42, r24	; 0x2a
    27c0:	93 a7       	std	Z+43, r25	; 0x2b
	//		 | TCD_DLYSEL_OFF_gc /* No delay */
	//		 | TCD_DLYTRIG_CMPASET_gc; /* Compare A set */

	// TCD0.DLYVAL = 0 << TCD_DLYVAL_gp; /* Delay value: 0 */

	 TCD0.EVCTRLA = TCD_CFG_FILTER_gc /* Neither Filter nor Asynchronous Event is enabled */
    27c2:	85 e5       	ldi	r24, 0x55	; 85
    27c4:	80 87       	std	Z+8, r24	; 0x08

	// TCD0.INPUTCTRLA = TCD_INPUTMODE_NONE_gc; /* Input has no actions */

	// TCD0.INPUTCTRLB = TCD_INPUTMODE_NONE_gc; /* Input has no actions */

	 TCD0.INTCTRL = 0 << TCD_OVF_bp /* Overflow interrupt enable: disabled */
    27c6:	84 e0       	ldi	r24, 0x04	; 4
    27c8:	84 87       	std	Z+12, r24	; 0x0c
			 | 1 << TCD_TRIGA_bp /* Trigger A interrupt enable: disabled */
			 | 0 << TCD_TRIGB_bp; /* Trigger B interrupt enable: disabled */

	while ((TCD0.STATUS & TCD_ENRDY_bm) == 0)
    27ca:	80 91 8e 0b 	lds	r24, 0x0B8E	; 0x800b8e <__TEXT_REGION_LENGTH__+0x7e0b8e>
    27ce:	80 ff       	sbrs	r24, 0
    27d0:	fc cf       	rjmp	.-8      	; 0x27ca <TIMER_0_init+0x18>
		; // Wait for Enable Ready to be high.

	TCD0.CTRLA = 1 << TCD_ENABLE_bp      /* Enable: enabled */
    27d2:	81 e2       	ldi	r24, 0x21	; 33
    27d4:	80 93 80 0b 	sts	0x0B80, r24	; 0x800b80 <__TEXT_REGION_LENGTH__+0x7e0b80>
	             | TCD_CLKSEL_PLL_gc     /*  */
	             | TCD_CNTPRES_DIV1_gc   /* Sync clock divided by 1 */
	             | TCD_SYNCPRES_DIV1_gc; /*  */

	return 0;
}
    27d8:	80 e0       	ldi	r24, 0x00	; 0
    27da:	08 95       	ret

000027dc <USART_0_init>:
uint8_t USART_0_read()
{
	while (!(USART3.STATUS & USART_RXCIF_bm))
		;
	return USART3.RXDATAL;
}
    27dc:	e0 e6       	ldi	r30, 0x60	; 96
    27de:	f8 e0       	ldi	r31, 0x08	; 8
    27e0:	81 e4       	ldi	r24, 0x41	; 65
    27e2:	93 e0       	ldi	r25, 0x03	; 3
    27e4:	80 87       	std	Z+8, r24	; 0x08
    27e6:	91 87       	std	Z+9, r25	; 0x09
    27e8:	80 ec       	ldi	r24, 0xC0	; 192
    27ea:	86 83       	std	Z+6, r24	; 0x06
    27ec:	80 e0       	ldi	r24, 0x00	; 0
    27ee:	90 e4       	ldi	r25, 0x40	; 64
    27f0:	80 93 92 45 	sts	0x4592, r24	; 0x804592 <__iob+0x2>
    27f4:	90 93 93 45 	sts	0x4593, r25	; 0x804593 <__iob+0x3>
    27f8:	80 e0       	ldi	r24, 0x00	; 0
    27fa:	08 95       	ret

000027fc <USART_0_write>:
 *
 * \return Nothing
 */
void USART_0_write(const uint8_t data)
{
	while (!(USART3.STATUS & USART_DREIF_bm))
    27fc:	90 91 64 08 	lds	r25, 0x0864	; 0x800864 <__TEXT_REGION_LENGTH__+0x7e0864>
    2800:	95 ff       	sbrs	r25, 5
    2802:	fc cf       	rjmp	.-8      	; 0x27fc <USART_0_write>
		;
	USART3.TXDATAL = data;
    2804:	80 93 62 08 	sts	0x0862, r24	; 0x800862 <__TEXT_REGION_LENGTH__+0x7e0862>
    2808:	08 95       	ret

0000280a <USART_0_printCHAR>:

#if defined(__GNUC__)

int USART_0_printCHAR(char character, FILE *stream)
{
	USART_0_write(character);
    280a:	0e 94 fe 13 	call	0x27fc	; 0x27fc <USART_0_write>
	return 0;
}
    280e:	80 e0       	ldi	r24, 0x00	; 0
    2810:	90 e0       	ldi	r25, 0x00	; 0
    2812:	08 95       	ret

00002814 <VREF_0_init>:
	//		 | VREF_REFSEL_1V024_gc; /* Internal 1.024V reference */

	// VREF.DAC0REF = 0 << VREF_ALWAYSON_bp /* Enable reference always ON for DAC0: disabled */
	//		 | VREF_REFSEL_1V024_gc; /* Internal 1.024V reference */

	VREF.ACREF = 1 << VREF_ALWAYSON_bp /* Enable reference always ON for AC: enabled */
    2814:	85 e8       	ldi	r24, 0x85	; 133
    2816:	80 93 b4 00 	sts	0x00B4, r24	; 0x8000b4 <__TEXT_REGION_LENGTH__+0x7e00b4>
	             | VREF_REFSEL_VDD_gc; /* VDD as reference */

	return 0;
}
    281a:	80 e0       	ldi	r24, 0x00	; 0
    281c:	08 95       	ret

0000281e <ZCD_FALLING_init>:
 * \return Initialization status.
 */
int8_t ZCD_FALLING_init()
{

	ZCD1.CTRLA = 1 << ZCD_ENABLE_bp     /* Setting: enabled */
    281e:	89 e4       	ldi	r24, 0x49	; 73
    2820:	80 93 c8 06 	sts	0x06C8, r24	; 0x8006c8 <__TEXT_REGION_LENGTH__+0x7e06c8>
	             | 1 << ZCD_INVERT_bp;  /* Setting: enabled */

	// ZCD1.INTCTRL = ZCD_INTMODE_NONE_gc; /* No interrupt */

	return 0;
}
    2824:	80 e0       	ldi	r24, 0x00	; 0
    2826:	08 95       	ret

00002828 <BOD_init>:
int8_t BOD_init()
{

	// ccp_write_io((void*)&(BOD.CTRLA),BOD_SLEEP_DIS_gc /* Disabled */);

	BOD.INTCTRL = 0 << BOD_VLMIE_bp        /* voltage level monitor interrrupt enable: disabled */
    2828:	10 92 a9 00 	sts	0x00A9, r1	; 0x8000a9 <__TEXT_REGION_LENGTH__+0x7e00a9>
	              | BOD_VLMCFG_FALLING_gc; /* Interrupt when supply goes below VLM level */

	// BOD.VLMCTRLA = BOD_VLMLVL_5ABOVE_gc; /* VLM threshold 5% above BOD level */

	return 0;
}
    282c:	80 e0       	ldi	r24, 0x00	; 0
    282e:	08 95       	ret

00002830 <CLKCTRL_init>:
 *       on calling convention. The memory model is not visible to the
 *       preprocessor, so it must be defined in the Assembler preprocessor directives.
 */
static inline void ccp_write_io(void *addr, uint8_t value)
{
	protected_write_io(addr, CCP_IOREG_gc, value);
    2830:	41 e8       	ldi	r20, 0x81	; 129
    2832:	68 ed       	ldi	r22, 0xD8	; 216
    2834:	80 e7       	ldi	r24, 0x70	; 112
    2836:	90 e0       	ldi	r25, 0x00	; 0
    2838:	0e 94 28 14 	call	0x2850	; 0x2850 <protected_write_io>
    283c:	44 e2       	ldi	r20, 0x24	; 36
    283e:	68 ed       	ldi	r22, 0xD8	; 216
    2840:	88 e6       	ldi	r24, 0x68	; 104
    2842:	90 e0       	ldi	r25, 0x00	; 0
    2844:	0e 94 28 14 	call	0x2850	; 0x2850 <protected_write_io>
	/* wait for PLL to start 
	while (!(CLKCTRL.MCLKSTATUS & CLKCTRL_PLLS_bm))
		;*/

	return 0;
}
    2848:	80 e0       	ldi	r24, 0x00	; 0
    284a:	08 95       	ret

0000284c <CPUINT_init>:
	// CPUINT.LVL0PRI = 0x0 << CPUINT_LVL0PRI_gp; /* Interrupt Level Priority: 0x0 */

	// CPUINT.LVL1VEC = 0x0 << CPUINT_LVL1VEC_gp; /* Interrupt Vector with High Priority: 0x0 */

	return 0;
}
    284c:	80 e0       	ldi	r24, 0x00	; 0
    284e:	08 95       	ret

00002850 <protected_write_io>:
	PUBLIC_FUNCTION(protected_write_io)

#if defined(__GNUC__)
  
#ifdef RAMPZ
	out     _SFR_IO_ADDR(RAMPZ), r1         // Clear bits 23:16 of Z
    2850:	1b be       	out	0x3b, r1	; 59
#endif
	movw    r30, r24                // Load addr into Z
    2852:	fc 01       	movw	r30, r24
	out     CCP, r22                // Start CCP handshake
    2854:	64 bf       	out	0x34, r22	; 52
	st      Z, r20                  // Write value to I/O register
    2856:	40 83       	st	Z, r20
	ret                             // Return to caller
    2858:	08 95       	ret

0000285a <PORTC_get_pin_level>:
		else
		{
			return false;
		}

    285a:	cf 93       	push	r28
    285c:	df 93       	push	r29
    285e:	1f 92       	push	r1
    2860:	cd b7       	in	r28, 0x3d	; 61
    2862:	de b7       	in	r29, 0x3e	; 62
    2864:	89 83       	std	Y+1, r24	; 0x01
    2866:	88 e0       	ldi	r24, 0x08	; 8
    2868:	90 e0       	ldi	r25, 0x00	; 0
    286a:	fc 01       	movw	r30, r24
    286c:	82 81       	ldd	r24, Z+2	; 0x02
    286e:	88 2f       	mov	r24, r24
    2870:	90 e0       	ldi	r25, 0x00	; 0
    2872:	29 81       	ldd	r18, Y+1	; 0x01
    2874:	22 2f       	mov	r18, r18
    2876:	30 e0       	ldi	r19, 0x00	; 0
    2878:	02 c0       	rjmp	.+4      	; 0x287e <PORTC_get_pin_level+0x24>
    287a:	95 95       	asr	r25
    287c:	87 95       	ror	r24
    287e:	2a 95       	dec	r18
    2880:	e2 f7       	brpl	.-8      	; 0x287a <PORTC_get_pin_level+0x20>
    2882:	81 70       	andi	r24, 0x01	; 1
    2884:	99 27       	eor	r25, r25
    2886:	21 e0       	ldi	r18, 0x01	; 1
    2888:	89 2b       	or	r24, r25
    288a:	09 f4       	brne	.+2      	; 0x288e <PORTC_get_pin_level+0x34>
    288c:	20 e0       	ldi	r18, 0x00	; 0
    288e:	82 2f       	mov	r24, r18
    2890:	0f 90       	pop	r0
    2892:	df 91       	pop	r29
    2894:	cf 91       	pop	r28
    2896:	08 95       	ret

00002898 <PC1_get_level>:
    2898:	cf 93       	push	r28
    289a:	df 93       	push	r29
    289c:	cd b7       	in	r28, 0x3d	; 61
    289e:	de b7       	in	r29, 0x3e	; 62
    28a0:	81 e0       	ldi	r24, 0x01	; 1
    28a2:	0e 94 2d 14 	call	0x285a	; 0x285a <PORTC_get_pin_level>
    28a6:	df 91       	pop	r29
    28a8:	cf 91       	pop	r28
    28aa:	08 95       	ret

000028ac <_ZN15lmx2694_HandlerC1Ev>:
    28ac:	cf 93       	push	r28
    28ae:	df 93       	push	r29
    28b0:	00 d0       	rcall	.+0      	; 0x28b2 <_ZN15lmx2694_HandlerC1Ev+0x6>
    28b2:	cd b7       	in	r28, 0x3d	; 61
    28b4:	de b7       	in	r29, 0x3e	; 62
    28b6:	89 83       	std	Y+1, r24	; 0x01
    28b8:	9a 83       	std	Y+2, r25	; 0x02
    28ba:	89 81       	ldd	r24, Y+1	; 0x01
    28bc:	9a 81       	ldd	r25, Y+2	; 0x02
    28be:	2c eb       	ldi	r18, 0xBC	; 188
    28c0:	33 e4       	ldi	r19, 0x43	; 67
    28c2:	fc 01       	movw	r30, r24
    28c4:	26 83       	std	Z+6, r18	; 0x06
    28c6:	37 83       	std	Z+7, r19	; 0x07
    28c8:	89 81       	ldd	r24, Y+1	; 0x01
    28ca:	9a 81       	ldd	r25, Y+2	; 0x02
    28cc:	22 ea       	ldi	r18, 0xA2	; 162
    28ce:	34 e4       	ldi	r19, 0x44	; 68
    28d0:	fc 01       	movw	r30, r24
    28d2:	24 83       	std	Z+4, r18	; 0x04
    28d4:	35 83       	std	Z+5, r19	; 0x05
    28d6:	89 81       	ldd	r24, Y+1	; 0x01
    28d8:	9a 81       	ldd	r25, Y+2	; 0x02
    28da:	21 e0       	ldi	r18, 0x01	; 1
    28dc:	fc 01       	movw	r30, r24
    28de:	21 8f       	std	Z+25, r18	; 0x19
    28e0:	89 81       	ldd	r24, Y+1	; 0x01
    28e2:	9a 81       	ldd	r25, Y+2	; 0x02
    28e4:	fc 01       	movw	r30, r24
    28e6:	17 8a       	std	Z+23, r1	; 0x17
    28e8:	29 81       	ldd	r18, Y+1	; 0x01
    28ea:	3a 81       	ldd	r19, Y+2	; 0x02
    28ec:	80 e0       	ldi	r24, 0x00	; 0
    28ee:	90 e0       	ldi	r25, 0x00	; 0
    28f0:	a8 ec       	ldi	r26, 0xC8	; 200
    28f2:	be e3       	ldi	r27, 0x3E	; 62
    28f4:	f9 01       	movw	r30, r18
    28f6:	82 af       	std	Z+58, r24	; 0x3a
    28f8:	93 af       	std	Z+59, r25	; 0x3b
    28fa:	a4 af       	std	Z+60, r26	; 0x3c
    28fc:	b5 af       	std	Z+61, r27	; 0x3d
    28fe:	29 81       	ldd	r18, Y+1	; 0x01
    2900:	3a 81       	ldd	r19, Y+2	; 0x02
    2902:	80 e0       	ldi	r24, 0x00	; 0
    2904:	90 e0       	ldi	r25, 0x00	; 0
    2906:	aa e7       	ldi	r26, 0x7A	; 122
    2908:	b5 e4       	ldi	r27, 0x45	; 69
    290a:	f9 01       	movw	r30, r18
    290c:	80 83       	st	Z, r24
    290e:	91 83       	std	Z+1, r25	; 0x01
    2910:	a2 83       	std	Z+2, r26	; 0x02
    2912:	b3 83       	std	Z+3, r27	; 0x03
    2914:	89 81       	ldd	r24, Y+1	; 0x01
    2916:	9a 81       	ldd	r25, Y+2	; 0x02
    2918:	fc 01       	movw	r30, r24
    291a:	80 81       	ld	r24, Z
    291c:	91 81       	ldd	r25, Z+1	; 0x01
    291e:	a2 81       	ldd	r26, Z+2	; 0x02
    2920:	b3 81       	ldd	r27, Z+3	; 0x03
    2922:	29 81       	ldd	r18, Y+1	; 0x01
    2924:	3a 81       	ldd	r19, Y+2	; 0x02
    2926:	f9 01       	movw	r30, r18
    2928:	22 ad       	ldd	r18, Z+58	; 0x3a
    292a:	33 ad       	ldd	r19, Z+59	; 0x3b
    292c:	44 ad       	ldd	r20, Z+60	; 0x3c
    292e:	55 ad       	ldd	r21, Z+61	; 0x3d
    2930:	bc 01       	movw	r22, r24
    2932:	cd 01       	movw	r24, r26
    2934:	0e 94 70 24 	call	0x48e0	; 0x48e0 <__addsf3>
    2938:	dc 01       	movw	r26, r24
    293a:	cb 01       	movw	r24, r22
    293c:	29 81       	ldd	r18, Y+1	; 0x01
    293e:	3a 81       	ldd	r19, Y+2	; 0x02
    2940:	f9 01       	movw	r30, r18
    2942:	82 a7       	std	Z+42, r24	; 0x2a
    2944:	93 a7       	std	Z+43, r25	; 0x2b
    2946:	a4 a7       	std	Z+44, r26	; 0x2c
    2948:	b5 a7       	std	Z+45, r27	; 0x2d
    294a:	89 81       	ldd	r24, Y+1	; 0x01
    294c:	9a 81       	ldd	r25, Y+2	; 0x02
    294e:	21 e0       	ldi	r18, 0x01	; 1
    2950:	fc 01       	movw	r30, r24
    2952:	27 af       	std	Z+63, r18	; 0x3f
    2954:	89 81       	ldd	r24, Y+1	; 0x01
    2956:	9a 81       	ldd	r25, Y+2	; 0x02
    2958:	21 e0       	ldi	r18, 0x01	; 1
    295a:	fc 01       	movw	r30, r24
    295c:	20 8f       	std	Z+24, r18	; 0x18
    295e:	00 00       	nop
    2960:	0f 90       	pop	r0
    2962:	0f 90       	pop	r0
    2964:	df 91       	pop	r29
    2966:	cf 91       	pop	r28
    2968:	08 95       	ret

0000296a <_ZN15lmx2694_HandlerD1Ev>:
    296a:	cf 93       	push	r28
    296c:	df 93       	push	r29
    296e:	00 d0       	rcall	.+0      	; 0x2970 <_ZN15lmx2694_HandlerD1Ev+0x6>
    2970:	cd b7       	in	r28, 0x3d	; 61
    2972:	de b7       	in	r29, 0x3e	; 62
    2974:	89 83       	std	Y+1, r24	; 0x01
    2976:	9a 83       	std	Y+2, r25	; 0x02
    2978:	00 00       	nop
    297a:	0f 90       	pop	r0
    297c:	0f 90       	pop	r0
    297e:	df 91       	pop	r29
    2980:	cf 91       	pop	r28
    2982:	08 95       	ret

00002984 <_ZN15lmx2694_Handler4InitEv>:
    2984:	cf 93       	push	r28
    2986:	df 93       	push	r29
    2988:	cd b7       	in	r28, 0x3d	; 61
    298a:	de b7       	in	r29, 0x3e	; 62
    298c:	6e 97       	sbiw	r28, 0x1e	; 30
    298e:	cd bf       	out	0x3d, r28	; 61
    2990:	de bf       	out	0x3e, r29	; 62
    2992:	8d 8f       	std	Y+29, r24	; 0x1d
    2994:	9e 8f       	std	Y+30, r25	; 0x1e
    2996:	8d 8d       	ldd	r24, Y+29	; 0x1d
    2998:	9e 8d       	ldd	r25, Y+30	; 0x1e
    299a:	27 eb       	ldi	r18, 0xB7	; 183
    299c:	33 e4       	ldi	r19, 0x43	; 67
    299e:	fc 01       	movw	r30, r24
    29a0:	20 87       	std	Z+8, r18	; 0x08
    29a2:	31 87       	std	Z+9, r19	; 0x09
    29a4:	8d 8d       	ldd	r24, Y+29	; 0x1d
    29a6:	9e 8d       	ldd	r25, Y+30	; 0x1e
    29a8:	fc 01       	movw	r30, r24
    29aa:	80 85       	ldd	r24, Z+8	; 0x08
    29ac:	91 85       	ldd	r25, Z+9	; 0x09
    29ae:	0e 94 b4 22 	call	0x4568	; 0x4568 <_ZN13SPI_Syn_Class4InitEv>
    29b2:	8d 8d       	ldd	r24, Y+29	; 0x1d
    29b4:	9e 8d       	ldd	r25, Y+30	; 0x1e
    29b6:	fc 01       	movw	r30, r24
    29b8:	80 85       	ldd	r24, Z+8	; 0x08
    29ba:	91 85       	ldd	r25, Z+9	; 0x09
    29bc:	61 e0       	ldi	r22, 0x01	; 1
    29be:	0e 94 11 23 	call	0x4622	; 0x4622 <_ZN13SPI_Syn_Class5SetCSEb>
    29c2:	8d 8d       	ldd	r24, Y+29	; 0x1d
    29c4:	9e 8d       	ldd	r25, Y+30	; 0x1e
    29c6:	0e 94 94 1c 	call	0x3928	; 0x3928 <_ZN15lmx2694_Handler10Power_DownEv>
    29ca:	8d 8d       	ldd	r24, Y+29	; 0x1d
    29cc:	9e 8d       	ldd	r25, Y+30	; 0x1e
    29ce:	0e 94 3c 1e 	call	0x3c78	; 0x3c78 <_ZN15lmx2694_Handler13Program_ResetEv>
    29d2:	8d 8d       	ldd	r24, Y+29	; 0x1d
    29d4:	9e 8d       	ldd	r25, Y+30	; 0x1e
    29d6:	0e 94 2c 20 	call	0x4058	; 0x4058 <_ZN15lmx2694_Handler18Initiate_RegistersEv>
    29da:	80 e0       	ldi	r24, 0x00	; 0
    29dc:	90 e0       	ldi	r25, 0x00	; 0
    29de:	a0 e2       	ldi	r26, 0x20	; 32
    29e0:	b1 e4       	ldi	r27, 0x41	; 65
    29e2:	89 83       	std	Y+1, r24	; 0x01
    29e4:	9a 83       	std	Y+2, r25	; 0x02
    29e6:	ab 83       	std	Y+3, r26	; 0x03
    29e8:	bc 83       	std	Y+4, r27	; 0x04
    29ea:	20 e0       	ldi	r18, 0x00	; 0
    29ec:	30 e8       	ldi	r19, 0x80	; 128
    29ee:	4b eb       	ldi	r20, 0xBB	; 187
    29f0:	55 e4       	ldi	r21, 0x45	; 69
    29f2:	69 81       	ldd	r22, Y+1	; 0x01
    29f4:	7a 81       	ldd	r23, Y+2	; 0x02
    29f6:	8b 81       	ldd	r24, Y+3	; 0x03
    29f8:	9c 81       	ldd	r25, Y+4	; 0x04
    29fa:	0e 94 e8 26 	call	0x4dd0	; 0x4dd0 <__mulsf3>
    29fe:	dc 01       	movw	r26, r24
    2a00:	cb 01       	movw	r24, r22
    2a02:	8b 8b       	std	Y+19, r24	; 0x13
    2a04:	9c 8b       	std	Y+20, r25	; 0x14
    2a06:	ad 8b       	std	Y+21, r26	; 0x15
    2a08:	be 8b       	std	Y+22, r27	; 0x16
    2a0a:	20 e0       	ldi	r18, 0x00	; 0
    2a0c:	30 e0       	ldi	r19, 0x00	; 0
    2a0e:	40 e8       	ldi	r20, 0x80	; 128
    2a10:	5f e3       	ldi	r21, 0x3F	; 63
    2a12:	6b 89       	ldd	r22, Y+19	; 0x13
    2a14:	7c 89       	ldd	r23, Y+20	; 0x14
    2a16:	8d 89       	ldd	r24, Y+21	; 0x15
    2a18:	9e 89       	ldd	r25, Y+22	; 0x16
    2a1a:	0e 94 dc 24 	call	0x49b8	; 0x49b8 <__cmpsf2>
    2a1e:	88 23       	and	r24, r24
    2a20:	2c f4       	brge	.+10     	; 0x2a2c <_ZN15lmx2694_Handler4InitEv+0xa8>
    2a22:	81 e0       	ldi	r24, 0x01	; 1
    2a24:	90 e0       	ldi	r25, 0x00	; 0
    2a26:	8f 8b       	std	Y+23, r24	; 0x17
    2a28:	98 8f       	std	Y+24, r25	; 0x18
    2a2a:	3e c0       	rjmp	.+124    	; 0x2aa8 <_ZN15lmx2694_Handler4InitEv+0x124>
    2a2c:	20 e0       	ldi	r18, 0x00	; 0
    2a2e:	3f ef       	ldi	r19, 0xFF	; 255
    2a30:	4f e7       	ldi	r20, 0x7F	; 127
    2a32:	57 e4       	ldi	r21, 0x47	; 71
    2a34:	6b 89       	ldd	r22, Y+19	; 0x13
    2a36:	7c 89       	ldd	r23, Y+20	; 0x14
    2a38:	8d 89       	ldd	r24, Y+21	; 0x15
    2a3a:	9e 89       	ldd	r25, Y+22	; 0x16
    2a3c:	0e 94 93 26 	call	0x4d26	; 0x4d26 <__gesf2>
    2a40:	18 16       	cp	r1, r24
    2a42:	44 f5       	brge	.+80     	; 0x2a94 <_ZN15lmx2694_Handler4InitEv+0x110>
    2a44:	20 e0       	ldi	r18, 0x00	; 0
    2a46:	30 e0       	ldi	r19, 0x00	; 0
    2a48:	40 e2       	ldi	r20, 0x20	; 32
    2a4a:	51 e4       	ldi	r21, 0x41	; 65
    2a4c:	69 81       	ldd	r22, Y+1	; 0x01
    2a4e:	7a 81       	ldd	r23, Y+2	; 0x02
    2a50:	8b 81       	ldd	r24, Y+3	; 0x03
    2a52:	9c 81       	ldd	r25, Y+4	; 0x04
    2a54:	0e 94 e8 26 	call	0x4dd0	; 0x4dd0 <__mulsf3>
    2a58:	dc 01       	movw	r26, r24
    2a5a:	cb 01       	movw	r24, r22
    2a5c:	bc 01       	movw	r22, r24
    2a5e:	cd 01       	movw	r24, r26
    2a60:	0e 94 5a 25 	call	0x4ab4	; 0x4ab4 <__fixunssfsi>
    2a64:	dc 01       	movw	r26, r24
    2a66:	cb 01       	movw	r24, r22
    2a68:	8f 8b       	std	Y+23, r24	; 0x17
    2a6a:	98 8f       	std	Y+24, r25	; 0x18
    2a6c:	8f 89       	ldd	r24, Y+23	; 0x17
    2a6e:	98 8d       	ldd	r25, Y+24	; 0x18
    2a70:	89 2b       	or	r24, r25
    2a72:	21 f1       	breq	.+72     	; 0x2abc <_ZN15lmx2694_Handler4InitEv+0x138>
    2a74:	88 e5       	ldi	r24, 0x58	; 88
    2a76:	92 e0       	ldi	r25, 0x02	; 2
    2a78:	89 8f       	std	Y+25, r24	; 0x19
    2a7a:	9a 8f       	std	Y+26, r25	; 0x1a
    2a7c:	89 8d       	ldd	r24, Y+25	; 0x19
    2a7e:	9a 8d       	ldd	r25, Y+26	; 0x1a
    2a80:	01 97       	sbiw	r24, 0x01	; 1
    2a82:	f1 f7       	brne	.-4      	; 0x2a80 <_ZN15lmx2694_Handler4InitEv+0xfc>
    2a84:	89 8f       	std	Y+25, r24	; 0x19
    2a86:	9a 8f       	std	Y+26, r25	; 0x1a
    2a88:	8f 89       	ldd	r24, Y+23	; 0x17
    2a8a:	98 8d       	ldd	r25, Y+24	; 0x18
    2a8c:	01 97       	sbiw	r24, 0x01	; 1
    2a8e:	8f 8b       	std	Y+23, r24	; 0x17
    2a90:	98 8f       	std	Y+24, r25	; 0x18
    2a92:	ec cf       	rjmp	.-40     	; 0x2a6c <_ZN15lmx2694_Handler4InitEv+0xe8>
    2a94:	6b 89       	ldd	r22, Y+19	; 0x13
    2a96:	7c 89       	ldd	r23, Y+20	; 0x14
    2a98:	8d 89       	ldd	r24, Y+21	; 0x15
    2a9a:	9e 89       	ldd	r25, Y+22	; 0x16
    2a9c:	0e 94 5a 25 	call	0x4ab4	; 0x4ab4 <__fixunssfsi>
    2aa0:	dc 01       	movw	r26, r24
    2aa2:	cb 01       	movw	r24, r22
    2aa4:	8f 8b       	std	Y+23, r24	; 0x17
    2aa6:	98 8f       	std	Y+24, r25	; 0x18
    2aa8:	8f 89       	ldd	r24, Y+23	; 0x17
    2aaa:	98 8d       	ldd	r25, Y+24	; 0x18
    2aac:	8b 8f       	std	Y+27, r24	; 0x1b
    2aae:	9c 8f       	std	Y+28, r25	; 0x1c
    2ab0:	8b 8d       	ldd	r24, Y+27	; 0x1b
    2ab2:	9c 8d       	ldd	r25, Y+28	; 0x1c
    2ab4:	01 97       	sbiw	r24, 0x01	; 1
    2ab6:	f1 f7       	brne	.-4      	; 0x2ab4 <_ZN15lmx2694_Handler4InitEv+0x130>
    2ab8:	8b 8f       	std	Y+27, r24	; 0x1b
    2aba:	9c 8f       	std	Y+28, r25	; 0x1c
    2abc:	8d 8d       	ldd	r24, Y+29	; 0x1d
    2abe:	9e 8d       	ldd	r25, Y+30	; 0x1e
    2ac0:	0e 94 2b 1d 	call	0x3a56	; 0x3a56 <_ZN15lmx2694_Handler14Toggle_FCAL_ENEv>
    2ac4:	80 e0       	ldi	r24, 0x00	; 0
    2ac6:	90 e0       	ldi	r25, 0x00	; 0
    2ac8:	a8 ec       	ldi	r26, 0xC8	; 200
    2aca:	b2 e4       	ldi	r27, 0x42	; 66
    2acc:	8d 83       	std	Y+5, r24	; 0x05
    2ace:	9e 83       	std	Y+6, r25	; 0x06
    2ad0:	af 83       	std	Y+7, r26	; 0x07
    2ad2:	b8 87       	std	Y+8, r27	; 0x08
    2ad4:	20 e0       	ldi	r18, 0x00	; 0
    2ad6:	30 e8       	ldi	r19, 0x80	; 128
    2ad8:	4b eb       	ldi	r20, 0xBB	; 187
    2ada:	55 e4       	ldi	r21, 0x45	; 69
    2adc:	6d 81       	ldd	r22, Y+5	; 0x05
    2ade:	7e 81       	ldd	r23, Y+6	; 0x06
    2ae0:	8f 81       	ldd	r24, Y+7	; 0x07
    2ae2:	98 85       	ldd	r25, Y+8	; 0x08
    2ae4:	0e 94 e8 26 	call	0x4dd0	; 0x4dd0 <__mulsf3>
    2ae8:	dc 01       	movw	r26, r24
    2aea:	cb 01       	movw	r24, r22
    2aec:	89 87       	std	Y+9, r24	; 0x09
    2aee:	9a 87       	std	Y+10, r25	; 0x0a
    2af0:	ab 87       	std	Y+11, r26	; 0x0b
    2af2:	bc 87       	std	Y+12, r27	; 0x0c
    2af4:	20 e0       	ldi	r18, 0x00	; 0
    2af6:	30 e0       	ldi	r19, 0x00	; 0
    2af8:	40 e8       	ldi	r20, 0x80	; 128
    2afa:	5f e3       	ldi	r21, 0x3F	; 63
    2afc:	69 85       	ldd	r22, Y+9	; 0x09
    2afe:	7a 85       	ldd	r23, Y+10	; 0x0a
    2b00:	8b 85       	ldd	r24, Y+11	; 0x0b
    2b02:	9c 85       	ldd	r25, Y+12	; 0x0c
    2b04:	0e 94 dc 24 	call	0x49b8	; 0x49b8 <__cmpsf2>
    2b08:	88 23       	and	r24, r24
    2b0a:	2c f4       	brge	.+10     	; 0x2b16 <_ZN15lmx2694_Handler4InitEv+0x192>
    2b0c:	81 e0       	ldi	r24, 0x01	; 1
    2b0e:	90 e0       	ldi	r25, 0x00	; 0
    2b10:	8d 87       	std	Y+13, r24	; 0x0d
    2b12:	9e 87       	std	Y+14, r25	; 0x0e
    2b14:	3e c0       	rjmp	.+124    	; 0x2b92 <_ZN15lmx2694_Handler4InitEv+0x20e>
    2b16:	20 e0       	ldi	r18, 0x00	; 0
    2b18:	3f ef       	ldi	r19, 0xFF	; 255
    2b1a:	4f e7       	ldi	r20, 0x7F	; 127
    2b1c:	57 e4       	ldi	r21, 0x47	; 71
    2b1e:	69 85       	ldd	r22, Y+9	; 0x09
    2b20:	7a 85       	ldd	r23, Y+10	; 0x0a
    2b22:	8b 85       	ldd	r24, Y+11	; 0x0b
    2b24:	9c 85       	ldd	r25, Y+12	; 0x0c
    2b26:	0e 94 93 26 	call	0x4d26	; 0x4d26 <__gesf2>
    2b2a:	18 16       	cp	r1, r24
    2b2c:	44 f5       	brge	.+80     	; 0x2b7e <_ZN15lmx2694_Handler4InitEv+0x1fa>
    2b2e:	20 e0       	ldi	r18, 0x00	; 0
    2b30:	30 e0       	ldi	r19, 0x00	; 0
    2b32:	40 e2       	ldi	r20, 0x20	; 32
    2b34:	51 e4       	ldi	r21, 0x41	; 65
    2b36:	6d 81       	ldd	r22, Y+5	; 0x05
    2b38:	7e 81       	ldd	r23, Y+6	; 0x06
    2b3a:	8f 81       	ldd	r24, Y+7	; 0x07
    2b3c:	98 85       	ldd	r25, Y+8	; 0x08
    2b3e:	0e 94 e8 26 	call	0x4dd0	; 0x4dd0 <__mulsf3>
    2b42:	dc 01       	movw	r26, r24
    2b44:	cb 01       	movw	r24, r22
    2b46:	bc 01       	movw	r22, r24
    2b48:	cd 01       	movw	r24, r26
    2b4a:	0e 94 5a 25 	call	0x4ab4	; 0x4ab4 <__fixunssfsi>
    2b4e:	dc 01       	movw	r26, r24
    2b50:	cb 01       	movw	r24, r22
    2b52:	8d 87       	std	Y+13, r24	; 0x0d
    2b54:	9e 87       	std	Y+14, r25	; 0x0e
    2b56:	8d 85       	ldd	r24, Y+13	; 0x0d
    2b58:	9e 85       	ldd	r25, Y+14	; 0x0e
    2b5a:	89 2b       	or	r24, r25
    2b5c:	21 f1       	breq	.+72     	; 0x2ba6 <_ZN15lmx2694_Handler4InitEv+0x222>
    2b5e:	88 e5       	ldi	r24, 0x58	; 88
    2b60:	92 e0       	ldi	r25, 0x02	; 2
    2b62:	8f 87       	std	Y+15, r24	; 0x0f
    2b64:	98 8b       	std	Y+16, r25	; 0x10
    2b66:	8f 85       	ldd	r24, Y+15	; 0x0f
    2b68:	98 89       	ldd	r25, Y+16	; 0x10
    2b6a:	01 97       	sbiw	r24, 0x01	; 1
    2b6c:	f1 f7       	brne	.-4      	; 0x2b6a <_ZN15lmx2694_Handler4InitEv+0x1e6>
    2b6e:	8f 87       	std	Y+15, r24	; 0x0f
    2b70:	98 8b       	std	Y+16, r25	; 0x10
    2b72:	8d 85       	ldd	r24, Y+13	; 0x0d
    2b74:	9e 85       	ldd	r25, Y+14	; 0x0e
    2b76:	01 97       	sbiw	r24, 0x01	; 1
    2b78:	8d 87       	std	Y+13, r24	; 0x0d
    2b7a:	9e 87       	std	Y+14, r25	; 0x0e
    2b7c:	ec cf       	rjmp	.-40     	; 0x2b56 <_ZN15lmx2694_Handler4InitEv+0x1d2>
    2b7e:	69 85       	ldd	r22, Y+9	; 0x09
    2b80:	7a 85       	ldd	r23, Y+10	; 0x0a
    2b82:	8b 85       	ldd	r24, Y+11	; 0x0b
    2b84:	9c 85       	ldd	r25, Y+12	; 0x0c
    2b86:	0e 94 5a 25 	call	0x4ab4	; 0x4ab4 <__fixunssfsi>
    2b8a:	dc 01       	movw	r26, r24
    2b8c:	cb 01       	movw	r24, r22
    2b8e:	8d 87       	std	Y+13, r24	; 0x0d
    2b90:	9e 87       	std	Y+14, r25	; 0x0e
    2b92:	8d 85       	ldd	r24, Y+13	; 0x0d
    2b94:	9e 85       	ldd	r25, Y+14	; 0x0e
    2b96:	89 8b       	std	Y+17, r24	; 0x11
    2b98:	9a 8b       	std	Y+18, r25	; 0x12
    2b9a:	89 89       	ldd	r24, Y+17	; 0x11
    2b9c:	9a 89       	ldd	r25, Y+18	; 0x12
    2b9e:	01 97       	sbiw	r24, 0x01	; 1
    2ba0:	f1 f7       	brne	.-4      	; 0x2b9e <_ZN15lmx2694_Handler4InitEv+0x21a>
    2ba2:	89 8b       	std	Y+17, r24	; 0x11
    2ba4:	9a 8b       	std	Y+18, r25	; 0x12
    2ba6:	8d 8d       	ldd	r24, Y+29	; 0x1d
    2ba8:	9e 8d       	ldd	r25, Y+30	; 0x1e
    2baa:	0e 94 dd 15 	call	0x2bba	; 0x2bba <_ZN15lmx2694_Handler9Is_LockedEv>
    2bae:	6e 96       	adiw	r28, 0x1e	; 30
    2bb0:	cd bf       	out	0x3d, r28	; 61
    2bb2:	de bf       	out	0x3e, r29	; 62
    2bb4:	df 91       	pop	r29
    2bb6:	cf 91       	pop	r28
    2bb8:	08 95       	ret

00002bba <_ZN15lmx2694_Handler9Is_LockedEv>:
    2bba:	cf 92       	push	r12
    2bbc:	df 92       	push	r13
    2bbe:	ef 92       	push	r14
    2bc0:	ff 92       	push	r15
    2bc2:	cf 93       	push	r28
    2bc4:	df 93       	push	r29
    2bc6:	00 d0       	rcall	.+0      	; 0x2bc8 <_ZN15lmx2694_Handler9Is_LockedEv+0xe>
    2bc8:	cd b7       	in	r28, 0x3d	; 61
    2bca:	de b7       	in	r29, 0x3e	; 62
    2bcc:	89 83       	std	Y+1, r24	; 0x01
    2bce:	9a 83       	std	Y+2, r25	; 0x02
    2bd0:	0e 94 4c 14 	call	0x2898	; 0x2898 <PC1_get_level>
    2bd4:	28 2f       	mov	r18, r24
    2bd6:	89 81       	ldd	r24, Y+1	; 0x01
    2bd8:	9a 81       	ldd	r25, Y+2	; 0x02
    2bda:	fc 01       	movw	r30, r24
    2bdc:	21 8b       	std	Z+17, r18	; 0x11
    2bde:	89 81       	ldd	r24, Y+1	; 0x01
    2be0:	9a 81       	ldd	r25, Y+2	; 0x02
    2be2:	fc 01       	movw	r30, r24
    2be4:	81 89       	ldd	r24, Z+17	; 0x11
    2be6:	88 23       	and	r24, r24
    2be8:	39 f4       	brne	.+14     	; 0x2bf8 <_ZN15lmx2694_Handler9Is_LockedEv+0x3e>
    2bea:	0e 94 4c 14 	call	0x2898	; 0x2898 <PC1_get_level>
    2bee:	28 2f       	mov	r18, r24
    2bf0:	89 81       	ldd	r24, Y+1	; 0x01
    2bf2:	9a 81       	ldd	r25, Y+2	; 0x02
    2bf4:	fc 01       	movw	r30, r24
    2bf6:	21 8b       	std	Z+17, r18	; 0x11
    2bf8:	89 81       	ldd	r24, Y+1	; 0x01
    2bfa:	9a 81       	ldd	r25, Y+2	; 0x02
    2bfc:	fc 01       	movw	r30, r24
    2bfe:	81 89       	ldd	r24, Z+17	; 0x11
    2c00:	88 23       	and	r24, r24
    2c02:	09 f4       	brne	.+2      	; 0x2c06 <_ZN15lmx2694_Handler9Is_LockedEv+0x4c>
    2c04:	4b c0       	rjmp	.+150    	; 0x2c9c <_ZN15lmx2694_Handler9Is_LockedEv+0xe2>
    2c06:	89 81       	ldd	r24, Y+1	; 0x01
    2c08:	9a 81       	ldd	r25, Y+2	; 0x02
    2c0a:	62 e0       	ldi	r22, 0x02	; 2
    2c0c:	0e 94 5b 16 	call	0x2cb6	; 0x2cb6 <_ZN15lmx2694_Handler11Get_OUT_MUXEh>
    2c10:	98 2f       	mov	r25, r24
    2c12:	81 e0       	ldi	r24, 0x01	; 1
    2c14:	99 23       	and	r25, r25
    2c16:	09 f4       	brne	.+2      	; 0x2c1a <_ZN15lmx2694_Handler9Is_LockedEv+0x60>
    2c18:	80 e0       	ldi	r24, 0x00	; 0
    2c1a:	88 23       	and	r24, r24
    2c1c:	79 f0       	breq	.+30     	; 0x2c3c <_ZN15lmx2694_Handler9Is_LockedEv+0x82>
    2c1e:	89 81       	ldd	r24, Y+1	; 0x01
    2c20:	9a 81       	ldd	r25, Y+2	; 0x02
    2c22:	60 e0       	ldi	r22, 0x00	; 0
    2c24:	0e 94 9f 17 	call	0x2f3e	; 0x2f3e <_ZN15lmx2694_Handler27Calculate_Current_FrequencyEb>
    2c28:	dc 01       	movw	r26, r24
    2c2a:	cb 01       	movw	r24, r22
    2c2c:	29 81       	ldd	r18, Y+1	; 0x01
    2c2e:	3a 81       	ldd	r19, Y+2	; 0x02
    2c30:	f9 01       	movw	r30, r18
    2c32:	80 83       	st	Z, r24
    2c34:	91 83       	std	Z+1, r25	; 0x01
    2c36:	a2 83       	std	Z+2, r26	; 0x02
    2c38:	b3 83       	std	Z+3, r27	; 0x03
    2c3a:	30 c0       	rjmp	.+96     	; 0x2c9c <_ZN15lmx2694_Handler9Is_LockedEv+0xe2>
    2c3c:	89 81       	ldd	r24, Y+1	; 0x01
    2c3e:	9a 81       	ldd	r25, Y+2	; 0x02
    2c40:	60 e0       	ldi	r22, 0x00	; 0
    2c42:	0e 94 89 16 	call	0x2d12	; 0x2d12 <_ZN15lmx2694_Handler25Get_Channel_Divider_ValueEb>
    2c46:	28 2f       	mov	r18, r24
    2c48:	89 81       	ldd	r24, Y+1	; 0x01
    2c4a:	9a 81       	ldd	r25, Y+2	; 0x02
    2c4c:	fc 01       	movw	r30, r24
    2c4e:	21 8f       	std	Z+25, r18	; 0x19
    2c50:	89 81       	ldd	r24, Y+1	; 0x01
    2c52:	9a 81       	ldd	r25, Y+2	; 0x02
    2c54:	60 e0       	ldi	r22, 0x00	; 0
    2c56:	0e 94 9f 17 	call	0x2f3e	; 0x2f3e <_ZN15lmx2694_Handler27Calculate_Current_FrequencyEb>
    2c5a:	6b 01       	movw	r12, r22
    2c5c:	7c 01       	movw	r14, r24
    2c5e:	89 81       	ldd	r24, Y+1	; 0x01
    2c60:	9a 81       	ldd	r25, Y+2	; 0x02
    2c62:	fc 01       	movw	r30, r24
    2c64:	81 8d       	ldd	r24, Z+25	; 0x19
    2c66:	88 2f       	mov	r24, r24
    2c68:	90 e0       	ldi	r25, 0x00	; 0
    2c6a:	09 2e       	mov	r0, r25
    2c6c:	00 0c       	add	r0, r0
    2c6e:	aa 0b       	sbc	r26, r26
    2c70:	bb 0b       	sbc	r27, r27
    2c72:	bc 01       	movw	r22, r24
    2c74:	cd 01       	movw	r24, r26
    2c76:	0e 94 8b 25 	call	0x4b16	; 0x4b16 <__floatsisf>
    2c7a:	dc 01       	movw	r26, r24
    2c7c:	cb 01       	movw	r24, r22
    2c7e:	9c 01       	movw	r18, r24
    2c80:	ad 01       	movw	r20, r26
    2c82:	c7 01       	movw	r24, r14
    2c84:	b6 01       	movw	r22, r12
    2c86:	0e 94 e1 24 	call	0x49c2	; 0x49c2 <__divsf3>
    2c8a:	dc 01       	movw	r26, r24
    2c8c:	cb 01       	movw	r24, r22
    2c8e:	29 81       	ldd	r18, Y+1	; 0x01
    2c90:	3a 81       	ldd	r19, Y+2	; 0x02
    2c92:	f9 01       	movw	r30, r18
    2c94:	80 83       	st	Z, r24
    2c96:	91 83       	std	Z+1, r25	; 0x01
    2c98:	a2 83       	std	Z+2, r26	; 0x02
    2c9a:	b3 83       	std	Z+3, r27	; 0x03
    2c9c:	89 81       	ldd	r24, Y+1	; 0x01
    2c9e:	9a 81       	ldd	r25, Y+2	; 0x02
    2ca0:	fc 01       	movw	r30, r24
    2ca2:	81 89       	ldd	r24, Z+17	; 0x11
    2ca4:	0f 90       	pop	r0
    2ca6:	0f 90       	pop	r0
    2ca8:	df 91       	pop	r29
    2caa:	cf 91       	pop	r28
    2cac:	ff 90       	pop	r15
    2cae:	ef 90       	pop	r14
    2cb0:	df 90       	pop	r13
    2cb2:	cf 90       	pop	r12
    2cb4:	08 95       	ret

00002cb6 <_ZN15lmx2694_Handler11Get_OUT_MUXEh>:
    2cb6:	cf 93       	push	r28
    2cb8:	df 93       	push	r29
    2cba:	00 d0       	rcall	.+0      	; 0x2cbc <_ZN15lmx2694_Handler11Get_OUT_MUXEh+0x6>
    2cbc:	1f 92       	push	r1
    2cbe:	cd b7       	in	r28, 0x3d	; 61
    2cc0:	de b7       	in	r29, 0x3e	; 62
    2cc2:	89 83       	std	Y+1, r24	; 0x01
    2cc4:	9a 83       	std	Y+2, r25	; 0x02
    2cc6:	6b 83       	std	Y+3, r22	; 0x03
    2cc8:	8b 81       	ldd	r24, Y+3	; 0x03
    2cca:	82 30       	cpi	r24, 0x02	; 2
    2ccc:	61 f4       	brne	.+24     	; 0x2ce6 <_ZN15lmx2694_Handler11Get_OUT_MUXEh+0x30>
    2cce:	89 81       	ldd	r24, Y+1	; 0x01
    2cd0:	9a 81       	ldd	r25, Y+2	; 0x02
    2cd2:	fc 01       	movw	r30, r24
    2cd4:	86 81       	ldd	r24, Z+6	; 0x06
    2cd6:	97 81       	ldd	r25, Z+7	; 0x07
    2cd8:	84 5a       	subi	r24, 0xA4	; 164
    2cda:	9f 4f       	sbci	r25, 0xFF	; 255
    2cdc:	fc 01       	movw	r30, r24
    2cde:	80 81       	ld	r24, Z
    2ce0:	91 81       	ldd	r25, Z+1	; 0x01
    2ce2:	83 70       	andi	r24, 0x03	; 3
    2ce4:	10 c0       	rjmp	.+32     	; 0x2d06 <_ZN15lmx2694_Handler11Get_OUT_MUXEh+0x50>
    2ce6:	89 81       	ldd	r24, Y+1	; 0x01
    2ce8:	9a 81       	ldd	r25, Y+2	; 0x02
    2cea:	fc 01       	movw	r30, r24
    2cec:	86 81       	ldd	r24, Z+6	; 0x06
    2cee:	97 81       	ldd	r25, Z+7	; 0x07
    2cf0:	86 5a       	subi	r24, 0xA6	; 166
    2cf2:	9f 4f       	sbci	r25, 0xFF	; 255
    2cf4:	fc 01       	movw	r30, r24
    2cf6:	80 81       	ld	r24, Z
    2cf8:	91 81       	ldd	r25, Z+1	; 0x01
    2cfa:	89 2f       	mov	r24, r25
    2cfc:	99 27       	eor	r25, r25
    2cfe:	86 95       	lsr	r24
    2d00:	86 95       	lsr	r24
    2d02:	86 95       	lsr	r24
    2d04:	83 70       	andi	r24, 0x03	; 3
    2d06:	23 96       	adiw	r28, 0x03	; 3
    2d08:	cd bf       	out	0x3d, r28	; 61
    2d0a:	de bf       	out	0x3e, r29	; 62
    2d0c:	df 91       	pop	r29
    2d0e:	cf 91       	pop	r28
    2d10:	08 95       	ret

00002d12 <_ZN15lmx2694_Handler25Get_Channel_Divider_ValueEb>:
    2d12:	cf 93       	push	r28
    2d14:	df 93       	push	r29
    2d16:	00 d0       	rcall	.+0      	; 0x2d18 <_ZN15lmx2694_Handler25Get_Channel_Divider_ValueEb+0x6>
    2d18:	1f 92       	push	r1
    2d1a:	cd b7       	in	r28, 0x3d	; 61
    2d1c:	de b7       	in	r29, 0x3e	; 62
    2d1e:	89 83       	std	Y+1, r24	; 0x01
    2d20:	9a 83       	std	Y+2, r25	; 0x02
    2d22:	6b 83       	std	Y+3, r22	; 0x03
    2d24:	8b 81       	ldd	r24, Y+3	; 0x03
    2d26:	88 23       	and	r24, r24
    2d28:	a9 f0       	breq	.+42     	; 0x2d54 <_ZN15lmx2694_Handler25Get_Channel_Divider_ValueEb+0x42>
    2d2a:	89 81       	ldd	r24, Y+1	; 0x01
    2d2c:	9a 81       	ldd	r25, Y+2	; 0x02
    2d2e:	6b e4       	ldi	r22, 0x4B	; 75
    2d30:	0e 94 0d 21 	call	0x421a	; 0x421a <_ZN15lmx2694_Handler20Read_Single_RegisterEh>
    2d34:	00 24       	eor	r0, r0
    2d36:	88 0f       	add	r24, r24
    2d38:	99 1f       	adc	r25, r25
    2d3a:	00 1c       	adc	r0, r0
    2d3c:	88 0f       	add	r24, r24
    2d3e:	99 1f       	adc	r25, r25
    2d40:	00 1c       	adc	r0, r0
    2d42:	89 2f       	mov	r24, r25
    2d44:	90 2d       	mov	r25, r0
    2d46:	28 2f       	mov	r18, r24
    2d48:	2f 71       	andi	r18, 0x1F	; 31
    2d4a:	89 81       	ldd	r24, Y+1	; 0x01
    2d4c:	9a 81       	ldd	r25, Y+2	; 0x02
    2d4e:	fc 01       	movw	r30, r24
    2d50:	27 8b       	std	Z+23, r18	; 0x17
    2d52:	19 c0       	rjmp	.+50     	; 0x2d86 <_ZN15lmx2694_Handler25Get_Channel_Divider_ValueEb+0x74>
    2d54:	89 81       	ldd	r24, Y+1	; 0x01
    2d56:	9a 81       	ldd	r25, Y+2	; 0x02
    2d58:	fc 01       	movw	r30, r24
    2d5a:	86 81       	ldd	r24, Z+6	; 0x06
    2d5c:	97 81       	ldd	r25, Z+7	; 0x07
    2d5e:	8a 56       	subi	r24, 0x6A	; 106
    2d60:	9f 4f       	sbci	r25, 0xFF	; 255
    2d62:	fc 01       	movw	r30, r24
    2d64:	80 81       	ld	r24, Z
    2d66:	91 81       	ldd	r25, Z+1	; 0x01
    2d68:	00 24       	eor	r0, r0
    2d6a:	88 0f       	add	r24, r24
    2d6c:	99 1f       	adc	r25, r25
    2d6e:	00 1c       	adc	r0, r0
    2d70:	88 0f       	add	r24, r24
    2d72:	99 1f       	adc	r25, r25
    2d74:	00 1c       	adc	r0, r0
    2d76:	89 2f       	mov	r24, r25
    2d78:	90 2d       	mov	r25, r0
    2d7a:	28 2f       	mov	r18, r24
    2d7c:	2f 71       	andi	r18, 0x1F	; 31
    2d7e:	89 81       	ldd	r24, Y+1	; 0x01
    2d80:	9a 81       	ldd	r25, Y+2	; 0x02
    2d82:	fc 01       	movw	r30, r24
    2d84:	27 8b       	std	Z+23, r18	; 0x17
    2d86:	89 81       	ldd	r24, Y+1	; 0x01
    2d88:	9a 81       	ldd	r25, Y+2	; 0x02
    2d8a:	fc 01       	movw	r30, r24
    2d8c:	87 89       	ldd	r24, Z+23	; 0x17
    2d8e:	88 2f       	mov	r24, r24
    2d90:	90 e0       	ldi	r25, 0x00	; 0
    2d92:	88 0f       	add	r24, r24
    2d94:	99 1f       	adc	r25, r25
    2d96:	83 54       	subi	r24, 0x43	; 67
    2d98:	9e 4b       	sbci	r25, 0xBE	; 190
    2d9a:	fc 01       	movw	r30, r24
    2d9c:	80 81       	ld	r24, Z
    2d9e:	91 81       	ldd	r25, Z+1	; 0x01
    2da0:	23 96       	adiw	r28, 0x03	; 3
    2da2:	cd bf       	out	0x3d, r28	; 61
    2da4:	de bf       	out	0x3e, r29	; 62
    2da6:	df 91       	pop	r29
    2da8:	cf 91       	pop	r28
    2daa:	08 95       	ret

00002dac <_ZN15lmx2694_Handler13Get_N_DividerEb>:
    2dac:	cf 93       	push	r28
    2dae:	df 93       	push	r29
    2db0:	00 d0       	rcall	.+0      	; 0x2db2 <_ZN15lmx2694_Handler13Get_N_DividerEb+0x6>
    2db2:	1f 92       	push	r1
    2db4:	cd b7       	in	r28, 0x3d	; 61
    2db6:	de b7       	in	r29, 0x3e	; 62
    2db8:	89 83       	std	Y+1, r24	; 0x01
    2dba:	9a 83       	std	Y+2, r25	; 0x02
    2dbc:	6b 83       	std	Y+3, r22	; 0x03
    2dbe:	8b 81       	ldd	r24, Y+3	; 0x03
    2dc0:	88 23       	and	r24, r24
    2dc2:	41 f5       	brne	.+80     	; 0x2e14 <_ZN15lmx2694_Handler13Get_N_DividerEb+0x68>
    2dc4:	89 81       	ldd	r24, Y+1	; 0x01
    2dc6:	9a 81       	ldd	r25, Y+2	; 0x02
    2dc8:	fc 01       	movw	r30, r24
    2dca:	86 81       	ldd	r24, Z+6	; 0x06
    2dcc:	97 81       	ldd	r25, Z+7	; 0x07
    2dce:	8c 5b       	subi	r24, 0xBC	; 188
    2dd0:	9f 4f       	sbci	r25, 0xFF	; 255
    2dd2:	fc 01       	movw	r30, r24
    2dd4:	80 81       	ld	r24, Z
    2dd6:	91 81       	ldd	r25, Z+1	; 0x01
    2dd8:	cc 01       	movw	r24, r24
    2dda:	a0 e0       	ldi	r26, 0x00	; 0
    2ddc:	b0 e0       	ldi	r27, 0x00	; 0
    2dde:	ac 01       	movw	r20, r24
    2de0:	33 27       	eor	r19, r19
    2de2:	22 27       	eor	r18, r18
    2de4:	89 81       	ldd	r24, Y+1	; 0x01
    2de6:	9a 81       	ldd	r25, Y+2	; 0x02
    2de8:	fc 01       	movw	r30, r24
    2dea:	86 81       	ldd	r24, Z+6	; 0x06
    2dec:	97 81       	ldd	r25, Z+7	; 0x07
    2dee:	88 5b       	subi	r24, 0xB8	; 184
    2df0:	9f 4f       	sbci	r25, 0xFF	; 255
    2df2:	fc 01       	movw	r30, r24
    2df4:	80 81       	ld	r24, Z
    2df6:	91 81       	ldd	r25, Z+1	; 0x01
    2df8:	cc 01       	movw	r24, r24
    2dfa:	a0 e0       	ldi	r26, 0x00	; 0
    2dfc:	b0 e0       	ldi	r27, 0x00	; 0
    2dfe:	82 0f       	add	r24, r18
    2e00:	93 1f       	adc	r25, r19
    2e02:	a4 1f       	adc	r26, r20
    2e04:	b5 1f       	adc	r27, r21
    2e06:	29 81       	ldd	r18, Y+1	; 0x01
    2e08:	3a 81       	ldd	r19, Y+2	; 0x02
    2e0a:	f9 01       	movw	r30, r18
    2e0c:	82 8f       	std	Z+26, r24	; 0x1a
    2e0e:	93 8f       	std	Z+27, r25	; 0x1b
    2e10:	a4 8f       	std	Z+28, r26	; 0x1c
    2e12:	b5 8f       	std	Z+29, r27	; 0x1d
    2e14:	89 81       	ldd	r24, Y+1	; 0x01
    2e16:	9a 81       	ldd	r25, Y+2	; 0x02
    2e18:	fc 01       	movw	r30, r24
    2e1a:	82 8d       	ldd	r24, Z+26	; 0x1a
    2e1c:	93 8d       	ldd	r25, Z+27	; 0x1b
    2e1e:	a4 8d       	ldd	r26, Z+28	; 0x1c
    2e20:	b5 8d       	ldd	r27, Z+29	; 0x1d
    2e22:	bc 01       	movw	r22, r24
    2e24:	cd 01       	movw	r24, r26
    2e26:	23 96       	adiw	r28, 0x03	; 3
    2e28:	cd bf       	out	0x3d, r28	; 61
    2e2a:	de bf       	out	0x3e, r29	; 62
    2e2c:	df 91       	pop	r29
    2e2e:	cf 91       	pop	r28
    2e30:	08 95       	ret

00002e32 <_ZN15lmx2694_Handler13Get_NumeratorEb>:
    2e32:	cf 93       	push	r28
    2e34:	df 93       	push	r29
    2e36:	00 d0       	rcall	.+0      	; 0x2e38 <_ZN15lmx2694_Handler13Get_NumeratorEb+0x6>
    2e38:	1f 92       	push	r1
    2e3a:	cd b7       	in	r28, 0x3d	; 61
    2e3c:	de b7       	in	r29, 0x3e	; 62
    2e3e:	89 83       	std	Y+1, r24	; 0x01
    2e40:	9a 83       	std	Y+2, r25	; 0x02
    2e42:	6b 83       	std	Y+3, r22	; 0x03
    2e44:	8b 81       	ldd	r24, Y+3	; 0x03
    2e46:	88 23       	and	r24, r24
    2e48:	41 f5       	brne	.+80     	; 0x2e9a <_ZN15lmx2694_Handler13Get_NumeratorEb+0x68>
    2e4a:	89 81       	ldd	r24, Y+1	; 0x01
    2e4c:	9a 81       	ldd	r25, Y+2	; 0x02
    2e4e:	fc 01       	movw	r30, r24
    2e50:	86 81       	ldd	r24, Z+6	; 0x06
    2e52:	97 81       	ldd	r25, Z+7	; 0x07
    2e54:	8c 5a       	subi	r24, 0xAC	; 172
    2e56:	9f 4f       	sbci	r25, 0xFF	; 255
    2e58:	fc 01       	movw	r30, r24
    2e5a:	80 81       	ld	r24, Z
    2e5c:	91 81       	ldd	r25, Z+1	; 0x01
    2e5e:	cc 01       	movw	r24, r24
    2e60:	a0 e0       	ldi	r26, 0x00	; 0
    2e62:	b0 e0       	ldi	r27, 0x00	; 0
    2e64:	ac 01       	movw	r20, r24
    2e66:	33 27       	eor	r19, r19
    2e68:	22 27       	eor	r18, r18
    2e6a:	89 81       	ldd	r24, Y+1	; 0x01
    2e6c:	9a 81       	ldd	r25, Y+2	; 0x02
    2e6e:	fc 01       	movw	r30, r24
    2e70:	86 81       	ldd	r24, Z+6	; 0x06
    2e72:	97 81       	ldd	r25, Z+7	; 0x07
    2e74:	8a 5a       	subi	r24, 0xAA	; 170
    2e76:	9f 4f       	sbci	r25, 0xFF	; 255
    2e78:	fc 01       	movw	r30, r24
    2e7a:	80 81       	ld	r24, Z
    2e7c:	91 81       	ldd	r25, Z+1	; 0x01
    2e7e:	cc 01       	movw	r24, r24
    2e80:	a0 e0       	ldi	r26, 0x00	; 0
    2e82:	b0 e0       	ldi	r27, 0x00	; 0
    2e84:	82 0f       	add	r24, r18
    2e86:	93 1f       	adc	r25, r19
    2e88:	a4 1f       	adc	r26, r20
    2e8a:	b5 1f       	adc	r27, r21
    2e8c:	29 81       	ldd	r18, Y+1	; 0x01
    2e8e:	3a 81       	ldd	r19, Y+2	; 0x02
    2e90:	f9 01       	movw	r30, r18
    2e92:	86 8f       	std	Z+30, r24	; 0x1e
    2e94:	97 8f       	std	Z+31, r25	; 0x1f
    2e96:	a0 a3       	std	Z+32, r26	; 0x20
    2e98:	b1 a3       	std	Z+33, r27	; 0x21
    2e9a:	89 81       	ldd	r24, Y+1	; 0x01
    2e9c:	9a 81       	ldd	r25, Y+2	; 0x02
    2e9e:	fc 01       	movw	r30, r24
    2ea0:	86 8d       	ldd	r24, Z+30	; 0x1e
    2ea2:	97 8d       	ldd	r25, Z+31	; 0x1f
    2ea4:	a0 a1       	ldd	r26, Z+32	; 0x20
    2ea6:	b1 a1       	ldd	r27, Z+33	; 0x21
    2ea8:	bc 01       	movw	r22, r24
    2eaa:	cd 01       	movw	r24, r26
    2eac:	23 96       	adiw	r28, 0x03	; 3
    2eae:	cd bf       	out	0x3d, r28	; 61
    2eb0:	de bf       	out	0x3e, r29	; 62
    2eb2:	df 91       	pop	r29
    2eb4:	cf 91       	pop	r28
    2eb6:	08 95       	ret

00002eb8 <_ZN15lmx2694_Handler15Get_DenominatorEb>:
    2eb8:	cf 93       	push	r28
    2eba:	df 93       	push	r29
    2ebc:	00 d0       	rcall	.+0      	; 0x2ebe <_ZN15lmx2694_Handler15Get_DenominatorEb+0x6>
    2ebe:	1f 92       	push	r1
    2ec0:	cd b7       	in	r28, 0x3d	; 61
    2ec2:	de b7       	in	r29, 0x3e	; 62
    2ec4:	89 83       	std	Y+1, r24	; 0x01
    2ec6:	9a 83       	std	Y+2, r25	; 0x02
    2ec8:	6b 83       	std	Y+3, r22	; 0x03
    2eca:	8b 81       	ldd	r24, Y+3	; 0x03
    2ecc:	88 23       	and	r24, r24
    2ece:	41 f5       	brne	.+80     	; 0x2f20 <_ZN15lmx2694_Handler15Get_DenominatorEb+0x68>
    2ed0:	89 81       	ldd	r24, Y+1	; 0x01
    2ed2:	9a 81       	ldd	r25, Y+2	; 0x02
    2ed4:	fc 01       	movw	r30, r24
    2ed6:	86 81       	ldd	r24, Z+6	; 0x06
    2ed8:	97 81       	ldd	r25, Z+7	; 0x07
    2eda:	84 5b       	subi	r24, 0xB4	; 180
    2edc:	9f 4f       	sbci	r25, 0xFF	; 255
    2ede:	fc 01       	movw	r30, r24
    2ee0:	80 81       	ld	r24, Z
    2ee2:	91 81       	ldd	r25, Z+1	; 0x01
    2ee4:	cc 01       	movw	r24, r24
    2ee6:	a0 e0       	ldi	r26, 0x00	; 0
    2ee8:	b0 e0       	ldi	r27, 0x00	; 0
    2eea:	ac 01       	movw	r20, r24
    2eec:	33 27       	eor	r19, r19
    2eee:	22 27       	eor	r18, r18
    2ef0:	89 81       	ldd	r24, Y+1	; 0x01
    2ef2:	9a 81       	ldd	r25, Y+2	; 0x02
    2ef4:	fc 01       	movw	r30, r24
    2ef6:	86 81       	ldd	r24, Z+6	; 0x06
    2ef8:	97 81       	ldd	r25, Z+7	; 0x07
    2efa:	82 5b       	subi	r24, 0xB2	; 178
    2efc:	9f 4f       	sbci	r25, 0xFF	; 255
    2efe:	fc 01       	movw	r30, r24
    2f00:	80 81       	ld	r24, Z
    2f02:	91 81       	ldd	r25, Z+1	; 0x01
    2f04:	cc 01       	movw	r24, r24
    2f06:	a0 e0       	ldi	r26, 0x00	; 0
    2f08:	b0 e0       	ldi	r27, 0x00	; 0
    2f0a:	82 0f       	add	r24, r18
    2f0c:	93 1f       	adc	r25, r19
    2f0e:	a4 1f       	adc	r26, r20
    2f10:	b5 1f       	adc	r27, r21
    2f12:	29 81       	ldd	r18, Y+1	; 0x01
    2f14:	3a 81       	ldd	r19, Y+2	; 0x02
    2f16:	f9 01       	movw	r30, r18
    2f18:	82 a3       	std	Z+34, r24	; 0x22
    2f1a:	93 a3       	std	Z+35, r25	; 0x23
    2f1c:	a4 a3       	std	Z+36, r26	; 0x24
    2f1e:	b5 a3       	std	Z+37, r27	; 0x25
    2f20:	89 81       	ldd	r24, Y+1	; 0x01
    2f22:	9a 81       	ldd	r25, Y+2	; 0x02
    2f24:	fc 01       	movw	r30, r24
    2f26:	82 a1       	ldd	r24, Z+34	; 0x22
    2f28:	93 a1       	ldd	r25, Z+35	; 0x23
    2f2a:	a4 a1       	ldd	r26, Z+36	; 0x24
    2f2c:	b5 a1       	ldd	r27, Z+37	; 0x25
    2f2e:	bc 01       	movw	r22, r24
    2f30:	cd 01       	movw	r24, r26
    2f32:	23 96       	adiw	r28, 0x03	; 3
    2f34:	cd bf       	out	0x3d, r28	; 61
    2f36:	de bf       	out	0x3e, r29	; 62
    2f38:	df 91       	pop	r29
    2f3a:	cf 91       	pop	r28
    2f3c:	08 95       	ret

00002f3e <_ZN15lmx2694_Handler27Calculate_Current_FrequencyEb>:
    2f3e:	8f 92       	push	r8
    2f40:	9f 92       	push	r9
    2f42:	af 92       	push	r10
    2f44:	bf 92       	push	r11
    2f46:	cf 92       	push	r12
    2f48:	df 92       	push	r13
    2f4a:	ef 92       	push	r14
    2f4c:	ff 92       	push	r15
    2f4e:	cf 93       	push	r28
    2f50:	df 93       	push	r29
    2f52:	00 d0       	rcall	.+0      	; 0x2f54 <_ZN15lmx2694_Handler27Calculate_Current_FrequencyEb+0x16>
    2f54:	1f 92       	push	r1
    2f56:	cd b7       	in	r28, 0x3d	; 61
    2f58:	de b7       	in	r29, 0x3e	; 62
    2f5a:	89 83       	std	Y+1, r24	; 0x01
    2f5c:	9a 83       	std	Y+2, r25	; 0x02
    2f5e:	6b 83       	std	Y+3, r22	; 0x03
    2f60:	8b 81       	ldd	r24, Y+3	; 0x03
    2f62:	88 23       	and	r24, r24
    2f64:	09 f0       	breq	.+2      	; 0x2f68 <_ZN15lmx2694_Handler27Calculate_Current_FrequencyEb+0x2a>
    2f66:	48 c0       	rjmp	.+144    	; 0x2ff8 <_ZN15lmx2694_Handler27Calculate_Current_FrequencyEb+0xba>
    2f68:	89 81       	ldd	r24, Y+1	; 0x01
    2f6a:	9a 81       	ldd	r25, Y+2	; 0x02
    2f6c:	60 e0       	ldi	r22, 0x00	; 0
    2f6e:	0e 94 d6 16 	call	0x2dac	; 0x2dac <_ZN15lmx2694_Handler13Get_N_DividerEb>
    2f72:	dc 01       	movw	r26, r24
    2f74:	cb 01       	movw	r24, r22
    2f76:	bc 01       	movw	r22, r24
    2f78:	cd 01       	movw	r24, r26
    2f7a:	0e 94 89 25 	call	0x4b12	; 0x4b12 <__floatunsisf>
    2f7e:	6b 01       	movw	r12, r22
    2f80:	7c 01       	movw	r14, r24
    2f82:	89 81       	ldd	r24, Y+1	; 0x01
    2f84:	9a 81       	ldd	r25, Y+2	; 0x02
    2f86:	60 e0       	ldi	r22, 0x00	; 0
    2f88:	0e 94 19 17 	call	0x2e32	; 0x2e32 <_ZN15lmx2694_Handler13Get_NumeratorEb>
    2f8c:	dc 01       	movw	r26, r24
    2f8e:	cb 01       	movw	r24, r22
    2f90:	bc 01       	movw	r22, r24
    2f92:	cd 01       	movw	r24, r26
    2f94:	0e 94 89 25 	call	0x4b12	; 0x4b12 <__floatunsisf>
    2f98:	4b 01       	movw	r8, r22
    2f9a:	5c 01       	movw	r10, r24
    2f9c:	89 81       	ldd	r24, Y+1	; 0x01
    2f9e:	9a 81       	ldd	r25, Y+2	; 0x02
    2fa0:	60 e0       	ldi	r22, 0x00	; 0
    2fa2:	0e 94 5c 17 	call	0x2eb8	; 0x2eb8 <_ZN15lmx2694_Handler15Get_DenominatorEb>
    2fa6:	dc 01       	movw	r26, r24
    2fa8:	cb 01       	movw	r24, r22
    2faa:	bc 01       	movw	r22, r24
    2fac:	cd 01       	movw	r24, r26
    2fae:	0e 94 89 25 	call	0x4b12	; 0x4b12 <__floatunsisf>
    2fb2:	dc 01       	movw	r26, r24
    2fb4:	cb 01       	movw	r24, r22
    2fb6:	9c 01       	movw	r18, r24
    2fb8:	ad 01       	movw	r20, r26
    2fba:	c5 01       	movw	r24, r10
    2fbc:	b4 01       	movw	r22, r8
    2fbe:	0e 94 e1 24 	call	0x49c2	; 0x49c2 <__divsf3>
    2fc2:	dc 01       	movw	r26, r24
    2fc4:	cb 01       	movw	r24, r22
    2fc6:	9c 01       	movw	r18, r24
    2fc8:	ad 01       	movw	r20, r26
    2fca:	c7 01       	movw	r24, r14
    2fcc:	b6 01       	movw	r22, r12
    2fce:	0e 94 70 24 	call	0x48e0	; 0x48e0 <__addsf3>
    2fd2:	dc 01       	movw	r26, r24
    2fd4:	cb 01       	movw	r24, r22
    2fd6:	20 e0       	ldi	r18, 0x00	; 0
    2fd8:	30 e0       	ldi	r19, 0x00	; 0
    2fda:	48 e4       	ldi	r20, 0x48	; 72
    2fdc:	53 e4       	ldi	r21, 0x43	; 67
    2fde:	bc 01       	movw	r22, r24
    2fe0:	cd 01       	movw	r24, r26
    2fe2:	0e 94 e8 26 	call	0x4dd0	; 0x4dd0 <__mulsf3>
    2fe6:	dc 01       	movw	r26, r24
    2fe8:	cb 01       	movw	r24, r22
    2fea:	29 81       	ldd	r18, Y+1	; 0x01
    2fec:	3a 81       	ldd	r19, Y+2	; 0x02
    2fee:	f9 01       	movw	r30, r18
    2ff0:	86 a7       	std	Z+46, r24	; 0x2e
    2ff2:	97 a7       	std	Z+47, r25	; 0x2f
    2ff4:	a0 ab       	std	Z+48, r26	; 0x30
    2ff6:	b1 ab       	std	Z+49, r27	; 0x31
    2ff8:	89 81       	ldd	r24, Y+1	; 0x01
    2ffa:	9a 81       	ldd	r25, Y+2	; 0x02
    2ffc:	fc 01       	movw	r30, r24
    2ffe:	86 a5       	ldd	r24, Z+46	; 0x2e
    3000:	97 a5       	ldd	r25, Z+47	; 0x2f
    3002:	a0 a9       	ldd	r26, Z+48	; 0x30
    3004:	b1 a9       	ldd	r27, Z+49	; 0x31
    3006:	bc 01       	movw	r22, r24
    3008:	cd 01       	movw	r24, r26
    300a:	23 96       	adiw	r28, 0x03	; 3
    300c:	cd bf       	out	0x3d, r28	; 61
    300e:	de bf       	out	0x3e, r29	; 62
    3010:	df 91       	pop	r29
    3012:	cf 91       	pop	r28
    3014:	ff 90       	pop	r15
    3016:	ef 90       	pop	r14
    3018:	df 90       	pop	r13
    301a:	cf 90       	pop	r12
    301c:	bf 90       	pop	r11
    301e:	af 90       	pop	r10
    3020:	9f 90       	pop	r9
    3022:	8f 90       	pop	r8
    3024:	08 95       	ret

00003026 <_ZN15lmx2694_Handler3GCDEmm>:
    3026:	0f 93       	push	r16
    3028:	1f 93       	push	r17
    302a:	cf 93       	push	r28
    302c:	df 93       	push	r29
    302e:	cd b7       	in	r28, 0x3d	; 61
    3030:	de b7       	in	r29, 0x3e	; 62
    3032:	2a 97       	sbiw	r28, 0x0a	; 10
    3034:	cd bf       	out	0x3d, r28	; 61
    3036:	de bf       	out	0x3e, r29	; 62
    3038:	89 83       	std	Y+1, r24	; 0x01
    303a:	9a 83       	std	Y+2, r25	; 0x02
    303c:	4b 83       	std	Y+3, r20	; 0x03
    303e:	5c 83       	std	Y+4, r21	; 0x04
    3040:	6d 83       	std	Y+5, r22	; 0x05
    3042:	7e 83       	std	Y+6, r23	; 0x06
    3044:	0f 83       	std	Y+7, r16	; 0x07
    3046:	18 87       	std	Y+8, r17	; 0x08
    3048:	29 87       	std	Y+9, r18	; 0x09
    304a:	3a 87       	std	Y+10, r19	; 0x0a
    304c:	8b 81       	ldd	r24, Y+3	; 0x03
    304e:	9c 81       	ldd	r25, Y+4	; 0x04
    3050:	ad 81       	ldd	r26, Y+5	; 0x05
    3052:	be 81       	ldd	r27, Y+6	; 0x06
    3054:	89 2b       	or	r24, r25
    3056:	8a 2b       	or	r24, r26
    3058:	8b 2b       	or	r24, r27
    305a:	29 f4       	brne	.+10     	; 0x3066 <_ZN15lmx2694_Handler3GCDEmm+0x40>
    305c:	8f 81       	ldd	r24, Y+7	; 0x07
    305e:	98 85       	ldd	r25, Y+8	; 0x08
    3060:	a9 85       	ldd	r26, Y+9	; 0x09
    3062:	ba 85       	ldd	r27, Y+10	; 0x0a
    3064:	59 c0       	rjmp	.+178    	; 0x3118 <_ZN15lmx2694_Handler3GCDEmm+0xf2>
    3066:	8f 81       	ldd	r24, Y+7	; 0x07
    3068:	98 85       	ldd	r25, Y+8	; 0x08
    306a:	a9 85       	ldd	r26, Y+9	; 0x09
    306c:	ba 85       	ldd	r27, Y+10	; 0x0a
    306e:	89 2b       	or	r24, r25
    3070:	8a 2b       	or	r24, r26
    3072:	8b 2b       	or	r24, r27
    3074:	29 f4       	brne	.+10     	; 0x3080 <_ZN15lmx2694_Handler3GCDEmm+0x5a>
    3076:	8b 81       	ldd	r24, Y+3	; 0x03
    3078:	9c 81       	ldd	r25, Y+4	; 0x04
    307a:	ad 81       	ldd	r26, Y+5	; 0x05
    307c:	be 81       	ldd	r27, Y+6	; 0x06
    307e:	4c c0       	rjmp	.+152    	; 0x3118 <_ZN15lmx2694_Handler3GCDEmm+0xf2>
    3080:	2b 81       	ldd	r18, Y+3	; 0x03
    3082:	3c 81       	ldd	r19, Y+4	; 0x04
    3084:	4d 81       	ldd	r20, Y+5	; 0x05
    3086:	5e 81       	ldd	r21, Y+6	; 0x06
    3088:	8f 81       	ldd	r24, Y+7	; 0x07
    308a:	98 85       	ldd	r25, Y+8	; 0x08
    308c:	a9 85       	ldd	r26, Y+9	; 0x09
    308e:	ba 85       	ldd	r27, Y+10	; 0x0a
    3090:	28 17       	cp	r18, r24
    3092:	39 07       	cpc	r19, r25
    3094:	4a 07       	cpc	r20, r26
    3096:	5b 07       	cpc	r21, r27
    3098:	00 f5       	brcc	.+64     	; 0x30da <_ZN15lmx2694_Handler3GCDEmm+0xb4>
    309a:	8f 81       	ldd	r24, Y+7	; 0x07
    309c:	98 85       	ldd	r25, Y+8	; 0x08
    309e:	a9 85       	ldd	r26, Y+9	; 0x09
    30a0:	ba 85       	ldd	r27, Y+10	; 0x0a
    30a2:	2b 81       	ldd	r18, Y+3	; 0x03
    30a4:	3c 81       	ldd	r19, Y+4	; 0x04
    30a6:	4d 81       	ldd	r20, Y+5	; 0x05
    30a8:	5e 81       	ldd	r21, Y+6	; 0x06
    30aa:	bc 01       	movw	r22, r24
    30ac:	cd 01       	movw	r24, r26
    30ae:	0e 94 54 2c 	call	0x58a8	; 0x58a8 <__udivmodsi4>
    30b2:	dc 01       	movw	r26, r24
    30b4:	cb 01       	movw	r24, r22
    30b6:	9c 01       	movw	r18, r24
    30b8:	ad 01       	movw	r20, r26
    30ba:	8b 81       	ldd	r24, Y+3	; 0x03
    30bc:	9c 81       	ldd	r25, Y+4	; 0x04
    30be:	ad 81       	ldd	r26, Y+5	; 0x05
    30c0:	be 81       	ldd	r27, Y+6	; 0x06
    30c2:	e9 81       	ldd	r30, Y+1	; 0x01
    30c4:	fa 81       	ldd	r31, Y+2	; 0x02
    30c6:	89 01       	movw	r16, r18
    30c8:	9a 01       	movw	r18, r20
    30ca:	ac 01       	movw	r20, r24
    30cc:	bd 01       	movw	r22, r26
    30ce:	cf 01       	movw	r24, r30
    30d0:	0e 94 13 18 	call	0x3026	; 0x3026 <_ZN15lmx2694_Handler3GCDEmm>
    30d4:	dc 01       	movw	r26, r24
    30d6:	cb 01       	movw	r24, r22
    30d8:	1f c0       	rjmp	.+62     	; 0x3118 <_ZN15lmx2694_Handler3GCDEmm+0xf2>
    30da:	8b 81       	ldd	r24, Y+3	; 0x03
    30dc:	9c 81       	ldd	r25, Y+4	; 0x04
    30de:	ad 81       	ldd	r26, Y+5	; 0x05
    30e0:	be 81       	ldd	r27, Y+6	; 0x06
    30e2:	2f 81       	ldd	r18, Y+7	; 0x07
    30e4:	38 85       	ldd	r19, Y+8	; 0x08
    30e6:	49 85       	ldd	r20, Y+9	; 0x09
    30e8:	5a 85       	ldd	r21, Y+10	; 0x0a
    30ea:	bc 01       	movw	r22, r24
    30ec:	cd 01       	movw	r24, r26
    30ee:	0e 94 54 2c 	call	0x58a8	; 0x58a8 <__udivmodsi4>
    30f2:	dc 01       	movw	r26, r24
    30f4:	cb 01       	movw	r24, r22
    30f6:	9c 01       	movw	r18, r24
    30f8:	ad 01       	movw	r20, r26
    30fa:	8f 81       	ldd	r24, Y+7	; 0x07
    30fc:	98 85       	ldd	r25, Y+8	; 0x08
    30fe:	a9 85       	ldd	r26, Y+9	; 0x09
    3100:	ba 85       	ldd	r27, Y+10	; 0x0a
    3102:	e9 81       	ldd	r30, Y+1	; 0x01
    3104:	fa 81       	ldd	r31, Y+2	; 0x02
    3106:	89 01       	movw	r16, r18
    3108:	9a 01       	movw	r18, r20
    310a:	ac 01       	movw	r20, r24
    310c:	bd 01       	movw	r22, r26
    310e:	cf 01       	movw	r24, r30
    3110:	0e 94 13 18 	call	0x3026	; 0x3026 <_ZN15lmx2694_Handler3GCDEmm>
    3114:	dc 01       	movw	r26, r24
    3116:	cb 01       	movw	r24, r22
    3118:	bc 01       	movw	r22, r24
    311a:	cd 01       	movw	r24, r26
    311c:	2a 96       	adiw	r28, 0x0a	; 10
    311e:	cd bf       	out	0x3d, r28	; 61
    3120:	de bf       	out	0x3e, r29	; 62
    3122:	df 91       	pop	r29
    3124:	cf 91       	pop	r28
    3126:	1f 91       	pop	r17
    3128:	0f 91       	pop	r16
    312a:	08 95       	ret

0000312c <_ZN15lmx2694_Handler20Set_Target_FrequencyEf>:
    312c:	cf 92       	push	r12
    312e:	df 92       	push	r13
    3130:	ef 92       	push	r14
    3132:	ff 92       	push	r15
    3134:	0f 93       	push	r16
    3136:	1f 93       	push	r17
    3138:	cf 93       	push	r28
    313a:	df 93       	push	r29
    313c:	cd b7       	in	r28, 0x3d	; 61
    313e:	de b7       	in	r29, 0x3e	; 62
    3140:	26 97       	sbiw	r28, 0x06	; 6
    3142:	cd bf       	out	0x3d, r28	; 61
    3144:	de bf       	out	0x3e, r29	; 62
    3146:	89 83       	std	Y+1, r24	; 0x01
    3148:	9a 83       	std	Y+2, r25	; 0x02
    314a:	4b 83       	std	Y+3, r20	; 0x03
    314c:	5c 83       	std	Y+4, r21	; 0x04
    314e:	6d 83       	std	Y+5, r22	; 0x05
    3150:	7e 83       	std	Y+6, r23	; 0x06
    3152:	20 e0       	ldi	r18, 0x00	; 0
    3154:	30 ef       	ldi	r19, 0xF0	; 240
    3156:	4b e6       	ldi	r20, 0x6B	; 107
    3158:	56 e4       	ldi	r21, 0x46	; 70
    315a:	6b 81       	ldd	r22, Y+3	; 0x03
    315c:	7c 81       	ldd	r23, Y+4	; 0x04
    315e:	8d 81       	ldd	r24, Y+5	; 0x05
    3160:	9e 81       	ldd	r25, Y+6	; 0x06
    3162:	0e 94 93 26 	call	0x4d26	; 0x4d26 <__gesf2>
    3166:	18 16       	cp	r1, r24
    3168:	64 f4       	brge	.+24     	; 0x3182 <_ZN15lmx2694_Handler20Set_Target_FrequencyEf+0x56>
    316a:	29 81       	ldd	r18, Y+1	; 0x01
    316c:	3a 81       	ldd	r19, Y+2	; 0x02
    316e:	80 e0       	ldi	r24, 0x00	; 0
    3170:	90 ef       	ldi	r25, 0xF0	; 240
    3172:	ab e6       	ldi	r26, 0x6B	; 107
    3174:	b6 e4       	ldi	r27, 0x46	; 70
    3176:	f9 01       	movw	r30, r18
    3178:	82 a7       	std	Z+42, r24	; 0x2a
    317a:	93 a7       	std	Z+43, r25	; 0x2b
    317c:	a4 a7       	std	Z+44, r26	; 0x2c
    317e:	b5 a7       	std	Z+45, r27	; 0x2d
    3180:	32 c1       	rjmp	.+612    	; 0x33e6 <_ZN15lmx2694_Handler20Set_Target_FrequencyEf+0x2ba>
    3182:	20 e0       	ldi	r18, 0x00	; 0
    3184:	30 e0       	ldi	r19, 0x00	; 0
    3186:	48 ec       	ldi	r20, 0xC8	; 200
    3188:	53 e4       	ldi	r21, 0x43	; 67
    318a:	6b 81       	ldd	r22, Y+3	; 0x03
    318c:	7c 81       	ldd	r23, Y+4	; 0x04
    318e:	8d 81       	ldd	r24, Y+5	; 0x05
    3190:	9e 81       	ldd	r25, Y+6	; 0x06
    3192:	0e 94 93 26 	call	0x4d26	; 0x4d26 <__gesf2>
    3196:	18 16       	cp	r1, r24
    3198:	0c f0       	brlt	.+2      	; 0x319c <_ZN15lmx2694_Handler20Set_Target_FrequencyEf+0x70>
    319a:	25 c1       	rjmp	.+586    	; 0x33e6 <_ZN15lmx2694_Handler20Set_Target_FrequencyEf+0x2ba>
    319c:	29 81       	ldd	r18, Y+1	; 0x01
    319e:	3a 81       	ldd	r19, Y+2	; 0x02
    31a0:	8b 81       	ldd	r24, Y+3	; 0x03
    31a2:	9c 81       	ldd	r25, Y+4	; 0x04
    31a4:	ad 81       	ldd	r26, Y+5	; 0x05
    31a6:	be 81       	ldd	r27, Y+6	; 0x06
    31a8:	f9 01       	movw	r30, r18
    31aa:	82 a7       	std	Z+42, r24	; 0x2a
    31ac:	93 a7       	std	Z+43, r25	; 0x2b
    31ae:	a4 a7       	std	Z+44, r26	; 0x2c
    31b0:	b5 a7       	std	Z+45, r27	; 0x2d
    31b2:	20 e0       	ldi	r18, 0x00	; 0
    31b4:	30 ef       	ldi	r19, 0xF0	; 240
    31b6:	4b ee       	ldi	r20, 0xEB	; 235
    31b8:	55 e4       	ldi	r21, 0x45	; 69
    31ba:	6b 81       	ldd	r22, Y+3	; 0x03
    31bc:	7c 81       	ldd	r23, Y+4	; 0x04
    31be:	8d 81       	ldd	r24, Y+5	; 0x05
    31c0:	9e 81       	ldd	r25, Y+6	; 0x06
    31c2:	0e 94 93 26 	call	0x4d26	; 0x4d26 <__gesf2>
    31c6:	18 16       	cp	r1, r24
    31c8:	4c f5       	brge	.+82     	; 0x321c <_ZN15lmx2694_Handler20Set_Target_FrequencyEf+0xf0>
    31ca:	89 81       	ldd	r24, Y+1	; 0x01
    31cc:	9a 81       	ldd	r25, Y+2	; 0x02
    31ce:	fc 01       	movw	r30, r24
    31d0:	80 81       	ld	r24, Z
    31d2:	91 81       	ldd	r25, Z+1	; 0x01
    31d4:	a2 81       	ldd	r26, Z+2	; 0x02
    31d6:	b3 81       	ldd	r27, Z+3	; 0x03
    31d8:	20 e0       	ldi	r18, 0x00	; 0
    31da:	30 ef       	ldi	r19, 0xF0	; 240
    31dc:	4b ee       	ldi	r20, 0xEB	; 235
    31de:	55 e4       	ldi	r21, 0x45	; 69
    31e0:	bc 01       	movw	r22, r24
    31e2:	cd 01       	movw	r24, r26
    31e4:	0e 94 93 26 	call	0x4d26	; 0x4d26 <__gesf2>
    31e8:	18 16       	cp	r1, r24
    31ea:	94 f0       	brlt	.+36     	; 0x3210 <_ZN15lmx2694_Handler20Set_Target_FrequencyEf+0xe4>
    31ec:	89 81       	ldd	r24, Y+1	; 0x01
    31ee:	9a 81       	ldd	r25, Y+2	; 0x02
    31f0:	fc 01       	movw	r30, r24
    31f2:	86 81       	ldd	r24, Z+6	; 0x06
    31f4:	97 81       	ldd	r25, Z+7	; 0x07
    31f6:	84 5a       	subi	r24, 0xA4	; 164
    31f8:	9f 4f       	sbci	r25, 0xFF	; 255
    31fa:	fc 01       	movw	r30, r24
    31fc:	80 81       	ld	r24, Z
    31fe:	91 81       	ldd	r25, Z+1	; 0x01
    3200:	9c 01       	movw	r18, r24
    3202:	21 60       	ori	r18, 0x01	; 1
    3204:	89 81       	ldd	r24, Y+1	; 0x01
    3206:	9a 81       	ldd	r25, Y+2	; 0x02
    3208:	a9 01       	movw	r20, r18
    320a:	6e e2       	ldi	r22, 0x2E	; 46
    320c:	0e 94 8d 20 	call	0x411a	; 0x411a <_ZN15lmx2694_Handler21Write_Single_RegisterEhj>
    3210:	89 81       	ldd	r24, Y+1	; 0x01
    3212:	9a 81       	ldd	r25, Y+2	; 0x02
    3214:	21 e0       	ldi	r18, 0x01	; 1
    3216:	fc 01       	movw	r30, r24
    3218:	21 8f       	std	Z+25, r18	; 0x19
    321a:	67 c0       	rjmp	.+206    	; 0x32ea <_ZN15lmx2694_Handler20Set_Target_FrequencyEf+0x1be>
    321c:	89 81       	ldd	r24, Y+1	; 0x01
    321e:	9a 81       	ldd	r25, Y+2	; 0x02
    3220:	fc 01       	movw	r30, r24
    3222:	80 81       	ld	r24, Z
    3224:	91 81       	ldd	r25, Z+1	; 0x01
    3226:	a2 81       	ldd	r26, Z+2	; 0x02
    3228:	b3 81       	ldd	r27, Z+3	; 0x03
    322a:	20 e0       	ldi	r18, 0x00	; 0
    322c:	30 ef       	ldi	r19, 0xF0	; 240
    322e:	4b ee       	ldi	r20, 0xEB	; 235
    3230:	55 e4       	ldi	r21, 0x45	; 69
    3232:	bc 01       	movw	r22, r24
    3234:	cd 01       	movw	r24, r26
    3236:	0e 94 dc 24 	call	0x49b8	; 0x49b8 <__cmpsf2>
    323a:	88 23       	and	r24, r24
    323c:	94 f0       	brlt	.+36     	; 0x3262 <_ZN15lmx2694_Handler20Set_Target_FrequencyEf+0x136>
    323e:	89 81       	ldd	r24, Y+1	; 0x01
    3240:	9a 81       	ldd	r25, Y+2	; 0x02
    3242:	fc 01       	movw	r30, r24
    3244:	86 81       	ldd	r24, Z+6	; 0x06
    3246:	97 81       	ldd	r25, Z+7	; 0x07
    3248:	84 5a       	subi	r24, 0xA4	; 164
    324a:	9f 4f       	sbci	r25, 0xFF	; 255
    324c:	fc 01       	movw	r30, r24
    324e:	80 81       	ld	r24, Z
    3250:	91 81       	ldd	r25, Z+1	; 0x01
    3252:	9c 01       	movw	r18, r24
    3254:	2c 7f       	andi	r18, 0xFC	; 252
    3256:	89 81       	ldd	r24, Y+1	; 0x01
    3258:	9a 81       	ldd	r25, Y+2	; 0x02
    325a:	a9 01       	movw	r20, r18
    325c:	6e e2       	ldi	r22, 0x2E	; 46
    325e:	0e 94 8d 20 	call	0x411a	; 0x411a <_ZN15lmx2694_Handler21Write_Single_RegisterEhj>
    3262:	89 81       	ldd	r24, Y+1	; 0x01
    3264:	9a 81       	ldd	r25, Y+2	; 0x02
    3266:	fc 01       	movw	r30, r24
    3268:	86 81       	ldd	r24, Z+6	; 0x06
    326a:	97 81       	ldd	r25, Z+7	; 0x07
    326c:	8a 56       	subi	r24, 0x6A	; 106
    326e:	9f 4f       	sbci	r25, 0xFF	; 255
    3270:	fc 01       	movw	r30, r24
    3272:	80 81       	ld	r24, Z
    3274:	91 81       	ldd	r25, Z+1	; 0x01
    3276:	9c 01       	movw	r18, r24
    3278:	2f 73       	andi	r18, 0x3F	; 63
    327a:	38 7f       	andi	r19, 0xF8	; 248
    327c:	89 81       	ldd	r24, Y+1	; 0x01
    327e:	9a 81       	ldd	r25, Y+2	; 0x02
    3280:	fc 01       	movw	r30, r24
    3282:	24 8b       	std	Z+20, r18	; 0x14
    3284:	35 8b       	std	Z+21, r19	; 0x15
    3286:	89 81       	ldd	r24, Y+1	; 0x01
    3288:	9a 81       	ldd	r25, Y+2	; 0x02
    328a:	fc 01       	movw	r30, r24
    328c:	04 89       	ldd	r16, Z+20	; 0x14
    328e:	15 89       	ldd	r17, Z+21	; 0x15
    3290:	89 81       	ldd	r24, Y+1	; 0x01
    3292:	9a 81       	ldd	r25, Y+2	; 0x02
    3294:	0e 94 76 1a 	call	0x34ec	; 0x34ec <_ZN15lmx2694_Handler28Choose_Channel_Divider_IndexEv>
    3298:	88 2f       	mov	r24, r24
    329a:	90 e0       	ldi	r25, 0x00	; 0
    329c:	00 24       	eor	r0, r0
    329e:	96 95       	lsr	r25
    32a0:	87 95       	ror	r24
    32a2:	07 94       	ror	r0
    32a4:	96 95       	lsr	r25
    32a6:	87 95       	ror	r24
    32a8:	07 94       	ror	r0
    32aa:	98 2f       	mov	r25, r24
    32ac:	80 2d       	mov	r24, r0
    32ae:	98 01       	movw	r18, r16
    32b0:	28 2b       	or	r18, r24
    32b2:	39 2b       	or	r19, r25
    32b4:	89 81       	ldd	r24, Y+1	; 0x01
    32b6:	9a 81       	ldd	r25, Y+2	; 0x02
    32b8:	a9 01       	movw	r20, r18
    32ba:	6b e4       	ldi	r22, 0x4B	; 75
    32bc:	0e 94 8d 20 	call	0x411a	; 0x411a <_ZN15lmx2694_Handler21Write_Single_RegisterEhj>
    32c0:	89 81       	ldd	r24, Y+1	; 0x01
    32c2:	9a 81       	ldd	r25, Y+2	; 0x02
    32c4:	fc 01       	movw	r30, r24
    32c6:	81 8d       	ldd	r24, Z+25	; 0x19
    32c8:	83 30       	cpi	r24, 0x03	; 3
    32ca:	40 f0       	brcs	.+16     	; 0x32dc <_ZN15lmx2694_Handler20Set_Target_FrequencyEf+0x1b0>
    32cc:	89 81       	ldd	r24, Y+1	; 0x01
    32ce:	9a 81       	ldd	r25, Y+2	; 0x02
    32d0:	4c ee       	ldi	r20, 0xEC	; 236
    32d2:	53 e4       	ldi	r21, 0x43	; 67
    32d4:	6f e1       	ldi	r22, 0x1F	; 31
    32d6:	0e 94 8d 20 	call	0x411a	; 0x411a <_ZN15lmx2694_Handler21Write_Single_RegisterEhj>
    32da:	07 c0       	rjmp	.+14     	; 0x32ea <_ZN15lmx2694_Handler20Set_Target_FrequencyEf+0x1be>
    32dc:	89 81       	ldd	r24, Y+1	; 0x01
    32de:	9a 81       	ldd	r25, Y+2	; 0x02
    32e0:	4c ee       	ldi	r20, 0xEC	; 236
    32e2:	53 e0       	ldi	r21, 0x03	; 3
    32e4:	6f e1       	ldi	r22, 0x1F	; 31
    32e6:	0e 94 8d 20 	call	0x411a	; 0x411a <_ZN15lmx2694_Handler21Write_Single_RegisterEhj>
    32ea:	89 81       	ldd	r24, Y+1	; 0x01
    32ec:	9a 81       	ldd	r25, Y+2	; 0x02
    32ee:	fc 01       	movw	r30, r24
    32f0:	81 8d       	ldd	r24, Z+25	; 0x19
    32f2:	88 2f       	mov	r24, r24
    32f4:	90 e0       	ldi	r25, 0x00	; 0
    32f6:	09 2e       	mov	r0, r25
    32f8:	00 0c       	add	r0, r0
    32fa:	aa 0b       	sbc	r26, r26
    32fc:	bb 0b       	sbc	r27, r27
    32fe:	bc 01       	movw	r22, r24
    3300:	cd 01       	movw	r24, r26
    3302:	0e 94 8b 25 	call	0x4b16	; 0x4b16 <__floatsisf>
    3306:	dc 01       	movw	r26, r24
    3308:	cb 01       	movw	r24, r22
    330a:	2b 81       	ldd	r18, Y+3	; 0x03
    330c:	3c 81       	ldd	r19, Y+4	; 0x04
    330e:	4d 81       	ldd	r20, Y+5	; 0x05
    3310:	5e 81       	ldd	r21, Y+6	; 0x06
    3312:	bc 01       	movw	r22, r24
    3314:	cd 01       	movw	r24, r26
    3316:	0e 94 e8 26 	call	0x4dd0	; 0x4dd0 <__mulsf3>
    331a:	dc 01       	movw	r26, r24
    331c:	cb 01       	movw	r24, r22
    331e:	20 e0       	ldi	r18, 0x00	; 0
    3320:	30 e0       	ldi	r19, 0x00	; 0
    3322:	48 e4       	ldi	r20, 0x48	; 72
    3324:	53 e4       	ldi	r21, 0x43	; 67
    3326:	bc 01       	movw	r22, r24
    3328:	cd 01       	movw	r24, r26
    332a:	0e 94 e1 24 	call	0x49c2	; 0x49c2 <__divsf3>
    332e:	dc 01       	movw	r26, r24
    3330:	cb 01       	movw	r24, r22
    3332:	29 81       	ldd	r18, Y+1	; 0x01
    3334:	3a 81       	ldd	r19, Y+2	; 0x02
    3336:	f9 01       	movw	r30, r18
    3338:	82 ab       	std	Z+50, r24	; 0x32
    333a:	93 ab       	std	Z+51, r25	; 0x33
    333c:	a4 ab       	std	Z+52, r26	; 0x34
    333e:	b5 ab       	std	Z+53, r27	; 0x35
    3340:	89 81       	ldd	r24, Y+1	; 0x01
    3342:	9a 81       	ldd	r25, Y+2	; 0x02
    3344:	fc 01       	movw	r30, r24
    3346:	82 a9       	ldd	r24, Z+50	; 0x32
    3348:	93 a9       	ldd	r25, Z+51	; 0x33
    334a:	a4 a9       	ldd	r26, Z+52	; 0x34
    334c:	b5 a9       	ldd	r27, Z+53	; 0x35
    334e:	bc 01       	movw	r22, r24
    3350:	cd 01       	movw	r24, r26
    3352:	0e 94 c6 25 	call	0x4b8c	; 0x4b8c <floor>
    3356:	dc 01       	movw	r26, r24
    3358:	cb 01       	movw	r24, r22
    335a:	bc 01       	movw	r22, r24
    335c:	cd 01       	movw	r24, r26
    335e:	0e 94 5a 25 	call	0x4ab4	; 0x4ab4 <__fixunssfsi>
    3362:	dc 01       	movw	r26, r24
    3364:	cb 01       	movw	r24, r22
    3366:	29 81       	ldd	r18, Y+1	; 0x01
    3368:	3a 81       	ldd	r19, Y+2	; 0x02
    336a:	f9 01       	movw	r30, r18
    336c:	82 8f       	std	Z+26, r24	; 0x1a
    336e:	93 8f       	std	Z+27, r25	; 0x1b
    3370:	a4 8f       	std	Z+28, r26	; 0x1c
    3372:	b5 8f       	std	Z+29, r27	; 0x1d
    3374:	89 81       	ldd	r24, Y+1	; 0x01
    3376:	9a 81       	ldd	r25, Y+2	; 0x02
    3378:	fc 01       	movw	r30, r24
    337a:	c2 a8       	ldd	r12, Z+50	; 0x32
    337c:	d3 a8       	ldd	r13, Z+51	; 0x33
    337e:	e4 a8       	ldd	r14, Z+52	; 0x34
    3380:	f5 a8       	ldd	r15, Z+53	; 0x35
    3382:	89 81       	ldd	r24, Y+1	; 0x01
    3384:	9a 81       	ldd	r25, Y+2	; 0x02
    3386:	fc 01       	movw	r30, r24
    3388:	82 8d       	ldd	r24, Z+26	; 0x1a
    338a:	93 8d       	ldd	r25, Z+27	; 0x1b
    338c:	a4 8d       	ldd	r26, Z+28	; 0x1c
    338e:	b5 8d       	ldd	r27, Z+29	; 0x1d
    3390:	bc 01       	movw	r22, r24
    3392:	cd 01       	movw	r24, r26
    3394:	0e 94 89 25 	call	0x4b12	; 0x4b12 <__floatunsisf>
    3398:	dc 01       	movw	r26, r24
    339a:	cb 01       	movw	r24, r22
    339c:	9c 01       	movw	r18, r24
    339e:	ad 01       	movw	r20, r26
    33a0:	c7 01       	movw	r24, r14
    33a2:	b6 01       	movw	r22, r12
    33a4:	0e 94 6f 24 	call	0x48de	; 0x48de <__subsf3>
    33a8:	dc 01       	movw	r26, r24
    33aa:	cb 01       	movw	r24, r22
    33ac:	29 81       	ldd	r18, Y+1	; 0x01
    33ae:	3a 81       	ldd	r19, Y+2	; 0x02
    33b0:	f9 01       	movw	r30, r18
    33b2:	86 ab       	std	Z+54, r24	; 0x36
    33b4:	97 ab       	std	Z+55, r25	; 0x37
    33b6:	a0 af       	std	Z+56, r26	; 0x38
    33b8:	b1 af       	std	Z+57, r27	; 0x39
    33ba:	89 81       	ldd	r24, Y+1	; 0x01
    33bc:	9a 81       	ldd	r25, Y+2	; 0x02
    33be:	fc 01       	movw	r30, r24
    33c0:	86 a9       	ldd	r24, Z+54	; 0x36
    33c2:	97 a9       	ldd	r25, Z+55	; 0x37
    33c4:	a0 ad       	ldd	r26, Z+56	; 0x38
    33c6:	b1 ad       	ldd	r27, Z+57	; 0x39
    33c8:	29 81       	ldd	r18, Y+1	; 0x01
    33ca:	3a 81       	ldd	r19, Y+2	; 0x02
    33cc:	ac 01       	movw	r20, r24
    33ce:	bd 01       	movw	r22, r26
    33d0:	c9 01       	movw	r24, r18
    33d2:	0e 94 01 1c 	call	0x3802	; 0x3802 <_ZN15lmx2694_Handler18Calculate_FractionEf>
    33d6:	89 81       	ldd	r24, Y+1	; 0x01
    33d8:	9a 81       	ldd	r25, Y+2	; 0x02
    33da:	0e 94 08 1a 	call	0x3410	; 0x3410 <_ZN15lmx2694_Handler24Write_Division_RegistersEv>
    33de:	89 81       	ldd	r24, Y+1	; 0x01
    33e0:	9a 81       	ldd	r25, Y+2	; 0x02
    33e2:	0e 94 2b 1d 	call	0x3a56	; 0x3a56 <_ZN15lmx2694_Handler14Toggle_FCAL_ENEv>
    33e6:	89 81       	ldd	r24, Y+1	; 0x01
    33e8:	9a 81       	ldd	r25, Y+2	; 0x02
    33ea:	fc 01       	movw	r30, r24
    33ec:	86 a9       	ldd	r24, Z+54	; 0x36
    33ee:	97 a9       	ldd	r25, Z+55	; 0x37
    33f0:	a0 ad       	ldd	r26, Z+56	; 0x38
    33f2:	b1 ad       	ldd	r27, Z+57	; 0x39
    33f4:	bc 01       	movw	r22, r24
    33f6:	cd 01       	movw	r24, r26
    33f8:	26 96       	adiw	r28, 0x06	; 6
    33fa:	cd bf       	out	0x3d, r28	; 61
    33fc:	de bf       	out	0x3e, r29	; 62
    33fe:	df 91       	pop	r29
    3400:	cf 91       	pop	r28
    3402:	1f 91       	pop	r17
    3404:	0f 91       	pop	r16
    3406:	ff 90       	pop	r15
    3408:	ef 90       	pop	r14
    340a:	df 90       	pop	r13
    340c:	cf 90       	pop	r12
    340e:	08 95       	ret

00003410 <_ZN15lmx2694_Handler24Write_Division_RegistersEv>:
    3410:	cf 93       	push	r28
    3412:	df 93       	push	r29
    3414:	00 d0       	rcall	.+0      	; 0x3416 <_ZN15lmx2694_Handler24Write_Division_RegistersEv+0x6>
    3416:	cd b7       	in	r28, 0x3d	; 61
    3418:	de b7       	in	r29, 0x3e	; 62
    341a:	89 83       	std	Y+1, r24	; 0x01
    341c:	9a 83       	std	Y+2, r25	; 0x02
    341e:	89 81       	ldd	r24, Y+1	; 0x01
    3420:	9a 81       	ldd	r25, Y+2	; 0x02
    3422:	fc 01       	movw	r30, r24
    3424:	86 8d       	ldd	r24, Z+30	; 0x1e
    3426:	97 8d       	ldd	r25, Z+31	; 0x1f
    3428:	a0 a1       	ldd	r26, Z+32	; 0x20
    342a:	b1 a1       	ldd	r27, Z+33	; 0x21
    342c:	9c 01       	movw	r18, r24
    342e:	89 81       	ldd	r24, Y+1	; 0x01
    3430:	9a 81       	ldd	r25, Y+2	; 0x02
    3432:	a9 01       	movw	r20, r18
    3434:	6b e2       	ldi	r22, 0x2B	; 43
    3436:	0e 94 8d 20 	call	0x411a	; 0x411a <_ZN15lmx2694_Handler21Write_Single_RegisterEhj>
    343a:	89 81       	ldd	r24, Y+1	; 0x01
    343c:	9a 81       	ldd	r25, Y+2	; 0x02
    343e:	fc 01       	movw	r30, r24
    3440:	86 8d       	ldd	r24, Z+30	; 0x1e
    3442:	97 8d       	ldd	r25, Z+31	; 0x1f
    3444:	a0 a1       	ldd	r26, Z+32	; 0x20
    3446:	b1 a1       	ldd	r27, Z+33	; 0x21
    3448:	cd 01       	movw	r24, r26
    344a:	aa 27       	eor	r26, r26
    344c:	bb 27       	eor	r27, r27
    344e:	9c 01       	movw	r18, r24
    3450:	89 81       	ldd	r24, Y+1	; 0x01
    3452:	9a 81       	ldd	r25, Y+2	; 0x02
    3454:	a9 01       	movw	r20, r18
    3456:	6a e2       	ldi	r22, 0x2A	; 42
    3458:	0e 94 8d 20 	call	0x411a	; 0x411a <_ZN15lmx2694_Handler21Write_Single_RegisterEhj>
    345c:	89 81       	ldd	r24, Y+1	; 0x01
    345e:	9a 81       	ldd	r25, Y+2	; 0x02
    3460:	fc 01       	movw	r30, r24
    3462:	82 a1       	ldd	r24, Z+34	; 0x22
    3464:	93 a1       	ldd	r25, Z+35	; 0x23
    3466:	a4 a1       	ldd	r26, Z+36	; 0x24
    3468:	b5 a1       	ldd	r27, Z+37	; 0x25
    346a:	9c 01       	movw	r18, r24
    346c:	89 81       	ldd	r24, Y+1	; 0x01
    346e:	9a 81       	ldd	r25, Y+2	; 0x02
    3470:	a9 01       	movw	r20, r18
    3472:	67 e2       	ldi	r22, 0x27	; 39
    3474:	0e 94 8d 20 	call	0x411a	; 0x411a <_ZN15lmx2694_Handler21Write_Single_RegisterEhj>
    3478:	89 81       	ldd	r24, Y+1	; 0x01
    347a:	9a 81       	ldd	r25, Y+2	; 0x02
    347c:	fc 01       	movw	r30, r24
    347e:	82 a1       	ldd	r24, Z+34	; 0x22
    3480:	93 a1       	ldd	r25, Z+35	; 0x23
    3482:	a4 a1       	ldd	r26, Z+36	; 0x24
    3484:	b5 a1       	ldd	r27, Z+37	; 0x25
    3486:	cd 01       	movw	r24, r26
    3488:	aa 27       	eor	r26, r26
    348a:	bb 27       	eor	r27, r27
    348c:	9c 01       	movw	r18, r24
    348e:	89 81       	ldd	r24, Y+1	; 0x01
    3490:	9a 81       	ldd	r25, Y+2	; 0x02
    3492:	a9 01       	movw	r20, r18
    3494:	66 e2       	ldi	r22, 0x26	; 38
    3496:	0e 94 8d 20 	call	0x411a	; 0x411a <_ZN15lmx2694_Handler21Write_Single_RegisterEhj>
    349a:	89 81       	ldd	r24, Y+1	; 0x01
    349c:	9a 81       	ldd	r25, Y+2	; 0x02
    349e:	0e 94 99 1b 	call	0x3732	; 0x3732 <_ZN15lmx2694_Handler19Program_PFD_DLY_SELEv>
    34a2:	89 81       	ldd	r24, Y+1	; 0x01
    34a4:	9a 81       	ldd	r25, Y+2	; 0x02
    34a6:	fc 01       	movw	r30, r24
    34a8:	82 8d       	ldd	r24, Z+26	; 0x1a
    34aa:	93 8d       	ldd	r25, Z+27	; 0x1b
    34ac:	a4 8d       	ldd	r26, Z+28	; 0x1c
    34ae:	b5 8d       	ldd	r27, Z+29	; 0x1d
    34b0:	9c 01       	movw	r18, r24
    34b2:	89 81       	ldd	r24, Y+1	; 0x01
    34b4:	9a 81       	ldd	r25, Y+2	; 0x02
    34b6:	a9 01       	movw	r20, r18
    34b8:	64 e2       	ldi	r22, 0x24	; 36
    34ba:	0e 94 8d 20 	call	0x411a	; 0x411a <_ZN15lmx2694_Handler21Write_Single_RegisterEhj>
    34be:	89 81       	ldd	r24, Y+1	; 0x01
    34c0:	9a 81       	ldd	r25, Y+2	; 0x02
    34c2:	fc 01       	movw	r30, r24
    34c4:	82 8d       	ldd	r24, Z+26	; 0x1a
    34c6:	93 8d       	ldd	r25, Z+27	; 0x1b
    34c8:	a4 8d       	ldd	r26, Z+28	; 0x1c
    34ca:	b5 8d       	ldd	r27, Z+29	; 0x1d
    34cc:	cd 01       	movw	r24, r26
    34ce:	aa 27       	eor	r26, r26
    34d0:	bb 27       	eor	r27, r27
    34d2:	9c 01       	movw	r18, r24
    34d4:	89 81       	ldd	r24, Y+1	; 0x01
    34d6:	9a 81       	ldd	r25, Y+2	; 0x02
    34d8:	a9 01       	movw	r20, r18
    34da:	62 e2       	ldi	r22, 0x22	; 34
    34dc:	0e 94 8d 20 	call	0x411a	; 0x411a <_ZN15lmx2694_Handler21Write_Single_RegisterEhj>
    34e0:	00 00       	nop
    34e2:	0f 90       	pop	r0
    34e4:	0f 90       	pop	r0
    34e6:	df 91       	pop	r29
    34e8:	cf 91       	pop	r28
    34ea:	08 95       	ret

000034ec <_ZN15lmx2694_Handler28Choose_Channel_Divider_IndexEv>:
    34ec:	ef 92       	push	r14
    34ee:	ff 92       	push	r15
    34f0:	0f 93       	push	r16
    34f2:	1f 93       	push	r17
    34f4:	cf 93       	push	r28
    34f6:	df 93       	push	r29
    34f8:	00 d0       	rcall	.+0      	; 0x34fa <_ZN15lmx2694_Handler28Choose_Channel_Divider_IndexEv+0xe>
    34fa:	00 d0       	rcall	.+0      	; 0x34fc <_ZN15lmx2694_Handler28Choose_Channel_Divider_IndexEv+0x10>
    34fc:	cd b7       	in	r28, 0x3d	; 61
    34fe:	de b7       	in	r29, 0x3e	; 62
    3500:	8b 83       	std	Y+3, r24	; 0x03
    3502:	9c 83       	std	Y+4, r25	; 0x04
    3504:	19 82       	std	Y+1, r1	; 0x01
    3506:	1a 82       	std	Y+2, r1	; 0x02
    3508:	89 81       	ldd	r24, Y+1	; 0x01
    350a:	9a 81       	ldd	r25, Y+2	; 0x02
    350c:	0e 97       	sbiw	r24, 0x0e	; 14
    350e:	0c f0       	brlt	.+2      	; 0x3512 <_ZN15lmx2694_Handler28Choose_Channel_Divider_IndexEv+0x26>
    3510:	75 c0       	rjmp	.+234    	; 0x35fc <_ZN15lmx2694_Handler28Choose_Channel_Divider_IndexEv+0x110>
    3512:	89 81       	ldd	r24, Y+1	; 0x01
    3514:	9a 81       	ldd	r25, Y+2	; 0x02
    3516:	03 97       	sbiw	r24, 0x03	; 3
    3518:	dc f5       	brge	.+118    	; 0x3590 <_ZN15lmx2694_Handler28Choose_Channel_Divider_IndexEv+0xa4>
    351a:	89 81       	ldd	r24, Y+1	; 0x01
    351c:	9a 81       	ldd	r25, Y+2	; 0x02
    351e:	88 0f       	add	r24, r24
    3520:	99 1f       	adc	r25, r25
    3522:	83 54       	subi	r24, 0x43	; 67
    3524:	9e 4b       	sbci	r25, 0xBE	; 190
    3526:	fc 01       	movw	r30, r24
    3528:	20 81       	ld	r18, Z
    352a:	31 81       	ldd	r19, Z+1	; 0x01
    352c:	8c ef       	ldi	r24, 0xFC	; 252
    352e:	9a e3       	ldi	r25, 0x3A	; 58
    3530:	b9 01       	movw	r22, r18
    3532:	0e 94 40 2c 	call	0x5880	; 0x5880 <__divmodhi4>
    3536:	cb 01       	movw	r24, r22
    3538:	09 2e       	mov	r0, r25
    353a:	00 0c       	add	r0, r0
    353c:	aa 0b       	sbc	r26, r26
    353e:	bb 0b       	sbc	r27, r27
    3540:	bc 01       	movw	r22, r24
    3542:	cd 01       	movw	r24, r26
    3544:	0e 94 8b 25 	call	0x4b16	; 0x4b16 <__floatsisf>
    3548:	7b 01       	movw	r14, r22
    354a:	8c 01       	movw	r16, r24
    354c:	8b 81       	ldd	r24, Y+3	; 0x03
    354e:	9c 81       	ldd	r25, Y+4	; 0x04
    3550:	fc 01       	movw	r30, r24
    3552:	82 a5       	ldd	r24, Z+42	; 0x2a
    3554:	93 a5       	ldd	r25, Z+43	; 0x2b
    3556:	a4 a5       	ldd	r26, Z+44	; 0x2c
    3558:	b5 a5       	ldd	r27, Z+45	; 0x2d
    355a:	9c 01       	movw	r18, r24
    355c:	ad 01       	movw	r20, r26
    355e:	c8 01       	movw	r24, r16
    3560:	b7 01       	movw	r22, r14
    3562:	0e 94 93 26 	call	0x4d26	; 0x4d26 <__gesf2>
    3566:	18 16       	cp	r1, r24
    3568:	0c f4       	brge	.+2      	; 0x356c <_ZN15lmx2694_Handler28Choose_Channel_Divider_IndexEv+0x80>
    356a:	42 c0       	rjmp	.+132    	; 0x35f0 <_ZN15lmx2694_Handler28Choose_Channel_Divider_IndexEv+0x104>
    356c:	89 81       	ldd	r24, Y+1	; 0x01
    356e:	9a 81       	ldd	r25, Y+2	; 0x02
    3570:	18 16       	cp	r1, r24
    3572:	19 06       	cpc	r1, r25
    3574:	44 f4       	brge	.+16     	; 0x3586 <_ZN15lmx2694_Handler28Choose_Channel_Divider_IndexEv+0x9a>
    3576:	89 81       	ldd	r24, Y+1	; 0x01
    3578:	2f ef       	ldi	r18, 0xFF	; 255
    357a:	28 0f       	add	r18, r24
    357c:	8b 81       	ldd	r24, Y+3	; 0x03
    357e:	9c 81       	ldd	r25, Y+4	; 0x04
    3580:	fc 01       	movw	r30, r24
    3582:	27 8b       	std	Z+23, r18	; 0x17
    3584:	3b c0       	rjmp	.+118    	; 0x35fc <_ZN15lmx2694_Handler28Choose_Channel_Divider_IndexEv+0x110>
    3586:	8b 81       	ldd	r24, Y+3	; 0x03
    3588:	9c 81       	ldd	r25, Y+4	; 0x04
    358a:	fc 01       	movw	r30, r24
    358c:	17 8a       	std	Z+23, r1	; 0x17
    358e:	36 c0       	rjmp	.+108    	; 0x35fc <_ZN15lmx2694_Handler28Choose_Channel_Divider_IndexEv+0x110>
    3590:	89 81       	ldd	r24, Y+1	; 0x01
    3592:	9a 81       	ldd	r25, Y+2	; 0x02
    3594:	88 0f       	add	r24, r24
    3596:	99 1f       	adc	r25, r25
    3598:	83 54       	subi	r24, 0x43	; 67
    359a:	9e 4b       	sbci	r25, 0xBE	; 190
    359c:	fc 01       	movw	r30, r24
    359e:	20 81       	ld	r18, Z
    35a0:	31 81       	ldd	r19, Z+1	; 0x01
    35a2:	8c ee       	ldi	r24, 0xEC	; 236
    35a4:	9c e2       	ldi	r25, 0x2C	; 44
    35a6:	b9 01       	movw	r22, r18
    35a8:	0e 94 40 2c 	call	0x5880	; 0x5880 <__divmodhi4>
    35ac:	cb 01       	movw	r24, r22
    35ae:	09 2e       	mov	r0, r25
    35b0:	00 0c       	add	r0, r0
    35b2:	aa 0b       	sbc	r26, r26
    35b4:	bb 0b       	sbc	r27, r27
    35b6:	bc 01       	movw	r22, r24
    35b8:	cd 01       	movw	r24, r26
    35ba:	0e 94 8b 25 	call	0x4b16	; 0x4b16 <__floatsisf>
    35be:	7b 01       	movw	r14, r22
    35c0:	8c 01       	movw	r16, r24
    35c2:	8b 81       	ldd	r24, Y+3	; 0x03
    35c4:	9c 81       	ldd	r25, Y+4	; 0x04
    35c6:	fc 01       	movw	r30, r24
    35c8:	82 a5       	ldd	r24, Z+42	; 0x2a
    35ca:	93 a5       	ldd	r25, Z+43	; 0x2b
    35cc:	a4 a5       	ldd	r26, Z+44	; 0x2c
    35ce:	b5 a5       	ldd	r27, Z+45	; 0x2d
    35d0:	9c 01       	movw	r18, r24
    35d2:	ad 01       	movw	r20, r26
    35d4:	c8 01       	movw	r24, r16
    35d6:	b7 01       	movw	r22, r14
    35d8:	0e 94 93 26 	call	0x4d26	; 0x4d26 <__gesf2>
    35dc:	18 16       	cp	r1, r24
    35de:	44 f0       	brlt	.+16     	; 0x35f0 <_ZN15lmx2694_Handler28Choose_Channel_Divider_IndexEv+0x104>
    35e0:	89 81       	ldd	r24, Y+1	; 0x01
    35e2:	2f ef       	ldi	r18, 0xFF	; 255
    35e4:	28 0f       	add	r18, r24
    35e6:	8b 81       	ldd	r24, Y+3	; 0x03
    35e8:	9c 81       	ldd	r25, Y+4	; 0x04
    35ea:	fc 01       	movw	r30, r24
    35ec:	27 8b       	std	Z+23, r18	; 0x17
    35ee:	06 c0       	rjmp	.+12     	; 0x35fc <_ZN15lmx2694_Handler28Choose_Channel_Divider_IndexEv+0x110>
    35f0:	89 81       	ldd	r24, Y+1	; 0x01
    35f2:	9a 81       	ldd	r25, Y+2	; 0x02
    35f4:	01 96       	adiw	r24, 0x01	; 1
    35f6:	89 83       	std	Y+1, r24	; 0x01
    35f8:	9a 83       	std	Y+2, r25	; 0x02
    35fa:	86 cf       	rjmp	.-244    	; 0x3508 <_ZN15lmx2694_Handler28Choose_Channel_Divider_IndexEv+0x1c>
    35fc:	8b 81       	ldd	r24, Y+3	; 0x03
    35fe:	9c 81       	ldd	r25, Y+4	; 0x04
    3600:	fc 01       	movw	r30, r24
    3602:	87 89       	ldd	r24, Z+23	; 0x17
    3604:	88 2f       	mov	r24, r24
    3606:	90 e0       	ldi	r25, 0x00	; 0
    3608:	88 0f       	add	r24, r24
    360a:	99 1f       	adc	r25, r25
    360c:	83 54       	subi	r24, 0x43	; 67
    360e:	9e 4b       	sbci	r25, 0xBE	; 190
    3610:	fc 01       	movw	r30, r24
    3612:	80 81       	ld	r24, Z
    3614:	91 81       	ldd	r25, Z+1	; 0x01
    3616:	28 2f       	mov	r18, r24
    3618:	8b 81       	ldd	r24, Y+3	; 0x03
    361a:	9c 81       	ldd	r25, Y+4	; 0x04
    361c:	fc 01       	movw	r30, r24
    361e:	21 8f       	std	Z+25, r18	; 0x19
    3620:	8b 81       	ldd	r24, Y+3	; 0x03
    3622:	9c 81       	ldd	r25, Y+4	; 0x04
    3624:	fc 01       	movw	r30, r24
    3626:	87 89       	ldd	r24, Z+23	; 0x17
    3628:	24 96       	adiw	r28, 0x04	; 4
    362a:	cd bf       	out	0x3d, r28	; 61
    362c:	de bf       	out	0x3e, r29	; 62
    362e:	df 91       	pop	r29
    3630:	cf 91       	pop	r28
    3632:	1f 91       	pop	r17
    3634:	0f 91       	pop	r16
    3636:	ff 90       	pop	r15
    3638:	ef 90       	pop	r14
    363a:	08 95       	ret

0000363c <_ZN15lmx2694_Handler19Program_PFD_DLY_SELEf>:
    363c:	cf 93       	push	r28
    363e:	df 93       	push	r29
    3640:	cd b7       	in	r28, 0x3d	; 61
    3642:	de b7       	in	r29, 0x3e	; 62
    3644:	26 97       	sbiw	r28, 0x06	; 6
    3646:	cd bf       	out	0x3d, r28	; 61
    3648:	de bf       	out	0x3e, r29	; 62
    364a:	89 83       	std	Y+1, r24	; 0x01
    364c:	9a 83       	std	Y+2, r25	; 0x02
    364e:	4b 83       	std	Y+3, r20	; 0x03
    3650:	5c 83       	std	Y+4, r21	; 0x04
    3652:	6d 83       	std	Y+5, r22	; 0x05
    3654:	7e 83       	std	Y+6, r23	; 0x06
    3656:	89 81       	ldd	r24, Y+1	; 0x01
    3658:	9a 81       	ldd	r25, Y+2	; 0x02
    365a:	fc 01       	movw	r30, r24
    365c:	80 8d       	ldd	r24, Z+24	; 0x18
    365e:	88 23       	and	r24, r24
    3660:	09 f4       	brne	.+2      	; 0x3664 <_ZN15lmx2694_Handler19Program_PFD_DLY_SELEf+0x28>
    3662:	57 c0       	rjmp	.+174    	; 0x3712 <_ZN15lmx2694_Handler19Program_PFD_DLY_SELEf+0xd6>
    3664:	89 81       	ldd	r24, Y+1	; 0x01
    3666:	9a 81       	ldd	r25, Y+2	; 0x02
    3668:	fc 01       	movw	r30, r24
    366a:	80 8d       	ldd	r24, Z+24	; 0x18
    366c:	88 2f       	mov	r24, r24
    366e:	90 e0       	ldi	r25, 0x00	; 0
    3670:	00 97       	sbiw	r24, 0x00	; 0
    3672:	19 f0       	breq	.+6      	; 0x367a <_ZN15lmx2694_Handler19Program_PFD_DLY_SELEf+0x3e>
    3674:	01 97       	sbiw	r24, 0x01	; 1
    3676:	e9 f0       	breq	.+58     	; 0x36b2 <_ZN15lmx2694_Handler19Program_PFD_DLY_SELEf+0x76>
    3678:	4c c0       	rjmp	.+152    	; 0x3712 <_ZN15lmx2694_Handler19Program_PFD_DLY_SELEf+0xd6>
    367a:	20 e0       	ldi	r18, 0x00	; 0
    367c:	30 e5       	ldi	r19, 0x50	; 80
    367e:	43 e4       	ldi	r20, 0x43	; 67
    3680:	56 e4       	ldi	r21, 0x46	; 70
    3682:	6b 81       	ldd	r22, Y+3	; 0x03
    3684:	7c 81       	ldd	r23, Y+4	; 0x04
    3686:	8d 81       	ldd	r24, Y+5	; 0x05
    3688:	9e 81       	ldd	r25, Y+6	; 0x06
    368a:	0e 94 93 26 	call	0x4d26	; 0x4d26 <__gesf2>
    368e:	18 16       	cp	r1, r24
    3690:	44 f4       	brge	.+16     	; 0x36a2 <_ZN15lmx2694_Handler19Program_PFD_DLY_SELEf+0x66>
    3692:	89 81       	ldd	r24, Y+1	; 0x01
    3694:	9a 81       	ldd	r25, Y+2	; 0x02
    3696:	44 e0       	ldi	r20, 0x04	; 4
    3698:	52 e8       	ldi	r21, 0x82	; 130
    369a:	65 e2       	ldi	r22, 0x25	; 37
    369c:	0e 94 8d 20 	call	0x411a	; 0x411a <_ZN15lmx2694_Handler21Write_Single_RegisterEhj>
    36a0:	38 c0       	rjmp	.+112    	; 0x3712 <_ZN15lmx2694_Handler19Program_PFD_DLY_SELEf+0xd6>
    36a2:	89 81       	ldd	r24, Y+1	; 0x01
    36a4:	9a 81       	ldd	r25, Y+2	; 0x02
    36a6:	44 e0       	ldi	r20, 0x04	; 4
    36a8:	51 e8       	ldi	r21, 0x81	; 129
    36aa:	65 e2       	ldi	r22, 0x25	; 37
    36ac:	0e 94 8d 20 	call	0x411a	; 0x411a <_ZN15lmx2694_Handler21Write_Single_RegisterEhj>
    36b0:	30 c0       	rjmp	.+96     	; 0x3712 <_ZN15lmx2694_Handler19Program_PFD_DLY_SELEf+0xd6>
    36b2:	20 e0       	ldi	r18, 0x00	; 0
    36b4:	30 e5       	ldi	r19, 0x50	; 80
    36b6:	43 e4       	ldi	r20, 0x43	; 67
    36b8:	56 e4       	ldi	r21, 0x46	; 70
    36ba:	6b 81       	ldd	r22, Y+3	; 0x03
    36bc:	7c 81       	ldd	r23, Y+4	; 0x04
    36be:	8d 81       	ldd	r24, Y+5	; 0x05
    36c0:	9e 81       	ldd	r25, Y+6	; 0x06
    36c2:	0e 94 93 26 	call	0x4d26	; 0x4d26 <__gesf2>
    36c6:	18 16       	cp	r1, r24
    36c8:	44 f4       	brge	.+16     	; 0x36da <_ZN15lmx2694_Handler19Program_PFD_DLY_SELEf+0x9e>
    36ca:	89 81       	ldd	r24, Y+1	; 0x01
    36cc:	9a 81       	ldd	r25, Y+2	; 0x02
    36ce:	44 e0       	ldi	r20, 0x04	; 4
    36d0:	53 e8       	ldi	r21, 0x83	; 131
    36d2:	65 e2       	ldi	r22, 0x25	; 37
    36d4:	0e 94 8d 20 	call	0x411a	; 0x411a <_ZN15lmx2694_Handler21Write_Single_RegisterEhj>
    36d8:	1b c0       	rjmp	.+54     	; 0x3710 <_ZN15lmx2694_Handler19Program_PFD_DLY_SELEf+0xd4>
    36da:	20 e0       	ldi	r18, 0x00	; 0
    36dc:	30 e4       	ldi	r19, 0x40	; 64
    36de:	4c e1       	ldi	r20, 0x1C	; 28
    36e0:	56 e4       	ldi	r21, 0x46	; 70
    36e2:	6b 81       	ldd	r22, Y+3	; 0x03
    36e4:	7c 81       	ldd	r23, Y+4	; 0x04
    36e6:	8d 81       	ldd	r24, Y+5	; 0x05
    36e8:	9e 81       	ldd	r25, Y+6	; 0x06
    36ea:	0e 94 93 26 	call	0x4d26	; 0x4d26 <__gesf2>
    36ee:	18 16       	cp	r1, r24
    36f0:	44 f4       	brge	.+16     	; 0x3702 <_ZN15lmx2694_Handler19Program_PFD_DLY_SELEf+0xc6>
    36f2:	89 81       	ldd	r24, Y+1	; 0x01
    36f4:	9a 81       	ldd	r25, Y+2	; 0x02
    36f6:	44 e0       	ldi	r20, 0x04	; 4
    36f8:	52 e8       	ldi	r21, 0x82	; 130
    36fa:	65 e2       	ldi	r22, 0x25	; 37
    36fc:	0e 94 8d 20 	call	0x411a	; 0x411a <_ZN15lmx2694_Handler21Write_Single_RegisterEhj>
    3700:	07 c0       	rjmp	.+14     	; 0x3710 <_ZN15lmx2694_Handler19Program_PFD_DLY_SELEf+0xd4>
    3702:	89 81       	ldd	r24, Y+1	; 0x01
    3704:	9a 81       	ldd	r25, Y+2	; 0x02
    3706:	44 e0       	ldi	r20, 0x04	; 4
    3708:	51 e8       	ldi	r21, 0x81	; 129
    370a:	65 e2       	ldi	r22, 0x25	; 37
    370c:	0e 94 8d 20 	call	0x411a	; 0x411a <_ZN15lmx2694_Handler21Write_Single_RegisterEhj>
    3710:	00 00       	nop
    3712:	89 81       	ldd	r24, Y+1	; 0x01
    3714:	9a 81       	ldd	r25, Y+2	; 0x02
    3716:	fc 01       	movw	r30, r24
    3718:	86 81       	ldd	r24, Z+6	; 0x06
    371a:	97 81       	ldd	r25, Z+7	; 0x07
    371c:	86 5b       	subi	r24, 0xB6	; 182
    371e:	9f 4f       	sbci	r25, 0xFF	; 255
    3720:	fc 01       	movw	r30, r24
    3722:	80 81       	ld	r24, Z
    3724:	91 81       	ldd	r25, Z+1	; 0x01
    3726:	26 96       	adiw	r28, 0x06	; 6
    3728:	cd bf       	out	0x3d, r28	; 61
    372a:	de bf       	out	0x3e, r29	; 62
    372c:	df 91       	pop	r29
    372e:	cf 91       	pop	r28
    3730:	08 95       	ret

00003732 <_ZN15lmx2694_Handler19Program_PFD_DLY_SELEv>:
    3732:	cf 92       	push	r12
    3734:	df 92       	push	r13
    3736:	ef 92       	push	r14
    3738:	ff 92       	push	r15
    373a:	cf 93       	push	r28
    373c:	df 93       	push	r29
    373e:	00 d0       	rcall	.+0      	; 0x3740 <_ZN15lmx2694_Handler19Program_PFD_DLY_SELEv+0xe>
    3740:	cd b7       	in	r28, 0x3d	; 61
    3742:	de b7       	in	r29, 0x3e	; 62
    3744:	89 83       	std	Y+1, r24	; 0x01
    3746:	9a 83       	std	Y+2, r25	; 0x02
    3748:	89 81       	ldd	r24, Y+1	; 0x01
    374a:	9a 81       	ldd	r25, Y+2	; 0x02
    374c:	fc 01       	movw	r30, r24
    374e:	82 a5       	ldd	r24, Z+42	; 0x2a
    3750:	93 a5       	ldd	r25, Z+43	; 0x2b
    3752:	a4 a5       	ldd	r26, Z+44	; 0x2c
    3754:	b5 a5       	ldd	r27, Z+45	; 0x2d
    3756:	20 e0       	ldi	r18, 0x00	; 0
    3758:	30 ef       	ldi	r19, 0xF0	; 240
    375a:	4b ee       	ldi	r20, 0xEB	; 235
    375c:	55 e4       	ldi	r21, 0x45	; 69
    375e:	bc 01       	movw	r22, r24
    3760:	cd 01       	movw	r24, r26
    3762:	0e 94 93 26 	call	0x4d26	; 0x4d26 <__gesf2>
    3766:	18 16       	cp	r1, r24
    3768:	7c f4       	brge	.+30     	; 0x3788 <_ZN15lmx2694_Handler19Program_PFD_DLY_SELEv+0x56>
    376a:	89 81       	ldd	r24, Y+1	; 0x01
    376c:	9a 81       	ldd	r25, Y+2	; 0x02
    376e:	fc 01       	movw	r30, r24
    3770:	82 a5       	ldd	r24, Z+42	; 0x2a
    3772:	93 a5       	ldd	r25, Z+43	; 0x2b
    3774:	a4 a5       	ldd	r26, Z+44	; 0x2c
    3776:	b5 a5       	ldd	r27, Z+45	; 0x2d
    3778:	29 81       	ldd	r18, Y+1	; 0x01
    377a:	3a 81       	ldd	r19, Y+2	; 0x02
    377c:	f9 01       	movw	r30, r18
    377e:	86 a7       	std	Z+46, r24	; 0x2e
    3780:	97 a7       	std	Z+47, r25	; 0x2f
    3782:	a0 ab       	std	Z+48, r26	; 0x30
    3784:	b1 ab       	std	Z+49, r27	; 0x31
    3786:	25 c0       	rjmp	.+74     	; 0x37d2 <_ZN15lmx2694_Handler19Program_PFD_DLY_SELEv+0xa0>
    3788:	89 81       	ldd	r24, Y+1	; 0x01
    378a:	9a 81       	ldd	r25, Y+2	; 0x02
    378c:	fc 01       	movw	r30, r24
    378e:	c2 a4       	ldd	r12, Z+42	; 0x2a
    3790:	d3 a4       	ldd	r13, Z+43	; 0x2b
    3792:	e4 a4       	ldd	r14, Z+44	; 0x2c
    3794:	f5 a4       	ldd	r15, Z+45	; 0x2d
    3796:	89 81       	ldd	r24, Y+1	; 0x01
    3798:	9a 81       	ldd	r25, Y+2	; 0x02
    379a:	60 e0       	ldi	r22, 0x00	; 0
    379c:	0e 94 89 16 	call	0x2d12	; 0x2d12 <_ZN15lmx2694_Handler25Get_Channel_Divider_ValueEb>
    37a0:	09 2e       	mov	r0, r25
    37a2:	00 0c       	add	r0, r0
    37a4:	aa 0b       	sbc	r26, r26
    37a6:	bb 0b       	sbc	r27, r27
    37a8:	bc 01       	movw	r22, r24
    37aa:	cd 01       	movw	r24, r26
    37ac:	0e 94 8b 25 	call	0x4b16	; 0x4b16 <__floatsisf>
    37b0:	dc 01       	movw	r26, r24
    37b2:	cb 01       	movw	r24, r22
    37b4:	9c 01       	movw	r18, r24
    37b6:	ad 01       	movw	r20, r26
    37b8:	c7 01       	movw	r24, r14
    37ba:	b6 01       	movw	r22, r12
    37bc:	0e 94 e8 26 	call	0x4dd0	; 0x4dd0 <__mulsf3>
    37c0:	dc 01       	movw	r26, r24
    37c2:	cb 01       	movw	r24, r22
    37c4:	29 81       	ldd	r18, Y+1	; 0x01
    37c6:	3a 81       	ldd	r19, Y+2	; 0x02
    37c8:	f9 01       	movw	r30, r18
    37ca:	86 a7       	std	Z+46, r24	; 0x2e
    37cc:	97 a7       	std	Z+47, r25	; 0x2f
    37ce:	a0 ab       	std	Z+48, r26	; 0x30
    37d0:	b1 ab       	std	Z+49, r27	; 0x31
    37d2:	89 81       	ldd	r24, Y+1	; 0x01
    37d4:	9a 81       	ldd	r25, Y+2	; 0x02
    37d6:	fc 01       	movw	r30, r24
    37d8:	86 a5       	ldd	r24, Z+46	; 0x2e
    37da:	97 a5       	ldd	r25, Z+47	; 0x2f
    37dc:	a0 a9       	ldd	r26, Z+48	; 0x30
    37de:	b1 a9       	ldd	r27, Z+49	; 0x31
    37e0:	29 81       	ldd	r18, Y+1	; 0x01
    37e2:	3a 81       	ldd	r19, Y+2	; 0x02
    37e4:	ac 01       	movw	r20, r24
    37e6:	bd 01       	movw	r22, r26
    37e8:	c9 01       	movw	r24, r18
    37ea:	0e 94 1e 1b 	call	0x363c	; 0x363c <_ZN15lmx2694_Handler19Program_PFD_DLY_SELEf>
    37ee:	00 00       	nop
    37f0:	0f 90       	pop	r0
    37f2:	0f 90       	pop	r0
    37f4:	df 91       	pop	r29
    37f6:	cf 91       	pop	r28
    37f8:	ff 90       	pop	r15
    37fa:	ef 90       	pop	r14
    37fc:	df 90       	pop	r13
    37fe:	cf 90       	pop	r12
    3800:	08 95       	ret

00003802 <_ZN15lmx2694_Handler18Calculate_FractionEf>:
    3802:	cf 92       	push	r12
    3804:	df 92       	push	r13
    3806:	ef 92       	push	r14
    3808:	ff 92       	push	r15
    380a:	0f 93       	push	r16
    380c:	1f 93       	push	r17
    380e:	cf 93       	push	r28
    3810:	df 93       	push	r29
    3812:	cd b7       	in	r28, 0x3d	; 61
    3814:	de b7       	in	r29, 0x3e	; 62
    3816:	26 97       	sbiw	r28, 0x06	; 6
    3818:	cd bf       	out	0x3d, r28	; 61
    381a:	de bf       	out	0x3e, r29	; 62
    381c:	89 83       	std	Y+1, r24	; 0x01
    381e:	9a 83       	std	Y+2, r25	; 0x02
    3820:	4b 83       	std	Y+3, r20	; 0x03
    3822:	5c 83       	std	Y+4, r21	; 0x04
    3824:	6d 83       	std	Y+5, r22	; 0x05
    3826:	7e 83       	std	Y+6, r23	; 0x06
    3828:	20 e0       	ldi	r18, 0x00	; 0
    382a:	30 e0       	ldi	r19, 0x00	; 0
    382c:	40 e8       	ldi	r20, 0x80	; 128
    382e:	5f e4       	ldi	r21, 0x4F	; 79
    3830:	6b 81       	ldd	r22, Y+3	; 0x03
    3832:	7c 81       	ldd	r23, Y+4	; 0x04
    3834:	8d 81       	ldd	r24, Y+5	; 0x05
    3836:	9e 81       	ldd	r25, Y+6	; 0x06
    3838:	0e 94 e8 26 	call	0x4dd0	; 0x4dd0 <__mulsf3>
    383c:	dc 01       	movw	r26, r24
    383e:	cb 01       	movw	r24, r22
    3840:	bc 01       	movw	r22, r24
    3842:	cd 01       	movw	r24, r26
    3844:	0e 94 a5 27 	call	0x4f4a	; 0x4f4a <round>
    3848:	dc 01       	movw	r26, r24
    384a:	cb 01       	movw	r24, r22
    384c:	bc 01       	movw	r22, r24
    384e:	cd 01       	movw	r24, r26
    3850:	0e 94 5a 25 	call	0x4ab4	; 0x4ab4 <__fixunssfsi>
    3854:	ab 01       	movw	r20, r22
    3856:	bc 01       	movw	r22, r24
    3858:	89 81       	ldd	r24, Y+1	; 0x01
    385a:	9a 81       	ldd	r25, Y+2	; 0x02
    385c:	0f ef       	ldi	r16, 0xFF	; 255
    385e:	1f ef       	ldi	r17, 0xFF	; 255
    3860:	98 01       	movw	r18, r16
    3862:	0e 94 13 18 	call	0x3026	; 0x3026 <_ZN15lmx2694_Handler3GCDEmm>
    3866:	dc 01       	movw	r26, r24
    3868:	cb 01       	movw	r24, r22
    386a:	29 81       	ldd	r18, Y+1	; 0x01
    386c:	3a 81       	ldd	r19, Y+2	; 0x02
    386e:	f9 01       	movw	r30, r18
    3870:	86 a3       	std	Z+38, r24	; 0x26
    3872:	97 a3       	std	Z+39, r25	; 0x27
    3874:	a0 a7       	std	Z+40, r26	; 0x28
    3876:	b1 a7       	std	Z+41, r27	; 0x29
    3878:	20 e0       	ldi	r18, 0x00	; 0
    387a:	30 e0       	ldi	r19, 0x00	; 0
    387c:	40 e8       	ldi	r20, 0x80	; 128
    387e:	5f e4       	ldi	r21, 0x4F	; 79
    3880:	6b 81       	ldd	r22, Y+3	; 0x03
    3882:	7c 81       	ldd	r23, Y+4	; 0x04
    3884:	8d 81       	ldd	r24, Y+5	; 0x05
    3886:	9e 81       	ldd	r25, Y+6	; 0x06
    3888:	0e 94 e8 26 	call	0x4dd0	; 0x4dd0 <__mulsf3>
    388c:	dc 01       	movw	r26, r24
    388e:	cb 01       	movw	r24, r22
    3890:	bc 01       	movw	r22, r24
    3892:	cd 01       	movw	r24, r26
    3894:	0e 94 a5 27 	call	0x4f4a	; 0x4f4a <round>
    3898:	6b 01       	movw	r12, r22
    389a:	7c 01       	movw	r14, r24
    389c:	89 81       	ldd	r24, Y+1	; 0x01
    389e:	9a 81       	ldd	r25, Y+2	; 0x02
    38a0:	fc 01       	movw	r30, r24
    38a2:	86 a1       	ldd	r24, Z+38	; 0x26
    38a4:	97 a1       	ldd	r25, Z+39	; 0x27
    38a6:	a0 a5       	ldd	r26, Z+40	; 0x28
    38a8:	b1 a5       	ldd	r27, Z+41	; 0x29
    38aa:	bc 01       	movw	r22, r24
    38ac:	cd 01       	movw	r24, r26
    38ae:	0e 94 89 25 	call	0x4b12	; 0x4b12 <__floatunsisf>
    38b2:	dc 01       	movw	r26, r24
    38b4:	cb 01       	movw	r24, r22
    38b6:	9c 01       	movw	r18, r24
    38b8:	ad 01       	movw	r20, r26
    38ba:	c7 01       	movw	r24, r14
    38bc:	b6 01       	movw	r22, r12
    38be:	0e 94 e1 24 	call	0x49c2	; 0x49c2 <__divsf3>
    38c2:	dc 01       	movw	r26, r24
    38c4:	cb 01       	movw	r24, r22
    38c6:	bc 01       	movw	r22, r24
    38c8:	cd 01       	movw	r24, r26
    38ca:	0e 94 5a 25 	call	0x4ab4	; 0x4ab4 <__fixunssfsi>
    38ce:	dc 01       	movw	r26, r24
    38d0:	cb 01       	movw	r24, r22
    38d2:	29 81       	ldd	r18, Y+1	; 0x01
    38d4:	3a 81       	ldd	r19, Y+2	; 0x02
    38d6:	f9 01       	movw	r30, r18
    38d8:	86 8f       	std	Z+30, r24	; 0x1e
    38da:	97 8f       	std	Z+31, r25	; 0x1f
    38dc:	a0 a3       	std	Z+32, r26	; 0x20
    38de:	b1 a3       	std	Z+33, r27	; 0x21
    38e0:	89 81       	ldd	r24, Y+1	; 0x01
    38e2:	9a 81       	ldd	r25, Y+2	; 0x02
    38e4:	fc 01       	movw	r30, r24
    38e6:	26 a1       	ldd	r18, Z+38	; 0x26
    38e8:	37 a1       	ldd	r19, Z+39	; 0x27
    38ea:	40 a5       	ldd	r20, Z+40	; 0x28
    38ec:	51 a5       	ldd	r21, Z+41	; 0x29
    38ee:	8f ef       	ldi	r24, 0xFF	; 255
    38f0:	9f ef       	ldi	r25, 0xFF	; 255
    38f2:	dc 01       	movw	r26, r24
    38f4:	bc 01       	movw	r22, r24
    38f6:	cd 01       	movw	r24, r26
    38f8:	0e 94 54 2c 	call	0x58a8	; 0x58a8 <__udivmodsi4>
    38fc:	da 01       	movw	r26, r20
    38fe:	c9 01       	movw	r24, r18
    3900:	29 81       	ldd	r18, Y+1	; 0x01
    3902:	3a 81       	ldd	r19, Y+2	; 0x02
    3904:	f9 01       	movw	r30, r18
    3906:	82 a3       	std	Z+34, r24	; 0x22
    3908:	93 a3       	std	Z+35, r25	; 0x23
    390a:	a4 a3       	std	Z+36, r26	; 0x24
    390c:	b5 a3       	std	Z+37, r27	; 0x25
    390e:	00 00       	nop
    3910:	26 96       	adiw	r28, 0x06	; 6
    3912:	cd bf       	out	0x3d, r28	; 61
    3914:	de bf       	out	0x3e, r29	; 62
    3916:	df 91       	pop	r29
    3918:	cf 91       	pop	r28
    391a:	1f 91       	pop	r17
    391c:	0f 91       	pop	r16
    391e:	ff 90       	pop	r15
    3920:	ef 90       	pop	r14
    3922:	df 90       	pop	r13
    3924:	cf 90       	pop	r12
    3926:	08 95       	ret

00003928 <_ZN15lmx2694_Handler10Power_DownEv>:
    3928:	cf 93       	push	r28
    392a:	df 93       	push	r29
    392c:	00 d0       	rcall	.+0      	; 0x392e <_ZN15lmx2694_Handler10Power_DownEv+0x6>
    392e:	cd b7       	in	r28, 0x3d	; 61
    3930:	de b7       	in	r29, 0x3e	; 62
    3932:	89 83       	std	Y+1, r24	; 0x01
    3934:	9a 83       	std	Y+2, r25	; 0x02
    3936:	89 81       	ldd	r24, Y+1	; 0x01
    3938:	9a 81       	ldd	r25, Y+2	; 0x02
    393a:	fc 01       	movw	r30, r24
    393c:	80 85       	ldd	r24, Z+8	; 0x08
    393e:	91 85       	ldd	r25, Z+9	; 0x09
    3940:	60 e0       	ldi	r22, 0x00	; 0
    3942:	0e 94 11 23 	call	0x4622	; 0x4622 <_ZN13SPI_Syn_Class5SetCSEb>
    3946:	89 81       	ldd	r24, Y+1	; 0x01
    3948:	9a 81       	ldd	r25, Y+2	; 0x02
    394a:	49 e1       	ldi	r20, 0x19	; 25
    394c:	51 e2       	ldi	r21, 0x21	; 33
    394e:	60 e0       	ldi	r22, 0x00	; 0
    3950:	70 e0       	ldi	r23, 0x00	; 0
    3952:	0e 94 a6 1f 	call	0x3f4c	; 0x3f4c <_ZN15lmx2694_Handler15Get_Three_BytesEm>
    3956:	89 81       	ldd	r24, Y+1	; 0x01
    3958:	9a 81       	ldd	r25, Y+2	; 0x02
    395a:	9c 01       	movw	r18, r24
    395c:	26 5f       	subi	r18, 0xF6	; 246
    395e:	3f 4f       	sbci	r19, 0xFF	; 255
    3960:	89 81       	ldd	r24, Y+1	; 0x01
    3962:	9a 81       	ldd	r25, Y+2	; 0x02
    3964:	fc 01       	movw	r30, r24
    3966:	80 85       	ldd	r24, Z+8	; 0x08
    3968:	91 85       	ldd	r25, Z+9	; 0x09
    396a:	43 e0       	ldi	r20, 0x03	; 3
    396c:	b9 01       	movw	r22, r18
    396e:	0e 94 d9 22 	call	0x45b2	; 0x45b2 <_ZN13SPI_Syn_Class5WriteEPKhh>
    3972:	28 2f       	mov	r18, r24
    3974:	30 e0       	ldi	r19, 0x00	; 0
    3976:	89 81       	ldd	r24, Y+1	; 0x01
    3978:	9a 81       	ldd	r25, Y+2	; 0x02
    397a:	fc 01       	movw	r30, r24
    397c:	22 8b       	std	Z+18, r18	; 0x12
    397e:	33 8b       	std	Z+19, r19	; 0x13
    3980:	89 81       	ldd	r24, Y+1	; 0x01
    3982:	9a 81       	ldd	r25, Y+2	; 0x02
    3984:	fc 01       	movw	r30, r24
    3986:	82 89       	ldd	r24, Z+18	; 0x12
    3988:	93 89       	ldd	r25, Z+19	; 0x13
    398a:	21 e0       	ldi	r18, 0x01	; 1
    398c:	18 16       	cp	r1, r24
    398e:	19 06       	cpc	r1, r25
    3990:	0c f0       	brlt	.+2      	; 0x3994 <_ZN15lmx2694_Handler10Power_DownEv+0x6c>
    3992:	20 e0       	ldi	r18, 0x00	; 0
    3994:	89 81       	ldd	r24, Y+1	; 0x01
    3996:	9a 81       	ldd	r25, Y+2	; 0x02
    3998:	fc 01       	movw	r30, r24
    399a:	20 8b       	std	Z+16, r18	; 0x10
    399c:	89 81       	ldd	r24, Y+1	; 0x01
    399e:	9a 81       	ldd	r25, Y+2	; 0x02
    39a0:	fc 01       	movw	r30, r24
    39a2:	80 85       	ldd	r24, Z+8	; 0x08
    39a4:	91 85       	ldd	r25, Z+9	; 0x09
    39a6:	61 e0       	ldi	r22, 0x01	; 1
    39a8:	0e 94 11 23 	call	0x4622	; 0x4622 <_ZN13SPI_Syn_Class5SetCSEb>
    39ac:	89 81       	ldd	r24, Y+1	; 0x01
    39ae:	9a 81       	ldd	r25, Y+2	; 0x02
    39b0:	fc 01       	movw	r30, r24
    39b2:	80 89       	ldd	r24, Z+16	; 0x10
    39b4:	0f 90       	pop	r0
    39b6:	0f 90       	pop	r0
    39b8:	df 91       	pop	r29
    39ba:	cf 91       	pop	r28
    39bc:	08 95       	ret

000039be <_ZN15lmx2694_Handler13Write_FCAL_ENEb>:
    39be:	cf 93       	push	r28
    39c0:	df 93       	push	r29
    39c2:	00 d0       	rcall	.+0      	; 0x39c4 <_ZN15lmx2694_Handler13Write_FCAL_ENEb+0x6>
    39c4:	1f 92       	push	r1
    39c6:	cd b7       	in	r28, 0x3d	; 61
    39c8:	de b7       	in	r29, 0x3e	; 62
    39ca:	89 83       	std	Y+1, r24	; 0x01
    39cc:	9a 83       	std	Y+2, r25	; 0x02
    39ce:	6b 83       	std	Y+3, r22	; 0x03
    39d0:	8b 81       	ldd	r24, Y+3	; 0x03
    39d2:	88 23       	and	r24, r24
    39d4:	81 f0       	breq	.+32     	; 0x39f6 <_ZN15lmx2694_Handler13Write_FCAL_ENEb+0x38>
    39d6:	89 81       	ldd	r24, Y+1	; 0x01
    39d8:	9a 81       	ldd	r25, Y+2	; 0x02
    39da:	fc 01       	movw	r30, r24
    39dc:	86 81       	ldd	r24, Z+6	; 0x06
    39de:	97 81       	ldd	r25, Z+7	; 0x07
    39e0:	fc 01       	movw	r30, r24
    39e2:	80 81       	ld	r24, Z
    39e4:	91 81       	ldd	r25, Z+1	; 0x01
    39e6:	9c 01       	movw	r18, r24
    39e8:	28 60       	ori	r18, 0x08	; 8
    39ea:	89 81       	ldd	r24, Y+1	; 0x01
    39ec:	9a 81       	ldd	r25, Y+2	; 0x02
    39ee:	fc 01       	movw	r30, r24
    39f0:	24 8b       	std	Z+20, r18	; 0x14
    39f2:	35 8b       	std	Z+21, r19	; 0x15
    39f4:	0f c0       	rjmp	.+30     	; 0x3a14 <_ZN15lmx2694_Handler13Write_FCAL_ENEb+0x56>
    39f6:	89 81       	ldd	r24, Y+1	; 0x01
    39f8:	9a 81       	ldd	r25, Y+2	; 0x02
    39fa:	fc 01       	movw	r30, r24
    39fc:	86 81       	ldd	r24, Z+6	; 0x06
    39fe:	97 81       	ldd	r25, Z+7	; 0x07
    3a00:	fc 01       	movw	r30, r24
    3a02:	80 81       	ld	r24, Z
    3a04:	91 81       	ldd	r25, Z+1	; 0x01
    3a06:	9c 01       	movw	r18, r24
    3a08:	27 7f       	andi	r18, 0xF7	; 247
    3a0a:	89 81       	ldd	r24, Y+1	; 0x01
    3a0c:	9a 81       	ldd	r25, Y+2	; 0x02
    3a0e:	fc 01       	movw	r30, r24
    3a10:	24 8b       	std	Z+20, r18	; 0x14
    3a12:	35 8b       	std	Z+21, r19	; 0x15
    3a14:	89 81       	ldd	r24, Y+1	; 0x01
    3a16:	9a 81       	ldd	r25, Y+2	; 0x02
    3a18:	fc 01       	movw	r30, r24
    3a1a:	24 89       	ldd	r18, Z+20	; 0x14
    3a1c:	35 89       	ldd	r19, Z+21	; 0x15
    3a1e:	89 81       	ldd	r24, Y+1	; 0x01
    3a20:	9a 81       	ldd	r25, Y+2	; 0x02
    3a22:	a9 01       	movw	r20, r18
    3a24:	60 e0       	ldi	r22, 0x00	; 0
    3a26:	0e 94 8d 20 	call	0x411a	; 0x411a <_ZN15lmx2694_Handler21Write_Single_RegisterEhj>
    3a2a:	9c 01       	movw	r18, r24
    3a2c:	89 81       	ldd	r24, Y+1	; 0x01
    3a2e:	9a 81       	ldd	r25, Y+2	; 0x02
    3a30:	fc 01       	movw	r30, r24
    3a32:	22 8b       	std	Z+18, r18	; 0x12
    3a34:	33 8b       	std	Z+19, r19	; 0x13
    3a36:	89 81       	ldd	r24, Y+1	; 0x01
    3a38:	9a 81       	ldd	r25, Y+2	; 0x02
    3a3a:	fc 01       	movw	r30, r24
    3a3c:	82 89       	ldd	r24, Z+18	; 0x12
    3a3e:	93 89       	ldd	r25, Z+19	; 0x13
    3a40:	21 e0       	ldi	r18, 0x01	; 1
    3a42:	89 2b       	or	r24, r25
    3a44:	09 f4       	brne	.+2      	; 0x3a48 <_ZN15lmx2694_Handler13Write_FCAL_ENEb+0x8a>
    3a46:	20 e0       	ldi	r18, 0x00	; 0
    3a48:	82 2f       	mov	r24, r18
    3a4a:	23 96       	adiw	r28, 0x03	; 3
    3a4c:	cd bf       	out	0x3d, r28	; 61
    3a4e:	de bf       	out	0x3e, r29	; 62
    3a50:	df 91       	pop	r29
    3a52:	cf 91       	pop	r28
    3a54:	08 95       	ret

00003a56 <_ZN15lmx2694_Handler14Toggle_FCAL_ENEv>:
    3a56:	cf 93       	push	r28
    3a58:	df 93       	push	r29
    3a5a:	cd b7       	in	r28, 0x3d	; 61
    3a5c:	de b7       	in	r29, 0x3e	; 62
    3a5e:	a2 97       	sbiw	r28, 0x22	; 34
    3a60:	cd bf       	out	0x3d, r28	; 61
    3a62:	de bf       	out	0x3e, r29	; 62
    3a64:	89 a3       	std	Y+33, r24	; 0x21
    3a66:	9a a3       	std	Y+34, r25	; 0x22
    3a68:	89 a1       	ldd	r24, Y+33	; 0x21
    3a6a:	9a a1       	ldd	r25, Y+34	; 0x22
    3a6c:	60 e0       	ldi	r22, 0x00	; 0
    3a6e:	0e 94 df 1c 	call	0x39be	; 0x39be <_ZN15lmx2694_Handler13Write_FCAL_ENEb>
    3a72:	80 e0       	ldi	r24, 0x00	; 0
    3a74:	90 e0       	ldi	r25, 0x00	; 0
    3a76:	a8 ec       	ldi	r26, 0xC8	; 200
    3a78:	b2 e4       	ldi	r27, 0x42	; 66
    3a7a:	89 83       	std	Y+1, r24	; 0x01
    3a7c:	9a 83       	std	Y+2, r25	; 0x02
    3a7e:	ab 83       	std	Y+3, r26	; 0x03
    3a80:	bc 83       	std	Y+4, r27	; 0x04
    3a82:	20 e0       	ldi	r18, 0x00	; 0
    3a84:	30 e0       	ldi	r19, 0x00	; 0
    3a86:	40 e0       	ldi	r20, 0x00	; 0
    3a88:	51 e4       	ldi	r21, 0x41	; 65
    3a8a:	69 81       	ldd	r22, Y+1	; 0x01
    3a8c:	7a 81       	ldd	r23, Y+2	; 0x02
    3a8e:	8b 81       	ldd	r24, Y+3	; 0x03
    3a90:	9c 81       	ldd	r25, Y+4	; 0x04
    3a92:	0e 94 e8 26 	call	0x4dd0	; 0x4dd0 <__mulsf3>
    3a96:	dc 01       	movw	r26, r24
    3a98:	cb 01       	movw	r24, r22
    3a9a:	8d 83       	std	Y+5, r24	; 0x05
    3a9c:	9e 83       	std	Y+6, r25	; 0x06
    3a9e:	af 83       	std	Y+7, r26	; 0x07
    3aa0:	b8 87       	std	Y+8, r27	; 0x08
    3aa2:	20 e0       	ldi	r18, 0x00	; 0
    3aa4:	30 e0       	ldi	r19, 0x00	; 0
    3aa6:	40 ec       	ldi	r20, 0xC0	; 192
    3aa8:	50 e4       	ldi	r21, 0x40	; 64
    3aaa:	69 81       	ldd	r22, Y+1	; 0x01
    3aac:	7a 81       	ldd	r23, Y+2	; 0x02
    3aae:	8b 81       	ldd	r24, Y+3	; 0x03
    3ab0:	9c 81       	ldd	r25, Y+4	; 0x04
    3ab2:	0e 94 e8 26 	call	0x4dd0	; 0x4dd0 <__mulsf3>
    3ab6:	dc 01       	movw	r26, r24
    3ab8:	cb 01       	movw	r24, r22
    3aba:	89 87       	std	Y+9, r24	; 0x09
    3abc:	9a 87       	std	Y+10, r25	; 0x0a
    3abe:	ab 87       	std	Y+11, r26	; 0x0b
    3ac0:	bc 87       	std	Y+12, r27	; 0x0c
    3ac2:	20 e0       	ldi	r18, 0x00	; 0
    3ac4:	30 e0       	ldi	r19, 0x00	; 0
    3ac6:	40 e8       	ldi	r20, 0x80	; 128
    3ac8:	5f e3       	ldi	r21, 0x3F	; 63
    3aca:	6d 81       	ldd	r22, Y+5	; 0x05
    3acc:	7e 81       	ldd	r23, Y+6	; 0x06
    3ace:	8f 81       	ldd	r24, Y+7	; 0x07
    3ad0:	98 85       	ldd	r25, Y+8	; 0x08
    3ad2:	0e 94 dc 24 	call	0x49b8	; 0x49b8 <__cmpsf2>
    3ad6:	88 23       	and	r24, r24
    3ad8:	1c f4       	brge	.+6      	; 0x3ae0 <_ZN15lmx2694_Handler14Toggle_FCAL_ENEv+0x8a>
    3ada:	81 e0       	ldi	r24, 0x01	; 1
    3adc:	8d 87       	std	Y+13, r24	; 0x0d
    3ade:	b2 c0       	rjmp	.+356    	; 0x3c44 <_ZN15lmx2694_Handler14Toggle_FCAL_ENEv+0x1ee>
    3ae0:	20 e0       	ldi	r18, 0x00	; 0
    3ae2:	3f ef       	ldi	r19, 0xFF	; 255
    3ae4:	4f e7       	ldi	r20, 0x7F	; 127
    3ae6:	57 e4       	ldi	r21, 0x47	; 71
    3ae8:	69 85       	ldd	r22, Y+9	; 0x09
    3aea:	7a 85       	ldd	r23, Y+10	; 0x0a
    3aec:	8b 85       	ldd	r24, Y+11	; 0x0b
    3aee:	9c 85       	ldd	r25, Y+12	; 0x0c
    3af0:	0e 94 93 26 	call	0x4d26	; 0x4d26 <__gesf2>
    3af4:	18 16       	cp	r1, r24
    3af6:	0c f0       	brlt	.+2      	; 0x3afa <_ZN15lmx2694_Handler14Toggle_FCAL_ENEv+0xa4>
    3af8:	7b c0       	rjmp	.+246    	; 0x3bf0 <_ZN15lmx2694_Handler14Toggle_FCAL_ENEv+0x19a>
    3afa:	20 e0       	ldi	r18, 0x00	; 0
    3afc:	30 e0       	ldi	r19, 0x00	; 0
    3afe:	4a e7       	ldi	r20, 0x7A	; 122
    3b00:	54 e4       	ldi	r21, 0x44	; 68
    3b02:	69 81       	ldd	r22, Y+1	; 0x01
    3b04:	7a 81       	ldd	r23, Y+2	; 0x02
    3b06:	8b 81       	ldd	r24, Y+3	; 0x03
    3b08:	9c 81       	ldd	r25, Y+4	; 0x04
    3b0a:	0e 94 e1 24 	call	0x49c2	; 0x49c2 <__divsf3>
    3b0e:	dc 01       	movw	r26, r24
    3b10:	cb 01       	movw	r24, r22
    3b12:	8e 87       	std	Y+14, r24	; 0x0e
    3b14:	9f 87       	std	Y+15, r25	; 0x0f
    3b16:	a8 8b       	std	Y+16, r26	; 0x10
    3b18:	b9 8b       	std	Y+17, r27	; 0x11
    3b1a:	20 e0       	ldi	r18, 0x00	; 0
    3b1c:	30 e8       	ldi	r19, 0x80	; 128
    3b1e:	4b eb       	ldi	r20, 0xBB	; 187
    3b20:	55 e4       	ldi	r21, 0x45	; 69
    3b22:	6e 85       	ldd	r22, Y+14	; 0x0e
    3b24:	7f 85       	ldd	r23, Y+15	; 0x0f
    3b26:	88 89       	ldd	r24, Y+16	; 0x10
    3b28:	99 89       	ldd	r25, Y+17	; 0x11
    3b2a:	0e 94 e8 26 	call	0x4dd0	; 0x4dd0 <__mulsf3>
    3b2e:	dc 01       	movw	r26, r24
    3b30:	cb 01       	movw	r24, r22
    3b32:	8a 8b       	std	Y+18, r24	; 0x12
    3b34:	9b 8b       	std	Y+19, r25	; 0x13
    3b36:	ac 8b       	std	Y+20, r26	; 0x14
    3b38:	bd 8b       	std	Y+21, r27	; 0x15
    3b3a:	20 e0       	ldi	r18, 0x00	; 0
    3b3c:	30 e0       	ldi	r19, 0x00	; 0
    3b3e:	40 e8       	ldi	r20, 0x80	; 128
    3b40:	5f e3       	ldi	r21, 0x3F	; 63
    3b42:	6a 89       	ldd	r22, Y+18	; 0x12
    3b44:	7b 89       	ldd	r23, Y+19	; 0x13
    3b46:	8c 89       	ldd	r24, Y+20	; 0x14
    3b48:	9d 89       	ldd	r25, Y+21	; 0x15
    3b4a:	0e 94 dc 24 	call	0x49b8	; 0x49b8 <__cmpsf2>
    3b4e:	88 23       	and	r24, r24
    3b50:	2c f4       	brge	.+10     	; 0x3b5c <_ZN15lmx2694_Handler14Toggle_FCAL_ENEv+0x106>
    3b52:	81 e0       	ldi	r24, 0x01	; 1
    3b54:	90 e0       	ldi	r25, 0x00	; 0
    3b56:	8e 8b       	std	Y+22, r24	; 0x16
    3b58:	9f 8b       	std	Y+23, r25	; 0x17
    3b5a:	3f c0       	rjmp	.+126    	; 0x3bda <_ZN15lmx2694_Handler14Toggle_FCAL_ENEv+0x184>
    3b5c:	20 e0       	ldi	r18, 0x00	; 0
    3b5e:	3f ef       	ldi	r19, 0xFF	; 255
    3b60:	4f e7       	ldi	r20, 0x7F	; 127
    3b62:	57 e4       	ldi	r21, 0x47	; 71
    3b64:	6a 89       	ldd	r22, Y+18	; 0x12
    3b66:	7b 89       	ldd	r23, Y+19	; 0x13
    3b68:	8c 89       	ldd	r24, Y+20	; 0x14
    3b6a:	9d 89       	ldd	r25, Y+21	; 0x15
    3b6c:	0e 94 93 26 	call	0x4d26	; 0x4d26 <__gesf2>
    3b70:	18 16       	cp	r1, r24
    3b72:	4c f5       	brge	.+82     	; 0x3bc6 <_ZN15lmx2694_Handler14Toggle_FCAL_ENEv+0x170>
    3b74:	20 e0       	ldi	r18, 0x00	; 0
    3b76:	30 e0       	ldi	r19, 0x00	; 0
    3b78:	40 e2       	ldi	r20, 0x20	; 32
    3b7a:	51 e4       	ldi	r21, 0x41	; 65
    3b7c:	6e 85       	ldd	r22, Y+14	; 0x0e
    3b7e:	7f 85       	ldd	r23, Y+15	; 0x0f
    3b80:	88 89       	ldd	r24, Y+16	; 0x10
    3b82:	99 89       	ldd	r25, Y+17	; 0x11
    3b84:	0e 94 e8 26 	call	0x4dd0	; 0x4dd0 <__mulsf3>
    3b88:	dc 01       	movw	r26, r24
    3b8a:	cb 01       	movw	r24, r22
    3b8c:	bc 01       	movw	r22, r24
    3b8e:	cd 01       	movw	r24, r26
    3b90:	0e 94 5a 25 	call	0x4ab4	; 0x4ab4 <__fixunssfsi>
    3b94:	dc 01       	movw	r26, r24
    3b96:	cb 01       	movw	r24, r22
    3b98:	8e 8b       	std	Y+22, r24	; 0x16
    3b9a:	9f 8b       	std	Y+23, r25	; 0x17
    3b9c:	8e 89       	ldd	r24, Y+22	; 0x16
    3b9e:	9f 89       	ldd	r25, Y+23	; 0x17
    3ba0:	89 2b       	or	r24, r25
    3ba2:	09 f4       	brne	.+2      	; 0x3ba6 <_ZN15lmx2694_Handler14Toggle_FCAL_ENEv+0x150>
    3ba4:	4f c0       	rjmp	.+158    	; 0x3c44 <_ZN15lmx2694_Handler14Toggle_FCAL_ENEv+0x1ee>
    3ba6:	88 e5       	ldi	r24, 0x58	; 88
    3ba8:	92 e0       	ldi	r25, 0x02	; 2
    3baa:	88 8f       	std	Y+24, r24	; 0x18
    3bac:	99 8f       	std	Y+25, r25	; 0x19
    3bae:	88 8d       	ldd	r24, Y+24	; 0x18
    3bb0:	99 8d       	ldd	r25, Y+25	; 0x19
    3bb2:	01 97       	sbiw	r24, 0x01	; 1
    3bb4:	f1 f7       	brne	.-4      	; 0x3bb2 <_ZN15lmx2694_Handler14Toggle_FCAL_ENEv+0x15c>
    3bb6:	88 8f       	std	Y+24, r24	; 0x18
    3bb8:	99 8f       	std	Y+25, r25	; 0x19
    3bba:	8e 89       	ldd	r24, Y+22	; 0x16
    3bbc:	9f 89       	ldd	r25, Y+23	; 0x17
    3bbe:	01 97       	sbiw	r24, 0x01	; 1
    3bc0:	8e 8b       	std	Y+22, r24	; 0x16
    3bc2:	9f 8b       	std	Y+23, r25	; 0x17
    3bc4:	eb cf       	rjmp	.-42     	; 0x3b9c <_ZN15lmx2694_Handler14Toggle_FCAL_ENEv+0x146>
    3bc6:	6a 89       	ldd	r22, Y+18	; 0x12
    3bc8:	7b 89       	ldd	r23, Y+19	; 0x13
    3bca:	8c 89       	ldd	r24, Y+20	; 0x14
    3bcc:	9d 89       	ldd	r25, Y+21	; 0x15
    3bce:	0e 94 5a 25 	call	0x4ab4	; 0x4ab4 <__fixunssfsi>
    3bd2:	dc 01       	movw	r26, r24
    3bd4:	cb 01       	movw	r24, r22
    3bd6:	8e 8b       	std	Y+22, r24	; 0x16
    3bd8:	9f 8b       	std	Y+23, r25	; 0x17
    3bda:	8e 89       	ldd	r24, Y+22	; 0x16
    3bdc:	9f 89       	ldd	r25, Y+23	; 0x17
    3bde:	8a 8f       	std	Y+26, r24	; 0x1a
    3be0:	9b 8f       	std	Y+27, r25	; 0x1b
    3be2:	8a 8d       	ldd	r24, Y+26	; 0x1a
    3be4:	9b 8d       	ldd	r25, Y+27	; 0x1b
    3be6:	01 97       	sbiw	r24, 0x01	; 1
    3be8:	f1 f7       	brne	.-4      	; 0x3be6 <_ZN15lmx2694_Handler14Toggle_FCAL_ENEv+0x190>
    3bea:	8a 8f       	std	Y+26, r24	; 0x1a
    3bec:	9b 8f       	std	Y+27, r25	; 0x1b
    3bee:	2a c0       	rjmp	.+84     	; 0x3c44 <_ZN15lmx2694_Handler14Toggle_FCAL_ENEv+0x1ee>
    3bf0:	20 e0       	ldi	r18, 0x00	; 0
    3bf2:	30 e0       	ldi	r19, 0x00	; 0
    3bf4:	4f e7       	ldi	r20, 0x7F	; 127
    3bf6:	53 e4       	ldi	r21, 0x43	; 67
    3bf8:	6d 81       	ldd	r22, Y+5	; 0x05
    3bfa:	7e 81       	ldd	r23, Y+6	; 0x06
    3bfc:	8f 81       	ldd	r24, Y+7	; 0x07
    3bfe:	98 85       	ldd	r25, Y+8	; 0x08
    3c00:	0e 94 93 26 	call	0x4d26	; 0x4d26 <__gesf2>
    3c04:	18 16       	cp	r1, r24
    3c06:	ac f4       	brge	.+42     	; 0x3c32 <_ZN15lmx2694_Handler14Toggle_FCAL_ENEv+0x1dc>
    3c08:	69 85       	ldd	r22, Y+9	; 0x09
    3c0a:	7a 85       	ldd	r23, Y+10	; 0x0a
    3c0c:	8b 85       	ldd	r24, Y+11	; 0x0b
    3c0e:	9c 85       	ldd	r25, Y+12	; 0x0c
    3c10:	0e 94 5a 25 	call	0x4ab4	; 0x4ab4 <__fixunssfsi>
    3c14:	dc 01       	movw	r26, r24
    3c16:	cb 01       	movw	r24, r22
    3c18:	8c 8f       	std	Y+28, r24	; 0x1c
    3c1a:	9d 8f       	std	Y+29, r25	; 0x1d
    3c1c:	8c 8d       	ldd	r24, Y+28	; 0x1c
    3c1e:	9d 8d       	ldd	r25, Y+29	; 0x1d
    3c20:	8e 8f       	std	Y+30, r24	; 0x1e
    3c22:	9f 8f       	std	Y+31, r25	; 0x1f
    3c24:	8e 8d       	ldd	r24, Y+30	; 0x1e
    3c26:	9f 8d       	ldd	r25, Y+31	; 0x1f
    3c28:	01 97       	sbiw	r24, 0x01	; 1
    3c2a:	f1 f7       	brne	.-4      	; 0x3c28 <_ZN15lmx2694_Handler14Toggle_FCAL_ENEv+0x1d2>
    3c2c:	8e 8f       	std	Y+30, r24	; 0x1e
    3c2e:	9f 8f       	std	Y+31, r25	; 0x1f
    3c30:	0f c0       	rjmp	.+30     	; 0x3c50 <_ZN15lmx2694_Handler14Toggle_FCAL_ENEv+0x1fa>
    3c32:	6d 81       	ldd	r22, Y+5	; 0x05
    3c34:	7e 81       	ldd	r23, Y+6	; 0x06
    3c36:	8f 81       	ldd	r24, Y+7	; 0x07
    3c38:	98 85       	ldd	r25, Y+8	; 0x08
    3c3a:	0e 94 5a 25 	call	0x4ab4	; 0x4ab4 <__fixunssfsi>
    3c3e:	dc 01       	movw	r26, r24
    3c40:	cb 01       	movw	r24, r22
    3c42:	8d 87       	std	Y+13, r24	; 0x0d
    3c44:	8d 85       	ldd	r24, Y+13	; 0x0d
    3c46:	88 a3       	std	Y+32, r24	; 0x20
    3c48:	88 a1       	ldd	r24, Y+32	; 0x20
    3c4a:	8a 95       	dec	r24
    3c4c:	f1 f7       	brne	.-4      	; 0x3c4a <_ZN15lmx2694_Handler14Toggle_FCAL_ENEv+0x1f4>
    3c4e:	88 a3       	std	Y+32, r24	; 0x20
    3c50:	89 a1       	ldd	r24, Y+33	; 0x21
    3c52:	9a a1       	ldd	r25, Y+34	; 0x22
    3c54:	61 e0       	ldi	r22, 0x01	; 1
    3c56:	0e 94 df 1c 	call	0x39be	; 0x39be <_ZN15lmx2694_Handler13Write_FCAL_ENEb>
    3c5a:	28 2f       	mov	r18, r24
    3c5c:	89 a1       	ldd	r24, Y+33	; 0x21
    3c5e:	9a a1       	ldd	r25, Y+34	; 0x22
    3c60:	fc 01       	movw	r30, r24
    3c62:	20 8b       	std	Z+16, r18	; 0x10
    3c64:	89 a1       	ldd	r24, Y+33	; 0x21
    3c66:	9a a1       	ldd	r25, Y+34	; 0x22
    3c68:	fc 01       	movw	r30, r24
    3c6a:	80 89       	ldd	r24, Z+16	; 0x10
    3c6c:	a2 96       	adiw	r28, 0x22	; 34
    3c6e:	cd bf       	out	0x3d, r28	; 61
    3c70:	de bf       	out	0x3e, r29	; 62
    3c72:	df 91       	pop	r29
    3c74:	cf 91       	pop	r28
    3c76:	08 95       	ret

00003c78 <_ZN15lmx2694_Handler13Program_ResetEv>:
    3c78:	cf 93       	push	r28
    3c7a:	df 93       	push	r29
    3c7c:	cd b7       	in	r28, 0x3d	; 61
    3c7e:	de b7       	in	r29, 0x3e	; 62
    3c80:	a2 97       	sbiw	r28, 0x22	; 34
    3c82:	cd bf       	out	0x3d, r28	; 61
    3c84:	de bf       	out	0x3e, r29	; 62
    3c86:	89 a3       	std	Y+33, r24	; 0x21
    3c88:	9a a3       	std	Y+34, r25	; 0x22
    3c8a:	89 a1       	ldd	r24, Y+33	; 0x21
    3c8c:	9a a1       	ldd	r25, Y+34	; 0x22
    3c8e:	fc 01       	movw	r30, r24
    3c90:	80 85       	ldd	r24, Z+8	; 0x08
    3c92:	91 85       	ldd	r25, Z+9	; 0x09
    3c94:	60 e0       	ldi	r22, 0x00	; 0
    3c96:	0e 94 11 23 	call	0x4622	; 0x4622 <_ZN13SPI_Syn_Class5SetCSEb>
    3c9a:	89 a1       	ldd	r24, Y+33	; 0x21
    3c9c:	9a a1       	ldd	r25, Y+34	; 0x22
    3c9e:	4e e1       	ldi	r20, 0x1E	; 30
    3ca0:	51 e2       	ldi	r21, 0x21	; 33
    3ca2:	60 e0       	ldi	r22, 0x00	; 0
    3ca4:	70 e0       	ldi	r23, 0x00	; 0
    3ca6:	0e 94 a6 1f 	call	0x3f4c	; 0x3f4c <_ZN15lmx2694_Handler15Get_Three_BytesEm>
    3caa:	89 a1       	ldd	r24, Y+33	; 0x21
    3cac:	9a a1       	ldd	r25, Y+34	; 0x22
    3cae:	9c 01       	movw	r18, r24
    3cb0:	26 5f       	subi	r18, 0xF6	; 246
    3cb2:	3f 4f       	sbci	r19, 0xFF	; 255
    3cb4:	89 a1       	ldd	r24, Y+33	; 0x21
    3cb6:	9a a1       	ldd	r25, Y+34	; 0x22
    3cb8:	fc 01       	movw	r30, r24
    3cba:	80 85       	ldd	r24, Z+8	; 0x08
    3cbc:	91 85       	ldd	r25, Z+9	; 0x09
    3cbe:	43 e0       	ldi	r20, 0x03	; 3
    3cc0:	b9 01       	movw	r22, r18
    3cc2:	0e 94 d9 22 	call	0x45b2	; 0x45b2 <_ZN13SPI_Syn_Class5WriteEPKhh>
    3cc6:	28 2f       	mov	r18, r24
    3cc8:	30 e0       	ldi	r19, 0x00	; 0
    3cca:	89 a1       	ldd	r24, Y+33	; 0x21
    3ccc:	9a a1       	ldd	r25, Y+34	; 0x22
    3cce:	fc 01       	movw	r30, r24
    3cd0:	22 8b       	std	Z+18, r18	; 0x12
    3cd2:	33 8b       	std	Z+19, r19	; 0x13
    3cd4:	89 a1       	ldd	r24, Y+33	; 0x21
    3cd6:	9a a1       	ldd	r25, Y+34	; 0x22
    3cd8:	fc 01       	movw	r30, r24
    3cda:	80 85       	ldd	r24, Z+8	; 0x08
    3cdc:	91 85       	ldd	r25, Z+9	; 0x09
    3cde:	61 e0       	ldi	r22, 0x01	; 1
    3ce0:	0e 94 11 23 	call	0x4622	; 0x4622 <_ZN13SPI_Syn_Class5SetCSEb>
    3ce4:	80 e0       	ldi	r24, 0x00	; 0
    3ce6:	90 e0       	ldi	r25, 0x00	; 0
    3ce8:	a8 ec       	ldi	r26, 0xC8	; 200
    3cea:	b2 e4       	ldi	r27, 0x42	; 66
    3cec:	89 83       	std	Y+1, r24	; 0x01
    3cee:	9a 83       	std	Y+2, r25	; 0x02
    3cf0:	ab 83       	std	Y+3, r26	; 0x03
    3cf2:	bc 83       	std	Y+4, r27	; 0x04
    3cf4:	20 e0       	ldi	r18, 0x00	; 0
    3cf6:	30 e0       	ldi	r19, 0x00	; 0
    3cf8:	40 e0       	ldi	r20, 0x00	; 0
    3cfa:	51 e4       	ldi	r21, 0x41	; 65
    3cfc:	69 81       	ldd	r22, Y+1	; 0x01
    3cfe:	7a 81       	ldd	r23, Y+2	; 0x02
    3d00:	8b 81       	ldd	r24, Y+3	; 0x03
    3d02:	9c 81       	ldd	r25, Y+4	; 0x04
    3d04:	0e 94 e8 26 	call	0x4dd0	; 0x4dd0 <__mulsf3>
    3d08:	dc 01       	movw	r26, r24
    3d0a:	cb 01       	movw	r24, r22
    3d0c:	8d 83       	std	Y+5, r24	; 0x05
    3d0e:	9e 83       	std	Y+6, r25	; 0x06
    3d10:	af 83       	std	Y+7, r26	; 0x07
    3d12:	b8 87       	std	Y+8, r27	; 0x08
    3d14:	20 e0       	ldi	r18, 0x00	; 0
    3d16:	30 e0       	ldi	r19, 0x00	; 0
    3d18:	40 ec       	ldi	r20, 0xC0	; 192
    3d1a:	50 e4       	ldi	r21, 0x40	; 64
    3d1c:	69 81       	ldd	r22, Y+1	; 0x01
    3d1e:	7a 81       	ldd	r23, Y+2	; 0x02
    3d20:	8b 81       	ldd	r24, Y+3	; 0x03
    3d22:	9c 81       	ldd	r25, Y+4	; 0x04
    3d24:	0e 94 e8 26 	call	0x4dd0	; 0x4dd0 <__mulsf3>
    3d28:	dc 01       	movw	r26, r24
    3d2a:	cb 01       	movw	r24, r22
    3d2c:	89 87       	std	Y+9, r24	; 0x09
    3d2e:	9a 87       	std	Y+10, r25	; 0x0a
    3d30:	ab 87       	std	Y+11, r26	; 0x0b
    3d32:	bc 87       	std	Y+12, r27	; 0x0c
    3d34:	20 e0       	ldi	r18, 0x00	; 0
    3d36:	30 e0       	ldi	r19, 0x00	; 0
    3d38:	40 e8       	ldi	r20, 0x80	; 128
    3d3a:	5f e3       	ldi	r21, 0x3F	; 63
    3d3c:	6d 81       	ldd	r22, Y+5	; 0x05
    3d3e:	7e 81       	ldd	r23, Y+6	; 0x06
    3d40:	8f 81       	ldd	r24, Y+7	; 0x07
    3d42:	98 85       	ldd	r25, Y+8	; 0x08
    3d44:	0e 94 dc 24 	call	0x49b8	; 0x49b8 <__cmpsf2>
    3d48:	88 23       	and	r24, r24
    3d4a:	1c f4       	brge	.+6      	; 0x3d52 <_ZN15lmx2694_Handler13Program_ResetEv+0xda>
    3d4c:	81 e0       	ldi	r24, 0x01	; 1
    3d4e:	8d 87       	std	Y+13, r24	; 0x0d
    3d50:	b2 c0       	rjmp	.+356    	; 0x3eb6 <_ZN15lmx2694_Handler13Program_ResetEv+0x23e>
    3d52:	20 e0       	ldi	r18, 0x00	; 0
    3d54:	3f ef       	ldi	r19, 0xFF	; 255
    3d56:	4f e7       	ldi	r20, 0x7F	; 127
    3d58:	57 e4       	ldi	r21, 0x47	; 71
    3d5a:	69 85       	ldd	r22, Y+9	; 0x09
    3d5c:	7a 85       	ldd	r23, Y+10	; 0x0a
    3d5e:	8b 85       	ldd	r24, Y+11	; 0x0b
    3d60:	9c 85       	ldd	r25, Y+12	; 0x0c
    3d62:	0e 94 93 26 	call	0x4d26	; 0x4d26 <__gesf2>
    3d66:	18 16       	cp	r1, r24
    3d68:	0c f0       	brlt	.+2      	; 0x3d6c <_ZN15lmx2694_Handler13Program_ResetEv+0xf4>
    3d6a:	7b c0       	rjmp	.+246    	; 0x3e62 <_ZN15lmx2694_Handler13Program_ResetEv+0x1ea>
    3d6c:	20 e0       	ldi	r18, 0x00	; 0
    3d6e:	30 e0       	ldi	r19, 0x00	; 0
    3d70:	4a e7       	ldi	r20, 0x7A	; 122
    3d72:	54 e4       	ldi	r21, 0x44	; 68
    3d74:	69 81       	ldd	r22, Y+1	; 0x01
    3d76:	7a 81       	ldd	r23, Y+2	; 0x02
    3d78:	8b 81       	ldd	r24, Y+3	; 0x03
    3d7a:	9c 81       	ldd	r25, Y+4	; 0x04
    3d7c:	0e 94 e1 24 	call	0x49c2	; 0x49c2 <__divsf3>
    3d80:	dc 01       	movw	r26, r24
    3d82:	cb 01       	movw	r24, r22
    3d84:	8e 87       	std	Y+14, r24	; 0x0e
    3d86:	9f 87       	std	Y+15, r25	; 0x0f
    3d88:	a8 8b       	std	Y+16, r26	; 0x10
    3d8a:	b9 8b       	std	Y+17, r27	; 0x11
    3d8c:	20 e0       	ldi	r18, 0x00	; 0
    3d8e:	30 e8       	ldi	r19, 0x80	; 128
    3d90:	4b eb       	ldi	r20, 0xBB	; 187
    3d92:	55 e4       	ldi	r21, 0x45	; 69
    3d94:	6e 85       	ldd	r22, Y+14	; 0x0e
    3d96:	7f 85       	ldd	r23, Y+15	; 0x0f
    3d98:	88 89       	ldd	r24, Y+16	; 0x10
    3d9a:	99 89       	ldd	r25, Y+17	; 0x11
    3d9c:	0e 94 e8 26 	call	0x4dd0	; 0x4dd0 <__mulsf3>
    3da0:	dc 01       	movw	r26, r24
    3da2:	cb 01       	movw	r24, r22
    3da4:	8a 8b       	std	Y+18, r24	; 0x12
    3da6:	9b 8b       	std	Y+19, r25	; 0x13
    3da8:	ac 8b       	std	Y+20, r26	; 0x14
    3daa:	bd 8b       	std	Y+21, r27	; 0x15
    3dac:	20 e0       	ldi	r18, 0x00	; 0
    3dae:	30 e0       	ldi	r19, 0x00	; 0
    3db0:	40 e8       	ldi	r20, 0x80	; 128
    3db2:	5f e3       	ldi	r21, 0x3F	; 63
    3db4:	6a 89       	ldd	r22, Y+18	; 0x12
    3db6:	7b 89       	ldd	r23, Y+19	; 0x13
    3db8:	8c 89       	ldd	r24, Y+20	; 0x14
    3dba:	9d 89       	ldd	r25, Y+21	; 0x15
    3dbc:	0e 94 dc 24 	call	0x49b8	; 0x49b8 <__cmpsf2>
    3dc0:	88 23       	and	r24, r24
    3dc2:	2c f4       	brge	.+10     	; 0x3dce <_ZN15lmx2694_Handler13Program_ResetEv+0x156>
    3dc4:	81 e0       	ldi	r24, 0x01	; 1
    3dc6:	90 e0       	ldi	r25, 0x00	; 0
    3dc8:	8e 8b       	std	Y+22, r24	; 0x16
    3dca:	9f 8b       	std	Y+23, r25	; 0x17
    3dcc:	3f c0       	rjmp	.+126    	; 0x3e4c <_ZN15lmx2694_Handler13Program_ResetEv+0x1d4>
    3dce:	20 e0       	ldi	r18, 0x00	; 0
    3dd0:	3f ef       	ldi	r19, 0xFF	; 255
    3dd2:	4f e7       	ldi	r20, 0x7F	; 127
    3dd4:	57 e4       	ldi	r21, 0x47	; 71
    3dd6:	6a 89       	ldd	r22, Y+18	; 0x12
    3dd8:	7b 89       	ldd	r23, Y+19	; 0x13
    3dda:	8c 89       	ldd	r24, Y+20	; 0x14
    3ddc:	9d 89       	ldd	r25, Y+21	; 0x15
    3dde:	0e 94 93 26 	call	0x4d26	; 0x4d26 <__gesf2>
    3de2:	18 16       	cp	r1, r24
    3de4:	4c f5       	brge	.+82     	; 0x3e38 <_ZN15lmx2694_Handler13Program_ResetEv+0x1c0>
    3de6:	20 e0       	ldi	r18, 0x00	; 0
    3de8:	30 e0       	ldi	r19, 0x00	; 0
    3dea:	40 e2       	ldi	r20, 0x20	; 32
    3dec:	51 e4       	ldi	r21, 0x41	; 65
    3dee:	6e 85       	ldd	r22, Y+14	; 0x0e
    3df0:	7f 85       	ldd	r23, Y+15	; 0x0f
    3df2:	88 89       	ldd	r24, Y+16	; 0x10
    3df4:	99 89       	ldd	r25, Y+17	; 0x11
    3df6:	0e 94 e8 26 	call	0x4dd0	; 0x4dd0 <__mulsf3>
    3dfa:	dc 01       	movw	r26, r24
    3dfc:	cb 01       	movw	r24, r22
    3dfe:	bc 01       	movw	r22, r24
    3e00:	cd 01       	movw	r24, r26
    3e02:	0e 94 5a 25 	call	0x4ab4	; 0x4ab4 <__fixunssfsi>
    3e06:	dc 01       	movw	r26, r24
    3e08:	cb 01       	movw	r24, r22
    3e0a:	8e 8b       	std	Y+22, r24	; 0x16
    3e0c:	9f 8b       	std	Y+23, r25	; 0x17
    3e0e:	8e 89       	ldd	r24, Y+22	; 0x16
    3e10:	9f 89       	ldd	r25, Y+23	; 0x17
    3e12:	89 2b       	or	r24, r25
    3e14:	09 f4       	brne	.+2      	; 0x3e18 <_ZN15lmx2694_Handler13Program_ResetEv+0x1a0>
    3e16:	4f c0       	rjmp	.+158    	; 0x3eb6 <_ZN15lmx2694_Handler13Program_ResetEv+0x23e>
    3e18:	88 e5       	ldi	r24, 0x58	; 88
    3e1a:	92 e0       	ldi	r25, 0x02	; 2
    3e1c:	88 8f       	std	Y+24, r24	; 0x18
    3e1e:	99 8f       	std	Y+25, r25	; 0x19
    3e20:	88 8d       	ldd	r24, Y+24	; 0x18
    3e22:	99 8d       	ldd	r25, Y+25	; 0x19
    3e24:	01 97       	sbiw	r24, 0x01	; 1
    3e26:	f1 f7       	brne	.-4      	; 0x3e24 <_ZN15lmx2694_Handler13Program_ResetEv+0x1ac>
    3e28:	88 8f       	std	Y+24, r24	; 0x18
    3e2a:	99 8f       	std	Y+25, r25	; 0x19
    3e2c:	8e 89       	ldd	r24, Y+22	; 0x16
    3e2e:	9f 89       	ldd	r25, Y+23	; 0x17
    3e30:	01 97       	sbiw	r24, 0x01	; 1
    3e32:	8e 8b       	std	Y+22, r24	; 0x16
    3e34:	9f 8b       	std	Y+23, r25	; 0x17
    3e36:	eb cf       	rjmp	.-42     	; 0x3e0e <_ZN15lmx2694_Handler13Program_ResetEv+0x196>
    3e38:	6a 89       	ldd	r22, Y+18	; 0x12
    3e3a:	7b 89       	ldd	r23, Y+19	; 0x13
    3e3c:	8c 89       	ldd	r24, Y+20	; 0x14
    3e3e:	9d 89       	ldd	r25, Y+21	; 0x15
    3e40:	0e 94 5a 25 	call	0x4ab4	; 0x4ab4 <__fixunssfsi>
    3e44:	dc 01       	movw	r26, r24
    3e46:	cb 01       	movw	r24, r22
    3e48:	8e 8b       	std	Y+22, r24	; 0x16
    3e4a:	9f 8b       	std	Y+23, r25	; 0x17
    3e4c:	8e 89       	ldd	r24, Y+22	; 0x16
    3e4e:	9f 89       	ldd	r25, Y+23	; 0x17
    3e50:	8a 8f       	std	Y+26, r24	; 0x1a
    3e52:	9b 8f       	std	Y+27, r25	; 0x1b
    3e54:	8a 8d       	ldd	r24, Y+26	; 0x1a
    3e56:	9b 8d       	ldd	r25, Y+27	; 0x1b
    3e58:	01 97       	sbiw	r24, 0x01	; 1
    3e5a:	f1 f7       	brne	.-4      	; 0x3e58 <_ZN15lmx2694_Handler13Program_ResetEv+0x1e0>
    3e5c:	8a 8f       	std	Y+26, r24	; 0x1a
    3e5e:	9b 8f       	std	Y+27, r25	; 0x1b
    3e60:	2a c0       	rjmp	.+84     	; 0x3eb6 <_ZN15lmx2694_Handler13Program_ResetEv+0x23e>
    3e62:	20 e0       	ldi	r18, 0x00	; 0
    3e64:	30 e0       	ldi	r19, 0x00	; 0
    3e66:	4f e7       	ldi	r20, 0x7F	; 127
    3e68:	53 e4       	ldi	r21, 0x43	; 67
    3e6a:	6d 81       	ldd	r22, Y+5	; 0x05
    3e6c:	7e 81       	ldd	r23, Y+6	; 0x06
    3e6e:	8f 81       	ldd	r24, Y+7	; 0x07
    3e70:	98 85       	ldd	r25, Y+8	; 0x08
    3e72:	0e 94 93 26 	call	0x4d26	; 0x4d26 <__gesf2>
    3e76:	18 16       	cp	r1, r24
    3e78:	ac f4       	brge	.+42     	; 0x3ea4 <_ZN15lmx2694_Handler13Program_ResetEv+0x22c>
    3e7a:	69 85       	ldd	r22, Y+9	; 0x09
    3e7c:	7a 85       	ldd	r23, Y+10	; 0x0a
    3e7e:	8b 85       	ldd	r24, Y+11	; 0x0b
    3e80:	9c 85       	ldd	r25, Y+12	; 0x0c
    3e82:	0e 94 5a 25 	call	0x4ab4	; 0x4ab4 <__fixunssfsi>
    3e86:	dc 01       	movw	r26, r24
    3e88:	cb 01       	movw	r24, r22
    3e8a:	8c 8f       	std	Y+28, r24	; 0x1c
    3e8c:	9d 8f       	std	Y+29, r25	; 0x1d
    3e8e:	8c 8d       	ldd	r24, Y+28	; 0x1c
    3e90:	9d 8d       	ldd	r25, Y+29	; 0x1d
    3e92:	8e 8f       	std	Y+30, r24	; 0x1e
    3e94:	9f 8f       	std	Y+31, r25	; 0x1f
    3e96:	8e 8d       	ldd	r24, Y+30	; 0x1e
    3e98:	9f 8d       	ldd	r25, Y+31	; 0x1f
    3e9a:	01 97       	sbiw	r24, 0x01	; 1
    3e9c:	f1 f7       	brne	.-4      	; 0x3e9a <_ZN15lmx2694_Handler13Program_ResetEv+0x222>
    3e9e:	8e 8f       	std	Y+30, r24	; 0x1e
    3ea0:	9f 8f       	std	Y+31, r25	; 0x1f
    3ea2:	0f c0       	rjmp	.+30     	; 0x3ec2 <_ZN15lmx2694_Handler13Program_ResetEv+0x24a>
    3ea4:	6d 81       	ldd	r22, Y+5	; 0x05
    3ea6:	7e 81       	ldd	r23, Y+6	; 0x06
    3ea8:	8f 81       	ldd	r24, Y+7	; 0x07
    3eaa:	98 85       	ldd	r25, Y+8	; 0x08
    3eac:	0e 94 5a 25 	call	0x4ab4	; 0x4ab4 <__fixunssfsi>
    3eb0:	dc 01       	movw	r26, r24
    3eb2:	cb 01       	movw	r24, r22
    3eb4:	8d 87       	std	Y+13, r24	; 0x0d
    3eb6:	8d 85       	ldd	r24, Y+13	; 0x0d
    3eb8:	88 a3       	std	Y+32, r24	; 0x20
    3eba:	88 a1       	ldd	r24, Y+32	; 0x20
    3ebc:	8a 95       	dec	r24
    3ebe:	f1 f7       	brne	.-4      	; 0x3ebc <_ZN15lmx2694_Handler13Program_ResetEv+0x244>
    3ec0:	88 a3       	std	Y+32, r24	; 0x20
    3ec2:	89 a1       	ldd	r24, Y+33	; 0x21
    3ec4:	9a a1       	ldd	r25, Y+34	; 0x22
    3ec6:	fc 01       	movw	r30, r24
    3ec8:	80 85       	ldd	r24, Z+8	; 0x08
    3eca:	91 85       	ldd	r25, Z+9	; 0x09
    3ecc:	60 e0       	ldi	r22, 0x00	; 0
    3ece:	0e 94 11 23 	call	0x4622	; 0x4622 <_ZN13SPI_Syn_Class5SetCSEb>
    3ed2:	89 a1       	ldd	r24, Y+33	; 0x21
    3ed4:	9a a1       	ldd	r25, Y+34	; 0x22
    3ed6:	4c e1       	ldi	r20, 0x1C	; 28
    3ed8:	51 e2       	ldi	r21, 0x21	; 33
    3eda:	60 e0       	ldi	r22, 0x00	; 0
    3edc:	70 e0       	ldi	r23, 0x00	; 0
    3ede:	0e 94 a6 1f 	call	0x3f4c	; 0x3f4c <_ZN15lmx2694_Handler15Get_Three_BytesEm>
    3ee2:	89 a1       	ldd	r24, Y+33	; 0x21
    3ee4:	9a a1       	ldd	r25, Y+34	; 0x22
    3ee6:	9c 01       	movw	r18, r24
    3ee8:	26 5f       	subi	r18, 0xF6	; 246
    3eea:	3f 4f       	sbci	r19, 0xFF	; 255
    3eec:	89 a1       	ldd	r24, Y+33	; 0x21
    3eee:	9a a1       	ldd	r25, Y+34	; 0x22
    3ef0:	fc 01       	movw	r30, r24
    3ef2:	80 85       	ldd	r24, Z+8	; 0x08
    3ef4:	91 85       	ldd	r25, Z+9	; 0x09
    3ef6:	43 e0       	ldi	r20, 0x03	; 3
    3ef8:	b9 01       	movw	r22, r18
    3efa:	0e 94 d9 22 	call	0x45b2	; 0x45b2 <_ZN13SPI_Syn_Class5WriteEPKhh>
    3efe:	28 2f       	mov	r18, r24
    3f00:	30 e0       	ldi	r19, 0x00	; 0
    3f02:	89 a1       	ldd	r24, Y+33	; 0x21
    3f04:	9a a1       	ldd	r25, Y+34	; 0x22
    3f06:	fc 01       	movw	r30, r24
    3f08:	22 8b       	std	Z+18, r18	; 0x12
    3f0a:	33 8b       	std	Z+19, r19	; 0x13
    3f0c:	89 a1       	ldd	r24, Y+33	; 0x21
    3f0e:	9a a1       	ldd	r25, Y+34	; 0x22
    3f10:	fc 01       	movw	r30, r24
    3f12:	82 89       	ldd	r24, Z+18	; 0x12
    3f14:	93 89       	ldd	r25, Z+19	; 0x13
    3f16:	21 e0       	ldi	r18, 0x01	; 1
    3f18:	18 16       	cp	r1, r24
    3f1a:	19 06       	cpc	r1, r25
    3f1c:	0c f0       	brlt	.+2      	; 0x3f20 <_ZN15lmx2694_Handler13Program_ResetEv+0x2a8>
    3f1e:	20 e0       	ldi	r18, 0x00	; 0
    3f20:	89 a1       	ldd	r24, Y+33	; 0x21
    3f22:	9a a1       	ldd	r25, Y+34	; 0x22
    3f24:	fc 01       	movw	r30, r24
    3f26:	20 8b       	std	Z+16, r18	; 0x10
    3f28:	89 a1       	ldd	r24, Y+33	; 0x21
    3f2a:	9a a1       	ldd	r25, Y+34	; 0x22
    3f2c:	fc 01       	movw	r30, r24
    3f2e:	80 85       	ldd	r24, Z+8	; 0x08
    3f30:	91 85       	ldd	r25, Z+9	; 0x09
    3f32:	61 e0       	ldi	r22, 0x01	; 1
    3f34:	0e 94 11 23 	call	0x4622	; 0x4622 <_ZN13SPI_Syn_Class5SetCSEb>
    3f38:	89 a1       	ldd	r24, Y+33	; 0x21
    3f3a:	9a a1       	ldd	r25, Y+34	; 0x22
    3f3c:	fc 01       	movw	r30, r24
    3f3e:	80 89       	ldd	r24, Z+16	; 0x10
    3f40:	a2 96       	adiw	r28, 0x22	; 34
    3f42:	cd bf       	out	0x3d, r28	; 61
    3f44:	de bf       	out	0x3e, r29	; 62
    3f46:	df 91       	pop	r29
    3f48:	cf 91       	pop	r28
    3f4a:	08 95       	ret

00003f4c <_ZN15lmx2694_Handler15Get_Three_BytesEm>:
    3f4c:	cf 93       	push	r28
    3f4e:	df 93       	push	r29
    3f50:	cd b7       	in	r28, 0x3d	; 61
    3f52:	de b7       	in	r29, 0x3e	; 62
    3f54:	28 97       	sbiw	r28, 0x08	; 8
    3f56:	cd bf       	out	0x3d, r28	; 61
    3f58:	de bf       	out	0x3e, r29	; 62
    3f5a:	8b 83       	std	Y+3, r24	; 0x03
    3f5c:	9c 83       	std	Y+4, r25	; 0x04
    3f5e:	4d 83       	std	Y+5, r20	; 0x05
    3f60:	5e 83       	std	Y+6, r21	; 0x06
    3f62:	6f 83       	std	Y+7, r22	; 0x07
    3f64:	78 87       	std	Y+8, r23	; 0x08
    3f66:	19 82       	std	Y+1, r1	; 0x01
    3f68:	1a 82       	std	Y+2, r1	; 0x02
    3f6a:	89 81       	ldd	r24, Y+1	; 0x01
    3f6c:	9a 81       	ldd	r25, Y+2	; 0x02
    3f6e:	03 97       	sbiw	r24, 0x03	; 3
    3f70:	44 f5       	brge	.+80     	; 0x3fc2 <_ZN15lmx2694_Handler15Get_Three_BytesEm+0x76>
    3f72:	22 e0       	ldi	r18, 0x02	; 2
    3f74:	30 e0       	ldi	r19, 0x00	; 0
    3f76:	89 81       	ldd	r24, Y+1	; 0x01
    3f78:	9a 81       	ldd	r25, Y+2	; 0x02
    3f7a:	28 1b       	sub	r18, r24
    3f7c:	39 0b       	sbc	r19, r25
    3f7e:	89 81       	ldd	r24, Y+1	; 0x01
    3f80:	9a 81       	ldd	r25, Y+2	; 0x02
    3f82:	ac 01       	movw	r20, r24
    3f84:	44 0f       	add	r20, r20
    3f86:	55 1f       	adc	r21, r21
    3f88:	44 0f       	add	r20, r20
    3f8a:	55 1f       	adc	r21, r21
    3f8c:	44 0f       	add	r20, r20
    3f8e:	55 1f       	adc	r21, r21
    3f90:	8d 81       	ldd	r24, Y+5	; 0x05
    3f92:	9e 81       	ldd	r25, Y+6	; 0x06
    3f94:	af 81       	ldd	r26, Y+7	; 0x07
    3f96:	b8 85       	ldd	r27, Y+8	; 0x08
    3f98:	04 c0       	rjmp	.+8      	; 0x3fa2 <_ZN15lmx2694_Handler15Get_Three_BytesEm+0x56>
    3f9a:	b6 95       	lsr	r27
    3f9c:	a7 95       	ror	r26
    3f9e:	97 95       	ror	r25
    3fa0:	87 95       	ror	r24
    3fa2:	4a 95       	dec	r20
    3fa4:	d2 f7       	brpl	.-12     	; 0x3f9a <_ZN15lmx2694_Handler15Get_Three_BytesEm+0x4e>
    3fa6:	48 2f       	mov	r20, r24
    3fa8:	8b 81       	ldd	r24, Y+3	; 0x03
    3faa:	9c 81       	ldd	r25, Y+4	; 0x04
    3fac:	82 0f       	add	r24, r18
    3fae:	93 1f       	adc	r25, r19
    3fb0:	0a 96       	adiw	r24, 0x0a	; 10
    3fb2:	fc 01       	movw	r30, r24
    3fb4:	40 83       	st	Z, r20
    3fb6:	89 81       	ldd	r24, Y+1	; 0x01
    3fb8:	9a 81       	ldd	r25, Y+2	; 0x02
    3fba:	01 96       	adiw	r24, 0x01	; 1
    3fbc:	89 83       	std	Y+1, r24	; 0x01
    3fbe:	9a 83       	std	Y+2, r25	; 0x02
    3fc0:	d4 cf       	rjmp	.-88     	; 0x3f6a <_ZN15lmx2694_Handler15Get_Three_BytesEm+0x1e>
    3fc2:	00 00       	nop
    3fc4:	28 96       	adiw	r28, 0x08	; 8
    3fc6:	cd bf       	out	0x3d, r28	; 61
    3fc8:	de bf       	out	0x3e, r29	; 62
    3fca:	df 91       	pop	r29
    3fcc:	cf 91       	pop	r28
    3fce:	08 95       	ret

00003fd0 <_ZN15lmx2694_Handler16Make_Three_BytesEhj>:
    3fd0:	cf 93       	push	r28
    3fd2:	df 93       	push	r29
    3fd4:	cd b7       	in	r28, 0x3d	; 61
    3fd6:	de b7       	in	r29, 0x3e	; 62
    3fd8:	27 97       	sbiw	r28, 0x07	; 7
    3fda:	cd bf       	out	0x3d, r28	; 61
    3fdc:	de bf       	out	0x3e, r29	; 62
    3fde:	8b 83       	std	Y+3, r24	; 0x03
    3fe0:	9c 83       	std	Y+4, r25	; 0x04
    3fe2:	6d 83       	std	Y+5, r22	; 0x05
    3fe4:	4e 83       	std	Y+6, r20	; 0x06
    3fe6:	5f 83       	std	Y+7, r21	; 0x07
    3fe8:	19 82       	std	Y+1, r1	; 0x01
    3fea:	1a 82       	std	Y+2, r1	; 0x02
    3fec:	89 81       	ldd	r24, Y+1	; 0x01
    3fee:	9a 81       	ldd	r25, Y+2	; 0x02
    3ff0:	02 97       	sbiw	r24, 0x02	; 2
    3ff2:	34 f5       	brge	.+76     	; 0x4040 <__DATA_REGION_LENGTH__+0x40>
    3ff4:	22 e0       	ldi	r18, 0x02	; 2
    3ff6:	30 e0       	ldi	r19, 0x00	; 0
    3ff8:	89 81       	ldd	r24, Y+1	; 0x01
    3ffa:	9a 81       	ldd	r25, Y+2	; 0x02
    3ffc:	a9 01       	movw	r20, r18
    3ffe:	48 1b       	sub	r20, r24
    4000:	59 0b       	sbc	r21, r25
    4002:	ca 01       	movw	r24, r20
    4004:	29 81       	ldd	r18, Y+1	; 0x01
    4006:	3a 81       	ldd	r19, Y+2	; 0x02
    4008:	a9 01       	movw	r20, r18
    400a:	44 0f       	add	r20, r20
    400c:	55 1f       	adc	r21, r21
    400e:	44 0f       	add	r20, r20
    4010:	55 1f       	adc	r21, r21
    4012:	44 0f       	add	r20, r20
    4014:	55 1f       	adc	r21, r21
    4016:	2e 81       	ldd	r18, Y+6	; 0x06
    4018:	3f 81       	ldd	r19, Y+7	; 0x07
    401a:	02 c0       	rjmp	.+4      	; 0x4020 <__DATA_REGION_LENGTH__+0x20>
    401c:	36 95       	lsr	r19
    401e:	27 95       	ror	r18
    4020:	4a 95       	dec	r20
    4022:	e2 f7       	brpl	.-8      	; 0x401c <__DATA_REGION_LENGTH__+0x1c>
    4024:	42 2f       	mov	r20, r18
    4026:	2b 81       	ldd	r18, Y+3	; 0x03
    4028:	3c 81       	ldd	r19, Y+4	; 0x04
    402a:	82 0f       	add	r24, r18
    402c:	93 1f       	adc	r25, r19
    402e:	0a 96       	adiw	r24, 0x0a	; 10
    4030:	fc 01       	movw	r30, r24
    4032:	40 83       	st	Z, r20
    4034:	89 81       	ldd	r24, Y+1	; 0x01
    4036:	9a 81       	ldd	r25, Y+2	; 0x02
    4038:	01 96       	adiw	r24, 0x01	; 1
    403a:	89 83       	std	Y+1, r24	; 0x01
    403c:	9a 83       	std	Y+2, r25	; 0x02
    403e:	d6 cf       	rjmp	.-84     	; 0x3fec <_ZN15lmx2694_Handler16Make_Three_BytesEhj+0x1c>
    4040:	8b 81       	ldd	r24, Y+3	; 0x03
    4042:	9c 81       	ldd	r25, Y+4	; 0x04
    4044:	2d 81       	ldd	r18, Y+5	; 0x05
    4046:	fc 01       	movw	r30, r24
    4048:	22 87       	std	Z+10, r18	; 0x0a
    404a:	00 00       	nop
    404c:	27 96       	adiw	r28, 0x07	; 7
    404e:	cd bf       	out	0x3d, r28	; 61
    4050:	de bf       	out	0x3e, r29	; 62
    4052:	df 91       	pop	r29
    4054:	cf 91       	pop	r28
    4056:	08 95       	ret

00004058 <_ZN15lmx2694_Handler18Initiate_RegistersEv>:
    4058:	cf 93       	push	r28
    405a:	df 93       	push	r29
    405c:	cd b7       	in	r28, 0x3d	; 61
    405e:	de b7       	in	r29, 0x3e	; 62
    4060:	26 97       	sbiw	r28, 0x06	; 6
    4062:	cd bf       	out	0x3d, r28	; 61
    4064:	de bf       	out	0x3e, r29	; 62
    4066:	8d 83       	std	Y+5, r24	; 0x05
    4068:	9e 83       	std	Y+6, r25	; 0x06
    406a:	19 82       	std	Y+1, r1	; 0x01
    406c:	1a 82       	std	Y+2, r1	; 0x02
    406e:	89 81       	ldd	r24, Y+1	; 0x01
    4070:	9a 81       	ldd	r25, Y+2	; 0x02
    4072:	83 37       	cpi	r24, 0x73	; 115
    4074:	91 05       	cpc	r25, r1
    4076:	1c f5       	brge	.+70     	; 0x40be <_ZN15lmx2694_Handler18Initiate_RegistersEv+0x66>
    4078:	8d 81       	ldd	r24, Y+5	; 0x05
    407a:	9e 81       	ldd	r25, Y+6	; 0x06
    407c:	fc 01       	movw	r30, r24
    407e:	24 81       	ldd	r18, Z+4	; 0x04
    4080:	35 81       	ldd	r19, Z+5	; 0x05
    4082:	89 81       	ldd	r24, Y+1	; 0x01
    4084:	9a 81       	ldd	r25, Y+2	; 0x02
    4086:	88 0f       	add	r24, r24
    4088:	99 1f       	adc	r25, r25
    408a:	82 0f       	add	r24, r18
    408c:	93 1f       	adc	r25, r19
    408e:	42 e7       	ldi	r20, 0x72	; 114
    4090:	50 e0       	ldi	r21, 0x00	; 0
    4092:	29 81       	ldd	r18, Y+1	; 0x01
    4094:	3a 81       	ldd	r19, Y+2	; 0x02
    4096:	ba 01       	movw	r22, r20
    4098:	62 1b       	sub	r22, r18
    409a:	73 0b       	sbc	r23, r19
    409c:	9b 01       	movw	r18, r22
    409e:	22 0f       	add	r18, r18
    40a0:	33 1f       	adc	r19, r19
    40a2:	29 52       	subi	r18, 0x29	; 41
    40a4:	3f 4b       	sbci	r19, 0xBF	; 191
    40a6:	f9 01       	movw	r30, r18
    40a8:	20 81       	ld	r18, Z
    40aa:	31 81       	ldd	r19, Z+1	; 0x01
    40ac:	fc 01       	movw	r30, r24
    40ae:	20 83       	st	Z, r18
    40b0:	31 83       	std	Z+1, r19	; 0x01
    40b2:	89 81       	ldd	r24, Y+1	; 0x01
    40b4:	9a 81       	ldd	r25, Y+2	; 0x02
    40b6:	01 96       	adiw	r24, 0x01	; 1
    40b8:	89 83       	std	Y+1, r24	; 0x01
    40ba:	9a 83       	std	Y+2, r25	; 0x02
    40bc:	d8 cf       	rjmp	.-80     	; 0x406e <_ZN15lmx2694_Handler18Initiate_RegistersEv+0x16>
    40be:	83 e7       	ldi	r24, 0x73	; 115
    40c0:	90 e0       	ldi	r25, 0x00	; 0
    40c2:	8b 83       	std	Y+3, r24	; 0x03
    40c4:	9c 83       	std	Y+4, r25	; 0x04
    40c6:	8b 81       	ldd	r24, Y+3	; 0x03
    40c8:	9c 81       	ldd	r25, Y+4	; 0x04
    40ca:	18 16       	cp	r1, r24
    40cc:	19 06       	cpc	r1, r25
    40ce:	f4 f4       	brge	.+60     	; 0x410c <_ZN15lmx2694_Handler18Initiate_RegistersEv+0xb4>
    40d0:	8d 81       	ldd	r24, Y+5	; 0x05
    40d2:	9e 81       	ldd	r25, Y+6	; 0x06
    40d4:	fc 01       	movw	r30, r24
    40d6:	24 81       	ldd	r18, Z+4	; 0x04
    40d8:	35 81       	ldd	r19, Z+5	; 0x05
    40da:	8b 81       	ldd	r24, Y+3	; 0x03
    40dc:	9c 81       	ldd	r25, Y+4	; 0x04
    40de:	81 50       	subi	r24, 0x01	; 1
    40e0:	90 48       	sbci	r25, 0x80	; 128
    40e2:	88 0f       	add	r24, r24
    40e4:	99 1f       	adc	r25, r25
    40e6:	82 0f       	add	r24, r18
    40e8:	93 1f       	adc	r25, r19
    40ea:	fc 01       	movw	r30, r24
    40ec:	20 81       	ld	r18, Z
    40ee:	31 81       	ldd	r19, Z+1	; 0x01
    40f0:	8b 81       	ldd	r24, Y+3	; 0x03
    40f2:	6f ef       	ldi	r22, 0xFF	; 255
    40f4:	68 0f       	add	r22, r24
    40f6:	8d 81       	ldd	r24, Y+5	; 0x05
    40f8:	9e 81       	ldd	r25, Y+6	; 0x06
    40fa:	a9 01       	movw	r20, r18
    40fc:	0e 94 8d 20 	call	0x411a	; 0x411a <_ZN15lmx2694_Handler21Write_Single_RegisterEhj>
    4100:	8b 81       	ldd	r24, Y+3	; 0x03
    4102:	9c 81       	ldd	r25, Y+4	; 0x04
    4104:	01 97       	sbiw	r24, 0x01	; 1
    4106:	8b 83       	std	Y+3, r24	; 0x03
    4108:	9c 83       	std	Y+4, r25	; 0x04
    410a:	dd cf       	rjmp	.-70     	; 0x40c6 <_ZN15lmx2694_Handler18Initiate_RegistersEv+0x6e>
    410c:	00 00       	nop
    410e:	26 96       	adiw	r28, 0x06	; 6
    4110:	cd bf       	out	0x3d, r28	; 61
    4112:	de bf       	out	0x3e, r29	; 62
    4114:	df 91       	pop	r29
    4116:	cf 91       	pop	r28
    4118:	08 95       	ret

0000411a <_ZN15lmx2694_Handler21Write_Single_RegisterEhj>:
    411a:	cf 93       	push	r28
    411c:	df 93       	push	r29
    411e:	cd b7       	in	r28, 0x3d	; 61
    4120:	de b7       	in	r29, 0x3e	; 62
    4122:	25 97       	sbiw	r28, 0x05	; 5
    4124:	cd bf       	out	0x3d, r28	; 61
    4126:	de bf       	out	0x3e, r29	; 62
    4128:	89 83       	std	Y+1, r24	; 0x01
    412a:	9a 83       	std	Y+2, r25	; 0x02
    412c:	6b 83       	std	Y+3, r22	; 0x03
    412e:	4c 83       	std	Y+4, r20	; 0x04
    4130:	5d 83       	std	Y+5, r21	; 0x05
    4132:	89 81       	ldd	r24, Y+1	; 0x01
    4134:	9a 81       	ldd	r25, Y+2	; 0x02
    4136:	fc 01       	movw	r30, r24
    4138:	26 81       	ldd	r18, Z+6	; 0x06
    413a:	37 81       	ldd	r19, Z+7	; 0x07
    413c:	8b 81       	ldd	r24, Y+3	; 0x03
    413e:	88 2f       	mov	r24, r24
    4140:	90 e0       	ldi	r25, 0x00	; 0
    4142:	88 0f       	add	r24, r24
    4144:	99 1f       	adc	r25, r25
    4146:	82 0f       	add	r24, r18
    4148:	93 1f       	adc	r25, r19
    414a:	fc 01       	movw	r30, r24
    414c:	20 81       	ld	r18, Z
    414e:	31 81       	ldd	r19, Z+1	; 0x01
    4150:	41 e0       	ldi	r20, 0x01	; 1
    4152:	8c 81       	ldd	r24, Y+4	; 0x04
    4154:	9d 81       	ldd	r25, Y+5	; 0x05
    4156:	28 17       	cp	r18, r24
    4158:	39 07       	cpc	r19, r25
    415a:	09 f0       	breq	.+2      	; 0x415e <_ZN15lmx2694_Handler21Write_Single_RegisterEhj+0x44>
    415c:	40 e0       	ldi	r20, 0x00	; 0
    415e:	24 2f       	mov	r18, r20
    4160:	30 e0       	ldi	r19, 0x00	; 0
    4162:	89 81       	ldd	r24, Y+1	; 0x01
    4164:	9a 81       	ldd	r25, Y+2	; 0x02
    4166:	fc 01       	movw	r30, r24
    4168:	81 89       	ldd	r24, Z+17	; 0x11
    416a:	88 2f       	mov	r24, r24
    416c:	90 e0       	ldi	r25, 0x00	; 0
    416e:	82 23       	and	r24, r18
    4170:	93 23       	and	r25, r19
    4172:	89 2b       	or	r24, r25
    4174:	09 f0       	breq	.+2      	; 0x4178 <_ZN15lmx2694_Handler21Write_Single_RegisterEhj+0x5e>
    4176:	46 c0       	rjmp	.+140    	; 0x4204 <_ZN15lmx2694_Handler21Write_Single_RegisterEhj+0xea>
    4178:	89 81       	ldd	r24, Y+1	; 0x01
    417a:	9a 81       	ldd	r25, Y+2	; 0x02
    417c:	fc 01       	movw	r30, r24
    417e:	80 85       	ldd	r24, Z+8	; 0x08
    4180:	91 85       	ldd	r25, Z+9	; 0x09
    4182:	60 e0       	ldi	r22, 0x00	; 0
    4184:	0e 94 11 23 	call	0x4622	; 0x4622 <_ZN13SPI_Syn_Class5SetCSEb>
    4188:	2c 81       	ldd	r18, Y+4	; 0x04
    418a:	3d 81       	ldd	r19, Y+5	; 0x05
    418c:	89 81       	ldd	r24, Y+1	; 0x01
    418e:	9a 81       	ldd	r25, Y+2	; 0x02
    4190:	a9 01       	movw	r20, r18
    4192:	6b 81       	ldd	r22, Y+3	; 0x03
    4194:	0e 94 e8 1f 	call	0x3fd0	; 0x3fd0 <_ZN15lmx2694_Handler16Make_Three_BytesEhj>
    4198:	89 81       	ldd	r24, Y+1	; 0x01
    419a:	9a 81       	ldd	r25, Y+2	; 0x02
    419c:	9c 01       	movw	r18, r24
    419e:	26 5f       	subi	r18, 0xF6	; 246
    41a0:	3f 4f       	sbci	r19, 0xFF	; 255
    41a2:	89 81       	ldd	r24, Y+1	; 0x01
    41a4:	9a 81       	ldd	r25, Y+2	; 0x02
    41a6:	fc 01       	movw	r30, r24
    41a8:	80 85       	ldd	r24, Z+8	; 0x08
    41aa:	91 85       	ldd	r25, Z+9	; 0x09
    41ac:	43 e0       	ldi	r20, 0x03	; 3
    41ae:	b9 01       	movw	r22, r18
    41b0:	0e 94 d9 22 	call	0x45b2	; 0x45b2 <_ZN13SPI_Syn_Class5WriteEPKhh>
    41b4:	28 2f       	mov	r18, r24
    41b6:	30 e0       	ldi	r19, 0x00	; 0
    41b8:	89 81       	ldd	r24, Y+1	; 0x01
    41ba:	9a 81       	ldd	r25, Y+2	; 0x02
    41bc:	fc 01       	movw	r30, r24
    41be:	22 8b       	std	Z+18, r18	; 0x12
    41c0:	33 8b       	std	Z+19, r19	; 0x13
    41c2:	89 81       	ldd	r24, Y+1	; 0x01
    41c4:	9a 81       	ldd	r25, Y+2	; 0x02
    41c6:	fc 01       	movw	r30, r24
    41c8:	82 89       	ldd	r24, Z+18	; 0x12
    41ca:	93 89       	ldd	r25, Z+19	; 0x13
    41cc:	18 16       	cp	r1, r24
    41ce:	19 06       	cpc	r1, r25
    41d0:	8c f4       	brge	.+34     	; 0x41f4 <_ZN15lmx2694_Handler21Write_Single_RegisterEhj+0xda>
    41d2:	89 81       	ldd	r24, Y+1	; 0x01
    41d4:	9a 81       	ldd	r25, Y+2	; 0x02
    41d6:	fc 01       	movw	r30, r24
    41d8:	26 81       	ldd	r18, Z+6	; 0x06
    41da:	37 81       	ldd	r19, Z+7	; 0x07
    41dc:	8b 81       	ldd	r24, Y+3	; 0x03
    41de:	88 2f       	mov	r24, r24
    41e0:	90 e0       	ldi	r25, 0x00	; 0
    41e2:	88 0f       	add	r24, r24
    41e4:	99 1f       	adc	r25, r25
    41e6:	82 0f       	add	r24, r18
    41e8:	93 1f       	adc	r25, r19
    41ea:	2c 81       	ldd	r18, Y+4	; 0x04
    41ec:	3d 81       	ldd	r19, Y+5	; 0x05
    41ee:	fc 01       	movw	r30, r24
    41f0:	20 83       	st	Z, r18
    41f2:	31 83       	std	Z+1, r19	; 0x01
    41f4:	89 81       	ldd	r24, Y+1	; 0x01
    41f6:	9a 81       	ldd	r25, Y+2	; 0x02
    41f8:	fc 01       	movw	r30, r24
    41fa:	80 85       	ldd	r24, Z+8	; 0x08
    41fc:	91 85       	ldd	r25, Z+9	; 0x09
    41fe:	61 e0       	ldi	r22, 0x01	; 1
    4200:	0e 94 11 23 	call	0x4622	; 0x4622 <_ZN13SPI_Syn_Class5SetCSEb>
    4204:	89 81       	ldd	r24, Y+1	; 0x01
    4206:	9a 81       	ldd	r25, Y+2	; 0x02
    4208:	fc 01       	movw	r30, r24
    420a:	82 89       	ldd	r24, Z+18	; 0x12
    420c:	93 89       	ldd	r25, Z+19	; 0x13
    420e:	25 96       	adiw	r28, 0x05	; 5
    4210:	cd bf       	out	0x3d, r28	; 61
    4212:	de bf       	out	0x3e, r29	; 62
    4214:	df 91       	pop	r29
    4216:	cf 91       	pop	r28
    4218:	08 95       	ret

0000421a <_ZN15lmx2694_Handler20Read_Single_RegisterEh>:
    421a:	cf 93       	push	r28
    421c:	df 93       	push	r29
    421e:	cd b7       	in	r28, 0x3d	; 61
    4220:	de b7       	in	r29, 0x3e	; 62
    4222:	25 97       	sbiw	r28, 0x05	; 5
    4224:	cd bf       	out	0x3d, r28	; 61
    4226:	de bf       	out	0x3e, r29	; 62
    4228:	8b 83       	std	Y+3, r24	; 0x03
    422a:	9c 83       	std	Y+4, r25	; 0x04
    422c:	6d 83       	std	Y+5, r22	; 0x05
    422e:	8b 81       	ldd	r24, Y+3	; 0x03
    4230:	9c 81       	ldd	r25, Y+4	; 0x04
    4232:	60 e0       	ldi	r22, 0x00	; 0
    4234:	0e 94 c1 21 	call	0x4382	; 0x4382 <_ZN15lmx2694_Handler19Set_MUXOUT_READBACKEb>
    4238:	8b 81       	ldd	r24, Y+3	; 0x03
    423a:	9c 81       	ldd	r25, Y+4	; 0x04
    423c:	fc 01       	movw	r30, r24
    423e:	14 8a       	std	Z+20, r1	; 0x14
    4240:	15 8a       	std	Z+21, r1	; 0x15
    4242:	8f ef       	ldi	r24, 0xFF	; 255
    4244:	90 e0       	ldi	r25, 0x00	; 0
    4246:	89 83       	std	Y+1, r24	; 0x01
    4248:	9a 83       	std	Y+2, r25	; 0x02
    424a:	8b 81       	ldd	r24, Y+3	; 0x03
    424c:	9c 81       	ldd	r25, Y+4	; 0x04
    424e:	fc 01       	movw	r30, r24
    4250:	84 89       	ldd	r24, Z+20	; 0x14
    4252:	95 89       	ldd	r25, Z+21	; 0x15
    4254:	31 e0       	ldi	r19, 0x01	; 1
    4256:	89 2b       	or	r24, r25
    4258:	09 f4       	brne	.+2      	; 0x425c <_ZN15lmx2694_Handler20Read_Single_RegisterEh+0x42>
    425a:	30 e0       	ldi	r19, 0x00	; 0
    425c:	8b 81       	ldd	r24, Y+3	; 0x03
    425e:	9c 81       	ldd	r25, Y+4	; 0x04
    4260:	fc 01       	movw	r30, r24
    4262:	84 89       	ldd	r24, Z+20	; 0x14
    4264:	95 89       	ldd	r25, Z+21	; 0x15
    4266:	21 e0       	ldi	r18, 0x01	; 1
    4268:	01 96       	adiw	r24, 0x01	; 1
    426a:	09 f4       	brne	.+2      	; 0x426e <_ZN15lmx2694_Handler20Read_Single_RegisterEh+0x54>
    426c:	20 e0       	ldi	r18, 0x00	; 0
    426e:	83 2f       	mov	r24, r19
    4270:	82 23       	and	r24, r18
    4272:	88 23       	and	r24, r24
    4274:	09 f0       	breq	.+2      	; 0x4278 <_ZN15lmx2694_Handler20Read_Single_RegisterEh+0x5e>
    4276:	61 c0       	rjmp	.+194    	; 0x433a <_ZN15lmx2694_Handler20Read_Single_RegisterEh+0x120>
    4278:	8b 81       	ldd	r24, Y+3	; 0x03
    427a:	9c 81       	ldd	r25, Y+4	; 0x04
    427c:	fc 01       	movw	r30, r24
    427e:	80 85       	ldd	r24, Z+8	; 0x08
    4280:	91 85       	ldd	r25, Z+9	; 0x09
    4282:	60 e0       	ldi	r22, 0x00	; 0
    4284:	0e 94 11 23 	call	0x4622	; 0x4622 <_ZN13SPI_Syn_Class5SetCSEb>
    4288:	8d 81       	ldd	r24, Y+5	; 0x05
    428a:	28 2f       	mov	r18, r24
    428c:	20 68       	ori	r18, 0x80	; 128
    428e:	8b 81       	ldd	r24, Y+3	; 0x03
    4290:	9c 81       	ldd	r25, Y+4	; 0x04
    4292:	fc 01       	movw	r30, r24
    4294:	26 8b       	std	Z+22, r18	; 0x16
    4296:	8b 81       	ldd	r24, Y+3	; 0x03
    4298:	9c 81       	ldd	r25, Y+4	; 0x04
    429a:	0d 96       	adiw	r24, 0x0d	; 13
    429c:	43 e0       	ldi	r20, 0x03	; 3
    429e:	50 e0       	ldi	r21, 0x00	; 0
    42a0:	60 e0       	ldi	r22, 0x00	; 0
    42a2:	70 e0       	ldi	r23, 0x00	; 0
    42a4:	0e 94 95 2d 	call	0x5b2a	; 0x5b2a <memset>
    42a8:	8b 81       	ldd	r24, Y+3	; 0x03
    42aa:	9c 81       	ldd	r25, Y+4	; 0x04
    42ac:	9c 01       	movw	r18, r24
    42ae:	2a 5e       	subi	r18, 0xEA	; 234
    42b0:	3f 4f       	sbci	r19, 0xFF	; 255
    42b2:	8b 81       	ldd	r24, Y+3	; 0x03
    42b4:	9c 81       	ldd	r25, Y+4	; 0x04
    42b6:	fc 01       	movw	r30, r24
    42b8:	80 85       	ldd	r24, Z+8	; 0x08
    42ba:	91 85       	ldd	r25, Z+9	; 0x09
    42bc:	41 e0       	ldi	r20, 0x01	; 1
    42be:	b9 01       	movw	r22, r18
    42c0:	0e 94 d9 22 	call	0x45b2	; 0x45b2 <_ZN13SPI_Syn_Class5WriteEPKhh>
    42c4:	28 2f       	mov	r18, r24
    42c6:	30 e0       	ldi	r19, 0x00	; 0
    42c8:	8b 81       	ldd	r24, Y+3	; 0x03
    42ca:	9c 81       	ldd	r25, Y+4	; 0x04
    42cc:	fc 01       	movw	r30, r24
    42ce:	22 8b       	std	Z+18, r18	; 0x12
    42d0:	33 8b       	std	Z+19, r19	; 0x13
    42d2:	8b 81       	ldd	r24, Y+3	; 0x03
    42d4:	9c 81       	ldd	r25, Y+4	; 0x04
    42d6:	9c 01       	movw	r18, r24
    42d8:	23 5f       	subi	r18, 0xF3	; 243
    42da:	3f 4f       	sbci	r19, 0xFF	; 255
    42dc:	8b 81       	ldd	r24, Y+3	; 0x03
    42de:	9c 81       	ldd	r25, Y+4	; 0x04
    42e0:	fc 01       	movw	r30, r24
    42e2:	80 85       	ldd	r24, Z+8	; 0x08
    42e4:	91 85       	ldd	r25, Z+9	; 0x09
    42e6:	42 e0       	ldi	r20, 0x02	; 2
    42e8:	b9 01       	movw	r22, r18
    42ea:	0e 94 f5 22 	call	0x45ea	; 0x45ea <_ZN13SPI_Syn_Class4ReadEPhh>
    42ee:	28 2f       	mov	r18, r24
    42f0:	30 e0       	ldi	r19, 0x00	; 0
    42f2:	8b 81       	ldd	r24, Y+3	; 0x03
    42f4:	9c 81       	ldd	r25, Y+4	; 0x04
    42f6:	fc 01       	movw	r30, r24
    42f8:	22 8b       	std	Z+18, r18	; 0x12
    42fa:	33 8b       	std	Z+19, r19	; 0x13
    42fc:	8b 81       	ldd	r24, Y+3	; 0x03
    42fe:	9c 81       	ldd	r25, Y+4	; 0x04
    4300:	fc 01       	movw	r30, r24
    4302:	85 85       	ldd	r24, Z+13	; 0x0d
    4304:	88 2f       	mov	r24, r24
    4306:	90 e0       	ldi	r25, 0x00	; 0
    4308:	38 2f       	mov	r19, r24
    430a:	22 27       	eor	r18, r18
    430c:	8b 81       	ldd	r24, Y+3	; 0x03
    430e:	9c 81       	ldd	r25, Y+4	; 0x04
    4310:	fc 01       	movw	r30, r24
    4312:	86 85       	ldd	r24, Z+14	; 0x0e
    4314:	88 2f       	mov	r24, r24
    4316:	90 e0       	ldi	r25, 0x00	; 0
    4318:	82 0f       	add	r24, r18
    431a:	93 1f       	adc	r25, r19
    431c:	9c 01       	movw	r18, r24
    431e:	8b 81       	ldd	r24, Y+3	; 0x03
    4320:	9c 81       	ldd	r25, Y+4	; 0x04
    4322:	fc 01       	movw	r30, r24
    4324:	24 8b       	std	Z+20, r18	; 0x14
    4326:	35 8b       	std	Z+21, r19	; 0x15
    4328:	8b 81       	ldd	r24, Y+3	; 0x03
    432a:	9c 81       	ldd	r25, Y+4	; 0x04
    432c:	fc 01       	movw	r30, r24
    432e:	80 85       	ldd	r24, Z+8	; 0x08
    4330:	91 85       	ldd	r25, Z+9	; 0x09
    4332:	61 e0       	ldi	r22, 0x01	; 1
    4334:	0e 94 11 23 	call	0x4622	; 0x4622 <_ZN13SPI_Syn_Class5SetCSEb>
    4338:	88 cf       	rjmp	.-240    	; 0x424a <_ZN15lmx2694_Handler20Read_Single_RegisterEh+0x30>
    433a:	8b 81       	ldd	r24, Y+3	; 0x03
    433c:	9c 81       	ldd	r25, Y+4	; 0x04
    433e:	fc 01       	movw	r30, r24
    4340:	24 81       	ldd	r18, Z+4	; 0x04
    4342:	35 81       	ldd	r19, Z+5	; 0x05
    4344:	8d 81       	ldd	r24, Y+5	; 0x05
    4346:	88 2f       	mov	r24, r24
    4348:	90 e0       	ldi	r25, 0x00	; 0
    434a:	88 0f       	add	r24, r24
    434c:	99 1f       	adc	r25, r25
    434e:	82 0f       	add	r24, r18
    4350:	93 1f       	adc	r25, r19
    4352:	2b 81       	ldd	r18, Y+3	; 0x03
    4354:	3c 81       	ldd	r19, Y+4	; 0x04
    4356:	f9 01       	movw	r30, r18
    4358:	24 89       	ldd	r18, Z+20	; 0x14
    435a:	35 89       	ldd	r19, Z+21	; 0x15
    435c:	fc 01       	movw	r30, r24
    435e:	20 83       	st	Z, r18
    4360:	31 83       	std	Z+1, r19	; 0x01
    4362:	8b 81       	ldd	r24, Y+3	; 0x03
    4364:	9c 81       	ldd	r25, Y+4	; 0x04
    4366:	61 e0       	ldi	r22, 0x01	; 1
    4368:	0e 94 c1 21 	call	0x4382	; 0x4382 <_ZN15lmx2694_Handler19Set_MUXOUT_READBACKEb>
    436c:	8b 81       	ldd	r24, Y+3	; 0x03
    436e:	9c 81       	ldd	r25, Y+4	; 0x04
    4370:	fc 01       	movw	r30, r24
    4372:	84 89       	ldd	r24, Z+20	; 0x14
    4374:	95 89       	ldd	r25, Z+21	; 0x15
    4376:	25 96       	adiw	r28, 0x05	; 5
    4378:	cd bf       	out	0x3d, r28	; 61
    437a:	de bf       	out	0x3e, r29	; 62
    437c:	df 91       	pop	r29
    437e:	cf 91       	pop	r28
    4380:	08 95       	ret

00004382 <_ZN15lmx2694_Handler19Set_MUXOUT_READBACKEb>:
    4382:	cf 93       	push	r28
    4384:	df 93       	push	r29
    4386:	00 d0       	rcall	.+0      	; 0x4388 <_ZN15lmx2694_Handler19Set_MUXOUT_READBACKEb+0x6>
    4388:	1f 92       	push	r1
    438a:	cd b7       	in	r28, 0x3d	; 61
    438c:	de b7       	in	r29, 0x3e	; 62
    438e:	89 83       	std	Y+1, r24	; 0x01
    4390:	9a 83       	std	Y+2, r25	; 0x02
    4392:	6b 83       	std	Y+3, r22	; 0x03
    4394:	8b 81       	ldd	r24, Y+3	; 0x03
    4396:	88 23       	and	r24, r24
    4398:	81 f0       	breq	.+32     	; 0x43ba <_ZN15lmx2694_Handler19Set_MUXOUT_READBACKEb+0x38>
    439a:	89 81       	ldd	r24, Y+1	; 0x01
    439c:	9a 81       	ldd	r25, Y+2	; 0x02
    439e:	fc 01       	movw	r30, r24
    43a0:	84 81       	ldd	r24, Z+4	; 0x04
    43a2:	95 81       	ldd	r25, Z+5	; 0x05
    43a4:	fc 01       	movw	r30, r24
    43a6:	80 81       	ld	r24, Z
    43a8:	91 81       	ldd	r25, Z+1	; 0x01
    43aa:	9c 01       	movw	r18, r24
    43ac:	24 60       	ori	r18, 0x04	; 4
    43ae:	89 81       	ldd	r24, Y+1	; 0x01
    43b0:	9a 81       	ldd	r25, Y+2	; 0x02
    43b2:	fc 01       	movw	r30, r24
    43b4:	24 8b       	std	Z+20, r18	; 0x14
    43b6:	35 8b       	std	Z+21, r19	; 0x15
    43b8:	0f c0       	rjmp	.+30     	; 0x43d8 <_ZN15lmx2694_Handler19Set_MUXOUT_READBACKEb+0x56>
    43ba:	89 81       	ldd	r24, Y+1	; 0x01
    43bc:	9a 81       	ldd	r25, Y+2	; 0x02
    43be:	fc 01       	movw	r30, r24
    43c0:	84 81       	ldd	r24, Z+4	; 0x04
    43c2:	95 81       	ldd	r25, Z+5	; 0x05
    43c4:	fc 01       	movw	r30, r24
    43c6:	80 81       	ld	r24, Z
    43c8:	91 81       	ldd	r25, Z+1	; 0x01
    43ca:	9c 01       	movw	r18, r24
    43cc:	2b 7f       	andi	r18, 0xFB	; 251
    43ce:	89 81       	ldd	r24, Y+1	; 0x01
    43d0:	9a 81       	ldd	r25, Y+2	; 0x02
    43d2:	fc 01       	movw	r30, r24
    43d4:	24 8b       	std	Z+20, r18	; 0x14
    43d6:	35 8b       	std	Z+21, r19	; 0x15
    43d8:	89 81       	ldd	r24, Y+1	; 0x01
    43da:	9a 81       	ldd	r25, Y+2	; 0x02
    43dc:	fc 01       	movw	r30, r24
    43de:	24 89       	ldd	r18, Z+20	; 0x14
    43e0:	35 89       	ldd	r19, Z+21	; 0x15
    43e2:	89 81       	ldd	r24, Y+1	; 0x01
    43e4:	9a 81       	ldd	r25, Y+2	; 0x02
    43e6:	a9 01       	movw	r20, r18
    43e8:	60 e0       	ldi	r22, 0x00	; 0
    43ea:	0e 94 8d 20 	call	0x411a	; 0x411a <_ZN15lmx2694_Handler21Write_Single_RegisterEhj>
    43ee:	9c 01       	movw	r18, r24
    43f0:	89 81       	ldd	r24, Y+1	; 0x01
    43f2:	9a 81       	ldd	r25, Y+2	; 0x02
    43f4:	fc 01       	movw	r30, r24
    43f6:	22 8b       	std	Z+18, r18	; 0x12
    43f8:	33 8b       	std	Z+19, r19	; 0x13
    43fa:	89 81       	ldd	r24, Y+1	; 0x01
    43fc:	9a 81       	ldd	r25, Y+2	; 0x02
    43fe:	fc 01       	movw	r30, r24
    4400:	82 89       	ldd	r24, Z+18	; 0x12
    4402:	93 89       	ldd	r25, Z+19	; 0x13
    4404:	23 96       	adiw	r28, 0x03	; 3
    4406:	cd bf       	out	0x3d, r28	; 61
    4408:	de bf       	out	0x3e, r29	; 62
    440a:	df 91       	pop	r29
    440c:	cf 91       	pop	r28
    440e:	08 95       	ret

00004410 <_Z41__static_initialization_and_destruction_0ii>:
    4410:	cf 93       	push	r28
    4412:	df 93       	push	r29
    4414:	00 d0       	rcall	.+0      	; 0x4416 <_Z41__static_initialization_and_destruction_0ii+0x6>
    4416:	00 d0       	rcall	.+0      	; 0x4418 <_Z41__static_initialization_and_destruction_0ii+0x8>
    4418:	cd b7       	in	r28, 0x3d	; 61
    441a:	de b7       	in	r29, 0x3e	; 62
    441c:	89 83       	std	Y+1, r24	; 0x01
    441e:	9a 83       	std	Y+2, r25	; 0x02
    4420:	6b 83       	std	Y+3, r22	; 0x03
    4422:	7c 83       	std	Y+4, r23	; 0x04
    4424:	89 81       	ldd	r24, Y+1	; 0x01
    4426:	9a 81       	ldd	r25, Y+2	; 0x02
    4428:	01 97       	sbiw	r24, 0x01	; 1
    442a:	41 f4       	brne	.+16     	; 0x443c <_Z41__static_initialization_and_destruction_0ii+0x2c>
    442c:	8b 81       	ldd	r24, Y+3	; 0x03
    442e:	9c 81       	ldd	r25, Y+4	; 0x04
    4430:	01 96       	adiw	r24, 0x01	; 1
    4432:	21 f4       	brne	.+8      	; 0x443c <_Z41__static_initialization_and_destruction_0ii+0x2c>
#include "string.h"
//#include "SPI_Async_Handler.h"

//static SPI_Async_Handler staticSPI;

static SPI_Syn_Class staticSPI;
    4434:	87 eb       	ldi	r24, 0xB7	; 183
    4436:	93 e4       	ldi	r25, 0x43	; 67
    4438:	0e 94 94 22 	call	0x4528	; 0x4528 <_ZN13SPI_Syn_ClassC1Ev>
    443c:	89 81       	ldd	r24, Y+1	; 0x01
    443e:	9a 81       	ldd	r25, Y+2	; 0x02
    4440:	89 2b       	or	r24, r25
    4442:	41 f4       	brne	.+16     	; 0x4454 <_Z41__static_initialization_and_destruction_0ii+0x44>
    4444:	8b 81       	ldd	r24, Y+3	; 0x03
    4446:	9c 81       	ldd	r25, Y+4	; 0x04
    4448:	01 96       	adiw	r24, 0x01	; 1
    444a:	21 f4       	brne	.+8      	; 0x4454 <_Z41__static_initialization_and_destruction_0ii+0x44>
    444c:	87 eb       	ldi	r24, 0xB7	; 183
    444e:	93 e4       	ldi	r25, 0x43	; 67
    4450:	0e 94 a7 22 	call	0x454e	; 0x454e <_ZN13SPI_Syn_ClassD1Ev>
		else
		{
			return false;
		}

    4454:	00 00       	nop
    4456:	24 96       	adiw	r28, 0x04	; 4
    4458:	cd bf       	out	0x3d, r28	; 61
    445a:	de bf       	out	0x3e, r29	; 62
    445c:	df 91       	pop	r29
    445e:	cf 91       	pop	r28
    4460:	08 95       	ret

00004462 <_GLOBAL__sub_I__ZN15lmx2694_HandlerC2Ev>:
    4462:	cf 93       	push	r28
    4464:	df 93       	push	r29
    4466:	cd b7       	in	r28, 0x3d	; 61
    4468:	de b7       	in	r29, 0x3e	; 62
    446a:	6f ef       	ldi	r22, 0xFF	; 255
    446c:	7f ef       	ldi	r23, 0xFF	; 255
    446e:	81 e0       	ldi	r24, 0x01	; 1
    4470:	90 e0       	ldi	r25, 0x00	; 0
    4472:	0e 94 08 22 	call	0x4410	; 0x4410 <_Z41__static_initialization_and_destruction_0ii>
    4476:	df 91       	pop	r29
    4478:	cf 91       	pop	r28
    447a:	08 95       	ret

0000447c <_GLOBAL__sub_D__ZN15lmx2694_HandlerC2Ev>:
    447c:	cf 93       	push	r28
    447e:	df 93       	push	r29
    4480:	cd b7       	in	r28, 0x3d	; 61
    4482:	de b7       	in	r29, 0x3e	; 62
    4484:	6f ef       	ldi	r22, 0xFF	; 255
    4486:	7f ef       	ldi	r23, 0xFF	; 255
    4488:	80 e0       	ldi	r24, 0x00	; 0
    448a:	90 e0       	ldi	r25, 0x00	; 0
    448c:	0e 94 08 22 	call	0x4410	; 0x4410 <_Z41__static_initialization_and_destruction_0ii>
    4490:	df 91       	pop	r29
    4492:	cf 91       	pop	r28
    4494:	08 95       	ret

00004496 <PORTC_set_pin_level>:
}
void SPI_Syn_Class::Disable(void){
	SPI_LMX_disable();
	//spi_m_sync_disable(SPI);
	
}
    4496:	cf 93       	push	r28
    4498:	df 93       	push	r29
    449a:	00 d0       	rcall	.+0      	; 0x449c <PORTC_set_pin_level+0x6>
    449c:	cd b7       	in	r28, 0x3d	; 61
    449e:	de b7       	in	r29, 0x3e	; 62
    44a0:	89 83       	std	Y+1, r24	; 0x01
    44a2:	6a 83       	std	Y+2, r22	; 0x02
    44a4:	8a 81       	ldd	r24, Y+2	; 0x02
    44a6:	88 23       	and	r24, r24
    44a8:	a9 f0       	breq	.+42     	; 0x44d4 <PORTC_set_pin_level+0x3e>
    44aa:	88 e0       	ldi	r24, 0x08	; 8
    44ac:	90 e0       	ldi	r25, 0x00	; 0
    44ae:	28 e0       	ldi	r18, 0x08	; 8
    44b0:	30 e0       	ldi	r19, 0x00	; 0
    44b2:	f9 01       	movw	r30, r18
    44b4:	21 81       	ldd	r18, Z+1	; 0x01
    44b6:	62 2f       	mov	r22, r18
    44b8:	29 81       	ldd	r18, Y+1	; 0x01
    44ba:	42 2f       	mov	r20, r18
    44bc:	50 e0       	ldi	r21, 0x00	; 0
    44be:	21 e0       	ldi	r18, 0x01	; 1
    44c0:	30 e0       	ldi	r19, 0x00	; 0
    44c2:	02 c0       	rjmp	.+4      	; 0x44c8 <PORTC_set_pin_level+0x32>
    44c4:	22 0f       	add	r18, r18
    44c6:	33 1f       	adc	r19, r19
    44c8:	4a 95       	dec	r20
    44ca:	e2 f7       	brpl	.-8      	; 0x44c4 <PORTC_set_pin_level+0x2e>
    44cc:	26 2b       	or	r18, r22
    44ce:	fc 01       	movw	r30, r24
    44d0:	21 83       	std	Z+1, r18	; 0x01
    44d2:	15 c0       	rjmp	.+42     	; 0x44fe <PORTC_set_pin_level+0x68>
    44d4:	88 e0       	ldi	r24, 0x08	; 8
    44d6:	90 e0       	ldi	r25, 0x00	; 0
    44d8:	28 e0       	ldi	r18, 0x08	; 8
    44da:	30 e0       	ldi	r19, 0x00	; 0
    44dc:	f9 01       	movw	r30, r18
    44de:	21 81       	ldd	r18, Z+1	; 0x01
    44e0:	62 2f       	mov	r22, r18
    44e2:	29 81       	ldd	r18, Y+1	; 0x01
    44e4:	42 2f       	mov	r20, r18
    44e6:	50 e0       	ldi	r21, 0x00	; 0
    44e8:	21 e0       	ldi	r18, 0x01	; 1
    44ea:	30 e0       	ldi	r19, 0x00	; 0
    44ec:	02 c0       	rjmp	.+4      	; 0x44f2 <PORTC_set_pin_level+0x5c>
    44ee:	22 0f       	add	r18, r18
    44f0:	33 1f       	adc	r19, r19
    44f2:	4a 95       	dec	r20
    44f4:	e2 f7       	brpl	.-8      	; 0x44ee <PORTC_set_pin_level+0x58>
    44f6:	20 95       	com	r18
    44f8:	26 23       	and	r18, r22
    44fa:	fc 01       	movw	r30, r24
    44fc:	21 83       	std	Z+1, r18	; 0x01
    44fe:	00 00       	nop
    4500:	0f 90       	pop	r0
    4502:	0f 90       	pop	r0
    4504:	df 91       	pop	r29
    4506:	cf 91       	pop	r28
    4508:	08 95       	ret

0000450a <CS_LMX_set_level>:
    450a:	cf 93       	push	r28
    450c:	df 93       	push	r29
    450e:	1f 92       	push	r1
    4510:	cd b7       	in	r28, 0x3d	; 61
    4512:	de b7       	in	r29, 0x3e	; 62
    4514:	89 83       	std	Y+1, r24	; 0x01
    4516:	69 81       	ldd	r22, Y+1	; 0x01
    4518:	83 e0       	ldi	r24, 0x03	; 3
    451a:	0e 94 4b 22 	call	0x4496	; 0x4496 <PORTC_set_pin_level>
    451e:	00 00       	nop
    4520:	0f 90       	pop	r0
    4522:	df 91       	pop	r29
    4524:	cf 91       	pop	r28
    4526:	08 95       	ret

00004528 <_ZN13SPI_Syn_ClassC1Ev>:
    4528:	cf 93       	push	r28
    452a:	df 93       	push	r29
    452c:	00 d0       	rcall	.+0      	; 0x452e <_ZN13SPI_Syn_ClassC1Ev+0x6>
    452e:	cd b7       	in	r28, 0x3d	; 61
    4530:	de b7       	in	r29, 0x3e	; 62
    4532:	89 83       	std	Y+1, r24	; 0x01
    4534:	9a 83       	std	Y+2, r25	; 0x02
    4536:	89 81       	ldd	r24, Y+1	; 0x01
    4538:	9a 81       	ldd	r25, Y+2	; 0x02
    453a:	80 93 88 45 	sts	0x4588, r24	; 0x804588 <ptrSPISync>
    453e:	90 93 89 45 	sts	0x4589, r25	; 0x804589 <ptrSPISync+0x1>
    4542:	00 00       	nop
    4544:	0f 90       	pop	r0
    4546:	0f 90       	pop	r0
    4548:	df 91       	pop	r29
    454a:	cf 91       	pop	r28
    454c:	08 95       	ret

0000454e <_ZN13SPI_Syn_ClassD1Ev>:
    454e:	cf 93       	push	r28
    4550:	df 93       	push	r29
    4552:	00 d0       	rcall	.+0      	; 0x4554 <_ZN13SPI_Syn_ClassD1Ev+0x6>
    4554:	cd b7       	in	r28, 0x3d	; 61
    4556:	de b7       	in	r29, 0x3e	; 62
    4558:	89 83       	std	Y+1, r24	; 0x01
    455a:	9a 83       	std	Y+2, r25	; 0x02
    455c:	00 00       	nop
    455e:	0f 90       	pop	r0
    4560:	0f 90       	pop	r0
    4562:	df 91       	pop	r29
    4564:	cf 91       	pop	r28
    4566:	08 95       	ret

00004568 <_ZN13SPI_Syn_Class4InitEv>:
    4568:	cf 93       	push	r28
    456a:	df 93       	push	r29
    456c:	00 d0       	rcall	.+0      	; 0x456e <_ZN13SPI_Syn_Class4InitEv+0x6>
    456e:	cd b7       	in	r28, 0x3d	; 61
    4570:	de b7       	in	r29, 0x3e	; 62
    4572:	89 83       	std	Y+1, r24	; 0x01
    4574:	9a 83       	std	Y+2, r25	; 0x02
    4576:	89 81       	ldd	r24, Y+1	; 0x01
    4578:	9a 81       	ldd	r25, Y+2	; 0x02
    457a:	0e 94 ca 22 	call	0x4594	; 0x4594 <_ZN13SPI_Syn_Class6EnableEv>
    457e:	89 81       	ldd	r24, Y+1	; 0x01
    4580:	9a 81       	ldd	r25, Y+2	; 0x02
    4582:	21 e0       	ldi	r18, 0x01	; 1
    4584:	fc 01       	movw	r30, r24
    4586:	20 83       	st	Z, r18
    4588:	00 00       	nop
    458a:	0f 90       	pop	r0
    458c:	0f 90       	pop	r0
    458e:	df 91       	pop	r29
    4590:	cf 91       	pop	r28
    4592:	08 95       	ret

00004594 <_ZN13SPI_Syn_Class6EnableEv>:
    4594:	cf 93       	push	r28
    4596:	df 93       	push	r29
    4598:	00 d0       	rcall	.+0      	; 0x459a <_ZN13SPI_Syn_Class6EnableEv+0x6>
    459a:	cd b7       	in	r28, 0x3d	; 61
    459c:	de b7       	in	r29, 0x3e	; 62
    459e:	89 83       	std	Y+1, r24	; 0x01
    45a0:	9a 83       	std	Y+2, r25	; 0x02
    45a2:	0e 94 a0 13 	call	0x2740	; 0x2740 <SPI_LMX_enable>
    45a6:	80 e0       	ldi	r24, 0x00	; 0
    45a8:	0f 90       	pop	r0
    45aa:	0f 90       	pop	r0
    45ac:	df 91       	pop	r29
    45ae:	cf 91       	pop	r28
    45b0:	08 95       	ret

000045b2 <_ZN13SPI_Syn_Class5WriteEPKhh>:
    45b2:	cf 93       	push	r28
    45b4:	df 93       	push	r29
    45b6:	cd b7       	in	r28, 0x3d	; 61
    45b8:	de b7       	in	r29, 0x3e	; 62
    45ba:	25 97       	sbiw	r28, 0x05	; 5
    45bc:	cd bf       	out	0x3d, r28	; 61
    45be:	de bf       	out	0x3e, r29	; 62
    45c0:	89 83       	std	Y+1, r24	; 0x01
    45c2:	9a 83       	std	Y+2, r25	; 0x02
    45c4:	6b 83       	std	Y+3, r22	; 0x03
    45c6:	7c 83       	std	Y+4, r23	; 0x04
    45c8:	4d 83       	std	Y+5, r20	; 0x05
    45ca:	89 81       	ldd	r24, Y+1	; 0x01
    45cc:	9a 81       	ldd	r25, Y+2	; 0x02
    45ce:	fc 01       	movw	r30, r24
    45d0:	10 82       	st	Z, r1
    45d2:	8b 81       	ldd	r24, Y+3	; 0x03
    45d4:	9c 81       	ldd	r25, Y+4	; 0x04
    45d6:	6d 81       	ldd	r22, Y+5	; 0x05
    45d8:	0e 94 a6 13 	call	0x274c	; 0x274c <SPI_LMX_write_block>
    45dc:	8d 81       	ldd	r24, Y+5	; 0x05
    45de:	25 96       	adiw	r28, 0x05	; 5
    45e0:	cd bf       	out	0x3d, r28	; 61
    45e2:	de bf       	out	0x3e, r29	; 62
    45e4:	df 91       	pop	r29
    45e6:	cf 91       	pop	r28
    45e8:	08 95       	ret

000045ea <_ZN13SPI_Syn_Class4ReadEPhh>:
    45ea:	cf 93       	push	r28
    45ec:	df 93       	push	r29
    45ee:	cd b7       	in	r28, 0x3d	; 61
    45f0:	de b7       	in	r29, 0x3e	; 62
    45f2:	25 97       	sbiw	r28, 0x05	; 5
    45f4:	cd bf       	out	0x3d, r28	; 61
    45f6:	de bf       	out	0x3e, r29	; 62
    45f8:	89 83       	std	Y+1, r24	; 0x01
    45fa:	9a 83       	std	Y+2, r25	; 0x02
    45fc:	6b 83       	std	Y+3, r22	; 0x03
    45fe:	7c 83       	std	Y+4, r23	; 0x04
    4600:	4d 83       	std	Y+5, r20	; 0x05
    4602:	89 81       	ldd	r24, Y+1	; 0x01
    4604:	9a 81       	ldd	r25, Y+2	; 0x02
    4606:	fc 01       	movw	r30, r24
    4608:	10 82       	st	Z, r1
    460a:	8b 81       	ldd	r24, Y+3	; 0x03
    460c:	9c 81       	ldd	r25, Y+4	; 0x04
    460e:	6d 81       	ldd	r22, Y+5	; 0x05
    4610:	0e 94 b6 13 	call	0x276c	; 0x276c <SPI_LMX_read_block>
    4614:	8d 81       	ldd	r24, Y+5	; 0x05
    4616:	25 96       	adiw	r28, 0x05	; 5
    4618:	cd bf       	out	0x3d, r28	; 61
    461a:	de bf       	out	0x3e, r29	; 62
    461c:	df 91       	pop	r29
    461e:	cf 91       	pop	r28
    4620:	08 95       	ret

00004622 <_ZN13SPI_Syn_Class5SetCSEb>:
void SPI_Syn_Class::SetCS(bool st){
    4622:	cf 93       	push	r28
    4624:	df 93       	push	r29
    4626:	00 d0       	rcall	.+0      	; 0x4628 <_ZN13SPI_Syn_Class5SetCSEb+0x6>
    4628:	1f 92       	push	r1
    462a:	cd b7       	in	r28, 0x3d	; 61
    462c:	de b7       	in	r29, 0x3e	; 62
    462e:	89 83       	std	Y+1, r24	; 0x01
    4630:	9a 83       	std	Y+2, r25	; 0x02
    4632:	6b 83       	std	Y+3, r22	; 0x03
	CS_LMX_set_level(st);
    4634:	8b 81       	ldd	r24, Y+3	; 0x03
    4636:	0e 94 85 22 	call	0x450a	; 0x450a <CS_LMX_set_level>
}
    463a:	00 00       	nop
    463c:	23 96       	adiw	r28, 0x03	; 3
    463e:	cd bf       	out	0x3d, r28	; 61
    4640:	de bf       	out	0x3e, r29	; 62
    4642:	df 91       	pop	r29
    4644:	cf 91       	pop	r28
    4646:	08 95       	ret

00004648 <__vector_28>:
static uint16_t capture_value_falling;
static uint16_t capture_value_tc_a;
static uint16_t capture_value_tc_b;

ISR(ZCD0_ZCD_vect)
{
    4648:	1f 92       	push	r1
    464a:	0f 92       	push	r0
    464c:	0f b6       	in	r0, 0x3f	; 63
    464e:	0f 92       	push	r0
    4650:	11 24       	eor	r1, r1
    4652:	0b b6       	in	r0, 0x3b	; 59
    4654:	0f 92       	push	r0
    4656:	8f 93       	push	r24
    4658:	ef 93       	push	r30
    465a:	ff 93       	push	r31
	/* Insert your ZCD interrupt handling code here */
	ptr_zero_cross_handler->leading_edge=true;
    465c:	e0 91 8e 45 	lds	r30, 0x458E	; 0x80458e <ptr_zero_cross_handler>
    4660:	f0 91 8f 45 	lds	r31, 0x458F	; 0x80458f <ptr_zero_cross_handler+0x1>
    4664:	81 e0       	ldi	r24, 0x01	; 1
    4666:	80 83       	st	Z, r24
	ptr_zero_cross_handler->falling_edge=false;
    4668:	e0 91 8e 45 	lds	r30, 0x458E	; 0x80458e <ptr_zero_cross_handler>
    466c:	f0 91 8f 45 	lds	r31, 0x458F	; 0x80458f <ptr_zero_cross_handler+0x1>
    4670:	12 82       	std	Z+2, r1	; 0x02
	//ptr_zero_cross_handler->CaptureCounterC();

	ZCD0.STATUS = ZCD_CROSSIF_bm;
    4672:	80 93 c3 06 	sts	0x06C3, r24	; 0x8006c3 <__TEXT_REGION_LENGTH__+0x7e06c3>
}
    4676:	ff 91       	pop	r31
    4678:	ef 91       	pop	r30
    467a:	8f 91       	pop	r24
    467c:	0f 90       	pop	r0
    467e:	0b be       	out	0x3b, r0	; 59
    4680:	0f 90       	pop	r0
    4682:	0f be       	out	0x3f, r0	; 63
    4684:	0f 90       	pop	r0
    4686:	1f 90       	pop	r1
    4688:	18 95       	reti

0000468a <__vector_52>:

ISR(ZCD1_ZCD_vect)
{
    468a:	1f 92       	push	r1
    468c:	0f 92       	push	r0
    468e:	0f b6       	in	r0, 0x3f	; 63
    4690:	0f 92       	push	r0
    4692:	11 24       	eor	r1, r1
    4694:	0b b6       	in	r0, 0x3b	; 59
    4696:	0f 92       	push	r0
    4698:	8f 93       	push	r24
    469a:	ef 93       	push	r30
    469c:	ff 93       	push	r31
	/* Insert your ZCD interrupt handling code here */
	ptr_zero_cross_handler->falling_edge=true;
    469e:	e0 91 8e 45 	lds	r30, 0x458E	; 0x80458e <ptr_zero_cross_handler>
    46a2:	f0 91 8f 45 	lds	r31, 0x458F	; 0x80458f <ptr_zero_cross_handler+0x1>
    46a6:	81 e0       	ldi	r24, 0x01	; 1
    46a8:	82 83       	std	Z+2, r24	; 0x02
	ptr_zero_cross_handler->leading_edge=false;
    46aa:	10 82       	st	Z, r1
	ZCD1.STATUS = ZCD_CROSSIF_bm;
    46ac:	80 93 cb 06 	sts	0x06CB, r24	; 0x8006cb <__TEXT_REGION_LENGTH__+0x7e06cb>
}
    46b0:	ff 91       	pop	r31
    46b2:	ef 91       	pop	r30
    46b4:	8f 91       	pop	r24
    46b6:	0f 90       	pop	r0
    46b8:	0b be       	out	0x3b, r0	; 59
    46ba:	0f 90       	pop	r0
    46bc:	0f be       	out	0x3f, r0	; 63
    46be:	0f 90       	pop	r0
    46c0:	1f 90       	pop	r1
    46c2:	18 95       	reti

000046c4 <_ZN18Zero_Cross_CounterC1Ev>:
	TCD0.INTFLAGS = TCD_TRIGA_bm | TCD_TRIGB_bm;
}
// default constructor
Zero_Cross_Counter::Zero_Cross_Counter()
{
	ptr_zero_cross_handler=this;
    46c4:	80 93 8e 45 	sts	0x458E, r24	; 0x80458e <ptr_zero_cross_handler>
    46c8:	90 93 8f 45 	sts	0x458F, r25	; 0x80458f <ptr_zero_cross_handler+0x1>
    46cc:	08 95       	ret

000046ce <_ZN18Zero_Cross_CounterD1Ev>:
} //Zero_Cross_Counter

// default destructor
Zero_Cross_Counter::~Zero_Cross_Counter()
    46ce:	08 95       	ret

000046d0 <_ZN18Zero_Cross_Counter15ZCD_RISING_InitEv>:
 */
static inline void PORTD_pin_set_isc(const uint8_t pin, const PORT_ISC_t isc)
{
	volatile uint8_t *port_pin_ctrl = ((uint8_t *)&PORTD + 0x10 + pin);

	*port_pin_ctrl = (*port_pin_ctrl & ~PORT_ISC_gm) | isc;
    46d0:	e1 e7       	ldi	r30, 0x71	; 113
    46d2:	f4 e0       	ldi	r31, 0x04	; 4
    46d4:	80 81       	ld	r24, Z
    46d6:	88 7f       	andi	r24, 0xF8	; 248
    46d8:	84 60       	ori	r24, 0x04	; 4
    46da:	80 83       	st	Z, r24
	volatile uint8_t *port_pin_ctrl = ((uint8_t *)&PORTD + 0x10 + pin);

	if (pull_mode == PORT_PULL_UP) {
		*port_pin_ctrl |= PORT_PULLUPEN_bm;
	} else if (pull_mode == PORT_PULL_OFF) {
		*port_pin_ctrl &= ~PORT_PULLUPEN_bm;
    46dc:	80 81       	ld	r24, Z
    46de:	87 7f       	andi	r24, 0xF7	; 247
    46e0:	80 83       	st	Z, r24
		PD1_set_pull_mode(PORT_PULL_OFF);

		ZCD0.CTRLA = 1 << ZCD_ENABLE_bp     /* Setting: enabled */
		| 1 << ZCD_OUTEN_bp    /* Setting: enabled */
		| 0 << ZCD_RUNSTDBY_bp /* Setting: disabled */
		| 0 << ZCD_INVERT_bp;  /* Setting: disabled */
    46e2:	81 e4       	ldi	r24, 0x41	; 65
    46e4:	80 93 c0 06 	sts	0x06C0, r24	; 0x8006c0 <__TEXT_REGION_LENGTH__+0x7e06c0>
    46e8:	08 95       	ret

000046ea <_ZN18Zero_Cross_Counter17TIMER_RISING_InitEv>:
	// TCB0.CNT = 0x0; /* Count: 0x0 */

	TCB0.CTRLB = 1 << TCB_ASYNC_bp      /* Asynchronous Enable: enabled */
	| 0 << TCB_CCMPEN_bp   /* Pin Output Enable: disabled */
	| 0 << TCB_CCMPINIT_bp /* Pin Initial State: disabled */
	| TCB_CNTMODE_FRQ_gc;  /* Input Capture Frequency measurement */
    46ea:	e0 e0       	ldi	r30, 0x00	; 0
    46ec:	fb e0       	ldi	r31, 0x0B	; 11
    46ee:	83 e4       	ldi	r24, 0x43	; 67
    46f0:	81 83       	std	Z+1, r24	; 0x01

	TCB0.DBGCTRL = 1 << TCB_DBGRUN_bp; /* Debug Run: enabled */
    46f2:	81 e0       	ldi	r24, 0x01	; 1
    46f4:	80 87       	std	Z+8, r24	; 0x08

	TCB0.EVCTRL = 1 << TCB_CAPTEI_bp    /* Event Input Enable: enabled */
	| 0 << TCB_EDGE_bp    /* Event Edge: disabled */
	| 0 << TCB_FILTER_bp; /* Input Capture Noise Cancellation Filter: disabled */
    46f6:	84 83       	std	Z+4, r24	; 0x04

	TCB0.INTCTRL = 1 << TCB_CAPT_bp   /* Capture or Timeout: enabled */
	| 0 << TCB_OVF_bp; /* OverFlow Interrupt: disabled */
    46f8:	85 83       	std	Z+5, r24	; 0x05

	TCB0.CTRLA = TCB_CLKSEL_DIV1_gc     /* CLK_PER */
	| 1 << TCB_ENABLE_bp   /* Enable: enabled */
	| 0 << TCB_RUNSTDBY_bp /* Run Standby: disabled */
	| 1 << TCB_SYNCUPD_bp  /* Synchronize Update: enabled */
	| 0 << TCB_CASCADE_bp; /* Cascade Two Timer/Counters: disabled */
    46fa:	81 e1       	ldi	r24, 0x11	; 17
    46fc:	80 83       	st	Z, r24

	return 0;
}
    46fe:	80 e0       	ldi	r24, 0x00	; 0
    4700:	08 95       	ret

00004702 <_ZN18Zero_Cross_Counter4InitEv>:
// default destructor
Zero_Cross_Counter::~Zero_Cross_Counter()
{
} //~Zero_Cross_Counter

bool Zero_Cross_Counter::Init(void){
    4702:	cf 93       	push	r28
    4704:	df 93       	push	r29
    4706:	ec 01       	movw	r28, r24
	ZCD_RISING_Init();
    4708:	0e 94 68 23 	call	0x46d0	; 0x46d0 <_ZN18Zero_Cross_Counter15ZCD_RISING_InitEv>
		EVSYS.USERTCB0CAPT = EVSYS_USER_CHANNEL0_gc; /* Connect user to event channel 0 */
    470c:	81 e0       	ldi	r24, 0x01	; 1
    470e:	80 93 3e 02 	sts	0x023E, r24	; 0x80023e <__TEXT_REGION_LENGTH__+0x7e023e>
	TIMER_RISING_Init();
    4712:	ce 01       	movw	r24, r28
    4714:	0e 94 75 23 	call	0x46ea	; 0x46ea <_ZN18Zero_Cross_Counter17TIMER_RISING_InitEv>

	return true;
}
    4718:	81 e0       	ldi	r24, 0x01	; 1
    471a:	df 91       	pop	r29
    471c:	cf 91       	pop	r28
    471e:	08 95       	ret

00004720 <_ZN18Zero_Cross_Counter15CaptureCounterCEv>:
	| 0 << TCB_CASCADE_bp; /* Cascade Two Timer/Counters: disabled */

	return 0;
}

void Zero_Cross_Counter::CaptureCounterC(void){
    4720:	fc 01       	movw	r30, r24
	if (toogle_bit)
    4722:	83 85       	ldd	r24, Z+11	; 0x0b
    4724:	88 23       	and	r24, r24
    4726:	51 f0       	breq	.+20     	; 0x473c <_ZN18Zero_Cross_Counter15CaptureCounterCEv+0x1c>
	{
	//	TCD0.CTRLE=TCD_SCAPTUREA_bm;
	//	while ((TCD0.STATUS & TCD_ENRDY_bm) == 0)
	//	; // Wait for Enable Ready to be high.
		capture_timer_tc_a=TCD0.CAPTUREA;
    4728:	80 91 a2 0b 	lds	r24, 0x0BA2	; 0x800ba2 <__TEXT_REGION_LENGTH__+0x7e0ba2>
    472c:	90 91 a3 0b 	lds	r25, 0x0BA3	; 0x800ba3 <__TEXT_REGION_LENGTH__+0x7e0ba3>
    4730:	87 83       	std	Z+7, r24	; 0x07
    4732:	90 87       	std	Z+8, r25	; 0x08
		if (capture_timer_tc_a>0)
    4734:	89 2b       	or	r24, r25
    4736:	99 f0       	breq	.+38     	; 0x475e <_ZN18Zero_Cross_Counter15CaptureCounterCEv+0x3e>
		{
			asm("nop");
    4738:	00 00       	nop
    473a:	11 c0       	rjmp	.+34     	; 0x475e <_ZN18Zero_Cross_Counter15CaptureCounterCEv+0x3e>
	else
	{
	//		TCD0.CTRLE=TCD_SCAPTUREB_bm;
	//		while ((TCD0.STATUS & TCD_ENRDY_bm) == 0)
	//		; // Wait for Enable Ready to be high.
		capture_timer_tc_b=TCD0.CAPTUREA;
    473c:	a0 e8       	ldi	r26, 0x80	; 128
    473e:	bb e0       	ldi	r27, 0x0B	; 11
    4740:	92 96       	adiw	r26, 0x22	; 34
    4742:	8d 91       	ld	r24, X+
    4744:	9c 91       	ld	r25, X
    4746:	93 97       	sbiw	r26, 0x23	; 35
    4748:	81 87       	std	Z+9, r24	; 0x09
    474a:	92 87       	std	Z+10, r25	; 0x0a
				capture_timer_tc_b=TCD0.CAPTUREA;
    474c:	92 96       	adiw	r26, 0x22	; 34
    474e:	8d 91       	ld	r24, X+
    4750:	9c 91       	ld	r25, X
    4752:	93 97       	sbiw	r26, 0x23	; 35
    4754:	81 87       	std	Z+9, r24	; 0x09
    4756:	92 87       	std	Z+10, r25	; 0x0a
				if (capture_timer_tc_b>0)
    4758:	89 2b       	or	r24, r25
    475a:	09 f0       	breq	.+2      	; 0x475e <_ZN18Zero_Cross_Counter15CaptureCounterCEv+0x3e>
				{
					asm("nop");
    475c:	00 00       	nop
				}
		
	}
	TCD0.CTRLE=TCD_RESTART_bm;
    475e:	84 e0       	ldi	r24, 0x04	; 4
    4760:	80 93 84 0b 	sts	0x0B84, r24	; 0x800b84 <__TEXT_REGION_LENGTH__+0x7e0b84>
	toogle_bit=!toogle_bit;
    4764:	93 85       	ldd	r25, Z+11	; 0x0b
    4766:	81 e0       	ldi	r24, 0x01	; 1
    4768:	89 27       	eor	r24, r25
    476a:	83 87       	std	Z+11, r24	; 0x0b
	leading_edge=false;
    476c:	10 82       	st	Z, r1
    476e:	08 95       	ret

00004770 <__vector_17>:
	ptr_zero_cross_handler->CaptureCounterB_Falling();
	TCB1.INTFLAGS = TCB_CAPT_bm;
}

ISR(TCD0_TRIG_vect)
{
    4770:	1f 92       	push	r1
    4772:	0f 92       	push	r0
    4774:	0f b6       	in	r0, 0x3f	; 63
    4776:	0f 92       	push	r0
    4778:	11 24       	eor	r1, r1
    477a:	0b b6       	in	r0, 0x3b	; 59
    477c:	0f 92       	push	r0
    477e:	2f 93       	push	r18
    4780:	3f 93       	push	r19
    4782:	4f 93       	push	r20
    4784:	5f 93       	push	r21
    4786:	6f 93       	push	r22
    4788:	7f 93       	push	r23
    478a:	8f 93       	push	r24
    478c:	9f 93       	push	r25
    478e:	af 93       	push	r26
    4790:	bf 93       	push	r27
    4792:	ef 93       	push	r30
    4794:	ff 93       	push	r31
		//capture_value_b= TCD0_CAPTUREA;
		capture_value_tc_a= TCD0_CAPTUREA;
    4796:	80 91 a2 0b 	lds	r24, 0x0BA2	; 0x800ba2 <__TEXT_REGION_LENGTH__+0x7e0ba2>
    479a:	90 91 a3 0b 	lds	r25, 0x0BA3	; 0x800ba3 <__TEXT_REGION_LENGTH__+0x7e0ba3>
		//capture_value_tc_b= TCD0_CAPTUREB;
		ptr_zero_cross_handler->CaptureCounterC();
    479e:	80 91 8e 45 	lds	r24, 0x458E	; 0x80458e <ptr_zero_cross_handler>
    47a2:	90 91 8f 45 	lds	r25, 0x458F	; 0x80458f <ptr_zero_cross_handler+0x1>
    47a6:	0e 94 90 23 	call	0x4720	; 0x4720 <_ZN18Zero_Cross_Counter15CaptureCounterCEv>
	/* Insert your TCD TRIGB interrupt handling code here */
	
	

	/* TRIGA and TRIGB interrupt flags have to be cleared manually */
	TCD0.INTFLAGS = TCD_TRIGA_bm | TCD_TRIGB_bm;
    47aa:	8c e0       	ldi	r24, 0x0C	; 12
    47ac:	80 93 8d 0b 	sts	0x0B8D, r24	; 0x800b8d <__TEXT_REGION_LENGTH__+0x7e0b8d>
}
    47b0:	ff 91       	pop	r31
    47b2:	ef 91       	pop	r30
    47b4:	bf 91       	pop	r27
    47b6:	af 91       	pop	r26
    47b8:	9f 91       	pop	r25
    47ba:	8f 91       	pop	r24
    47bc:	7f 91       	pop	r23
    47be:	6f 91       	pop	r22
    47c0:	5f 91       	pop	r21
    47c2:	4f 91       	pop	r20
    47c4:	3f 91       	pop	r19
    47c6:	2f 91       	pop	r18
    47c8:	0f 90       	pop	r0
    47ca:	0b be       	out	0x3b, r0	; 59
    47cc:	0f 90       	pop	r0
    47ce:	0f be       	out	0x3f, r0	; 63
    47d0:	0f 90       	pop	r0
    47d2:	1f 90       	pop	r1
    47d4:	18 95       	reti

000047d6 <_ZN18Zero_Cross_Counter22CaptureCounterB_RisingEv>:
	TCD0.CTRLE=TCD_RESTART_bm;
	toogle_bit=!toogle_bit;
	leading_edge=false;
}
void Zero_Cross_Counter::CaptureCounterB_Rising(void){
	capture_timer_rise= capture_value_rising;
    47d6:	20 91 8c 45 	lds	r18, 0x458C	; 0x80458c <_ZL20capture_value_rising>
    47da:	30 91 8d 45 	lds	r19, 0x458D	; 0x80458d <_ZL20capture_value_rising+0x1>
    47de:	fc 01       	movw	r30, r24
    47e0:	25 83       	std	Z+5, r18	; 0x05
    47e2:	36 83       	std	Z+6, r19	; 0x06
    47e4:	08 95       	ret

000047e6 <__vector_14>:
	ptr_zero_cross_handler->falling_edge=true;
	ptr_zero_cross_handler->leading_edge=false;
	ZCD1.STATUS = ZCD_CROSSIF_bm;
}
ISR(TCB0_INT_vect)
{
    47e6:	1f 92       	push	r1
    47e8:	0f 92       	push	r0
    47ea:	0f b6       	in	r0, 0x3f	; 63
    47ec:	0f 92       	push	r0
    47ee:	11 24       	eor	r1, r1
    47f0:	0b b6       	in	r0, 0x3b	; 59
    47f2:	0f 92       	push	r0
    47f4:	2f 93       	push	r18
    47f6:	3f 93       	push	r19
    47f8:	4f 93       	push	r20
    47fa:	5f 93       	push	r21
    47fc:	6f 93       	push	r22
    47fe:	7f 93       	push	r23
    4800:	8f 93       	push	r24
    4802:	9f 93       	push	r25
    4804:	af 93       	push	r26
    4806:	bf 93       	push	r27
    4808:	cf 93       	push	r28
    480a:	df 93       	push	r29
    480c:	ef 93       	push	r30
    480e:	ff 93       	push	r31
	capture_value_rising= TCB0.CNT;
    4810:	c0 e0       	ldi	r28, 0x00	; 0
    4812:	db e0       	ldi	r29, 0x0B	; 11
    4814:	8a 85       	ldd	r24, Y+10	; 0x0a
    4816:	9b 85       	ldd	r25, Y+11	; 0x0b
    4818:	80 93 8c 45 	sts	0x458C, r24	; 0x80458c <_ZL20capture_value_rising>
    481c:	90 93 8d 45 	sts	0x458D, r25	; 0x80458d <_ZL20capture_value_rising+0x1>
// 	if (ptr_zero_cross_handler->leading_edge==true)
// 	{
// 		ptr_zero_cross_handler->CaptureCounterB_Rising();
	ptr_zero_cross_handler->CaptureCounterB_Rising();
    4820:	80 91 8e 45 	lds	r24, 0x458E	; 0x80458e <ptr_zero_cross_handler>
    4824:	90 91 8f 45 	lds	r25, 0x458F	; 0x80458f <ptr_zero_cross_handler+0x1>
    4828:	0e 94 eb 23 	call	0x47d6	; 0x47d6 <_ZN18Zero_Cross_Counter22CaptureCounterB_RisingEv>

	TCB0.INTFLAGS = TCB_CAPT_bm;
    482c:	81 e0       	ldi	r24, 0x01	; 1
    482e:	8e 83       	std	Y+6, r24	; 0x06
}
    4830:	ff 91       	pop	r31
    4832:	ef 91       	pop	r30
    4834:	df 91       	pop	r29
    4836:	cf 91       	pop	r28
    4838:	bf 91       	pop	r27
    483a:	af 91       	pop	r26
    483c:	9f 91       	pop	r25
    483e:	8f 91       	pop	r24
    4840:	7f 91       	pop	r23
    4842:	6f 91       	pop	r22
    4844:	5f 91       	pop	r21
    4846:	4f 91       	pop	r20
    4848:	3f 91       	pop	r19
    484a:	2f 91       	pop	r18
    484c:	0f 90       	pop	r0
    484e:	0b be       	out	0x3b, r0	; 59
    4850:	0f 90       	pop	r0
    4852:	0f be       	out	0x3f, r0	; 63
    4854:	0f 90       	pop	r0
    4856:	1f 90       	pop	r1
    4858:	18 95       	reti

0000485a <_ZN18Zero_Cross_Counter23CaptureCounterB_FallingEv>:
}
void Zero_Cross_Counter::CaptureCounterB_Rising(void){
	capture_timer_rise= capture_value_rising;
}
void Zero_Cross_Counter::CaptureCounterB_Falling(void){
	capture_timer_fall= capture_value_falling;
    485a:	20 91 8a 45 	lds	r18, 0x458A	; 0x80458a <_ZL21capture_value_falling>
    485e:	30 91 8b 45 	lds	r19, 0x458B	; 0x80458b <_ZL21capture_value_falling+0x1>
    4862:	fc 01       	movw	r30, r24
    4864:	23 83       	std	Z+3, r18	; 0x03
    4866:	34 83       	std	Z+4, r19	; 0x04
    4868:	08 95       	ret

0000486a <__vector_15>:
	ptr_zero_cross_handler->CaptureCounterB_Rising();

	TCB0.INTFLAGS = TCB_CAPT_bm;
}
ISR(TCB1_INT_vect)
{
    486a:	1f 92       	push	r1
    486c:	0f 92       	push	r0
    486e:	0f b6       	in	r0, 0x3f	; 63
    4870:	0f 92       	push	r0
    4872:	11 24       	eor	r1, r1
    4874:	0b b6       	in	r0, 0x3b	; 59
    4876:	0f 92       	push	r0
    4878:	2f 93       	push	r18
    487a:	3f 93       	push	r19
    487c:	4f 93       	push	r20
    487e:	5f 93       	push	r21
    4880:	6f 93       	push	r22
    4882:	7f 93       	push	r23
    4884:	8f 93       	push	r24
    4886:	9f 93       	push	r25
    4888:	af 93       	push	r26
    488a:	bf 93       	push	r27
    488c:	cf 93       	push	r28
    488e:	df 93       	push	r29
    4890:	ef 93       	push	r30
    4892:	ff 93       	push	r31
		capture_value_falling= TCB1.CNT;
    4894:	c0 e1       	ldi	r28, 0x10	; 16
    4896:	db e0       	ldi	r29, 0x0B	; 11
    4898:	8a 85       	ldd	r24, Y+10	; 0x0a
    489a:	9b 85       	ldd	r25, Y+11	; 0x0b
    489c:	80 93 8a 45 	sts	0x458A, r24	; 0x80458a <_ZL21capture_value_falling>
    48a0:	90 93 8b 45 	sts	0x458B, r25	; 0x80458b <_ZL21capture_value_falling+0x1>
// 		if (ptr_zero_cross_handler->falling_edge==true)
// 		{
// 			ptr_zero_cross_handler->CaptureCounterB_Falling();
// 			
	ptr_zero_cross_handler->CaptureCounterB_Falling();
    48a4:	80 91 8e 45 	lds	r24, 0x458E	; 0x80458e <ptr_zero_cross_handler>
    48a8:	90 91 8f 45 	lds	r25, 0x458F	; 0x80458f <ptr_zero_cross_handler+0x1>
    48ac:	0e 94 2d 24 	call	0x485a	; 0x485a <_ZN18Zero_Cross_Counter23CaptureCounterB_FallingEv>
	TCB1.INTFLAGS = TCB_CAPT_bm;
    48b0:	81 e0       	ldi	r24, 0x01	; 1
    48b2:	8e 83       	std	Y+6, r24	; 0x06
}
    48b4:	ff 91       	pop	r31
    48b6:	ef 91       	pop	r30
    48b8:	df 91       	pop	r29
    48ba:	cf 91       	pop	r28
    48bc:	bf 91       	pop	r27
    48be:	af 91       	pop	r26
    48c0:	9f 91       	pop	r25
    48c2:	8f 91       	pop	r24
    48c4:	7f 91       	pop	r23
    48c6:	6f 91       	pop	r22
    48c8:	5f 91       	pop	r21
    48ca:	4f 91       	pop	r20
    48cc:	3f 91       	pop	r19
    48ce:	2f 91       	pop	r18
    48d0:	0f 90       	pop	r0
    48d2:	0b be       	out	0x3b, r0	; 59
    48d4:	0f 90       	pop	r0
    48d6:	0f be       	out	0x3f, r0	; 63
    48d8:	0f 90       	pop	r0
    48da:	1f 90       	pop	r1
    48dc:	18 95       	reti

000048de <__subsf3>:
    48de:	50 58       	subi	r21, 0x80	; 128

000048e0 <__addsf3>:
    48e0:	bb 27       	eor	r27, r27
    48e2:	aa 27       	eor	r26, r26
    48e4:	0e 94 87 24 	call	0x490e	; 0x490e <__addsf3x>
    48e8:	0c 94 41 26 	jmp	0x4c82	; 0x4c82 <__fp_round>
    48ec:	0e 94 33 26 	call	0x4c66	; 0x4c66 <__fp_pscA>
    48f0:	38 f0       	brcs	.+14     	; 0x4900 <__addsf3+0x20>
    48f2:	0e 94 3a 26 	call	0x4c74	; 0x4c74 <__fp_pscB>
    48f6:	20 f0       	brcs	.+8      	; 0x4900 <__addsf3+0x20>
    48f8:	39 f4       	brne	.+14     	; 0x4908 <__addsf3+0x28>
    48fa:	9f 3f       	cpi	r25, 0xFF	; 255
    48fc:	19 f4       	brne	.+6      	; 0x4904 <__addsf3+0x24>
    48fe:	26 f4       	brtc	.+8      	; 0x4908 <__addsf3+0x28>
    4900:	0c 94 30 26 	jmp	0x4c60	; 0x4c60 <__fp_nan>
    4904:	0e f4       	brtc	.+2      	; 0x4908 <__addsf3+0x28>
    4906:	e0 95       	com	r30
    4908:	e7 fb       	bst	r30, 7
    490a:	0c 94 01 26 	jmp	0x4c02	; 0x4c02 <__fp_inf>

0000490e <__addsf3x>:
    490e:	e9 2f       	mov	r30, r25
    4910:	0e 94 52 26 	call	0x4ca4	; 0x4ca4 <__fp_split3>
    4914:	58 f3       	brcs	.-42     	; 0x48ec <__addsf3+0xc>
    4916:	ba 17       	cp	r27, r26
    4918:	62 07       	cpc	r22, r18
    491a:	73 07       	cpc	r23, r19
    491c:	84 07       	cpc	r24, r20
    491e:	95 07       	cpc	r25, r21
    4920:	20 f0       	brcs	.+8      	; 0x492a <__addsf3x+0x1c>
    4922:	79 f4       	brne	.+30     	; 0x4942 <__addsf3x+0x34>
    4924:	a6 f5       	brtc	.+104    	; 0x498e <__addsf3x+0x80>
    4926:	0c 94 8c 26 	jmp	0x4d18	; 0x4d18 <__fp_zero>
    492a:	0e f4       	brtc	.+2      	; 0x492e <__addsf3x+0x20>
    492c:	e0 95       	com	r30
    492e:	0b 2e       	mov	r0, r27
    4930:	ba 2f       	mov	r27, r26
    4932:	a0 2d       	mov	r26, r0
    4934:	0b 01       	movw	r0, r22
    4936:	b9 01       	movw	r22, r18
    4938:	90 01       	movw	r18, r0
    493a:	0c 01       	movw	r0, r24
    493c:	ca 01       	movw	r24, r20
    493e:	a0 01       	movw	r20, r0
    4940:	11 24       	eor	r1, r1
    4942:	ff 27       	eor	r31, r31
    4944:	59 1b       	sub	r21, r25
    4946:	99 f0       	breq	.+38     	; 0x496e <__addsf3x+0x60>
    4948:	59 3f       	cpi	r21, 0xF9	; 249
    494a:	50 f4       	brcc	.+20     	; 0x4960 <__addsf3x+0x52>
    494c:	50 3e       	cpi	r21, 0xE0	; 224
    494e:	68 f1       	brcs	.+90     	; 0x49aa <__addsf3x+0x9c>
    4950:	1a 16       	cp	r1, r26
    4952:	f0 40       	sbci	r31, 0x00	; 0
    4954:	a2 2f       	mov	r26, r18
    4956:	23 2f       	mov	r18, r19
    4958:	34 2f       	mov	r19, r20
    495a:	44 27       	eor	r20, r20
    495c:	58 5f       	subi	r21, 0xF8	; 248
    495e:	f3 cf       	rjmp	.-26     	; 0x4946 <__addsf3x+0x38>
    4960:	46 95       	lsr	r20
    4962:	37 95       	ror	r19
    4964:	27 95       	ror	r18
    4966:	a7 95       	ror	r26
    4968:	f0 40       	sbci	r31, 0x00	; 0
    496a:	53 95       	inc	r21
    496c:	c9 f7       	brne	.-14     	; 0x4960 <__addsf3x+0x52>
    496e:	7e f4       	brtc	.+30     	; 0x498e <__addsf3x+0x80>
    4970:	1f 16       	cp	r1, r31
    4972:	ba 0b       	sbc	r27, r26
    4974:	62 0b       	sbc	r22, r18
    4976:	73 0b       	sbc	r23, r19
    4978:	84 0b       	sbc	r24, r20
    497a:	ba f0       	brmi	.+46     	; 0x49aa <__addsf3x+0x9c>
    497c:	91 50       	subi	r25, 0x01	; 1
    497e:	a1 f0       	breq	.+40     	; 0x49a8 <__addsf3x+0x9a>
    4980:	ff 0f       	add	r31, r31
    4982:	bb 1f       	adc	r27, r27
    4984:	66 1f       	adc	r22, r22
    4986:	77 1f       	adc	r23, r23
    4988:	88 1f       	adc	r24, r24
    498a:	c2 f7       	brpl	.-16     	; 0x497c <__addsf3x+0x6e>
    498c:	0e c0       	rjmp	.+28     	; 0x49aa <__addsf3x+0x9c>
    498e:	ba 0f       	add	r27, r26
    4990:	62 1f       	adc	r22, r18
    4992:	73 1f       	adc	r23, r19
    4994:	84 1f       	adc	r24, r20
    4996:	48 f4       	brcc	.+18     	; 0x49aa <__addsf3x+0x9c>
    4998:	87 95       	ror	r24
    499a:	77 95       	ror	r23
    499c:	67 95       	ror	r22
    499e:	b7 95       	ror	r27
    49a0:	f7 95       	ror	r31
    49a2:	9e 3f       	cpi	r25, 0xFE	; 254
    49a4:	08 f0       	brcs	.+2      	; 0x49a8 <__addsf3x+0x9a>
    49a6:	b0 cf       	rjmp	.-160    	; 0x4908 <__addsf3+0x28>
    49a8:	93 95       	inc	r25
    49aa:	88 0f       	add	r24, r24
    49ac:	08 f0       	brcs	.+2      	; 0x49b0 <__addsf3x+0xa2>
    49ae:	99 27       	eor	r25, r25
    49b0:	ee 0f       	add	r30, r30
    49b2:	97 95       	ror	r25
    49b4:	87 95       	ror	r24
    49b6:	08 95       	ret

000049b8 <__cmpsf2>:
    49b8:	0e 94 dd 25 	call	0x4bba	; 0x4bba <__fp_cmp>
    49bc:	08 f4       	brcc	.+2      	; 0x49c0 <__cmpsf2+0x8>
    49be:	81 e0       	ldi	r24, 0x01	; 1
    49c0:	08 95       	ret

000049c2 <__divsf3>:
    49c2:	0e 94 f5 24 	call	0x49ea	; 0x49ea <__divsf3x>
    49c6:	0c 94 41 26 	jmp	0x4c82	; 0x4c82 <__fp_round>
    49ca:	0e 94 3a 26 	call	0x4c74	; 0x4c74 <__fp_pscB>
    49ce:	58 f0       	brcs	.+22     	; 0x49e6 <__divsf3+0x24>
    49d0:	0e 94 33 26 	call	0x4c66	; 0x4c66 <__fp_pscA>
    49d4:	40 f0       	brcs	.+16     	; 0x49e6 <__divsf3+0x24>
    49d6:	29 f4       	brne	.+10     	; 0x49e2 <__divsf3+0x20>
    49d8:	5f 3f       	cpi	r21, 0xFF	; 255
    49da:	29 f0       	breq	.+10     	; 0x49e6 <__divsf3+0x24>
    49dc:	0c 94 01 26 	jmp	0x4c02	; 0x4c02 <__fp_inf>
    49e0:	51 11       	cpse	r21, r1
    49e2:	0c 94 8d 26 	jmp	0x4d1a	; 0x4d1a <__fp_szero>
    49e6:	0c 94 30 26 	jmp	0x4c60	; 0x4c60 <__fp_nan>

000049ea <__divsf3x>:
    49ea:	0e 94 52 26 	call	0x4ca4	; 0x4ca4 <__fp_split3>
    49ee:	68 f3       	brcs	.-38     	; 0x49ca <__divsf3+0x8>

000049f0 <__divsf3_pse>:
    49f0:	99 23       	and	r25, r25
    49f2:	b1 f3       	breq	.-20     	; 0x49e0 <__divsf3+0x1e>
    49f4:	55 23       	and	r21, r21
    49f6:	91 f3       	breq	.-28     	; 0x49dc <__divsf3+0x1a>
    49f8:	95 1b       	sub	r25, r21
    49fa:	55 0b       	sbc	r21, r21
    49fc:	bb 27       	eor	r27, r27
    49fe:	aa 27       	eor	r26, r26
    4a00:	62 17       	cp	r22, r18
    4a02:	73 07       	cpc	r23, r19
    4a04:	84 07       	cpc	r24, r20
    4a06:	38 f0       	brcs	.+14     	; 0x4a16 <__divsf3_pse+0x26>
    4a08:	9f 5f       	subi	r25, 0xFF	; 255
    4a0a:	5f 4f       	sbci	r21, 0xFF	; 255
    4a0c:	22 0f       	add	r18, r18
    4a0e:	33 1f       	adc	r19, r19
    4a10:	44 1f       	adc	r20, r20
    4a12:	aa 1f       	adc	r26, r26
    4a14:	a9 f3       	breq	.-22     	; 0x4a00 <__divsf3_pse+0x10>
    4a16:	35 d0       	rcall	.+106    	; 0x4a82 <__divsf3_pse+0x92>
    4a18:	0e 2e       	mov	r0, r30
    4a1a:	3a f0       	brmi	.+14     	; 0x4a2a <__divsf3_pse+0x3a>
    4a1c:	e0 e8       	ldi	r30, 0x80	; 128
    4a1e:	32 d0       	rcall	.+100    	; 0x4a84 <__divsf3_pse+0x94>
    4a20:	91 50       	subi	r25, 0x01	; 1
    4a22:	50 40       	sbci	r21, 0x00	; 0
    4a24:	e6 95       	lsr	r30
    4a26:	00 1c       	adc	r0, r0
    4a28:	ca f7       	brpl	.-14     	; 0x4a1c <__divsf3_pse+0x2c>
    4a2a:	2b d0       	rcall	.+86     	; 0x4a82 <__divsf3_pse+0x92>
    4a2c:	fe 2f       	mov	r31, r30
    4a2e:	29 d0       	rcall	.+82     	; 0x4a82 <__divsf3_pse+0x92>
    4a30:	66 0f       	add	r22, r22
    4a32:	77 1f       	adc	r23, r23
    4a34:	88 1f       	adc	r24, r24
    4a36:	bb 1f       	adc	r27, r27
    4a38:	26 17       	cp	r18, r22
    4a3a:	37 07       	cpc	r19, r23
    4a3c:	48 07       	cpc	r20, r24
    4a3e:	ab 07       	cpc	r26, r27
    4a40:	b0 e8       	ldi	r27, 0x80	; 128
    4a42:	09 f0       	breq	.+2      	; 0x4a46 <__divsf3_pse+0x56>
    4a44:	bb 0b       	sbc	r27, r27
    4a46:	80 2d       	mov	r24, r0
    4a48:	bf 01       	movw	r22, r30
    4a4a:	ff 27       	eor	r31, r31
    4a4c:	93 58       	subi	r25, 0x83	; 131
    4a4e:	5f 4f       	sbci	r21, 0xFF	; 255
    4a50:	3a f0       	brmi	.+14     	; 0x4a60 <__divsf3_pse+0x70>
    4a52:	9e 3f       	cpi	r25, 0xFE	; 254
    4a54:	51 05       	cpc	r21, r1
    4a56:	78 f0       	brcs	.+30     	; 0x4a76 <__divsf3_pse+0x86>
    4a58:	0c 94 01 26 	jmp	0x4c02	; 0x4c02 <__fp_inf>
    4a5c:	0c 94 8d 26 	jmp	0x4d1a	; 0x4d1a <__fp_szero>
    4a60:	5f 3f       	cpi	r21, 0xFF	; 255
    4a62:	e4 f3       	brlt	.-8      	; 0x4a5c <__divsf3_pse+0x6c>
    4a64:	98 3e       	cpi	r25, 0xE8	; 232
    4a66:	d4 f3       	brlt	.-12     	; 0x4a5c <__divsf3_pse+0x6c>
    4a68:	86 95       	lsr	r24
    4a6a:	77 95       	ror	r23
    4a6c:	67 95       	ror	r22
    4a6e:	b7 95       	ror	r27
    4a70:	f7 95       	ror	r31
    4a72:	9f 5f       	subi	r25, 0xFF	; 255
    4a74:	c9 f7       	brne	.-14     	; 0x4a68 <__divsf3_pse+0x78>
    4a76:	88 0f       	add	r24, r24
    4a78:	91 1d       	adc	r25, r1
    4a7a:	96 95       	lsr	r25
    4a7c:	87 95       	ror	r24
    4a7e:	97 f9       	bld	r25, 7
    4a80:	08 95       	ret
    4a82:	e1 e0       	ldi	r30, 0x01	; 1
    4a84:	66 0f       	add	r22, r22
    4a86:	77 1f       	adc	r23, r23
    4a88:	88 1f       	adc	r24, r24
    4a8a:	bb 1f       	adc	r27, r27
    4a8c:	62 17       	cp	r22, r18
    4a8e:	73 07       	cpc	r23, r19
    4a90:	84 07       	cpc	r24, r20
    4a92:	ba 07       	cpc	r27, r26
    4a94:	20 f0       	brcs	.+8      	; 0x4a9e <__divsf3_pse+0xae>
    4a96:	62 1b       	sub	r22, r18
    4a98:	73 0b       	sbc	r23, r19
    4a9a:	84 0b       	sbc	r24, r20
    4a9c:	ba 0b       	sbc	r27, r26
    4a9e:	ee 1f       	adc	r30, r30
    4aa0:	88 f7       	brcc	.-30     	; 0x4a84 <__divsf3_pse+0x94>
    4aa2:	e0 95       	com	r30
    4aa4:	08 95       	ret

00004aa6 <__fixsfsi>:
    4aa6:	0e 94 5a 25 	call	0x4ab4	; 0x4ab4 <__fixunssfsi>
    4aaa:	68 94       	set
    4aac:	b1 11       	cpse	r27, r1
    4aae:	0c 94 8d 26 	jmp	0x4d1a	; 0x4d1a <__fp_szero>
    4ab2:	08 95       	ret

00004ab4 <__fixunssfsi>:
    4ab4:	0e 94 5a 26 	call	0x4cb4	; 0x4cb4 <__fp_splitA>
    4ab8:	88 f0       	brcs	.+34     	; 0x4adc <__fixunssfsi+0x28>
    4aba:	9f 57       	subi	r25, 0x7F	; 127
    4abc:	98 f0       	brcs	.+38     	; 0x4ae4 <__fixunssfsi+0x30>
    4abe:	b9 2f       	mov	r27, r25
    4ac0:	99 27       	eor	r25, r25
    4ac2:	b7 51       	subi	r27, 0x17	; 23
    4ac4:	b0 f0       	brcs	.+44     	; 0x4af2 <__fixunssfsi+0x3e>
    4ac6:	e1 f0       	breq	.+56     	; 0x4b00 <__fixunssfsi+0x4c>
    4ac8:	66 0f       	add	r22, r22
    4aca:	77 1f       	adc	r23, r23
    4acc:	88 1f       	adc	r24, r24
    4ace:	99 1f       	adc	r25, r25
    4ad0:	1a f0       	brmi	.+6      	; 0x4ad8 <__fixunssfsi+0x24>
    4ad2:	ba 95       	dec	r27
    4ad4:	c9 f7       	brne	.-14     	; 0x4ac8 <__fixunssfsi+0x14>
    4ad6:	14 c0       	rjmp	.+40     	; 0x4b00 <__fixunssfsi+0x4c>
    4ad8:	b1 30       	cpi	r27, 0x01	; 1
    4ada:	91 f0       	breq	.+36     	; 0x4b00 <__fixunssfsi+0x4c>
    4adc:	0e 94 8c 26 	call	0x4d18	; 0x4d18 <__fp_zero>
    4ae0:	b1 e0       	ldi	r27, 0x01	; 1
    4ae2:	08 95       	ret
    4ae4:	0c 94 8c 26 	jmp	0x4d18	; 0x4d18 <__fp_zero>
    4ae8:	67 2f       	mov	r22, r23
    4aea:	78 2f       	mov	r23, r24
    4aec:	88 27       	eor	r24, r24
    4aee:	b8 5f       	subi	r27, 0xF8	; 248
    4af0:	39 f0       	breq	.+14     	; 0x4b00 <__fixunssfsi+0x4c>
    4af2:	b9 3f       	cpi	r27, 0xF9	; 249
    4af4:	cc f3       	brlt	.-14     	; 0x4ae8 <__fixunssfsi+0x34>
    4af6:	86 95       	lsr	r24
    4af8:	77 95       	ror	r23
    4afa:	67 95       	ror	r22
    4afc:	b3 95       	inc	r27
    4afe:	d9 f7       	brne	.-10     	; 0x4af6 <__fixunssfsi+0x42>
    4b00:	3e f4       	brtc	.+14     	; 0x4b10 <__fixunssfsi+0x5c>
    4b02:	90 95       	com	r25
    4b04:	80 95       	com	r24
    4b06:	70 95       	com	r23
    4b08:	61 95       	neg	r22
    4b0a:	7f 4f       	sbci	r23, 0xFF	; 255
    4b0c:	8f 4f       	sbci	r24, 0xFF	; 255
    4b0e:	9f 4f       	sbci	r25, 0xFF	; 255
    4b10:	08 95       	ret

00004b12 <__floatunsisf>:
    4b12:	e8 94       	clt
    4b14:	09 c0       	rjmp	.+18     	; 0x4b28 <__floatsisf+0x12>

00004b16 <__floatsisf>:
    4b16:	97 fb       	bst	r25, 7
    4b18:	3e f4       	brtc	.+14     	; 0x4b28 <__floatsisf+0x12>
    4b1a:	90 95       	com	r25
    4b1c:	80 95       	com	r24
    4b1e:	70 95       	com	r23
    4b20:	61 95       	neg	r22
    4b22:	7f 4f       	sbci	r23, 0xFF	; 255
    4b24:	8f 4f       	sbci	r24, 0xFF	; 255
    4b26:	9f 4f       	sbci	r25, 0xFF	; 255
    4b28:	99 23       	and	r25, r25
    4b2a:	a9 f0       	breq	.+42     	; 0x4b56 <__floatsisf+0x40>
    4b2c:	f9 2f       	mov	r31, r25
    4b2e:	96 e9       	ldi	r25, 0x96	; 150
    4b30:	bb 27       	eor	r27, r27
    4b32:	93 95       	inc	r25
    4b34:	f6 95       	lsr	r31
    4b36:	87 95       	ror	r24
    4b38:	77 95       	ror	r23
    4b3a:	67 95       	ror	r22
    4b3c:	b7 95       	ror	r27
    4b3e:	f1 11       	cpse	r31, r1
    4b40:	f8 cf       	rjmp	.-16     	; 0x4b32 <__floatsisf+0x1c>
    4b42:	fa f4       	brpl	.+62     	; 0x4b82 <__floatsisf+0x6c>
    4b44:	bb 0f       	add	r27, r27
    4b46:	11 f4       	brne	.+4      	; 0x4b4c <__floatsisf+0x36>
    4b48:	60 ff       	sbrs	r22, 0
    4b4a:	1b c0       	rjmp	.+54     	; 0x4b82 <__floatsisf+0x6c>
    4b4c:	6f 5f       	subi	r22, 0xFF	; 255
    4b4e:	7f 4f       	sbci	r23, 0xFF	; 255
    4b50:	8f 4f       	sbci	r24, 0xFF	; 255
    4b52:	9f 4f       	sbci	r25, 0xFF	; 255
    4b54:	16 c0       	rjmp	.+44     	; 0x4b82 <__floatsisf+0x6c>
    4b56:	88 23       	and	r24, r24
    4b58:	11 f0       	breq	.+4      	; 0x4b5e <__floatsisf+0x48>
    4b5a:	96 e9       	ldi	r25, 0x96	; 150
    4b5c:	11 c0       	rjmp	.+34     	; 0x4b80 <__floatsisf+0x6a>
    4b5e:	77 23       	and	r23, r23
    4b60:	21 f0       	breq	.+8      	; 0x4b6a <__floatsisf+0x54>
    4b62:	9e e8       	ldi	r25, 0x8E	; 142
    4b64:	87 2f       	mov	r24, r23
    4b66:	76 2f       	mov	r23, r22
    4b68:	05 c0       	rjmp	.+10     	; 0x4b74 <__floatsisf+0x5e>
    4b6a:	66 23       	and	r22, r22
    4b6c:	71 f0       	breq	.+28     	; 0x4b8a <__floatsisf+0x74>
    4b6e:	96 e8       	ldi	r25, 0x86	; 134
    4b70:	86 2f       	mov	r24, r22
    4b72:	70 e0       	ldi	r23, 0x00	; 0
    4b74:	60 e0       	ldi	r22, 0x00	; 0
    4b76:	2a f0       	brmi	.+10     	; 0x4b82 <__floatsisf+0x6c>
    4b78:	9a 95       	dec	r25
    4b7a:	66 0f       	add	r22, r22
    4b7c:	77 1f       	adc	r23, r23
    4b7e:	88 1f       	adc	r24, r24
    4b80:	da f7       	brpl	.-10     	; 0x4b78 <__floatsisf+0x62>
    4b82:	88 0f       	add	r24, r24
    4b84:	96 95       	lsr	r25
    4b86:	87 95       	ror	r24
    4b88:	97 f9       	bld	r25, 7
    4b8a:	08 95       	ret

00004b8c <floor>:
    4b8c:	0e 94 74 26 	call	0x4ce8	; 0x4ce8 <__fp_trunc>
    4b90:	90 f0       	brcs	.+36     	; 0x4bb6 <floor+0x2a>
    4b92:	9f 37       	cpi	r25, 0x7F	; 127
    4b94:	48 f4       	brcc	.+18     	; 0x4ba8 <floor+0x1c>
    4b96:	91 11       	cpse	r25, r1
    4b98:	16 f0       	brts	.+4      	; 0x4b9e <floor+0x12>
    4b9a:	0c 94 8d 26 	jmp	0x4d1a	; 0x4d1a <__fp_szero>
    4b9e:	60 e0       	ldi	r22, 0x00	; 0
    4ba0:	70 e0       	ldi	r23, 0x00	; 0
    4ba2:	80 e8       	ldi	r24, 0x80	; 128
    4ba4:	9f eb       	ldi	r25, 0xBF	; 191
    4ba6:	08 95       	ret
    4ba8:	26 f4       	brtc	.+8      	; 0x4bb2 <floor+0x26>
    4baa:	1b 16       	cp	r1, r27
    4bac:	61 1d       	adc	r22, r1
    4bae:	71 1d       	adc	r23, r1
    4bb0:	81 1d       	adc	r24, r1
    4bb2:	0c 94 07 26 	jmp	0x4c0e	; 0x4c0e <__fp_mintl>
    4bb6:	0c 94 22 26 	jmp	0x4c44	; 0x4c44 <__fp_mpack>

00004bba <__fp_cmp>:
    4bba:	99 0f       	add	r25, r25
    4bbc:	00 08       	sbc	r0, r0
    4bbe:	55 0f       	add	r21, r21
    4bc0:	aa 0b       	sbc	r26, r26
    4bc2:	e0 e8       	ldi	r30, 0x80	; 128
    4bc4:	fe ef       	ldi	r31, 0xFE	; 254
    4bc6:	16 16       	cp	r1, r22
    4bc8:	17 06       	cpc	r1, r23
    4bca:	e8 07       	cpc	r30, r24
    4bcc:	f9 07       	cpc	r31, r25
    4bce:	c0 f0       	brcs	.+48     	; 0x4c00 <__fp_cmp+0x46>
    4bd0:	12 16       	cp	r1, r18
    4bd2:	13 06       	cpc	r1, r19
    4bd4:	e4 07       	cpc	r30, r20
    4bd6:	f5 07       	cpc	r31, r21
    4bd8:	98 f0       	brcs	.+38     	; 0x4c00 <__fp_cmp+0x46>
    4bda:	62 1b       	sub	r22, r18
    4bdc:	73 0b       	sbc	r23, r19
    4bde:	84 0b       	sbc	r24, r20
    4be0:	95 0b       	sbc	r25, r21
    4be2:	39 f4       	brne	.+14     	; 0x4bf2 <__fp_cmp+0x38>
    4be4:	0a 26       	eor	r0, r26
    4be6:	61 f0       	breq	.+24     	; 0x4c00 <__fp_cmp+0x46>
    4be8:	23 2b       	or	r18, r19
    4bea:	24 2b       	or	r18, r20
    4bec:	25 2b       	or	r18, r21
    4bee:	21 f4       	brne	.+8      	; 0x4bf8 <__fp_cmp+0x3e>
    4bf0:	08 95       	ret
    4bf2:	0a 26       	eor	r0, r26
    4bf4:	09 f4       	brne	.+2      	; 0x4bf8 <__fp_cmp+0x3e>
    4bf6:	a1 40       	sbci	r26, 0x01	; 1
    4bf8:	a6 95       	lsr	r26
    4bfa:	8f ef       	ldi	r24, 0xFF	; 255
    4bfc:	81 1d       	adc	r24, r1
    4bfe:	81 1d       	adc	r24, r1
    4c00:	08 95       	ret

00004c02 <__fp_inf>:
    4c02:	97 f9       	bld	r25, 7
    4c04:	9f 67       	ori	r25, 0x7F	; 127
    4c06:	80 e8       	ldi	r24, 0x80	; 128
    4c08:	70 e0       	ldi	r23, 0x00	; 0
    4c0a:	60 e0       	ldi	r22, 0x00	; 0
    4c0c:	08 95       	ret

00004c0e <__fp_mintl>:
    4c0e:	88 23       	and	r24, r24
    4c10:	71 f4       	brne	.+28     	; 0x4c2e <__fp_mintl+0x20>
    4c12:	77 23       	and	r23, r23
    4c14:	21 f0       	breq	.+8      	; 0x4c1e <__fp_mintl+0x10>
    4c16:	98 50       	subi	r25, 0x08	; 8
    4c18:	87 2b       	or	r24, r23
    4c1a:	76 2f       	mov	r23, r22
    4c1c:	07 c0       	rjmp	.+14     	; 0x4c2c <__fp_mintl+0x1e>
    4c1e:	66 23       	and	r22, r22
    4c20:	11 f4       	brne	.+4      	; 0x4c26 <__fp_mintl+0x18>
    4c22:	99 27       	eor	r25, r25
    4c24:	0d c0       	rjmp	.+26     	; 0x4c40 <__fp_mintl+0x32>
    4c26:	90 51       	subi	r25, 0x10	; 16
    4c28:	86 2b       	or	r24, r22
    4c2a:	70 e0       	ldi	r23, 0x00	; 0
    4c2c:	60 e0       	ldi	r22, 0x00	; 0
    4c2e:	2a f0       	brmi	.+10     	; 0x4c3a <__fp_mintl+0x2c>
    4c30:	9a 95       	dec	r25
    4c32:	66 0f       	add	r22, r22
    4c34:	77 1f       	adc	r23, r23
    4c36:	88 1f       	adc	r24, r24
    4c38:	da f7       	brpl	.-10     	; 0x4c30 <__fp_mintl+0x22>
    4c3a:	88 0f       	add	r24, r24
    4c3c:	96 95       	lsr	r25
    4c3e:	87 95       	ror	r24
    4c40:	97 f9       	bld	r25, 7
    4c42:	08 95       	ret

00004c44 <__fp_mpack>:
    4c44:	9f 3f       	cpi	r25, 0xFF	; 255
    4c46:	31 f0       	breq	.+12     	; 0x4c54 <__fp_mpack_finite+0xc>

00004c48 <__fp_mpack_finite>:
    4c48:	91 50       	subi	r25, 0x01	; 1
    4c4a:	20 f4       	brcc	.+8      	; 0x4c54 <__fp_mpack_finite+0xc>
    4c4c:	87 95       	ror	r24
    4c4e:	77 95       	ror	r23
    4c50:	67 95       	ror	r22
    4c52:	b7 95       	ror	r27
    4c54:	88 0f       	add	r24, r24
    4c56:	91 1d       	adc	r25, r1
    4c58:	96 95       	lsr	r25
    4c5a:	87 95       	ror	r24
    4c5c:	97 f9       	bld	r25, 7
    4c5e:	08 95       	ret

00004c60 <__fp_nan>:
    4c60:	9f ef       	ldi	r25, 0xFF	; 255
    4c62:	80 ec       	ldi	r24, 0xC0	; 192
    4c64:	08 95       	ret

00004c66 <__fp_pscA>:
    4c66:	00 24       	eor	r0, r0
    4c68:	0a 94       	dec	r0
    4c6a:	16 16       	cp	r1, r22
    4c6c:	17 06       	cpc	r1, r23
    4c6e:	18 06       	cpc	r1, r24
    4c70:	09 06       	cpc	r0, r25
    4c72:	08 95       	ret

00004c74 <__fp_pscB>:
    4c74:	00 24       	eor	r0, r0
    4c76:	0a 94       	dec	r0
    4c78:	12 16       	cp	r1, r18
    4c7a:	13 06       	cpc	r1, r19
    4c7c:	14 06       	cpc	r1, r20
    4c7e:	05 06       	cpc	r0, r21
    4c80:	08 95       	ret

00004c82 <__fp_round>:
    4c82:	09 2e       	mov	r0, r25
    4c84:	03 94       	inc	r0
    4c86:	00 0c       	add	r0, r0
    4c88:	11 f4       	brne	.+4      	; 0x4c8e <__fp_round+0xc>
    4c8a:	88 23       	and	r24, r24
    4c8c:	52 f0       	brmi	.+20     	; 0x4ca2 <__fp_round+0x20>
    4c8e:	bb 0f       	add	r27, r27
    4c90:	40 f4       	brcc	.+16     	; 0x4ca2 <__fp_round+0x20>
    4c92:	bf 2b       	or	r27, r31
    4c94:	11 f4       	brne	.+4      	; 0x4c9a <__fp_round+0x18>
    4c96:	60 ff       	sbrs	r22, 0
    4c98:	04 c0       	rjmp	.+8      	; 0x4ca2 <__fp_round+0x20>
    4c9a:	6f 5f       	subi	r22, 0xFF	; 255
    4c9c:	7f 4f       	sbci	r23, 0xFF	; 255
    4c9e:	8f 4f       	sbci	r24, 0xFF	; 255
    4ca0:	9f 4f       	sbci	r25, 0xFF	; 255
    4ca2:	08 95       	ret

00004ca4 <__fp_split3>:
    4ca4:	57 fd       	sbrc	r21, 7
    4ca6:	90 58       	subi	r25, 0x80	; 128
    4ca8:	44 0f       	add	r20, r20
    4caa:	55 1f       	adc	r21, r21
    4cac:	59 f0       	breq	.+22     	; 0x4cc4 <__fp_splitA+0x10>
    4cae:	5f 3f       	cpi	r21, 0xFF	; 255
    4cb0:	71 f0       	breq	.+28     	; 0x4cce <__fp_splitA+0x1a>
    4cb2:	47 95       	ror	r20

00004cb4 <__fp_splitA>:
    4cb4:	88 0f       	add	r24, r24
    4cb6:	97 fb       	bst	r25, 7
    4cb8:	99 1f       	adc	r25, r25
    4cba:	61 f0       	breq	.+24     	; 0x4cd4 <__fp_splitA+0x20>
    4cbc:	9f 3f       	cpi	r25, 0xFF	; 255
    4cbe:	79 f0       	breq	.+30     	; 0x4cde <__fp_splitA+0x2a>
    4cc0:	87 95       	ror	r24
    4cc2:	08 95       	ret
    4cc4:	12 16       	cp	r1, r18
    4cc6:	13 06       	cpc	r1, r19
    4cc8:	14 06       	cpc	r1, r20
    4cca:	55 1f       	adc	r21, r21
    4ccc:	f2 cf       	rjmp	.-28     	; 0x4cb2 <__fp_split3+0xe>
    4cce:	46 95       	lsr	r20
    4cd0:	f1 df       	rcall	.-30     	; 0x4cb4 <__fp_splitA>
    4cd2:	08 c0       	rjmp	.+16     	; 0x4ce4 <__fp_splitA+0x30>
    4cd4:	16 16       	cp	r1, r22
    4cd6:	17 06       	cpc	r1, r23
    4cd8:	18 06       	cpc	r1, r24
    4cda:	99 1f       	adc	r25, r25
    4cdc:	f1 cf       	rjmp	.-30     	; 0x4cc0 <__fp_splitA+0xc>
    4cde:	86 95       	lsr	r24
    4ce0:	71 05       	cpc	r23, r1
    4ce2:	61 05       	cpc	r22, r1
    4ce4:	08 94       	sec
    4ce6:	08 95       	ret

00004ce8 <__fp_trunc>:
    4ce8:	0e 94 5a 26 	call	0x4cb4	; 0x4cb4 <__fp_splitA>
    4cec:	a0 f0       	brcs	.+40     	; 0x4d16 <__fp_trunc+0x2e>
    4cee:	be e7       	ldi	r27, 0x7E	; 126
    4cf0:	b9 17       	cp	r27, r25
    4cf2:	88 f4       	brcc	.+34     	; 0x4d16 <__fp_trunc+0x2e>
    4cf4:	bb 27       	eor	r27, r27
    4cf6:	9f 38       	cpi	r25, 0x8F	; 143
    4cf8:	60 f4       	brcc	.+24     	; 0x4d12 <__fp_trunc+0x2a>
    4cfa:	16 16       	cp	r1, r22
    4cfc:	b1 1d       	adc	r27, r1
    4cfe:	67 2f       	mov	r22, r23
    4d00:	78 2f       	mov	r23, r24
    4d02:	88 27       	eor	r24, r24
    4d04:	98 5f       	subi	r25, 0xF8	; 248
    4d06:	f7 cf       	rjmp	.-18     	; 0x4cf6 <__fp_trunc+0xe>
    4d08:	86 95       	lsr	r24
    4d0a:	77 95       	ror	r23
    4d0c:	67 95       	ror	r22
    4d0e:	b1 1d       	adc	r27, r1
    4d10:	93 95       	inc	r25
    4d12:	96 39       	cpi	r25, 0x96	; 150
    4d14:	c8 f3       	brcs	.-14     	; 0x4d08 <__fp_trunc+0x20>
    4d16:	08 95       	ret

00004d18 <__fp_zero>:
    4d18:	e8 94       	clt

00004d1a <__fp_szero>:
    4d1a:	bb 27       	eor	r27, r27
    4d1c:	66 27       	eor	r22, r22
    4d1e:	77 27       	eor	r23, r23
    4d20:	cb 01       	movw	r24, r22
    4d22:	97 f9       	bld	r25, 7
    4d24:	08 95       	ret

00004d26 <__gesf2>:
    4d26:	0e 94 dd 25 	call	0x4bba	; 0x4bba <__fp_cmp>
    4d2a:	08 f4       	brcc	.+2      	; 0x4d2e <__gesf2+0x8>
    4d2c:	8f ef       	ldi	r24, 0xFF	; 255
    4d2e:	08 95       	ret
    4d30:	16 f0       	brts	.+4      	; 0x4d36 <__gesf2+0x10>
    4d32:	0c 94 22 26 	jmp	0x4c44	; 0x4c44 <__fp_mpack>
    4d36:	0c 94 30 26 	jmp	0x4c60	; 0x4c60 <__fp_nan>
    4d3a:	68 94       	set
    4d3c:	0c 94 01 26 	jmp	0x4c02	; 0x4c02 <__fp_inf>

00004d40 <log>:
    4d40:	0e 94 5a 26 	call	0x4cb4	; 0x4cb4 <__fp_splitA>
    4d44:	a8 f3       	brcs	.-22     	; 0x4d30 <__gesf2+0xa>
    4d46:	99 23       	and	r25, r25
    4d48:	c1 f3       	breq	.-16     	; 0x4d3a <__gesf2+0x14>
    4d4a:	ae f3       	brts	.-22     	; 0x4d36 <__gesf2+0x10>
    4d4c:	df 93       	push	r29
    4d4e:	cf 93       	push	r28
    4d50:	1f 93       	push	r17
    4d52:	0f 93       	push	r16
    4d54:	ff 92       	push	r15
    4d56:	c9 2f       	mov	r28, r25
    4d58:	dd 27       	eor	r29, r29
    4d5a:	88 23       	and	r24, r24
    4d5c:	2a f0       	brmi	.+10     	; 0x4d68 <log+0x28>
    4d5e:	21 97       	sbiw	r28, 0x01	; 1
    4d60:	66 0f       	add	r22, r22
    4d62:	77 1f       	adc	r23, r23
    4d64:	88 1f       	adc	r24, r24
    4d66:	da f7       	brpl	.-10     	; 0x4d5e <log+0x1e>
    4d68:	20 e0       	ldi	r18, 0x00	; 0
    4d6a:	30 e0       	ldi	r19, 0x00	; 0
    4d6c:	40 e8       	ldi	r20, 0x80	; 128
    4d6e:	5f eb       	ldi	r21, 0xBF	; 191
    4d70:	9f e3       	ldi	r25, 0x3F	; 63
    4d72:	88 39       	cpi	r24, 0x98	; 152
    4d74:	20 f0       	brcs	.+8      	; 0x4d7e <log+0x3e>
    4d76:	80 3e       	cpi	r24, 0xE0	; 224
    4d78:	38 f0       	brcs	.+14     	; 0x4d88 <log+0x48>
    4d7a:	21 96       	adiw	r28, 0x01	; 1
    4d7c:	8f 77       	andi	r24, 0x7F	; 127
    4d7e:	0e 94 70 24 	call	0x48e0	; 0x48e0 <__addsf3>
    4d82:	ea e4       	ldi	r30, 0x4A	; 74
    4d84:	f1 e0       	ldi	r31, 0x01	; 1
    4d86:	04 c0       	rjmp	.+8      	; 0x4d90 <log+0x50>
    4d88:	0e 94 70 24 	call	0x48e0	; 0x48e0 <__addsf3>
    4d8c:	e7 e7       	ldi	r30, 0x77	; 119
    4d8e:	f1 e0       	ldi	r31, 0x01	; 1
    4d90:	0e 94 03 28 	call	0x5006	; 0x5006 <__fp_powser>
    4d94:	8b 01       	movw	r16, r22
    4d96:	be 01       	movw	r22, r28
    4d98:	ec 01       	movw	r28, r24
    4d9a:	fb 2e       	mov	r15, r27
    4d9c:	6f 57       	subi	r22, 0x7F	; 127
    4d9e:	71 09       	sbc	r23, r1
    4da0:	75 95       	asr	r23
    4da2:	77 1f       	adc	r23, r23
    4da4:	88 0b       	sbc	r24, r24
    4da6:	99 0b       	sbc	r25, r25
    4da8:	0e 94 8b 25 	call	0x4b16	; 0x4b16 <__floatsisf>
    4dac:	28 e1       	ldi	r18, 0x18	; 24
    4dae:	32 e7       	ldi	r19, 0x72	; 114
    4db0:	41 e3       	ldi	r20, 0x31	; 49
    4db2:	5f e3       	ldi	r21, 0x3F	; 63
    4db4:	0e 94 fb 26 	call	0x4df6	; 0x4df6 <__mulsf3x>
    4db8:	af 2d       	mov	r26, r15
    4dba:	98 01       	movw	r18, r16
    4dbc:	ae 01       	movw	r20, r28
    4dbe:	ff 90       	pop	r15
    4dc0:	0f 91       	pop	r16
    4dc2:	1f 91       	pop	r17
    4dc4:	cf 91       	pop	r28
    4dc6:	df 91       	pop	r29
    4dc8:	0e 94 87 24 	call	0x490e	; 0x490e <__addsf3x>
    4dcc:	0c 94 41 26 	jmp	0x4c82	; 0x4c82 <__fp_round>

00004dd0 <__mulsf3>:
    4dd0:	0e 94 fb 26 	call	0x4df6	; 0x4df6 <__mulsf3x>
    4dd4:	0c 94 41 26 	jmp	0x4c82	; 0x4c82 <__fp_round>
    4dd8:	0e 94 33 26 	call	0x4c66	; 0x4c66 <__fp_pscA>
    4ddc:	38 f0       	brcs	.+14     	; 0x4dec <__mulsf3+0x1c>
    4dde:	0e 94 3a 26 	call	0x4c74	; 0x4c74 <__fp_pscB>
    4de2:	20 f0       	brcs	.+8      	; 0x4dec <__mulsf3+0x1c>
    4de4:	95 23       	and	r25, r21
    4de6:	11 f0       	breq	.+4      	; 0x4dec <__mulsf3+0x1c>
    4de8:	0c 94 01 26 	jmp	0x4c02	; 0x4c02 <__fp_inf>
    4dec:	0c 94 30 26 	jmp	0x4c60	; 0x4c60 <__fp_nan>
    4df0:	11 24       	eor	r1, r1
    4df2:	0c 94 8d 26 	jmp	0x4d1a	; 0x4d1a <__fp_szero>

00004df6 <__mulsf3x>:
    4df6:	0e 94 52 26 	call	0x4ca4	; 0x4ca4 <__fp_split3>
    4dfa:	70 f3       	brcs	.-36     	; 0x4dd8 <__mulsf3+0x8>

00004dfc <__mulsf3_pse>:
    4dfc:	95 9f       	mul	r25, r21
    4dfe:	c1 f3       	breq	.-16     	; 0x4df0 <__mulsf3+0x20>
    4e00:	95 0f       	add	r25, r21
    4e02:	50 e0       	ldi	r21, 0x00	; 0
    4e04:	55 1f       	adc	r21, r21
    4e06:	62 9f       	mul	r22, r18
    4e08:	f0 01       	movw	r30, r0
    4e0a:	72 9f       	mul	r23, r18
    4e0c:	bb 27       	eor	r27, r27
    4e0e:	f0 0d       	add	r31, r0
    4e10:	b1 1d       	adc	r27, r1
    4e12:	63 9f       	mul	r22, r19
    4e14:	aa 27       	eor	r26, r26
    4e16:	f0 0d       	add	r31, r0
    4e18:	b1 1d       	adc	r27, r1
    4e1a:	aa 1f       	adc	r26, r26
    4e1c:	64 9f       	mul	r22, r20
    4e1e:	66 27       	eor	r22, r22
    4e20:	b0 0d       	add	r27, r0
    4e22:	a1 1d       	adc	r26, r1
    4e24:	66 1f       	adc	r22, r22
    4e26:	82 9f       	mul	r24, r18
    4e28:	22 27       	eor	r18, r18
    4e2a:	b0 0d       	add	r27, r0
    4e2c:	a1 1d       	adc	r26, r1
    4e2e:	62 1f       	adc	r22, r18
    4e30:	73 9f       	mul	r23, r19
    4e32:	b0 0d       	add	r27, r0
    4e34:	a1 1d       	adc	r26, r1
    4e36:	62 1f       	adc	r22, r18
    4e38:	83 9f       	mul	r24, r19
    4e3a:	a0 0d       	add	r26, r0
    4e3c:	61 1d       	adc	r22, r1
    4e3e:	22 1f       	adc	r18, r18
    4e40:	74 9f       	mul	r23, r20
    4e42:	33 27       	eor	r19, r19
    4e44:	a0 0d       	add	r26, r0
    4e46:	61 1d       	adc	r22, r1
    4e48:	23 1f       	adc	r18, r19
    4e4a:	84 9f       	mul	r24, r20
    4e4c:	60 0d       	add	r22, r0
    4e4e:	21 1d       	adc	r18, r1
    4e50:	82 2f       	mov	r24, r18
    4e52:	76 2f       	mov	r23, r22
    4e54:	6a 2f       	mov	r22, r26
    4e56:	11 24       	eor	r1, r1
    4e58:	9f 57       	subi	r25, 0x7F	; 127
    4e5a:	50 40       	sbci	r21, 0x00	; 0
    4e5c:	9a f0       	brmi	.+38     	; 0x4e84 <__mulsf3_pse+0x88>
    4e5e:	f1 f0       	breq	.+60     	; 0x4e9c <__mulsf3_pse+0xa0>
    4e60:	88 23       	and	r24, r24
    4e62:	4a f0       	brmi	.+18     	; 0x4e76 <__mulsf3_pse+0x7a>
    4e64:	ee 0f       	add	r30, r30
    4e66:	ff 1f       	adc	r31, r31
    4e68:	bb 1f       	adc	r27, r27
    4e6a:	66 1f       	adc	r22, r22
    4e6c:	77 1f       	adc	r23, r23
    4e6e:	88 1f       	adc	r24, r24
    4e70:	91 50       	subi	r25, 0x01	; 1
    4e72:	50 40       	sbci	r21, 0x00	; 0
    4e74:	a9 f7       	brne	.-22     	; 0x4e60 <__mulsf3_pse+0x64>
    4e76:	9e 3f       	cpi	r25, 0xFE	; 254
    4e78:	51 05       	cpc	r21, r1
    4e7a:	80 f0       	brcs	.+32     	; 0x4e9c <__mulsf3_pse+0xa0>
    4e7c:	0c 94 01 26 	jmp	0x4c02	; 0x4c02 <__fp_inf>
    4e80:	0c 94 8d 26 	jmp	0x4d1a	; 0x4d1a <__fp_szero>
    4e84:	5f 3f       	cpi	r21, 0xFF	; 255
    4e86:	e4 f3       	brlt	.-8      	; 0x4e80 <__mulsf3_pse+0x84>
    4e88:	98 3e       	cpi	r25, 0xE8	; 232
    4e8a:	d4 f3       	brlt	.-12     	; 0x4e80 <__mulsf3_pse+0x84>
    4e8c:	86 95       	lsr	r24
    4e8e:	77 95       	ror	r23
    4e90:	67 95       	ror	r22
    4e92:	b7 95       	ror	r27
    4e94:	f7 95       	ror	r31
    4e96:	e7 95       	ror	r30
    4e98:	9f 5f       	subi	r25, 0xFF	; 255
    4e9a:	c1 f7       	brne	.-16     	; 0x4e8c <__mulsf3_pse+0x90>
    4e9c:	fe 2b       	or	r31, r30
    4e9e:	88 0f       	add	r24, r24
    4ea0:	91 1d       	adc	r25, r1
    4ea2:	96 95       	lsr	r25
    4ea4:	87 95       	ror	r24
    4ea6:	97 f9       	bld	r25, 7
    4ea8:	08 95       	ret

00004eaa <pow>:
    4eaa:	fa 01       	movw	r30, r20
    4eac:	ee 0f       	add	r30, r30
    4eae:	ff 1f       	adc	r31, r31
    4eb0:	30 96       	adiw	r30, 0x00	; 0
    4eb2:	21 05       	cpc	r18, r1
    4eb4:	31 05       	cpc	r19, r1
    4eb6:	a1 f1       	breq	.+104    	; 0x4f20 <pow+0x76>
    4eb8:	61 15       	cp	r22, r1
    4eba:	71 05       	cpc	r23, r1
    4ebc:	61 f4       	brne	.+24     	; 0x4ed6 <pow+0x2c>
    4ebe:	80 38       	cpi	r24, 0x80	; 128
    4ec0:	bf e3       	ldi	r27, 0x3F	; 63
    4ec2:	9b 07       	cpc	r25, r27
    4ec4:	49 f1       	breq	.+82     	; 0x4f18 <pow+0x6e>
    4ec6:	68 94       	set
    4ec8:	90 38       	cpi	r25, 0x80	; 128
    4eca:	81 05       	cpc	r24, r1
    4ecc:	61 f0       	breq	.+24     	; 0x4ee6 <pow+0x3c>
    4ece:	80 38       	cpi	r24, 0x80	; 128
    4ed0:	bf ef       	ldi	r27, 0xFF	; 255
    4ed2:	9b 07       	cpc	r25, r27
    4ed4:	41 f0       	breq	.+16     	; 0x4ee6 <pow+0x3c>
    4ed6:	99 23       	and	r25, r25
    4ed8:	4a f5       	brpl	.+82     	; 0x4f2c <pow+0x82>
    4eda:	ff 3f       	cpi	r31, 0xFF	; 255
    4edc:	e1 05       	cpc	r30, r1
    4ede:	31 05       	cpc	r19, r1
    4ee0:	21 05       	cpc	r18, r1
    4ee2:	19 f1       	breq	.+70     	; 0x4f2a <pow+0x80>
    4ee4:	e8 94       	clt
    4ee6:	08 94       	sec
    4ee8:	e7 95       	ror	r30
    4eea:	d9 01       	movw	r26, r18
    4eec:	aa 23       	and	r26, r26
    4eee:	29 f4       	brne	.+10     	; 0x4efa <pow+0x50>
    4ef0:	ab 2f       	mov	r26, r27
    4ef2:	be 2f       	mov	r27, r30
    4ef4:	f8 5f       	subi	r31, 0xF8	; 248
    4ef6:	d0 f3       	brcs	.-12     	; 0x4eec <pow+0x42>
    4ef8:	10 c0       	rjmp	.+32     	; 0x4f1a <pow+0x70>
    4efa:	ff 5f       	subi	r31, 0xFF	; 255
    4efc:	70 f4       	brcc	.+28     	; 0x4f1a <pow+0x70>
    4efe:	a6 95       	lsr	r26
    4f00:	e0 f7       	brcc	.-8      	; 0x4efa <pow+0x50>
    4f02:	f7 39       	cpi	r31, 0x97	; 151
    4f04:	50 f0       	brcs	.+20     	; 0x4f1a <pow+0x70>
    4f06:	19 f0       	breq	.+6      	; 0x4f0e <pow+0x64>
    4f08:	ff 3a       	cpi	r31, 0xAF	; 175
    4f0a:	38 f4       	brcc	.+14     	; 0x4f1a <pow+0x70>
    4f0c:	9f 77       	andi	r25, 0x7F	; 127
    4f0e:	9f 93       	push	r25
    4f10:	0d d0       	rcall	.+26     	; 0x4f2c <pow+0x82>
    4f12:	0f 90       	pop	r0
    4f14:	07 fc       	sbrc	r0, 7
    4f16:	90 58       	subi	r25, 0x80	; 128
    4f18:	08 95       	ret
    4f1a:	46 f0       	brts	.+16     	; 0x4f2c <pow+0x82>
    4f1c:	0c 94 30 26 	jmp	0x4c60	; 0x4c60 <__fp_nan>
    4f20:	60 e0       	ldi	r22, 0x00	; 0
    4f22:	70 e0       	ldi	r23, 0x00	; 0
    4f24:	80 e8       	ldi	r24, 0x80	; 128
    4f26:	9f e3       	ldi	r25, 0x3F	; 63
    4f28:	08 95       	ret
    4f2a:	4f e7       	ldi	r20, 0x7F	; 127
    4f2c:	9f 77       	andi	r25, 0x7F	; 127
    4f2e:	5f 93       	push	r21
    4f30:	4f 93       	push	r20
    4f32:	3f 93       	push	r19
    4f34:	2f 93       	push	r18
    4f36:	0e 94 a0 26 	call	0x4d40	; 0x4d40 <log>
    4f3a:	2f 91       	pop	r18
    4f3c:	3f 91       	pop	r19
    4f3e:	4f 91       	pop	r20
    4f40:	5f 91       	pop	r21
    4f42:	0e 94 e8 26 	call	0x4dd0	; 0x4dd0 <__mulsf3>
    4f46:	0c 94 d1 27 	jmp	0x4fa2	; 0x4fa2 <exp>

00004f4a <round>:
    4f4a:	0e 94 5a 26 	call	0x4cb4	; 0x4cb4 <__fp_splitA>
    4f4e:	e8 f0       	brcs	.+58     	; 0x4f8a <round+0x40>
    4f50:	9e 37       	cpi	r25, 0x7E	; 126
    4f52:	e8 f0       	brcs	.+58     	; 0x4f8e <round+0x44>
    4f54:	96 39       	cpi	r25, 0x96	; 150
    4f56:	b8 f4       	brcc	.+46     	; 0x4f86 <round+0x3c>
    4f58:	9e 38       	cpi	r25, 0x8E	; 142
    4f5a:	48 f4       	brcc	.+18     	; 0x4f6e <round+0x24>
    4f5c:	67 2f       	mov	r22, r23
    4f5e:	78 2f       	mov	r23, r24
    4f60:	88 27       	eor	r24, r24
    4f62:	98 5f       	subi	r25, 0xF8	; 248
    4f64:	f9 cf       	rjmp	.-14     	; 0x4f58 <round+0xe>
    4f66:	86 95       	lsr	r24
    4f68:	77 95       	ror	r23
    4f6a:	67 95       	ror	r22
    4f6c:	93 95       	inc	r25
    4f6e:	95 39       	cpi	r25, 0x95	; 149
    4f70:	d0 f3       	brcs	.-12     	; 0x4f66 <round+0x1c>
    4f72:	b6 2f       	mov	r27, r22
    4f74:	b1 70       	andi	r27, 0x01	; 1
    4f76:	6b 0f       	add	r22, r27
    4f78:	71 1d       	adc	r23, r1
    4f7a:	81 1d       	adc	r24, r1
    4f7c:	20 f4       	brcc	.+8      	; 0x4f86 <round+0x3c>
    4f7e:	87 95       	ror	r24
    4f80:	77 95       	ror	r23
    4f82:	67 95       	ror	r22
    4f84:	93 95       	inc	r25
    4f86:	0c 94 07 26 	jmp	0x4c0e	; 0x4c0e <__fp_mintl>
    4f8a:	0c 94 22 26 	jmp	0x4c44	; 0x4c44 <__fp_mpack>
    4f8e:	0c 94 8d 26 	jmp	0x4d1a	; 0x4d1a <__fp_szero>
    4f92:	29 f4       	brne	.+10     	; 0x4f9e <round+0x54>
    4f94:	16 f0       	brts	.+4      	; 0x4f9a <round+0x50>
    4f96:	0c 94 01 26 	jmp	0x4c02	; 0x4c02 <__fp_inf>
    4f9a:	0c 94 8c 26 	jmp	0x4d18	; 0x4d18 <__fp_zero>
    4f9e:	0c 94 30 26 	jmp	0x4c60	; 0x4c60 <__fp_nan>

00004fa2 <exp>:
    4fa2:	0e 94 5a 26 	call	0x4cb4	; 0x4cb4 <__fp_splitA>
    4fa6:	a8 f3       	brcs	.-22     	; 0x4f92 <round+0x48>
    4fa8:	96 38       	cpi	r25, 0x86	; 134
    4faa:	a0 f7       	brcc	.-24     	; 0x4f94 <round+0x4a>
    4fac:	07 f8       	bld	r0, 7
    4fae:	0f 92       	push	r0
    4fb0:	e8 94       	clt
    4fb2:	2b e3       	ldi	r18, 0x3B	; 59
    4fb4:	3a ea       	ldi	r19, 0xAA	; 170
    4fb6:	48 eb       	ldi	r20, 0xB8	; 184
    4fb8:	5f e7       	ldi	r21, 0x7F	; 127
    4fba:	0e 94 fe 26 	call	0x4dfc	; 0x4dfc <__mulsf3_pse>
    4fbe:	0f 92       	push	r0
    4fc0:	0f 92       	push	r0
    4fc2:	0f 92       	push	r0
    4fc4:	4d b7       	in	r20, 0x3d	; 61
    4fc6:	5e b7       	in	r21, 0x3e	; 62
    4fc8:	0f 92       	push	r0
    4fca:	0e 94 6c 28 	call	0x50d8	; 0x50d8 <modf>
    4fce:	e4 ea       	ldi	r30, 0xA4	; 164
    4fd0:	f1 e0       	ldi	r31, 0x01	; 1
    4fd2:	0e 94 03 28 	call	0x5006	; 0x5006 <__fp_powser>
    4fd6:	4f 91       	pop	r20
    4fd8:	5f 91       	pop	r21
    4fda:	ef 91       	pop	r30
    4fdc:	ff 91       	pop	r31
    4fde:	e5 95       	asr	r30
    4fe0:	ee 1f       	adc	r30, r30
    4fe2:	ff 1f       	adc	r31, r31
    4fe4:	49 f0       	breq	.+18     	; 0x4ff8 <exp+0x56>
    4fe6:	fe 57       	subi	r31, 0x7E	; 126
    4fe8:	e0 68       	ori	r30, 0x80	; 128
    4fea:	44 27       	eor	r20, r20
    4fec:	ee 0f       	add	r30, r30
    4fee:	44 1f       	adc	r20, r20
    4ff0:	fa 95       	dec	r31
    4ff2:	e1 f7       	brne	.-8      	; 0x4fec <exp+0x4a>
    4ff4:	41 95       	neg	r20
    4ff6:	55 0b       	sbc	r21, r21
    4ff8:	0e 94 36 28 	call	0x506c	; 0x506c <ldexp>
    4ffc:	0f 90       	pop	r0
    4ffe:	07 fe       	sbrs	r0, 7
    5000:	0c 94 2a 28 	jmp	0x5054	; 0x5054 <inverse>
    5004:	08 95       	ret

00005006 <__fp_powser>:
    5006:	df 93       	push	r29
    5008:	cf 93       	push	r28
    500a:	1f 93       	push	r17
    500c:	0f 93       	push	r16
    500e:	ff 92       	push	r15
    5010:	ef 92       	push	r14
    5012:	df 92       	push	r13
    5014:	7b 01       	movw	r14, r22
    5016:	8c 01       	movw	r16, r24
    5018:	68 94       	set
    501a:	06 c0       	rjmp	.+12     	; 0x5028 <__fp_powser+0x22>
    501c:	da 2e       	mov	r13, r26
    501e:	ef 01       	movw	r28, r30
    5020:	0e 94 fb 26 	call	0x4df6	; 0x4df6 <__mulsf3x>
    5024:	fe 01       	movw	r30, r28
    5026:	e8 94       	clt
    5028:	a5 91       	lpm	r26, Z+
    502a:	25 91       	lpm	r18, Z+
    502c:	35 91       	lpm	r19, Z+
    502e:	45 91       	lpm	r20, Z+
    5030:	55 91       	lpm	r21, Z+
    5032:	a6 f3       	brts	.-24     	; 0x501c <__fp_powser+0x16>
    5034:	ef 01       	movw	r28, r30
    5036:	0e 94 87 24 	call	0x490e	; 0x490e <__addsf3x>
    503a:	fe 01       	movw	r30, r28
    503c:	97 01       	movw	r18, r14
    503e:	a8 01       	movw	r20, r16
    5040:	da 94       	dec	r13
    5042:	69 f7       	brne	.-38     	; 0x501e <__fp_powser+0x18>
    5044:	df 90       	pop	r13
    5046:	ef 90       	pop	r14
    5048:	ff 90       	pop	r15
    504a:	0f 91       	pop	r16
    504c:	1f 91       	pop	r17
    504e:	cf 91       	pop	r28
    5050:	df 91       	pop	r29
    5052:	08 95       	ret

00005054 <inverse>:
    5054:	9b 01       	movw	r18, r22
    5056:	ac 01       	movw	r20, r24
    5058:	60 e0       	ldi	r22, 0x00	; 0
    505a:	70 e0       	ldi	r23, 0x00	; 0
    505c:	80 e8       	ldi	r24, 0x80	; 128
    505e:	9f e3       	ldi	r25, 0x3F	; 63
    5060:	0c 94 e1 24 	jmp	0x49c2	; 0x49c2 <__divsf3>
    5064:	0c 94 01 26 	jmp	0x4c02	; 0x4c02 <__fp_inf>
    5068:	0c 94 22 26 	jmp	0x4c44	; 0x4c44 <__fp_mpack>

0000506c <ldexp>:
    506c:	0e 94 5a 26 	call	0x4cb4	; 0x4cb4 <__fp_splitA>
    5070:	d8 f3       	brcs	.-10     	; 0x5068 <inverse+0x14>
    5072:	99 23       	and	r25, r25
    5074:	c9 f3       	breq	.-14     	; 0x5068 <inverse+0x14>
    5076:	94 0f       	add	r25, r20
    5078:	51 1d       	adc	r21, r1
    507a:	a3 f3       	brvs	.-24     	; 0x5064 <inverse+0x10>
    507c:	91 50       	subi	r25, 0x01	; 1
    507e:	50 40       	sbci	r21, 0x00	; 0
    5080:	94 f0       	brlt	.+36     	; 0x50a6 <ldexp+0x3a>
    5082:	59 f0       	breq	.+22     	; 0x509a <ldexp+0x2e>
    5084:	88 23       	and	r24, r24
    5086:	32 f0       	brmi	.+12     	; 0x5094 <ldexp+0x28>
    5088:	66 0f       	add	r22, r22
    508a:	77 1f       	adc	r23, r23
    508c:	88 1f       	adc	r24, r24
    508e:	91 50       	subi	r25, 0x01	; 1
    5090:	50 40       	sbci	r21, 0x00	; 0
    5092:	c1 f7       	brne	.-16     	; 0x5084 <ldexp+0x18>
    5094:	9e 3f       	cpi	r25, 0xFE	; 254
    5096:	51 05       	cpc	r21, r1
    5098:	2c f7       	brge	.-54     	; 0x5064 <inverse+0x10>
    509a:	88 0f       	add	r24, r24
    509c:	91 1d       	adc	r25, r1
    509e:	96 95       	lsr	r25
    50a0:	87 95       	ror	r24
    50a2:	97 f9       	bld	r25, 7
    50a4:	08 95       	ret
    50a6:	5f 3f       	cpi	r21, 0xFF	; 255
    50a8:	ac f0       	brlt	.+42     	; 0x50d4 <ldexp+0x68>
    50aa:	98 3e       	cpi	r25, 0xE8	; 232
    50ac:	9c f0       	brlt	.+38     	; 0x50d4 <ldexp+0x68>
    50ae:	bb 27       	eor	r27, r27
    50b0:	86 95       	lsr	r24
    50b2:	77 95       	ror	r23
    50b4:	67 95       	ror	r22
    50b6:	b7 95       	ror	r27
    50b8:	08 f4       	brcc	.+2      	; 0x50bc <ldexp+0x50>
    50ba:	b1 60       	ori	r27, 0x01	; 1
    50bc:	93 95       	inc	r25
    50be:	c1 f7       	brne	.-16     	; 0x50b0 <ldexp+0x44>
    50c0:	bb 0f       	add	r27, r27
    50c2:	58 f7       	brcc	.-42     	; 0x509a <ldexp+0x2e>
    50c4:	11 f4       	brne	.+4      	; 0x50ca <ldexp+0x5e>
    50c6:	60 ff       	sbrs	r22, 0
    50c8:	e8 cf       	rjmp	.-48     	; 0x509a <ldexp+0x2e>
    50ca:	6f 5f       	subi	r22, 0xFF	; 255
    50cc:	7f 4f       	sbci	r23, 0xFF	; 255
    50ce:	8f 4f       	sbci	r24, 0xFF	; 255
    50d0:	9f 4f       	sbci	r25, 0xFF	; 255
    50d2:	e3 cf       	rjmp	.-58     	; 0x509a <ldexp+0x2e>
    50d4:	0c 94 8d 26 	jmp	0x4d1a	; 0x4d1a <__fp_szero>

000050d8 <modf>:
    50d8:	fa 01       	movw	r30, r20
    50da:	dc 01       	movw	r26, r24
    50dc:	aa 0f       	add	r26, r26
    50de:	bb 1f       	adc	r27, r27
    50e0:	9b 01       	movw	r18, r22
    50e2:	ac 01       	movw	r20, r24
    50e4:	bf 57       	subi	r27, 0x7F	; 127
    50e6:	28 f4       	brcc	.+10     	; 0x50f2 <modf+0x1a>
    50e8:	22 27       	eor	r18, r18
    50ea:	33 27       	eor	r19, r19
    50ec:	44 27       	eor	r20, r20
    50ee:	50 78       	andi	r21, 0x80	; 128
    50f0:	20 c0       	rjmp	.+64     	; 0x5132 <modf+0x5a>
    50f2:	b7 51       	subi	r27, 0x17	; 23
    50f4:	90 f4       	brcc	.+36     	; 0x511a <modf+0x42>
    50f6:	ab 2f       	mov	r26, r27
    50f8:	00 24       	eor	r0, r0
    50fa:	46 95       	lsr	r20
    50fc:	37 95       	ror	r19
    50fe:	27 95       	ror	r18
    5100:	01 1c       	adc	r0, r1
    5102:	a3 95       	inc	r26
    5104:	d2 f3       	brmi	.-12     	; 0x50fa <modf+0x22>
    5106:	00 20       	and	r0, r0
    5108:	71 f0       	breq	.+28     	; 0x5126 <modf+0x4e>
    510a:	22 0f       	add	r18, r18
    510c:	33 1f       	adc	r19, r19
    510e:	44 1f       	adc	r20, r20
    5110:	b3 95       	inc	r27
    5112:	da f3       	brmi	.-10     	; 0x510a <modf+0x32>
    5114:	0e d0       	rcall	.+28     	; 0x5132 <modf+0x5a>
    5116:	0c 94 6f 24 	jmp	0x48de	; 0x48de <__subsf3>
    511a:	61 30       	cpi	r22, 0x01	; 1
    511c:	71 05       	cpc	r23, r1
    511e:	a0 e8       	ldi	r26, 0x80	; 128
    5120:	8a 07       	cpc	r24, r26
    5122:	b9 46       	sbci	r27, 0x69	; 105
    5124:	30 f4       	brcc	.+12     	; 0x5132 <modf+0x5a>
    5126:	9b 01       	movw	r18, r22
    5128:	ac 01       	movw	r20, r24
    512a:	66 27       	eor	r22, r22
    512c:	77 27       	eor	r23, r23
    512e:	88 27       	eor	r24, r24
    5130:	90 78       	andi	r25, 0x80	; 128
    5132:	30 96       	adiw	r30, 0x00	; 0
    5134:	21 f0       	breq	.+8      	; 0x513e <modf+0x66>
    5136:	20 83       	st	Z, r18
    5138:	31 83       	std	Z+1, r19	; 0x01
    513a:	42 83       	std	Z+2, r20	; 0x02
    513c:	53 83       	std	Z+3, r21	; 0x03
    513e:	08 95       	ret

00005140 <vfprintf>:
    5140:	2f 92       	push	r2
    5142:	3f 92       	push	r3
    5144:	4f 92       	push	r4
    5146:	5f 92       	push	r5
    5148:	6f 92       	push	r6
    514a:	7f 92       	push	r7
    514c:	8f 92       	push	r8
    514e:	9f 92       	push	r9
    5150:	af 92       	push	r10
    5152:	bf 92       	push	r11
    5154:	cf 92       	push	r12
    5156:	df 92       	push	r13
    5158:	ef 92       	push	r14
    515a:	ff 92       	push	r15
    515c:	0f 93       	push	r16
    515e:	1f 93       	push	r17
    5160:	cf 93       	push	r28
    5162:	df 93       	push	r29
    5164:	cd b7       	in	r28, 0x3d	; 61
    5166:	de b7       	in	r29, 0x3e	; 62
    5168:	60 97       	sbiw	r28, 0x10	; 16
    516a:	cd bf       	out	0x3d, r28	; 61
    516c:	de bf       	out	0x3e, r29	; 62
    516e:	7c 01       	movw	r14, r24
    5170:	1b 01       	movw	r2, r22
    5172:	6a 01       	movw	r12, r20
    5174:	fc 01       	movw	r30, r24
    5176:	16 82       	std	Z+6, r1	; 0x06
    5178:	17 82       	std	Z+7, r1	; 0x07
    517a:	83 81       	ldd	r24, Z+3	; 0x03
    517c:	81 ff       	sbrs	r24, 1
    517e:	44 c3       	rjmp	.+1672   	; 0x5808 <vfprintf+0x6c8>
    5180:	9e 01       	movw	r18, r28
    5182:	2f 5f       	subi	r18, 0xFF	; 255
    5184:	3f 4f       	sbci	r19, 0xFF	; 255
    5186:	39 01       	movw	r6, r18
    5188:	f7 01       	movw	r30, r14
    518a:	93 81       	ldd	r25, Z+3	; 0x03
    518c:	f1 01       	movw	r30, r2
    518e:	93 fd       	sbrc	r25, 3
    5190:	85 91       	lpm	r24, Z+
    5192:	93 ff       	sbrs	r25, 3
    5194:	81 91       	ld	r24, Z+
    5196:	1f 01       	movw	r2, r30
    5198:	88 23       	and	r24, r24
    519a:	09 f4       	brne	.+2      	; 0x519e <vfprintf+0x5e>
    519c:	31 c3       	rjmp	.+1634   	; 0x5800 <vfprintf+0x6c0>
    519e:	85 32       	cpi	r24, 0x25	; 37
    51a0:	39 f4       	brne	.+14     	; 0x51b0 <vfprintf+0x70>
    51a2:	93 fd       	sbrc	r25, 3
    51a4:	85 91       	lpm	r24, Z+
    51a6:	93 ff       	sbrs	r25, 3
    51a8:	81 91       	ld	r24, Z+
    51aa:	1f 01       	movw	r2, r30
    51ac:	85 32       	cpi	r24, 0x25	; 37
    51ae:	39 f4       	brne	.+14     	; 0x51be <vfprintf+0x7e>
    51b0:	b7 01       	movw	r22, r14
    51b2:	90 e0       	ldi	r25, 0x00	; 0
    51b4:	0e 94 a7 2d 	call	0x5b4e	; 0x5b4e <fputc>
    51b8:	56 01       	movw	r10, r12
    51ba:	65 01       	movw	r12, r10
    51bc:	e5 cf       	rjmp	.-54     	; 0x5188 <vfprintf+0x48>
    51be:	10 e0       	ldi	r17, 0x00	; 0
    51c0:	51 2c       	mov	r5, r1
    51c2:	91 2c       	mov	r9, r1
    51c4:	ff e1       	ldi	r31, 0x1F	; 31
    51c6:	f9 15       	cp	r31, r9
    51c8:	d8 f0       	brcs	.+54     	; 0x5200 <vfprintf+0xc0>
    51ca:	8b 32       	cpi	r24, 0x2B	; 43
    51cc:	79 f0       	breq	.+30     	; 0x51ec <vfprintf+0xac>
    51ce:	38 f4       	brcc	.+14     	; 0x51de <vfprintf+0x9e>
    51d0:	80 32       	cpi	r24, 0x20	; 32
    51d2:	79 f0       	breq	.+30     	; 0x51f2 <vfprintf+0xb2>
    51d4:	83 32       	cpi	r24, 0x23	; 35
    51d6:	a1 f4       	brne	.+40     	; 0x5200 <vfprintf+0xc0>
    51d8:	f9 2d       	mov	r31, r9
    51da:	f0 61       	ori	r31, 0x10	; 16
    51dc:	2e c0       	rjmp	.+92     	; 0x523a <vfprintf+0xfa>
    51de:	8d 32       	cpi	r24, 0x2D	; 45
    51e0:	61 f0       	breq	.+24     	; 0x51fa <vfprintf+0xba>
    51e2:	80 33       	cpi	r24, 0x30	; 48
    51e4:	69 f4       	brne	.+26     	; 0x5200 <vfprintf+0xc0>
    51e6:	29 2d       	mov	r18, r9
    51e8:	21 60       	ori	r18, 0x01	; 1
    51ea:	2d c0       	rjmp	.+90     	; 0x5246 <vfprintf+0x106>
    51ec:	39 2d       	mov	r19, r9
    51ee:	32 60       	ori	r19, 0x02	; 2
    51f0:	93 2e       	mov	r9, r19
    51f2:	89 2d       	mov	r24, r9
    51f4:	84 60       	ori	r24, 0x04	; 4
    51f6:	98 2e       	mov	r9, r24
    51f8:	2a c0       	rjmp	.+84     	; 0x524e <vfprintf+0x10e>
    51fa:	e9 2d       	mov	r30, r9
    51fc:	e8 60       	ori	r30, 0x08	; 8
    51fe:	15 c0       	rjmp	.+42     	; 0x522a <vfprintf+0xea>
    5200:	97 fc       	sbrc	r9, 7
    5202:	2d c0       	rjmp	.+90     	; 0x525e <vfprintf+0x11e>
    5204:	20 ed       	ldi	r18, 0xD0	; 208
    5206:	28 0f       	add	r18, r24
    5208:	2a 30       	cpi	r18, 0x0A	; 10
    520a:	88 f4       	brcc	.+34     	; 0x522e <vfprintf+0xee>
    520c:	96 fe       	sbrs	r9, 6
    520e:	06 c0       	rjmp	.+12     	; 0x521c <vfprintf+0xdc>
    5210:	3a e0       	ldi	r19, 0x0A	; 10
    5212:	13 9f       	mul	r17, r19
    5214:	20 0d       	add	r18, r0
    5216:	11 24       	eor	r1, r1
    5218:	12 2f       	mov	r17, r18
    521a:	19 c0       	rjmp	.+50     	; 0x524e <vfprintf+0x10e>
    521c:	8a e0       	ldi	r24, 0x0A	; 10
    521e:	58 9e       	mul	r5, r24
    5220:	20 0d       	add	r18, r0
    5222:	11 24       	eor	r1, r1
    5224:	52 2e       	mov	r5, r18
    5226:	e9 2d       	mov	r30, r9
    5228:	e0 62       	ori	r30, 0x20	; 32
    522a:	9e 2e       	mov	r9, r30
    522c:	10 c0       	rjmp	.+32     	; 0x524e <vfprintf+0x10e>
    522e:	8e 32       	cpi	r24, 0x2E	; 46
    5230:	31 f4       	brne	.+12     	; 0x523e <vfprintf+0xfe>
    5232:	96 fc       	sbrc	r9, 6
    5234:	e5 c2       	rjmp	.+1482   	; 0x5800 <vfprintf+0x6c0>
    5236:	f9 2d       	mov	r31, r9
    5238:	f0 64       	ori	r31, 0x40	; 64
    523a:	9f 2e       	mov	r9, r31
    523c:	08 c0       	rjmp	.+16     	; 0x524e <vfprintf+0x10e>
    523e:	8c 36       	cpi	r24, 0x6C	; 108
    5240:	21 f4       	brne	.+8      	; 0x524a <vfprintf+0x10a>
    5242:	29 2d       	mov	r18, r9
    5244:	20 68       	ori	r18, 0x80	; 128
    5246:	92 2e       	mov	r9, r18
    5248:	02 c0       	rjmp	.+4      	; 0x524e <vfprintf+0x10e>
    524a:	88 36       	cpi	r24, 0x68	; 104
    524c:	41 f4       	brne	.+16     	; 0x525e <vfprintf+0x11e>
    524e:	f1 01       	movw	r30, r2
    5250:	93 fd       	sbrc	r25, 3
    5252:	85 91       	lpm	r24, Z+
    5254:	93 ff       	sbrs	r25, 3
    5256:	81 91       	ld	r24, Z+
    5258:	1f 01       	movw	r2, r30
    525a:	81 11       	cpse	r24, r1
    525c:	b3 cf       	rjmp	.-154    	; 0x51c4 <vfprintf+0x84>
    525e:	9b eb       	ldi	r25, 0xBB	; 187
    5260:	98 0f       	add	r25, r24
    5262:	93 30       	cpi	r25, 0x03	; 3
    5264:	20 f4       	brcc	.+8      	; 0x526e <vfprintf+0x12e>
    5266:	99 2d       	mov	r25, r9
    5268:	90 61       	ori	r25, 0x10	; 16
    526a:	80 5e       	subi	r24, 0xE0	; 224
    526c:	07 c0       	rjmp	.+14     	; 0x527c <vfprintf+0x13c>
    526e:	9b e9       	ldi	r25, 0x9B	; 155
    5270:	98 0f       	add	r25, r24
    5272:	93 30       	cpi	r25, 0x03	; 3
    5274:	08 f0       	brcs	.+2      	; 0x5278 <vfprintf+0x138>
    5276:	66 c1       	rjmp	.+716    	; 0x5544 <vfprintf+0x404>
    5278:	99 2d       	mov	r25, r9
    527a:	9f 7e       	andi	r25, 0xEF	; 239
    527c:	96 ff       	sbrs	r25, 6
    527e:	16 e0       	ldi	r17, 0x06	; 6
    5280:	9f 73       	andi	r25, 0x3F	; 63
    5282:	99 2e       	mov	r9, r25
    5284:	85 36       	cpi	r24, 0x65	; 101
    5286:	19 f4       	brne	.+6      	; 0x528e <vfprintf+0x14e>
    5288:	90 64       	ori	r25, 0x40	; 64
    528a:	99 2e       	mov	r9, r25
    528c:	08 c0       	rjmp	.+16     	; 0x529e <vfprintf+0x15e>
    528e:	86 36       	cpi	r24, 0x66	; 102
    5290:	21 f4       	brne	.+8      	; 0x529a <vfprintf+0x15a>
    5292:	39 2f       	mov	r19, r25
    5294:	30 68       	ori	r19, 0x80	; 128
    5296:	93 2e       	mov	r9, r19
    5298:	02 c0       	rjmp	.+4      	; 0x529e <vfprintf+0x15e>
    529a:	11 11       	cpse	r17, r1
    529c:	11 50       	subi	r17, 0x01	; 1
    529e:	97 fe       	sbrs	r9, 7
    52a0:	07 c0       	rjmp	.+14     	; 0x52b0 <vfprintf+0x170>
    52a2:	1c 33       	cpi	r17, 0x3C	; 60
    52a4:	50 f4       	brcc	.+20     	; 0x52ba <vfprintf+0x17a>
    52a6:	44 24       	eor	r4, r4
    52a8:	43 94       	inc	r4
    52aa:	41 0e       	add	r4, r17
    52ac:	27 e0       	ldi	r18, 0x07	; 7
    52ae:	0b c0       	rjmp	.+22     	; 0x52c6 <vfprintf+0x186>
    52b0:	18 30       	cpi	r17, 0x08	; 8
    52b2:	38 f0       	brcs	.+14     	; 0x52c2 <vfprintf+0x182>
    52b4:	27 e0       	ldi	r18, 0x07	; 7
    52b6:	17 e0       	ldi	r17, 0x07	; 7
    52b8:	05 c0       	rjmp	.+10     	; 0x52c4 <vfprintf+0x184>
    52ba:	27 e0       	ldi	r18, 0x07	; 7
    52bc:	9c e3       	ldi	r25, 0x3C	; 60
    52be:	49 2e       	mov	r4, r25
    52c0:	02 c0       	rjmp	.+4      	; 0x52c6 <vfprintf+0x186>
    52c2:	21 2f       	mov	r18, r17
    52c4:	41 2c       	mov	r4, r1
    52c6:	56 01       	movw	r10, r12
    52c8:	84 e0       	ldi	r24, 0x04	; 4
    52ca:	a8 0e       	add	r10, r24
    52cc:	b1 1c       	adc	r11, r1
    52ce:	f6 01       	movw	r30, r12
    52d0:	60 81       	ld	r22, Z
    52d2:	71 81       	ldd	r23, Z+1	; 0x01
    52d4:	82 81       	ldd	r24, Z+2	; 0x02
    52d6:	93 81       	ldd	r25, Z+3	; 0x03
    52d8:	04 2d       	mov	r16, r4
    52da:	a3 01       	movw	r20, r6
    52dc:	0e 94 b2 2c 	call	0x5964	; 0x5964 <__ftoa_engine>
    52e0:	6c 01       	movw	r12, r24
    52e2:	f9 81       	ldd	r31, Y+1	; 0x01
    52e4:	fc 87       	std	Y+12, r31	; 0x0c
    52e6:	f0 ff       	sbrs	r31, 0
    52e8:	02 c0       	rjmp	.+4      	; 0x52ee <vfprintf+0x1ae>
    52ea:	f3 ff       	sbrs	r31, 3
    52ec:	06 c0       	rjmp	.+12     	; 0x52fa <vfprintf+0x1ba>
    52ee:	91 fc       	sbrc	r9, 1
    52f0:	06 c0       	rjmp	.+12     	; 0x52fe <vfprintf+0x1be>
    52f2:	92 fe       	sbrs	r9, 2
    52f4:	06 c0       	rjmp	.+12     	; 0x5302 <vfprintf+0x1c2>
    52f6:	00 e2       	ldi	r16, 0x20	; 32
    52f8:	05 c0       	rjmp	.+10     	; 0x5304 <vfprintf+0x1c4>
    52fa:	0d e2       	ldi	r16, 0x2D	; 45
    52fc:	03 c0       	rjmp	.+6      	; 0x5304 <vfprintf+0x1c4>
    52fe:	0b e2       	ldi	r16, 0x2B	; 43
    5300:	01 c0       	rjmp	.+2      	; 0x5304 <vfprintf+0x1c4>
    5302:	00 e0       	ldi	r16, 0x00	; 0
    5304:	8c 85       	ldd	r24, Y+12	; 0x0c
    5306:	8c 70       	andi	r24, 0x0C	; 12
    5308:	19 f0       	breq	.+6      	; 0x5310 <vfprintf+0x1d0>
    530a:	01 11       	cpse	r16, r1
    530c:	5a c2       	rjmp	.+1204   	; 0x57c2 <vfprintf+0x682>
    530e:	9b c2       	rjmp	.+1334   	; 0x5846 <vfprintf+0x706>
    5310:	97 fe       	sbrs	r9, 7
    5312:	10 c0       	rjmp	.+32     	; 0x5334 <vfprintf+0x1f4>
    5314:	4c 0c       	add	r4, r12
    5316:	fc 85       	ldd	r31, Y+12	; 0x0c
    5318:	f4 ff       	sbrs	r31, 4
    531a:	04 c0       	rjmp	.+8      	; 0x5324 <vfprintf+0x1e4>
    531c:	8a 81       	ldd	r24, Y+2	; 0x02
    531e:	81 33       	cpi	r24, 0x31	; 49
    5320:	09 f4       	brne	.+2      	; 0x5324 <vfprintf+0x1e4>
    5322:	4a 94       	dec	r4
    5324:	14 14       	cp	r1, r4
    5326:	74 f5       	brge	.+92     	; 0x5384 <vfprintf+0x244>
    5328:	28 e0       	ldi	r18, 0x08	; 8
    532a:	24 15       	cp	r18, r4
    532c:	78 f5       	brcc	.+94     	; 0x538c <vfprintf+0x24c>
    532e:	88 e0       	ldi	r24, 0x08	; 8
    5330:	48 2e       	mov	r4, r24
    5332:	2c c0       	rjmp	.+88     	; 0x538c <vfprintf+0x24c>
    5334:	96 fc       	sbrc	r9, 6
    5336:	2a c0       	rjmp	.+84     	; 0x538c <vfprintf+0x24c>
    5338:	81 2f       	mov	r24, r17
    533a:	90 e0       	ldi	r25, 0x00	; 0
    533c:	8c 15       	cp	r24, r12
    533e:	9d 05       	cpc	r25, r13
    5340:	9c f0       	brlt	.+38     	; 0x5368 <vfprintf+0x228>
    5342:	3c ef       	ldi	r19, 0xFC	; 252
    5344:	c3 16       	cp	r12, r19
    5346:	3f ef       	ldi	r19, 0xFF	; 255
    5348:	d3 06       	cpc	r13, r19
    534a:	74 f0       	brlt	.+28     	; 0x5368 <vfprintf+0x228>
    534c:	89 2d       	mov	r24, r9
    534e:	80 68       	ori	r24, 0x80	; 128
    5350:	98 2e       	mov	r9, r24
    5352:	0a c0       	rjmp	.+20     	; 0x5368 <vfprintf+0x228>
    5354:	e2 e0       	ldi	r30, 0x02	; 2
    5356:	f0 e0       	ldi	r31, 0x00	; 0
    5358:	ec 0f       	add	r30, r28
    535a:	fd 1f       	adc	r31, r29
    535c:	e1 0f       	add	r30, r17
    535e:	f1 1d       	adc	r31, r1
    5360:	80 81       	ld	r24, Z
    5362:	80 33       	cpi	r24, 0x30	; 48
    5364:	19 f4       	brne	.+6      	; 0x536c <vfprintf+0x22c>
    5366:	11 50       	subi	r17, 0x01	; 1
    5368:	11 11       	cpse	r17, r1
    536a:	f4 cf       	rjmp	.-24     	; 0x5354 <vfprintf+0x214>
    536c:	97 fe       	sbrs	r9, 7
    536e:	0e c0       	rjmp	.+28     	; 0x538c <vfprintf+0x24c>
    5370:	44 24       	eor	r4, r4
    5372:	43 94       	inc	r4
    5374:	41 0e       	add	r4, r17
    5376:	81 2f       	mov	r24, r17
    5378:	90 e0       	ldi	r25, 0x00	; 0
    537a:	c8 16       	cp	r12, r24
    537c:	d9 06       	cpc	r13, r25
    537e:	2c f4       	brge	.+10     	; 0x538a <vfprintf+0x24a>
    5380:	1c 19       	sub	r17, r12
    5382:	04 c0       	rjmp	.+8      	; 0x538c <vfprintf+0x24c>
    5384:	44 24       	eor	r4, r4
    5386:	43 94       	inc	r4
    5388:	01 c0       	rjmp	.+2      	; 0x538c <vfprintf+0x24c>
    538a:	10 e0       	ldi	r17, 0x00	; 0
    538c:	97 fe       	sbrs	r9, 7
    538e:	06 c0       	rjmp	.+12     	; 0x539c <vfprintf+0x25c>
    5390:	1c 14       	cp	r1, r12
    5392:	1d 04       	cpc	r1, r13
    5394:	34 f4       	brge	.+12     	; 0x53a2 <vfprintf+0x262>
    5396:	c6 01       	movw	r24, r12
    5398:	01 96       	adiw	r24, 0x01	; 1
    539a:	05 c0       	rjmp	.+10     	; 0x53a6 <vfprintf+0x266>
    539c:	85 e0       	ldi	r24, 0x05	; 5
    539e:	90 e0       	ldi	r25, 0x00	; 0
    53a0:	02 c0       	rjmp	.+4      	; 0x53a6 <vfprintf+0x266>
    53a2:	81 e0       	ldi	r24, 0x01	; 1
    53a4:	90 e0       	ldi	r25, 0x00	; 0
    53a6:	01 11       	cpse	r16, r1
    53a8:	01 96       	adiw	r24, 0x01	; 1
    53aa:	11 23       	and	r17, r17
    53ac:	31 f0       	breq	.+12     	; 0x53ba <vfprintf+0x27a>
    53ae:	21 2f       	mov	r18, r17
    53b0:	30 e0       	ldi	r19, 0x00	; 0
    53b2:	2f 5f       	subi	r18, 0xFF	; 255
    53b4:	3f 4f       	sbci	r19, 0xFF	; 255
    53b6:	82 0f       	add	r24, r18
    53b8:	93 1f       	adc	r25, r19
    53ba:	25 2d       	mov	r18, r5
    53bc:	30 e0       	ldi	r19, 0x00	; 0
    53be:	82 17       	cp	r24, r18
    53c0:	93 07       	cpc	r25, r19
    53c2:	14 f4       	brge	.+4      	; 0x53c8 <vfprintf+0x288>
    53c4:	58 1a       	sub	r5, r24
    53c6:	01 c0       	rjmp	.+2      	; 0x53ca <vfprintf+0x28a>
    53c8:	51 2c       	mov	r5, r1
    53ca:	89 2d       	mov	r24, r9
    53cc:	89 70       	andi	r24, 0x09	; 9
    53ce:	49 f4       	brne	.+18     	; 0x53e2 <vfprintf+0x2a2>
    53d0:	55 20       	and	r5, r5
    53d2:	39 f0       	breq	.+14     	; 0x53e2 <vfprintf+0x2a2>
    53d4:	b7 01       	movw	r22, r14
    53d6:	80 e2       	ldi	r24, 0x20	; 32
    53d8:	90 e0       	ldi	r25, 0x00	; 0
    53da:	0e 94 a7 2d 	call	0x5b4e	; 0x5b4e <fputc>
    53de:	5a 94       	dec	r5
    53e0:	f7 cf       	rjmp	.-18     	; 0x53d0 <vfprintf+0x290>
    53e2:	00 23       	and	r16, r16
    53e4:	29 f0       	breq	.+10     	; 0x53f0 <vfprintf+0x2b0>
    53e6:	b7 01       	movw	r22, r14
    53e8:	80 2f       	mov	r24, r16
    53ea:	90 e0       	ldi	r25, 0x00	; 0
    53ec:	0e 94 a7 2d 	call	0x5b4e	; 0x5b4e <fputc>
    53f0:	93 fc       	sbrc	r9, 3
    53f2:	09 c0       	rjmp	.+18     	; 0x5406 <vfprintf+0x2c6>
    53f4:	55 20       	and	r5, r5
    53f6:	39 f0       	breq	.+14     	; 0x5406 <vfprintf+0x2c6>
    53f8:	b7 01       	movw	r22, r14
    53fa:	80 e3       	ldi	r24, 0x30	; 48
    53fc:	90 e0       	ldi	r25, 0x00	; 0
    53fe:	0e 94 a7 2d 	call	0x5b4e	; 0x5b4e <fputc>
    5402:	5a 94       	dec	r5
    5404:	f7 cf       	rjmp	.-18     	; 0x53f4 <vfprintf+0x2b4>
    5406:	97 fe       	sbrs	r9, 7
    5408:	4c c0       	rjmp	.+152    	; 0x54a2 <vfprintf+0x362>
    540a:	46 01       	movw	r8, r12
    540c:	d7 fe       	sbrs	r13, 7
    540e:	02 c0       	rjmp	.+4      	; 0x5414 <vfprintf+0x2d4>
    5410:	81 2c       	mov	r8, r1
    5412:	91 2c       	mov	r9, r1
    5414:	c6 01       	movw	r24, r12
    5416:	88 19       	sub	r24, r8
    5418:	99 09       	sbc	r25, r9
    541a:	f3 01       	movw	r30, r6
    541c:	e8 0f       	add	r30, r24
    541e:	f9 1f       	adc	r31, r25
    5420:	ed 87       	std	Y+13, r30	; 0x0d
    5422:	fe 87       	std	Y+14, r31	; 0x0e
    5424:	96 01       	movw	r18, r12
    5426:	24 19       	sub	r18, r4
    5428:	31 09       	sbc	r19, r1
    542a:	2f 87       	std	Y+15, r18	; 0x0f
    542c:	38 8b       	std	Y+16, r19	; 0x10
    542e:	01 2f       	mov	r16, r17
    5430:	10 e0       	ldi	r17, 0x00	; 0
    5432:	11 95       	neg	r17
    5434:	01 95       	neg	r16
    5436:	11 09       	sbc	r17, r1
    5438:	3f ef       	ldi	r19, 0xFF	; 255
    543a:	83 16       	cp	r8, r19
    543c:	93 06       	cpc	r9, r19
    543e:	29 f4       	brne	.+10     	; 0x544a <vfprintf+0x30a>
    5440:	b7 01       	movw	r22, r14
    5442:	8e e2       	ldi	r24, 0x2E	; 46
    5444:	90 e0       	ldi	r25, 0x00	; 0
    5446:	0e 94 a7 2d 	call	0x5b4e	; 0x5b4e <fputc>
    544a:	c8 14       	cp	r12, r8
    544c:	d9 04       	cpc	r13, r9
    544e:	4c f0       	brlt	.+18     	; 0x5462 <vfprintf+0x322>
    5450:	8f 85       	ldd	r24, Y+15	; 0x0f
    5452:	98 89       	ldd	r25, Y+16	; 0x10
    5454:	88 15       	cp	r24, r8
    5456:	99 05       	cpc	r25, r9
    5458:	24 f4       	brge	.+8      	; 0x5462 <vfprintf+0x322>
    545a:	ed 85       	ldd	r30, Y+13	; 0x0d
    545c:	fe 85       	ldd	r31, Y+14	; 0x0e
    545e:	81 81       	ldd	r24, Z+1	; 0x01
    5460:	01 c0       	rjmp	.+2      	; 0x5464 <vfprintf+0x324>
    5462:	80 e3       	ldi	r24, 0x30	; 48
    5464:	f1 e0       	ldi	r31, 0x01	; 1
    5466:	8f 1a       	sub	r8, r31
    5468:	91 08       	sbc	r9, r1
    546a:	2d 85       	ldd	r18, Y+13	; 0x0d
    546c:	3e 85       	ldd	r19, Y+14	; 0x0e
    546e:	2f 5f       	subi	r18, 0xFF	; 255
    5470:	3f 4f       	sbci	r19, 0xFF	; 255
    5472:	2d 87       	std	Y+13, r18	; 0x0d
    5474:	3e 87       	std	Y+14, r19	; 0x0e
    5476:	80 16       	cp	r8, r16
    5478:	91 06       	cpc	r9, r17
    547a:	2c f0       	brlt	.+10     	; 0x5486 <vfprintf+0x346>
    547c:	b7 01       	movw	r22, r14
    547e:	90 e0       	ldi	r25, 0x00	; 0
    5480:	0e 94 a7 2d 	call	0x5b4e	; 0x5b4e <fputc>
    5484:	d9 cf       	rjmp	.-78     	; 0x5438 <vfprintf+0x2f8>
    5486:	c8 14       	cp	r12, r8
    5488:	d9 04       	cpc	r13, r9
    548a:	41 f4       	brne	.+16     	; 0x549c <vfprintf+0x35c>
    548c:	9a 81       	ldd	r25, Y+2	; 0x02
    548e:	96 33       	cpi	r25, 0x36	; 54
    5490:	20 f4       	brcc	.+8      	; 0x549a <vfprintf+0x35a>
    5492:	95 33       	cpi	r25, 0x35	; 53
    5494:	19 f4       	brne	.+6      	; 0x549c <vfprintf+0x35c>
    5496:	3c 85       	ldd	r19, Y+12	; 0x0c
    5498:	34 ff       	sbrs	r19, 4
    549a:	81 e3       	ldi	r24, 0x31	; 49
    549c:	b7 01       	movw	r22, r14
    549e:	90 e0       	ldi	r25, 0x00	; 0
    54a0:	4e c0       	rjmp	.+156    	; 0x553e <vfprintf+0x3fe>
    54a2:	8a 81       	ldd	r24, Y+2	; 0x02
    54a4:	81 33       	cpi	r24, 0x31	; 49
    54a6:	19 f0       	breq	.+6      	; 0x54ae <vfprintf+0x36e>
    54a8:	9c 85       	ldd	r25, Y+12	; 0x0c
    54aa:	9f 7e       	andi	r25, 0xEF	; 239
    54ac:	9c 87       	std	Y+12, r25	; 0x0c
    54ae:	b7 01       	movw	r22, r14
    54b0:	90 e0       	ldi	r25, 0x00	; 0
    54b2:	0e 94 a7 2d 	call	0x5b4e	; 0x5b4e <fputc>
    54b6:	11 11       	cpse	r17, r1
    54b8:	05 c0       	rjmp	.+10     	; 0x54c4 <vfprintf+0x384>
    54ba:	94 fc       	sbrc	r9, 4
    54bc:	18 c0       	rjmp	.+48     	; 0x54ee <vfprintf+0x3ae>
    54be:	85 e6       	ldi	r24, 0x65	; 101
    54c0:	90 e0       	ldi	r25, 0x00	; 0
    54c2:	17 c0       	rjmp	.+46     	; 0x54f2 <vfprintf+0x3b2>
    54c4:	b7 01       	movw	r22, r14
    54c6:	8e e2       	ldi	r24, 0x2E	; 46
    54c8:	90 e0       	ldi	r25, 0x00	; 0
    54ca:	0e 94 a7 2d 	call	0x5b4e	; 0x5b4e <fputc>
    54ce:	1e 5f       	subi	r17, 0xFE	; 254
    54d0:	82 e0       	ldi	r24, 0x02	; 2
    54d2:	01 e0       	ldi	r16, 0x01	; 1
    54d4:	08 0f       	add	r16, r24
    54d6:	f3 01       	movw	r30, r6
    54d8:	e8 0f       	add	r30, r24
    54da:	f1 1d       	adc	r31, r1
    54dc:	80 81       	ld	r24, Z
    54de:	b7 01       	movw	r22, r14
    54e0:	90 e0       	ldi	r25, 0x00	; 0
    54e2:	0e 94 a7 2d 	call	0x5b4e	; 0x5b4e <fputc>
    54e6:	80 2f       	mov	r24, r16
    54e8:	01 13       	cpse	r16, r17
    54ea:	f3 cf       	rjmp	.-26     	; 0x54d2 <vfprintf+0x392>
    54ec:	e6 cf       	rjmp	.-52     	; 0x54ba <vfprintf+0x37a>
    54ee:	85 e4       	ldi	r24, 0x45	; 69
    54f0:	90 e0       	ldi	r25, 0x00	; 0
    54f2:	b7 01       	movw	r22, r14
    54f4:	0e 94 a7 2d 	call	0x5b4e	; 0x5b4e <fputc>
    54f8:	d7 fc       	sbrc	r13, 7
    54fa:	06 c0       	rjmp	.+12     	; 0x5508 <vfprintf+0x3c8>
    54fc:	c1 14       	cp	r12, r1
    54fe:	d1 04       	cpc	r13, r1
    5500:	41 f4       	brne	.+16     	; 0x5512 <vfprintf+0x3d2>
    5502:	ec 85       	ldd	r30, Y+12	; 0x0c
    5504:	e4 ff       	sbrs	r30, 4
    5506:	05 c0       	rjmp	.+10     	; 0x5512 <vfprintf+0x3d2>
    5508:	d1 94       	neg	r13
    550a:	c1 94       	neg	r12
    550c:	d1 08       	sbc	r13, r1
    550e:	8d e2       	ldi	r24, 0x2D	; 45
    5510:	01 c0       	rjmp	.+2      	; 0x5514 <vfprintf+0x3d4>
    5512:	8b e2       	ldi	r24, 0x2B	; 43
    5514:	b7 01       	movw	r22, r14
    5516:	90 e0       	ldi	r25, 0x00	; 0
    5518:	0e 94 a7 2d 	call	0x5b4e	; 0x5b4e <fputc>
    551c:	80 e3       	ldi	r24, 0x30	; 48
    551e:	2a e0       	ldi	r18, 0x0A	; 10
    5520:	c2 16       	cp	r12, r18
    5522:	d1 04       	cpc	r13, r1
    5524:	2c f0       	brlt	.+10     	; 0x5530 <vfprintf+0x3f0>
    5526:	8f 5f       	subi	r24, 0xFF	; 255
    5528:	fa e0       	ldi	r31, 0x0A	; 10
    552a:	cf 1a       	sub	r12, r31
    552c:	d1 08       	sbc	r13, r1
    552e:	f7 cf       	rjmp	.-18     	; 0x551e <vfprintf+0x3de>
    5530:	b7 01       	movw	r22, r14
    5532:	90 e0       	ldi	r25, 0x00	; 0
    5534:	0e 94 a7 2d 	call	0x5b4e	; 0x5b4e <fputc>
    5538:	b7 01       	movw	r22, r14
    553a:	c6 01       	movw	r24, r12
    553c:	c0 96       	adiw	r24, 0x30	; 48
    553e:	0e 94 a7 2d 	call	0x5b4e	; 0x5b4e <fputc>
    5542:	54 c1       	rjmp	.+680    	; 0x57ec <vfprintf+0x6ac>
    5544:	83 36       	cpi	r24, 0x63	; 99
    5546:	31 f0       	breq	.+12     	; 0x5554 <vfprintf+0x414>
    5548:	83 37       	cpi	r24, 0x73	; 115
    554a:	79 f0       	breq	.+30     	; 0x556a <vfprintf+0x42a>
    554c:	83 35       	cpi	r24, 0x53	; 83
    554e:	09 f0       	breq	.+2      	; 0x5552 <vfprintf+0x412>
    5550:	56 c0       	rjmp	.+172    	; 0x55fe <vfprintf+0x4be>
    5552:	20 c0       	rjmp	.+64     	; 0x5594 <vfprintf+0x454>
    5554:	56 01       	movw	r10, r12
    5556:	32 e0       	ldi	r19, 0x02	; 2
    5558:	a3 0e       	add	r10, r19
    555a:	b1 1c       	adc	r11, r1
    555c:	f6 01       	movw	r30, r12
    555e:	80 81       	ld	r24, Z
    5560:	89 83       	std	Y+1, r24	; 0x01
    5562:	01 e0       	ldi	r16, 0x01	; 1
    5564:	10 e0       	ldi	r17, 0x00	; 0
    5566:	63 01       	movw	r12, r6
    5568:	12 c0       	rjmp	.+36     	; 0x558e <vfprintf+0x44e>
    556a:	56 01       	movw	r10, r12
    556c:	f2 e0       	ldi	r31, 0x02	; 2
    556e:	af 0e       	add	r10, r31
    5570:	b1 1c       	adc	r11, r1
    5572:	f6 01       	movw	r30, r12
    5574:	c0 80       	ld	r12, Z
    5576:	d1 80       	ldd	r13, Z+1	; 0x01
    5578:	96 fe       	sbrs	r9, 6
    557a:	03 c0       	rjmp	.+6      	; 0x5582 <vfprintf+0x442>
    557c:	61 2f       	mov	r22, r17
    557e:	70 e0       	ldi	r23, 0x00	; 0
    5580:	02 c0       	rjmp	.+4      	; 0x5586 <vfprintf+0x446>
    5582:	6f ef       	ldi	r22, 0xFF	; 255
    5584:	7f ef       	ldi	r23, 0xFF	; 255
    5586:	c6 01       	movw	r24, r12
    5588:	0e 94 9c 2d 	call	0x5b38	; 0x5b38 <strnlen>
    558c:	8c 01       	movw	r16, r24
    558e:	f9 2d       	mov	r31, r9
    5590:	ff 77       	andi	r31, 0x7F	; 127
    5592:	14 c0       	rjmp	.+40     	; 0x55bc <vfprintf+0x47c>
    5594:	56 01       	movw	r10, r12
    5596:	22 e0       	ldi	r18, 0x02	; 2
    5598:	a2 0e       	add	r10, r18
    559a:	b1 1c       	adc	r11, r1
    559c:	f6 01       	movw	r30, r12
    559e:	c0 80       	ld	r12, Z
    55a0:	d1 80       	ldd	r13, Z+1	; 0x01
    55a2:	96 fe       	sbrs	r9, 6
    55a4:	03 c0       	rjmp	.+6      	; 0x55ac <vfprintf+0x46c>
    55a6:	61 2f       	mov	r22, r17
    55a8:	70 e0       	ldi	r23, 0x00	; 0
    55aa:	02 c0       	rjmp	.+4      	; 0x55b0 <vfprintf+0x470>
    55ac:	6f ef       	ldi	r22, 0xFF	; 255
    55ae:	7f ef       	ldi	r23, 0xFF	; 255
    55b0:	c6 01       	movw	r24, r12
    55b2:	0e 94 8a 2d 	call	0x5b14	; 0x5b14 <strnlen_P>
    55b6:	8c 01       	movw	r16, r24
    55b8:	f9 2d       	mov	r31, r9
    55ba:	f0 68       	ori	r31, 0x80	; 128
    55bc:	9f 2e       	mov	r9, r31
    55be:	f3 fd       	sbrc	r31, 3
    55c0:	1a c0       	rjmp	.+52     	; 0x55f6 <vfprintf+0x4b6>
    55c2:	85 2d       	mov	r24, r5
    55c4:	90 e0       	ldi	r25, 0x00	; 0
    55c6:	08 17       	cp	r16, r24
    55c8:	19 07       	cpc	r17, r25
    55ca:	a8 f4       	brcc	.+42     	; 0x55f6 <vfprintf+0x4b6>
    55cc:	b7 01       	movw	r22, r14
    55ce:	80 e2       	ldi	r24, 0x20	; 32
    55d0:	90 e0       	ldi	r25, 0x00	; 0
    55d2:	0e 94 a7 2d 	call	0x5b4e	; 0x5b4e <fputc>
    55d6:	5a 94       	dec	r5
    55d8:	f4 cf       	rjmp	.-24     	; 0x55c2 <vfprintf+0x482>
    55da:	f6 01       	movw	r30, r12
    55dc:	97 fc       	sbrc	r9, 7
    55de:	85 91       	lpm	r24, Z+
    55e0:	97 fe       	sbrs	r9, 7
    55e2:	81 91       	ld	r24, Z+
    55e4:	6f 01       	movw	r12, r30
    55e6:	b7 01       	movw	r22, r14
    55e8:	90 e0       	ldi	r25, 0x00	; 0
    55ea:	0e 94 a7 2d 	call	0x5b4e	; 0x5b4e <fputc>
    55ee:	51 10       	cpse	r5, r1
    55f0:	5a 94       	dec	r5
    55f2:	01 50       	subi	r16, 0x01	; 1
    55f4:	11 09       	sbc	r17, r1
    55f6:	01 15       	cp	r16, r1
    55f8:	11 05       	cpc	r17, r1
    55fa:	79 f7       	brne	.-34     	; 0x55da <vfprintf+0x49a>
    55fc:	f7 c0       	rjmp	.+494    	; 0x57ec <vfprintf+0x6ac>
    55fe:	84 36       	cpi	r24, 0x64	; 100
    5600:	11 f0       	breq	.+4      	; 0x5606 <vfprintf+0x4c6>
    5602:	89 36       	cpi	r24, 0x69	; 105
    5604:	61 f5       	brne	.+88     	; 0x565e <vfprintf+0x51e>
    5606:	56 01       	movw	r10, r12
    5608:	97 fe       	sbrs	r9, 7
    560a:	09 c0       	rjmp	.+18     	; 0x561e <vfprintf+0x4de>
    560c:	24 e0       	ldi	r18, 0x04	; 4
    560e:	a2 0e       	add	r10, r18
    5610:	b1 1c       	adc	r11, r1
    5612:	f6 01       	movw	r30, r12
    5614:	60 81       	ld	r22, Z
    5616:	71 81       	ldd	r23, Z+1	; 0x01
    5618:	82 81       	ldd	r24, Z+2	; 0x02
    561a:	93 81       	ldd	r25, Z+3	; 0x03
    561c:	0a c0       	rjmp	.+20     	; 0x5632 <vfprintf+0x4f2>
    561e:	f2 e0       	ldi	r31, 0x02	; 2
    5620:	af 0e       	add	r10, r31
    5622:	b1 1c       	adc	r11, r1
    5624:	f6 01       	movw	r30, r12
    5626:	60 81       	ld	r22, Z
    5628:	71 81       	ldd	r23, Z+1	; 0x01
    562a:	07 2e       	mov	r0, r23
    562c:	00 0c       	add	r0, r0
    562e:	88 0b       	sbc	r24, r24
    5630:	99 0b       	sbc	r25, r25
    5632:	f9 2d       	mov	r31, r9
    5634:	ff 76       	andi	r31, 0x6F	; 111
    5636:	9f 2e       	mov	r9, r31
    5638:	97 ff       	sbrs	r25, 7
    563a:	09 c0       	rjmp	.+18     	; 0x564e <vfprintf+0x50e>
    563c:	90 95       	com	r25
    563e:	80 95       	com	r24
    5640:	70 95       	com	r23
    5642:	61 95       	neg	r22
    5644:	7f 4f       	sbci	r23, 0xFF	; 255
    5646:	8f 4f       	sbci	r24, 0xFF	; 255
    5648:	9f 4f       	sbci	r25, 0xFF	; 255
    564a:	f0 68       	ori	r31, 0x80	; 128
    564c:	9f 2e       	mov	r9, r31
    564e:	2a e0       	ldi	r18, 0x0A	; 10
    5650:	30 e0       	ldi	r19, 0x00	; 0
    5652:	a3 01       	movw	r20, r6
    5654:	0e 94 f7 2d 	call	0x5bee	; 0x5bee <__ultoa_invert>
    5658:	c8 2e       	mov	r12, r24
    565a:	c6 18       	sub	r12, r6
    565c:	3f c0       	rjmp	.+126    	; 0x56dc <vfprintf+0x59c>
    565e:	09 2d       	mov	r16, r9
    5660:	85 37       	cpi	r24, 0x75	; 117
    5662:	21 f4       	brne	.+8      	; 0x566c <vfprintf+0x52c>
    5664:	0f 7e       	andi	r16, 0xEF	; 239
    5666:	2a e0       	ldi	r18, 0x0A	; 10
    5668:	30 e0       	ldi	r19, 0x00	; 0
    566a:	1d c0       	rjmp	.+58     	; 0x56a6 <vfprintf+0x566>
    566c:	09 7f       	andi	r16, 0xF9	; 249
    566e:	8f 36       	cpi	r24, 0x6F	; 111
    5670:	91 f0       	breq	.+36     	; 0x5696 <vfprintf+0x556>
    5672:	18 f4       	brcc	.+6      	; 0x567a <vfprintf+0x53a>
    5674:	88 35       	cpi	r24, 0x58	; 88
    5676:	59 f0       	breq	.+22     	; 0x568e <vfprintf+0x54e>
    5678:	c3 c0       	rjmp	.+390    	; 0x5800 <vfprintf+0x6c0>
    567a:	80 37       	cpi	r24, 0x70	; 112
    567c:	19 f0       	breq	.+6      	; 0x5684 <vfprintf+0x544>
    567e:	88 37       	cpi	r24, 0x78	; 120
    5680:	11 f0       	breq	.+4      	; 0x5686 <vfprintf+0x546>
    5682:	be c0       	rjmp	.+380    	; 0x5800 <vfprintf+0x6c0>
    5684:	00 61       	ori	r16, 0x10	; 16
    5686:	04 ff       	sbrs	r16, 4
    5688:	09 c0       	rjmp	.+18     	; 0x569c <vfprintf+0x55c>
    568a:	04 60       	ori	r16, 0x04	; 4
    568c:	07 c0       	rjmp	.+14     	; 0x569c <vfprintf+0x55c>
    568e:	94 fe       	sbrs	r9, 4
    5690:	08 c0       	rjmp	.+16     	; 0x56a2 <vfprintf+0x562>
    5692:	06 60       	ori	r16, 0x06	; 6
    5694:	06 c0       	rjmp	.+12     	; 0x56a2 <vfprintf+0x562>
    5696:	28 e0       	ldi	r18, 0x08	; 8
    5698:	30 e0       	ldi	r19, 0x00	; 0
    569a:	05 c0       	rjmp	.+10     	; 0x56a6 <vfprintf+0x566>
    569c:	20 e1       	ldi	r18, 0x10	; 16
    569e:	30 e0       	ldi	r19, 0x00	; 0
    56a0:	02 c0       	rjmp	.+4      	; 0x56a6 <vfprintf+0x566>
    56a2:	20 e1       	ldi	r18, 0x10	; 16
    56a4:	32 e0       	ldi	r19, 0x02	; 2
    56a6:	56 01       	movw	r10, r12
    56a8:	07 ff       	sbrs	r16, 7
    56aa:	09 c0       	rjmp	.+18     	; 0x56be <vfprintf+0x57e>
    56ac:	84 e0       	ldi	r24, 0x04	; 4
    56ae:	a8 0e       	add	r10, r24
    56b0:	b1 1c       	adc	r11, r1
    56b2:	f6 01       	movw	r30, r12
    56b4:	60 81       	ld	r22, Z
    56b6:	71 81       	ldd	r23, Z+1	; 0x01
    56b8:	82 81       	ldd	r24, Z+2	; 0x02
    56ba:	93 81       	ldd	r25, Z+3	; 0x03
    56bc:	08 c0       	rjmp	.+16     	; 0x56ce <vfprintf+0x58e>
    56be:	f2 e0       	ldi	r31, 0x02	; 2
    56c0:	af 0e       	add	r10, r31
    56c2:	b1 1c       	adc	r11, r1
    56c4:	f6 01       	movw	r30, r12
    56c6:	60 81       	ld	r22, Z
    56c8:	71 81       	ldd	r23, Z+1	; 0x01
    56ca:	80 e0       	ldi	r24, 0x00	; 0
    56cc:	90 e0       	ldi	r25, 0x00	; 0
    56ce:	a3 01       	movw	r20, r6
    56d0:	0e 94 f7 2d 	call	0x5bee	; 0x5bee <__ultoa_invert>
    56d4:	c8 2e       	mov	r12, r24
    56d6:	c6 18       	sub	r12, r6
    56d8:	0f 77       	andi	r16, 0x7F	; 127
    56da:	90 2e       	mov	r9, r16
    56dc:	96 fe       	sbrs	r9, 6
    56de:	0b c0       	rjmp	.+22     	; 0x56f6 <vfprintf+0x5b6>
    56e0:	09 2d       	mov	r16, r9
    56e2:	0e 7f       	andi	r16, 0xFE	; 254
    56e4:	c1 16       	cp	r12, r17
    56e6:	50 f4       	brcc	.+20     	; 0x56fc <vfprintf+0x5bc>
    56e8:	94 fe       	sbrs	r9, 4
    56ea:	0a c0       	rjmp	.+20     	; 0x5700 <vfprintf+0x5c0>
    56ec:	92 fc       	sbrc	r9, 2
    56ee:	08 c0       	rjmp	.+16     	; 0x5700 <vfprintf+0x5c0>
    56f0:	09 2d       	mov	r16, r9
    56f2:	0e 7e       	andi	r16, 0xEE	; 238
    56f4:	05 c0       	rjmp	.+10     	; 0x5700 <vfprintf+0x5c0>
    56f6:	dc 2c       	mov	r13, r12
    56f8:	09 2d       	mov	r16, r9
    56fa:	03 c0       	rjmp	.+6      	; 0x5702 <vfprintf+0x5c2>
    56fc:	dc 2c       	mov	r13, r12
    56fe:	01 c0       	rjmp	.+2      	; 0x5702 <vfprintf+0x5c2>
    5700:	d1 2e       	mov	r13, r17
    5702:	04 ff       	sbrs	r16, 4
    5704:	0d c0       	rjmp	.+26     	; 0x5720 <vfprintf+0x5e0>
    5706:	fe 01       	movw	r30, r28
    5708:	ec 0d       	add	r30, r12
    570a:	f1 1d       	adc	r31, r1
    570c:	80 81       	ld	r24, Z
    570e:	80 33       	cpi	r24, 0x30	; 48
    5710:	11 f4       	brne	.+4      	; 0x5716 <vfprintf+0x5d6>
    5712:	09 7e       	andi	r16, 0xE9	; 233
    5714:	09 c0       	rjmp	.+18     	; 0x5728 <vfprintf+0x5e8>
    5716:	02 ff       	sbrs	r16, 2
    5718:	06 c0       	rjmp	.+12     	; 0x5726 <vfprintf+0x5e6>
    571a:	d3 94       	inc	r13
    571c:	d3 94       	inc	r13
    571e:	04 c0       	rjmp	.+8      	; 0x5728 <vfprintf+0x5e8>
    5720:	80 2f       	mov	r24, r16
    5722:	86 78       	andi	r24, 0x86	; 134
    5724:	09 f0       	breq	.+2      	; 0x5728 <vfprintf+0x5e8>
    5726:	d3 94       	inc	r13
    5728:	03 fd       	sbrc	r16, 3
    572a:	11 c0       	rjmp	.+34     	; 0x574e <vfprintf+0x60e>
    572c:	00 ff       	sbrs	r16, 0
    572e:	06 c0       	rjmp	.+12     	; 0x573c <vfprintf+0x5fc>
    5730:	1c 2d       	mov	r17, r12
    5732:	d5 14       	cp	r13, r5
    5734:	80 f4       	brcc	.+32     	; 0x5756 <vfprintf+0x616>
    5736:	15 0d       	add	r17, r5
    5738:	1d 19       	sub	r17, r13
    573a:	0d c0       	rjmp	.+26     	; 0x5756 <vfprintf+0x616>
    573c:	d5 14       	cp	r13, r5
    573e:	58 f4       	brcc	.+22     	; 0x5756 <vfprintf+0x616>
    5740:	b7 01       	movw	r22, r14
    5742:	80 e2       	ldi	r24, 0x20	; 32
    5744:	90 e0       	ldi	r25, 0x00	; 0
    5746:	0e 94 a7 2d 	call	0x5b4e	; 0x5b4e <fputc>
    574a:	d3 94       	inc	r13
    574c:	f7 cf       	rjmp	.-18     	; 0x573c <vfprintf+0x5fc>
    574e:	d5 14       	cp	r13, r5
    5750:	10 f4       	brcc	.+4      	; 0x5756 <vfprintf+0x616>
    5752:	5d 18       	sub	r5, r13
    5754:	01 c0       	rjmp	.+2      	; 0x5758 <vfprintf+0x618>
    5756:	51 2c       	mov	r5, r1
    5758:	04 ff       	sbrs	r16, 4
    575a:	10 c0       	rjmp	.+32     	; 0x577c <vfprintf+0x63c>
    575c:	b7 01       	movw	r22, r14
    575e:	80 e3       	ldi	r24, 0x30	; 48
    5760:	90 e0       	ldi	r25, 0x00	; 0
    5762:	0e 94 a7 2d 	call	0x5b4e	; 0x5b4e <fputc>
    5766:	02 ff       	sbrs	r16, 2
    5768:	17 c0       	rjmp	.+46     	; 0x5798 <vfprintf+0x658>
    576a:	01 fd       	sbrc	r16, 1
    576c:	03 c0       	rjmp	.+6      	; 0x5774 <vfprintf+0x634>
    576e:	88 e7       	ldi	r24, 0x78	; 120
    5770:	90 e0       	ldi	r25, 0x00	; 0
    5772:	02 c0       	rjmp	.+4      	; 0x5778 <vfprintf+0x638>
    5774:	88 e5       	ldi	r24, 0x58	; 88
    5776:	90 e0       	ldi	r25, 0x00	; 0
    5778:	b7 01       	movw	r22, r14
    577a:	0c c0       	rjmp	.+24     	; 0x5794 <vfprintf+0x654>
    577c:	80 2f       	mov	r24, r16
    577e:	86 78       	andi	r24, 0x86	; 134
    5780:	59 f0       	breq	.+22     	; 0x5798 <vfprintf+0x658>
    5782:	01 ff       	sbrs	r16, 1
    5784:	02 c0       	rjmp	.+4      	; 0x578a <vfprintf+0x64a>
    5786:	8b e2       	ldi	r24, 0x2B	; 43
    5788:	01 c0       	rjmp	.+2      	; 0x578c <vfprintf+0x64c>
    578a:	80 e2       	ldi	r24, 0x20	; 32
    578c:	07 fd       	sbrc	r16, 7
    578e:	8d e2       	ldi	r24, 0x2D	; 45
    5790:	b7 01       	movw	r22, r14
    5792:	90 e0       	ldi	r25, 0x00	; 0
    5794:	0e 94 a7 2d 	call	0x5b4e	; 0x5b4e <fputc>
    5798:	c1 16       	cp	r12, r17
    579a:	38 f4       	brcc	.+14     	; 0x57aa <vfprintf+0x66a>
    579c:	b7 01       	movw	r22, r14
    579e:	80 e3       	ldi	r24, 0x30	; 48
    57a0:	90 e0       	ldi	r25, 0x00	; 0
    57a2:	0e 94 a7 2d 	call	0x5b4e	; 0x5b4e <fputc>
    57a6:	11 50       	subi	r17, 0x01	; 1
    57a8:	f7 cf       	rjmp	.-18     	; 0x5798 <vfprintf+0x658>
    57aa:	ca 94       	dec	r12
    57ac:	f3 01       	movw	r30, r6
    57ae:	ec 0d       	add	r30, r12
    57b0:	f1 1d       	adc	r31, r1
    57b2:	80 81       	ld	r24, Z
    57b4:	b7 01       	movw	r22, r14
    57b6:	90 e0       	ldi	r25, 0x00	; 0
    57b8:	0e 94 a7 2d 	call	0x5b4e	; 0x5b4e <fputc>
    57bc:	c1 10       	cpse	r12, r1
    57be:	f5 cf       	rjmp	.-22     	; 0x57aa <vfprintf+0x66a>
    57c0:	15 c0       	rjmp	.+42     	; 0x57ec <vfprintf+0x6ac>
    57c2:	f4 e0       	ldi	r31, 0x04	; 4
    57c4:	f5 15       	cp	r31, r5
    57c6:	60 f5       	brcc	.+88     	; 0x5820 <vfprintf+0x6e0>
    57c8:	84 e0       	ldi	r24, 0x04	; 4
    57ca:	58 1a       	sub	r5, r24
    57cc:	93 fe       	sbrs	r9, 3
    57ce:	1f c0       	rjmp	.+62     	; 0x580e <vfprintf+0x6ce>
    57d0:	01 11       	cpse	r16, r1
    57d2:	27 c0       	rjmp	.+78     	; 0x5822 <vfprintf+0x6e2>
    57d4:	2c 85       	ldd	r18, Y+12	; 0x0c
    57d6:	23 ff       	sbrs	r18, 3
    57d8:	2a c0       	rjmp	.+84     	; 0x582e <vfprintf+0x6ee>
    57da:	0c ec       	ldi	r16, 0xCC	; 204
    57dc:	11 e0       	ldi	r17, 0x01	; 1
    57de:	39 2d       	mov	r19, r9
    57e0:	30 71       	andi	r19, 0x10	; 16
    57e2:	93 2e       	mov	r9, r19
    57e4:	f8 01       	movw	r30, r16
    57e6:	84 91       	lpm	r24, Z
    57e8:	81 11       	cpse	r24, r1
    57ea:	24 c0       	rjmp	.+72     	; 0x5834 <vfprintf+0x6f4>
    57ec:	55 20       	and	r5, r5
    57ee:	09 f4       	brne	.+2      	; 0x57f2 <vfprintf+0x6b2>
    57f0:	e4 cc       	rjmp	.-1592   	; 0x51ba <vfprintf+0x7a>
    57f2:	b7 01       	movw	r22, r14
    57f4:	80 e2       	ldi	r24, 0x20	; 32
    57f6:	90 e0       	ldi	r25, 0x00	; 0
    57f8:	0e 94 a7 2d 	call	0x5b4e	; 0x5b4e <fputc>
    57fc:	5a 94       	dec	r5
    57fe:	f6 cf       	rjmp	.-20     	; 0x57ec <vfprintf+0x6ac>
    5800:	f7 01       	movw	r30, r14
    5802:	86 81       	ldd	r24, Z+6	; 0x06
    5804:	97 81       	ldd	r25, Z+7	; 0x07
    5806:	26 c0       	rjmp	.+76     	; 0x5854 <vfprintf+0x714>
    5808:	8f ef       	ldi	r24, 0xFF	; 255
    580a:	9f ef       	ldi	r25, 0xFF	; 255
    580c:	23 c0       	rjmp	.+70     	; 0x5854 <vfprintf+0x714>
    580e:	b7 01       	movw	r22, r14
    5810:	80 e2       	ldi	r24, 0x20	; 32
    5812:	90 e0       	ldi	r25, 0x00	; 0
    5814:	0e 94 a7 2d 	call	0x5b4e	; 0x5b4e <fputc>
    5818:	5a 94       	dec	r5
    581a:	51 10       	cpse	r5, r1
    581c:	f8 cf       	rjmp	.-16     	; 0x580e <vfprintf+0x6ce>
    581e:	d8 cf       	rjmp	.-80     	; 0x57d0 <vfprintf+0x690>
    5820:	51 2c       	mov	r5, r1
    5822:	b7 01       	movw	r22, r14
    5824:	80 2f       	mov	r24, r16
    5826:	90 e0       	ldi	r25, 0x00	; 0
    5828:	0e 94 a7 2d 	call	0x5b4e	; 0x5b4e <fputc>
    582c:	d3 cf       	rjmp	.-90     	; 0x57d4 <vfprintf+0x694>
    582e:	00 ed       	ldi	r16, 0xD0	; 208
    5830:	11 e0       	ldi	r17, 0x01	; 1
    5832:	d5 cf       	rjmp	.-86     	; 0x57de <vfprintf+0x69e>
    5834:	91 10       	cpse	r9, r1
    5836:	80 52       	subi	r24, 0x20	; 32
    5838:	b7 01       	movw	r22, r14
    583a:	90 e0       	ldi	r25, 0x00	; 0
    583c:	0e 94 a7 2d 	call	0x5b4e	; 0x5b4e <fputc>
    5840:	0f 5f       	subi	r16, 0xFF	; 255
    5842:	1f 4f       	sbci	r17, 0xFF	; 255
    5844:	cf cf       	rjmp	.-98     	; 0x57e4 <vfprintf+0x6a4>
    5846:	23 e0       	ldi	r18, 0x03	; 3
    5848:	25 15       	cp	r18, r5
    584a:	10 f4       	brcc	.+4      	; 0x5850 <vfprintf+0x710>
    584c:	83 e0       	ldi	r24, 0x03	; 3
    584e:	bd cf       	rjmp	.-134    	; 0x57ca <vfprintf+0x68a>
    5850:	51 2c       	mov	r5, r1
    5852:	c0 cf       	rjmp	.-128    	; 0x57d4 <vfprintf+0x694>
    5854:	60 96       	adiw	r28, 0x10	; 16
    5856:	cd bf       	out	0x3d, r28	; 61
    5858:	de bf       	out	0x3e, r29	; 62
    585a:	df 91       	pop	r29
    585c:	cf 91       	pop	r28
    585e:	1f 91       	pop	r17
    5860:	0f 91       	pop	r16
    5862:	ff 90       	pop	r15
    5864:	ef 90       	pop	r14
    5866:	df 90       	pop	r13
    5868:	cf 90       	pop	r12
    586a:	bf 90       	pop	r11
    586c:	af 90       	pop	r10
    586e:	9f 90       	pop	r9
    5870:	8f 90       	pop	r8
    5872:	7f 90       	pop	r7
    5874:	6f 90       	pop	r6
    5876:	5f 90       	pop	r5
    5878:	4f 90       	pop	r4
    587a:	3f 90       	pop	r3
    587c:	2f 90       	pop	r2
    587e:	08 95       	ret

00005880 <__divmodhi4>:
    5880:	97 fb       	bst	r25, 7
    5882:	07 2e       	mov	r0, r23
    5884:	16 f4       	brtc	.+4      	; 0x588a <__divmodhi4+0xa>
    5886:	00 94       	com	r0
    5888:	07 d0       	rcall	.+14     	; 0x5898 <__divmodhi4_neg1>
    588a:	77 fd       	sbrc	r23, 7
    588c:	09 d0       	rcall	.+18     	; 0x58a0 <__divmodhi4_neg2>
    588e:	0e 94 9e 2c 	call	0x593c	; 0x593c <__udivmodhi4>
    5892:	07 fc       	sbrc	r0, 7
    5894:	05 d0       	rcall	.+10     	; 0x58a0 <__divmodhi4_neg2>
    5896:	3e f4       	brtc	.+14     	; 0x58a6 <__divmodhi4_exit>

00005898 <__divmodhi4_neg1>:
    5898:	90 95       	com	r25
    589a:	81 95       	neg	r24
    589c:	9f 4f       	sbci	r25, 0xFF	; 255
    589e:	08 95       	ret

000058a0 <__divmodhi4_neg2>:
    58a0:	70 95       	com	r23
    58a2:	61 95       	neg	r22
    58a4:	7f 4f       	sbci	r23, 0xFF	; 255

000058a6 <__divmodhi4_exit>:
    58a6:	08 95       	ret

000058a8 <__udivmodsi4>:
    58a8:	a1 e2       	ldi	r26, 0x21	; 33
    58aa:	1a 2e       	mov	r1, r26
    58ac:	aa 1b       	sub	r26, r26
    58ae:	bb 1b       	sub	r27, r27
    58b0:	fd 01       	movw	r30, r26
    58b2:	0d c0       	rjmp	.+26     	; 0x58ce <__udivmodsi4_ep>

000058b4 <__udivmodsi4_loop>:
    58b4:	aa 1f       	adc	r26, r26
    58b6:	bb 1f       	adc	r27, r27
    58b8:	ee 1f       	adc	r30, r30
    58ba:	ff 1f       	adc	r31, r31
    58bc:	a2 17       	cp	r26, r18
    58be:	b3 07       	cpc	r27, r19
    58c0:	e4 07       	cpc	r30, r20
    58c2:	f5 07       	cpc	r31, r21
    58c4:	20 f0       	brcs	.+8      	; 0x58ce <__udivmodsi4_ep>
    58c6:	a2 1b       	sub	r26, r18
    58c8:	b3 0b       	sbc	r27, r19
    58ca:	e4 0b       	sbc	r30, r20
    58cc:	f5 0b       	sbc	r31, r21

000058ce <__udivmodsi4_ep>:
    58ce:	66 1f       	adc	r22, r22
    58d0:	77 1f       	adc	r23, r23
    58d2:	88 1f       	adc	r24, r24
    58d4:	99 1f       	adc	r25, r25
    58d6:	1a 94       	dec	r1
    58d8:	69 f7       	brne	.-38     	; 0x58b4 <__udivmodsi4_loop>
    58da:	60 95       	com	r22
    58dc:	70 95       	com	r23
    58de:	80 95       	com	r24
    58e0:	90 95       	com	r25
    58e2:	9b 01       	movw	r18, r22
    58e4:	ac 01       	movw	r20, r24
    58e6:	bd 01       	movw	r22, r26
    58e8:	cf 01       	movw	r24, r30
    58ea:	08 95       	ret

000058ec <__divmodsi4>:
    58ec:	05 2e       	mov	r0, r21
    58ee:	97 fb       	bst	r25, 7
    58f0:	1e f4       	brtc	.+6      	; 0x58f8 <__divmodsi4+0xc>
    58f2:	00 94       	com	r0
    58f4:	0e 94 8d 2c 	call	0x591a	; 0x591a <__negsi2>
    58f8:	57 fd       	sbrc	r21, 7
    58fa:	07 d0       	rcall	.+14     	; 0x590a <__divmodsi4_neg2>
    58fc:	0e 94 54 2c 	call	0x58a8	; 0x58a8 <__udivmodsi4>
    5900:	07 fc       	sbrc	r0, 7
    5902:	03 d0       	rcall	.+6      	; 0x590a <__divmodsi4_neg2>
    5904:	4e f4       	brtc	.+18     	; 0x5918 <__divmodsi4_exit>
    5906:	0c 94 8d 2c 	jmp	0x591a	; 0x591a <__negsi2>

0000590a <__divmodsi4_neg2>:
    590a:	50 95       	com	r21
    590c:	40 95       	com	r20
    590e:	30 95       	com	r19
    5910:	21 95       	neg	r18
    5912:	3f 4f       	sbci	r19, 0xFF	; 255
    5914:	4f 4f       	sbci	r20, 0xFF	; 255
    5916:	5f 4f       	sbci	r21, 0xFF	; 255

00005918 <__divmodsi4_exit>:
    5918:	08 95       	ret

0000591a <__negsi2>:
    591a:	90 95       	com	r25
    591c:	80 95       	com	r24
    591e:	70 95       	com	r23
    5920:	61 95       	neg	r22
    5922:	7f 4f       	sbci	r23, 0xFF	; 255
    5924:	8f 4f       	sbci	r24, 0xFF	; 255
    5926:	9f 4f       	sbci	r25, 0xFF	; 255
    5928:	08 95       	ret

0000592a <__tablejump2__>:
    592a:	ee 0f       	add	r30, r30
    592c:	ff 1f       	adc	r31, r31
    592e:	00 24       	eor	r0, r0
    5930:	00 1c       	adc	r0, r0
    5932:	0b be       	out	0x3b, r0	; 59
    5934:	07 90       	elpm	r0, Z+
    5936:	f6 91       	elpm	r31, Z
    5938:	e0 2d       	mov	r30, r0
    593a:	09 94       	ijmp

0000593c <__udivmodhi4>:
    593c:	aa 1b       	sub	r26, r26
    593e:	bb 1b       	sub	r27, r27
    5940:	51 e1       	ldi	r21, 0x11	; 17
    5942:	07 c0       	rjmp	.+14     	; 0x5952 <__udivmodhi4_ep>

00005944 <__udivmodhi4_loop>:
    5944:	aa 1f       	adc	r26, r26
    5946:	bb 1f       	adc	r27, r27
    5948:	a6 17       	cp	r26, r22
    594a:	b7 07       	cpc	r27, r23
    594c:	10 f0       	brcs	.+4      	; 0x5952 <__udivmodhi4_ep>
    594e:	a6 1b       	sub	r26, r22
    5950:	b7 0b       	sbc	r27, r23

00005952 <__udivmodhi4_ep>:
    5952:	88 1f       	adc	r24, r24
    5954:	99 1f       	adc	r25, r25
    5956:	5a 95       	dec	r21
    5958:	a9 f7       	brne	.-22     	; 0x5944 <__udivmodhi4_loop>
    595a:	80 95       	com	r24
    595c:	90 95       	com	r25
    595e:	bc 01       	movw	r22, r24
    5960:	cd 01       	movw	r24, r26
    5962:	08 95       	ret

00005964 <__ftoa_engine>:
    5964:	28 30       	cpi	r18, 0x08	; 8
    5966:	08 f0       	brcs	.+2      	; 0x596a <__ftoa_engine+0x6>
    5968:	27 e0       	ldi	r18, 0x07	; 7
    596a:	33 27       	eor	r19, r19
    596c:	da 01       	movw	r26, r20
    596e:	99 0f       	add	r25, r25
    5970:	31 1d       	adc	r19, r1
    5972:	87 fd       	sbrc	r24, 7
    5974:	91 60       	ori	r25, 0x01	; 1
    5976:	00 96       	adiw	r24, 0x00	; 0
    5978:	61 05       	cpc	r22, r1
    597a:	71 05       	cpc	r23, r1
    597c:	39 f4       	brne	.+14     	; 0x598c <__ftoa_engine+0x28>
    597e:	32 60       	ori	r19, 0x02	; 2
    5980:	2e 5f       	subi	r18, 0xFE	; 254
    5982:	3d 93       	st	X+, r19
    5984:	30 e3       	ldi	r19, 0x30	; 48
    5986:	2a 95       	dec	r18
    5988:	e1 f7       	brne	.-8      	; 0x5982 <__ftoa_engine+0x1e>
    598a:	08 95       	ret
    598c:	9f 3f       	cpi	r25, 0xFF	; 255
    598e:	30 f0       	brcs	.+12     	; 0x599c <__ftoa_engine+0x38>
    5990:	80 38       	cpi	r24, 0x80	; 128
    5992:	71 05       	cpc	r23, r1
    5994:	61 05       	cpc	r22, r1
    5996:	09 f0       	breq	.+2      	; 0x599a <__ftoa_engine+0x36>
    5998:	3c 5f       	subi	r19, 0xFC	; 252
    599a:	3c 5f       	subi	r19, 0xFC	; 252
    599c:	3d 93       	st	X+, r19
    599e:	91 30       	cpi	r25, 0x01	; 1
    59a0:	08 f0       	brcs	.+2      	; 0x59a4 <__ftoa_engine+0x40>
    59a2:	80 68       	ori	r24, 0x80	; 128
    59a4:	91 1d       	adc	r25, r1
    59a6:	df 93       	push	r29
    59a8:	cf 93       	push	r28
    59aa:	1f 93       	push	r17
    59ac:	0f 93       	push	r16
    59ae:	ff 92       	push	r15
    59b0:	ef 92       	push	r14
    59b2:	19 2f       	mov	r17, r25
    59b4:	98 7f       	andi	r25, 0xF8	; 248
    59b6:	96 95       	lsr	r25
    59b8:	e9 2f       	mov	r30, r25
    59ba:	96 95       	lsr	r25
    59bc:	96 95       	lsr	r25
    59be:	e9 0f       	add	r30, r25
    59c0:	ff 27       	eor	r31, r31
    59c2:	e2 5d       	subi	r30, 0xD2	; 210
    59c4:	fd 4f       	sbci	r31, 0xFD	; 253
    59c6:	99 27       	eor	r25, r25
    59c8:	33 27       	eor	r19, r19
    59ca:	ee 24       	eor	r14, r14
    59cc:	ff 24       	eor	r15, r15
    59ce:	a7 01       	movw	r20, r14
    59d0:	e7 01       	movw	r28, r14
    59d2:	05 90       	lpm	r0, Z+
    59d4:	08 94       	sec
    59d6:	07 94       	ror	r0
    59d8:	28 f4       	brcc	.+10     	; 0x59e4 <__ftoa_engine+0x80>
    59da:	36 0f       	add	r19, r22
    59dc:	e7 1e       	adc	r14, r23
    59de:	f8 1e       	adc	r15, r24
    59e0:	49 1f       	adc	r20, r25
    59e2:	51 1d       	adc	r21, r1
    59e4:	66 0f       	add	r22, r22
    59e6:	77 1f       	adc	r23, r23
    59e8:	88 1f       	adc	r24, r24
    59ea:	99 1f       	adc	r25, r25
    59ec:	06 94       	lsr	r0
    59ee:	a1 f7       	brne	.-24     	; 0x59d8 <__ftoa_engine+0x74>
    59f0:	05 90       	lpm	r0, Z+
    59f2:	07 94       	ror	r0
    59f4:	28 f4       	brcc	.+10     	; 0x5a00 <__ftoa_engine+0x9c>
    59f6:	e7 0e       	add	r14, r23
    59f8:	f8 1e       	adc	r15, r24
    59fa:	49 1f       	adc	r20, r25
    59fc:	56 1f       	adc	r21, r22
    59fe:	c1 1d       	adc	r28, r1
    5a00:	77 0f       	add	r23, r23
    5a02:	88 1f       	adc	r24, r24
    5a04:	99 1f       	adc	r25, r25
    5a06:	66 1f       	adc	r22, r22
    5a08:	06 94       	lsr	r0
    5a0a:	a1 f7       	brne	.-24     	; 0x59f4 <__ftoa_engine+0x90>
    5a0c:	05 90       	lpm	r0, Z+
    5a0e:	07 94       	ror	r0
    5a10:	28 f4       	brcc	.+10     	; 0x5a1c <__ftoa_engine+0xb8>
    5a12:	f8 0e       	add	r15, r24
    5a14:	49 1f       	adc	r20, r25
    5a16:	56 1f       	adc	r21, r22
    5a18:	c7 1f       	adc	r28, r23
    5a1a:	d1 1d       	adc	r29, r1
    5a1c:	88 0f       	add	r24, r24
    5a1e:	99 1f       	adc	r25, r25
    5a20:	66 1f       	adc	r22, r22
    5a22:	77 1f       	adc	r23, r23
    5a24:	06 94       	lsr	r0
    5a26:	a1 f7       	brne	.-24     	; 0x5a10 <__ftoa_engine+0xac>
    5a28:	05 90       	lpm	r0, Z+
    5a2a:	07 94       	ror	r0
    5a2c:	20 f4       	brcc	.+8      	; 0x5a36 <__ftoa_engine+0xd2>
    5a2e:	49 0f       	add	r20, r25
    5a30:	56 1f       	adc	r21, r22
    5a32:	c7 1f       	adc	r28, r23
    5a34:	d8 1f       	adc	r29, r24
    5a36:	99 0f       	add	r25, r25
    5a38:	66 1f       	adc	r22, r22
    5a3a:	77 1f       	adc	r23, r23
    5a3c:	88 1f       	adc	r24, r24
    5a3e:	06 94       	lsr	r0
    5a40:	a9 f7       	brne	.-22     	; 0x5a2c <__ftoa_engine+0xc8>
    5a42:	84 91       	lpm	r24, Z
    5a44:	10 95       	com	r17
    5a46:	17 70       	andi	r17, 0x07	; 7
    5a48:	41 f0       	breq	.+16     	; 0x5a5a <__ftoa_engine+0xf6>
    5a4a:	d6 95       	lsr	r29
    5a4c:	c7 95       	ror	r28
    5a4e:	57 95       	ror	r21
    5a50:	47 95       	ror	r20
    5a52:	f7 94       	ror	r15
    5a54:	e7 94       	ror	r14
    5a56:	1a 95       	dec	r17
    5a58:	c1 f7       	brne	.-16     	; 0x5a4a <__ftoa_engine+0xe6>
    5a5a:	e4 ed       	ldi	r30, 0xD4	; 212
    5a5c:	f1 e0       	ldi	r31, 0x01	; 1
    5a5e:	68 94       	set
    5a60:	15 90       	lpm	r1, Z+
    5a62:	15 91       	lpm	r17, Z+
    5a64:	35 91       	lpm	r19, Z+
    5a66:	65 91       	lpm	r22, Z+
    5a68:	95 91       	lpm	r25, Z+
    5a6a:	05 90       	lpm	r0, Z+
    5a6c:	7f e2       	ldi	r23, 0x2F	; 47
    5a6e:	73 95       	inc	r23
    5a70:	e1 18       	sub	r14, r1
    5a72:	f1 0a       	sbc	r15, r17
    5a74:	43 0b       	sbc	r20, r19
    5a76:	56 0b       	sbc	r21, r22
    5a78:	c9 0b       	sbc	r28, r25
    5a7a:	d0 09       	sbc	r29, r0
    5a7c:	c0 f7       	brcc	.-16     	; 0x5a6e <__ftoa_engine+0x10a>
    5a7e:	e1 0c       	add	r14, r1
    5a80:	f1 1e       	adc	r15, r17
    5a82:	43 1f       	adc	r20, r19
    5a84:	56 1f       	adc	r21, r22
    5a86:	c9 1f       	adc	r28, r25
    5a88:	d0 1d       	adc	r29, r0
    5a8a:	7e f4       	brtc	.+30     	; 0x5aaa <__ftoa_engine+0x146>
    5a8c:	70 33       	cpi	r23, 0x30	; 48
    5a8e:	11 f4       	brne	.+4      	; 0x5a94 <__ftoa_engine+0x130>
    5a90:	8a 95       	dec	r24
    5a92:	e6 cf       	rjmp	.-52     	; 0x5a60 <__ftoa_engine+0xfc>
    5a94:	e8 94       	clt
    5a96:	01 50       	subi	r16, 0x01	; 1
    5a98:	30 f0       	brcs	.+12     	; 0x5aa6 <__ftoa_engine+0x142>
    5a9a:	08 0f       	add	r16, r24
    5a9c:	0a f4       	brpl	.+2      	; 0x5aa0 <__ftoa_engine+0x13c>
    5a9e:	00 27       	eor	r16, r16
    5aa0:	02 17       	cp	r16, r18
    5aa2:	08 f4       	brcc	.+2      	; 0x5aa6 <__ftoa_engine+0x142>
    5aa4:	20 2f       	mov	r18, r16
    5aa6:	23 95       	inc	r18
    5aa8:	02 2f       	mov	r16, r18
    5aaa:	7a 33       	cpi	r23, 0x3A	; 58
    5aac:	28 f0       	brcs	.+10     	; 0x5ab8 <__ftoa_engine+0x154>
    5aae:	79 e3       	ldi	r23, 0x39	; 57
    5ab0:	7d 93       	st	X+, r23
    5ab2:	2a 95       	dec	r18
    5ab4:	e9 f7       	brne	.-6      	; 0x5ab0 <__ftoa_engine+0x14c>
    5ab6:	10 c0       	rjmp	.+32     	; 0x5ad8 <__ftoa_engine+0x174>
    5ab8:	7d 93       	st	X+, r23
    5aba:	2a 95       	dec	r18
    5abc:	89 f6       	brne	.-94     	; 0x5a60 <__ftoa_engine+0xfc>
    5abe:	06 94       	lsr	r0
    5ac0:	97 95       	ror	r25
    5ac2:	67 95       	ror	r22
    5ac4:	37 95       	ror	r19
    5ac6:	17 95       	ror	r17
    5ac8:	17 94       	ror	r1
    5aca:	e1 18       	sub	r14, r1
    5acc:	f1 0a       	sbc	r15, r17
    5ace:	43 0b       	sbc	r20, r19
    5ad0:	56 0b       	sbc	r21, r22
    5ad2:	c9 0b       	sbc	r28, r25
    5ad4:	d0 09       	sbc	r29, r0
    5ad6:	98 f0       	brcs	.+38     	; 0x5afe <__ftoa_engine+0x19a>
    5ad8:	23 95       	inc	r18
    5ada:	7e 91       	ld	r23, -X
    5adc:	73 95       	inc	r23
    5ade:	7a 33       	cpi	r23, 0x3A	; 58
    5ae0:	08 f0       	brcs	.+2      	; 0x5ae4 <__ftoa_engine+0x180>
    5ae2:	70 e3       	ldi	r23, 0x30	; 48
    5ae4:	7c 93       	st	X, r23
    5ae6:	20 13       	cpse	r18, r16
    5ae8:	b8 f7       	brcc	.-18     	; 0x5ad8 <__ftoa_engine+0x174>
    5aea:	7e 91       	ld	r23, -X
    5aec:	70 61       	ori	r23, 0x10	; 16
    5aee:	7d 93       	st	X+, r23
    5af0:	30 f0       	brcs	.+12     	; 0x5afe <__ftoa_engine+0x19a>
    5af2:	83 95       	inc	r24
    5af4:	71 e3       	ldi	r23, 0x31	; 49
    5af6:	7d 93       	st	X+, r23
    5af8:	70 e3       	ldi	r23, 0x30	; 48
    5afa:	2a 95       	dec	r18
    5afc:	e1 f7       	brne	.-8      	; 0x5af6 <__ftoa_engine+0x192>
    5afe:	11 24       	eor	r1, r1
    5b00:	ef 90       	pop	r14
    5b02:	ff 90       	pop	r15
    5b04:	0f 91       	pop	r16
    5b06:	1f 91       	pop	r17
    5b08:	cf 91       	pop	r28
    5b0a:	df 91       	pop	r29
    5b0c:	99 27       	eor	r25, r25
    5b0e:	87 fd       	sbrc	r24, 7
    5b10:	90 95       	com	r25
    5b12:	08 95       	ret

00005b14 <strnlen_P>:
    5b14:	fc 01       	movw	r30, r24
    5b16:	05 90       	lpm	r0, Z+
    5b18:	61 50       	subi	r22, 0x01	; 1
    5b1a:	70 40       	sbci	r23, 0x00	; 0
    5b1c:	01 10       	cpse	r0, r1
    5b1e:	d8 f7       	brcc	.-10     	; 0x5b16 <strnlen_P+0x2>
    5b20:	80 95       	com	r24
    5b22:	90 95       	com	r25
    5b24:	8e 0f       	add	r24, r30
    5b26:	9f 1f       	adc	r25, r31
    5b28:	08 95       	ret

00005b2a <memset>:
    5b2a:	dc 01       	movw	r26, r24
    5b2c:	01 c0       	rjmp	.+2      	; 0x5b30 <memset+0x6>
    5b2e:	6d 93       	st	X+, r22
    5b30:	41 50       	subi	r20, 0x01	; 1
    5b32:	50 40       	sbci	r21, 0x00	; 0
    5b34:	e0 f7       	brcc	.-8      	; 0x5b2e <memset+0x4>
    5b36:	08 95       	ret

00005b38 <strnlen>:
    5b38:	fc 01       	movw	r30, r24
    5b3a:	61 50       	subi	r22, 0x01	; 1
    5b3c:	70 40       	sbci	r23, 0x00	; 0
    5b3e:	01 90       	ld	r0, Z+
    5b40:	01 10       	cpse	r0, r1
    5b42:	d8 f7       	brcc	.-10     	; 0x5b3a <strnlen+0x2>
    5b44:	80 95       	com	r24
    5b46:	90 95       	com	r25
    5b48:	8e 0f       	add	r24, r30
    5b4a:	9f 1f       	adc	r25, r31
    5b4c:	08 95       	ret

00005b4e <fputc>:
    5b4e:	0f 93       	push	r16
    5b50:	1f 93       	push	r17
    5b52:	cf 93       	push	r28
    5b54:	df 93       	push	r29
    5b56:	fb 01       	movw	r30, r22
    5b58:	23 81       	ldd	r18, Z+3	; 0x03
    5b5a:	21 fd       	sbrc	r18, 1
    5b5c:	03 c0       	rjmp	.+6      	; 0x5b64 <fputc+0x16>
    5b5e:	8f ef       	ldi	r24, 0xFF	; 255
    5b60:	9f ef       	ldi	r25, 0xFF	; 255
    5b62:	2c c0       	rjmp	.+88     	; 0x5bbc <fputc+0x6e>
    5b64:	22 ff       	sbrs	r18, 2
    5b66:	16 c0       	rjmp	.+44     	; 0x5b94 <fputc+0x46>
    5b68:	46 81       	ldd	r20, Z+6	; 0x06
    5b6a:	57 81       	ldd	r21, Z+7	; 0x07
    5b6c:	24 81       	ldd	r18, Z+4	; 0x04
    5b6e:	35 81       	ldd	r19, Z+5	; 0x05
    5b70:	42 17       	cp	r20, r18
    5b72:	53 07       	cpc	r21, r19
    5b74:	44 f4       	brge	.+16     	; 0x5b86 <fputc+0x38>
    5b76:	a0 81       	ld	r26, Z
    5b78:	b1 81       	ldd	r27, Z+1	; 0x01
    5b7a:	9d 01       	movw	r18, r26
    5b7c:	2f 5f       	subi	r18, 0xFF	; 255
    5b7e:	3f 4f       	sbci	r19, 0xFF	; 255
    5b80:	20 83       	st	Z, r18
    5b82:	31 83       	std	Z+1, r19	; 0x01
    5b84:	8c 93       	st	X, r24
    5b86:	26 81       	ldd	r18, Z+6	; 0x06
    5b88:	37 81       	ldd	r19, Z+7	; 0x07
    5b8a:	2f 5f       	subi	r18, 0xFF	; 255
    5b8c:	3f 4f       	sbci	r19, 0xFF	; 255
    5b8e:	26 83       	std	Z+6, r18	; 0x06
    5b90:	37 83       	std	Z+7, r19	; 0x07
    5b92:	14 c0       	rjmp	.+40     	; 0x5bbc <fputc+0x6e>
    5b94:	8b 01       	movw	r16, r22
    5b96:	ec 01       	movw	r28, r24
    5b98:	fb 01       	movw	r30, r22
    5b9a:	00 84       	ldd	r0, Z+8	; 0x08
    5b9c:	f1 85       	ldd	r31, Z+9	; 0x09
    5b9e:	e0 2d       	mov	r30, r0
    5ba0:	09 95       	icall
    5ba2:	89 2b       	or	r24, r25
    5ba4:	e1 f6       	brne	.-72     	; 0x5b5e <fputc+0x10>
    5ba6:	d8 01       	movw	r26, r16
    5ba8:	16 96       	adiw	r26, 0x06	; 6
    5baa:	8d 91       	ld	r24, X+
    5bac:	9c 91       	ld	r25, X
    5bae:	17 97       	sbiw	r26, 0x07	; 7
    5bb0:	01 96       	adiw	r24, 0x01	; 1
    5bb2:	16 96       	adiw	r26, 0x06	; 6
    5bb4:	8d 93       	st	X+, r24
    5bb6:	9c 93       	st	X, r25
    5bb8:	17 97       	sbiw	r26, 0x07	; 7
    5bba:	ce 01       	movw	r24, r28
    5bbc:	df 91       	pop	r29
    5bbe:	cf 91       	pop	r28
    5bc0:	1f 91       	pop	r17
    5bc2:	0f 91       	pop	r16
    5bc4:	08 95       	ret

00005bc6 <printf>:
    5bc6:	cf 93       	push	r28
    5bc8:	df 93       	push	r29
    5bca:	cd b7       	in	r28, 0x3d	; 61
    5bcc:	de b7       	in	r29, 0x3e	; 62
    5bce:	ae 01       	movw	r20, r28
    5bd0:	4b 5f       	subi	r20, 0xFB	; 251
    5bd2:	5f 4f       	sbci	r21, 0xFF	; 255
    5bd4:	fa 01       	movw	r30, r20
    5bd6:	61 91       	ld	r22, Z+
    5bd8:	71 91       	ld	r23, Z+
    5bda:	af 01       	movw	r20, r30
    5bdc:	80 91 92 45 	lds	r24, 0x4592	; 0x804592 <__iob+0x2>
    5be0:	90 91 93 45 	lds	r25, 0x4593	; 0x804593 <__iob+0x3>
    5be4:	0e 94 a0 28 	call	0x5140	; 0x5140 <vfprintf>
    5be8:	df 91       	pop	r29
    5bea:	cf 91       	pop	r28
    5bec:	08 95       	ret

00005bee <__ultoa_invert>:
    5bee:	fa 01       	movw	r30, r20
    5bf0:	aa 27       	eor	r26, r26
    5bf2:	28 30       	cpi	r18, 0x08	; 8
    5bf4:	51 f1       	breq	.+84     	; 0x5c4a <__ultoa_invert+0x5c>
    5bf6:	20 31       	cpi	r18, 0x10	; 16
    5bf8:	81 f1       	breq	.+96     	; 0x5c5a <__ultoa_invert+0x6c>
    5bfa:	e8 94       	clt
    5bfc:	6f 93       	push	r22
    5bfe:	6e 7f       	andi	r22, 0xFE	; 254
    5c00:	6e 5f       	subi	r22, 0xFE	; 254
    5c02:	7f 4f       	sbci	r23, 0xFF	; 255
    5c04:	8f 4f       	sbci	r24, 0xFF	; 255
    5c06:	9f 4f       	sbci	r25, 0xFF	; 255
    5c08:	af 4f       	sbci	r26, 0xFF	; 255
    5c0a:	b1 e0       	ldi	r27, 0x01	; 1
    5c0c:	3e d0       	rcall	.+124    	; 0x5c8a <__ultoa_invert+0x9c>
    5c0e:	b4 e0       	ldi	r27, 0x04	; 4
    5c10:	3c d0       	rcall	.+120    	; 0x5c8a <__ultoa_invert+0x9c>
    5c12:	67 0f       	add	r22, r23
    5c14:	78 1f       	adc	r23, r24
    5c16:	89 1f       	adc	r24, r25
    5c18:	9a 1f       	adc	r25, r26
    5c1a:	a1 1d       	adc	r26, r1
    5c1c:	68 0f       	add	r22, r24
    5c1e:	79 1f       	adc	r23, r25
    5c20:	8a 1f       	adc	r24, r26
    5c22:	91 1d       	adc	r25, r1
    5c24:	a1 1d       	adc	r26, r1
    5c26:	6a 0f       	add	r22, r26
    5c28:	71 1d       	adc	r23, r1
    5c2a:	81 1d       	adc	r24, r1
    5c2c:	91 1d       	adc	r25, r1
    5c2e:	a1 1d       	adc	r26, r1
    5c30:	20 d0       	rcall	.+64     	; 0x5c72 <__ultoa_invert+0x84>
    5c32:	09 f4       	brne	.+2      	; 0x5c36 <__ultoa_invert+0x48>
    5c34:	68 94       	set
    5c36:	3f 91       	pop	r19
    5c38:	2a e0       	ldi	r18, 0x0A	; 10
    5c3a:	26 9f       	mul	r18, r22
    5c3c:	11 24       	eor	r1, r1
    5c3e:	30 19       	sub	r19, r0
    5c40:	30 5d       	subi	r19, 0xD0	; 208
    5c42:	31 93       	st	Z+, r19
    5c44:	de f6       	brtc	.-74     	; 0x5bfc <__ultoa_invert+0xe>
    5c46:	cf 01       	movw	r24, r30
    5c48:	08 95       	ret
    5c4a:	46 2f       	mov	r20, r22
    5c4c:	47 70       	andi	r20, 0x07	; 7
    5c4e:	40 5d       	subi	r20, 0xD0	; 208
    5c50:	41 93       	st	Z+, r20
    5c52:	b3 e0       	ldi	r27, 0x03	; 3
    5c54:	0f d0       	rcall	.+30     	; 0x5c74 <__ultoa_invert+0x86>
    5c56:	c9 f7       	brne	.-14     	; 0x5c4a <__ultoa_invert+0x5c>
    5c58:	f6 cf       	rjmp	.-20     	; 0x5c46 <__ultoa_invert+0x58>
    5c5a:	46 2f       	mov	r20, r22
    5c5c:	4f 70       	andi	r20, 0x0F	; 15
    5c5e:	40 5d       	subi	r20, 0xD0	; 208
    5c60:	4a 33       	cpi	r20, 0x3A	; 58
    5c62:	18 f0       	brcs	.+6      	; 0x5c6a <__ultoa_invert+0x7c>
    5c64:	49 5d       	subi	r20, 0xD9	; 217
    5c66:	31 fd       	sbrc	r19, 1
    5c68:	40 52       	subi	r20, 0x20	; 32
    5c6a:	41 93       	st	Z+, r20
    5c6c:	02 d0       	rcall	.+4      	; 0x5c72 <__ultoa_invert+0x84>
    5c6e:	a9 f7       	brne	.-22     	; 0x5c5a <__ultoa_invert+0x6c>
    5c70:	ea cf       	rjmp	.-44     	; 0x5c46 <__ultoa_invert+0x58>
    5c72:	b4 e0       	ldi	r27, 0x04	; 4
    5c74:	a6 95       	lsr	r26
    5c76:	97 95       	ror	r25
    5c78:	87 95       	ror	r24
    5c7a:	77 95       	ror	r23
    5c7c:	67 95       	ror	r22
    5c7e:	ba 95       	dec	r27
    5c80:	c9 f7       	brne	.-14     	; 0x5c74 <__ultoa_invert+0x86>
    5c82:	00 97       	sbiw	r24, 0x00	; 0
    5c84:	61 05       	cpc	r22, r1
    5c86:	71 05       	cpc	r23, r1
    5c88:	08 95       	ret
    5c8a:	9b 01       	movw	r18, r22
    5c8c:	ac 01       	movw	r20, r24
    5c8e:	0a 2e       	mov	r0, r26
    5c90:	06 94       	lsr	r0
    5c92:	57 95       	ror	r21
    5c94:	47 95       	ror	r20
    5c96:	37 95       	ror	r19
    5c98:	27 95       	ror	r18
    5c9a:	ba 95       	dec	r27
    5c9c:	c9 f7       	brne	.-14     	; 0x5c90 <__ultoa_invert+0xa2>
    5c9e:	62 0f       	add	r22, r18
    5ca0:	73 1f       	adc	r23, r19
    5ca2:	84 1f       	adc	r24, r20
    5ca4:	95 1f       	adc	r25, r21
    5ca6:	a0 1d       	adc	r26, r0
    5ca8:	08 95       	ret

00005caa <__do_global_dtors>:
    5caa:	11 e0       	ldi	r17, 0x01	; 1
    5cac:	cb e6       	ldi	r28, 0x6B	; 107
    5cae:	d1 e0       	ldi	r29, 0x01	; 1
    5cb0:	04 c0       	rjmp	.+8      	; 0x5cba <__do_global_dtors+0x10>
    5cb2:	fe 01       	movw	r30, r28
    5cb4:	0e 94 95 2c 	call	0x592a	; 0x592a <__tablejump2__>
    5cb8:	21 96       	adiw	r28, 0x01	; 1
    5cba:	cf 36       	cpi	r28, 0x6F	; 111
    5cbc:	d1 07       	cpc	r29, r17
    5cbe:	c9 f7       	brne	.-14     	; 0x5cb2 <__do_global_dtors+0x8>
    5cc0:	f8 94       	cli

00005cc2 <__stop_program>:
    5cc2:	ff cf       	rjmp	.-2      	; 0x5cc2 <__stop_program>
