
LTC5548_AVR128DB_LIB.elf:     file format elf32-avr

Sections:
Idx Name          Size      VMA       LMA       File off  Algn
  0 .data         000001e0  00804000  00003f7a  0000400e  2**0
                  CONTENTS, ALLOC, LOAD, DATA
  1 .text         00003f7a  00000000  00000000  00000094  2**1
                  CONTENTS, ALLOC, LOAD, READONLY, CODE
  2 .bss          000003ae  008041e0  008041e0  000041ee  2**0
                  ALLOC
  3 .comment      0000005c  00000000  00000000  000041ee  2**0
                  CONTENTS, READONLY
  4 .note.gnu.avr.deviceinfo 00000040  00000000  00000000  0000424c  2**2
                  CONTENTS, READONLY
  5 .debug_aranges 00000690  00000000  00000000  00004290  2**3
                  CONTENTS, READONLY, DEBUGGING
  6 .debug_info   0000e128  00000000  00000000  00004920  2**0
                  CONTENTS, READONLY, DEBUGGING
  7 .debug_abbrev 00004f0c  00000000  00000000  00012a48  2**0
                  CONTENTS, READONLY, DEBUGGING
  8 .debug_line   00003c8a  00000000  00000000  00017954  2**0
                  CONTENTS, READONLY, DEBUGGING
  9 .debug_frame  00001394  00000000  00000000  0001b5e0  2**2
                  CONTENTS, READONLY, DEBUGGING
 10 .debug_str    00005c77  00000000  00000000  0001c974  2**0
                  CONTENTS, READONLY, DEBUGGING
 11 .debug_loc    00004827  00000000  00000000  000225eb  2**0
                  CONTENTS, READONLY, DEBUGGING
 12 .debug_ranges 000005a0  00000000  00000000  00026e12  2**0
                  CONTENTS, READONLY, DEBUGGING

Disassembly of section .text:

00000000 <__vectors>:
       0:	0c 94 6f 01 	jmp	0x2de	; 0x2de <__dtors_end>
       4:	0c 94 99 01 	jmp	0x332	; 0x332 <__bad_interrupt>
       8:	0c 94 99 01 	jmp	0x332	; 0x332 <__bad_interrupt>
       c:	0c 94 99 01 	jmp	0x332	; 0x332 <__bad_interrupt>
      10:	0c 94 99 01 	jmp	0x332	; 0x332 <__bad_interrupt>
      14:	0c 94 58 03 	jmp	0x6b0	; 0x6b0 <__vector_5>
      18:	0c 94 99 01 	jmp	0x332	; 0x332 <__bad_interrupt>
      1c:	0c 94 99 01 	jmp	0x332	; 0x332 <__bad_interrupt>
      20:	0c 94 99 01 	jmp	0x332	; 0x332 <__bad_interrupt>
      24:	0c 94 99 01 	jmp	0x332	; 0x332 <__bad_interrupt>
      28:	0c 94 99 01 	jmp	0x332	; 0x332 <__bad_interrupt>
      2c:	0c 94 99 01 	jmp	0x332	; 0x332 <__bad_interrupt>
      30:	0c 94 99 01 	jmp	0x332	; 0x332 <__bad_interrupt>
      34:	0c 94 99 01 	jmp	0x332	; 0x332 <__bad_interrupt>
      38:	0c 94 23 15 	jmp	0x2a46	; 0x2a46 <__vector_14>
      3c:	0c 94 99 01 	jmp	0x332	; 0x332 <__bad_interrupt>
      40:	0c 94 99 01 	jmp	0x332	; 0x332 <__bad_interrupt>
      44:	0c 94 e8 14 	jmp	0x29d0	; 0x29d0 <__vector_17>
      48:	0c 94 99 01 	jmp	0x332	; 0x332 <__bad_interrupt>
      4c:	0c 94 99 01 	jmp	0x332	; 0x332 <__bad_interrupt>
      50:	0c 94 99 01 	jmp	0x332	; 0x332 <__bad_interrupt>
      54:	0c 94 99 01 	jmp	0x332	; 0x332 <__bad_interrupt>
      58:	0c 94 99 01 	jmp	0x332	; 0x332 <__bad_interrupt>
      5c:	0c 94 99 01 	jmp	0x332	; 0x332 <__bad_interrupt>
      60:	0c 94 99 01 	jmp	0x332	; 0x332 <__bad_interrupt>
      64:	0c 94 99 01 	jmp	0x332	; 0x332 <__bad_interrupt>
      68:	0c 94 99 01 	jmp	0x332	; 0x332 <__bad_interrupt>
      6c:	0c 94 99 01 	jmp	0x332	; 0x332 <__bad_interrupt>
      70:	0c 94 98 14 	jmp	0x2930	; 0x2930 <__vector_28>
      74:	0c 94 99 01 	jmp	0x332	; 0x332 <__bad_interrupt>
      78:	0c 94 99 01 	jmp	0x332	; 0x332 <__bad_interrupt>
      7c:	0c 94 66 15 	jmp	0x2acc	; 0x2acc <__vector_31>
      80:	0c 94 99 01 	jmp	0x332	; 0x332 <__bad_interrupt>
      84:	0c 94 99 01 	jmp	0x332	; 0x332 <__bad_interrupt>
      88:	0c 94 99 01 	jmp	0x332	; 0x332 <__bad_interrupt>
      8c:	0c 94 99 01 	jmp	0x332	; 0x332 <__bad_interrupt>
      90:	0c 94 99 01 	jmp	0x332	; 0x332 <__bad_interrupt>
      94:	0c 94 99 01 	jmp	0x332	; 0x332 <__bad_interrupt>
      98:	0c 94 99 01 	jmp	0x332	; 0x332 <__bad_interrupt>
      9c:	0c 94 99 01 	jmp	0x332	; 0x332 <__bad_interrupt>
      a0:	0c 94 99 01 	jmp	0x332	; 0x332 <__bad_interrupt>
      a4:	0c 94 99 01 	jmp	0x332	; 0x332 <__bad_interrupt>
      a8:	0c 94 99 01 	jmp	0x332	; 0x332 <__bad_interrupt>
      ac:	0c 94 99 01 	jmp	0x332	; 0x332 <__bad_interrupt>
      b0:	0c 94 99 01 	jmp	0x332	; 0x332 <__bad_interrupt>
      b4:	0c 94 99 01 	jmp	0x332	; 0x332 <__bad_interrupt>
      b8:	0c 94 99 01 	jmp	0x332	; 0x332 <__bad_interrupt>
      bc:	0c 94 99 01 	jmp	0x332	; 0x332 <__bad_interrupt>
      c0:	0c 94 99 01 	jmp	0x332	; 0x332 <__bad_interrupt>
      c4:	0c 94 99 01 	jmp	0x332	; 0x332 <__bad_interrupt>
      c8:	0c 94 99 01 	jmp	0x332	; 0x332 <__bad_interrupt>
      cc:	0c 94 99 01 	jmp	0x332	; 0x332 <__bad_interrupt>
      d0:	0c 94 b9 14 	jmp	0x2972	; 0x2972 <__vector_52>
      d4:	0c 94 99 01 	jmp	0x332	; 0x332 <__bad_interrupt>
      d8:	0c 94 99 01 	jmp	0x332	; 0x332 <__bad_interrupt>
      dc:	0c 94 99 01 	jmp	0x332	; 0x332 <__bad_interrupt>
      e0:	0c 94 99 01 	jmp	0x332	; 0x332 <__bad_interrupt>
      e4:	0c 94 99 01 	jmp	0x332	; 0x332 <__bad_interrupt>
      e8:	0c 94 99 01 	jmp	0x332	; 0x332 <__bad_interrupt>
      ec:	0c 94 99 01 	jmp	0x332	; 0x332 <__bad_interrupt>
      f0:	0c 94 99 01 	jmp	0x332	; 0x332 <__bad_interrupt>
      f4:	4f 05       	cpc	r20, r15
      f6:	62 05       	cpc	r22, r2
      f8:	75 05       	cpc	r23, r5
      fa:	87 05       	cpc	r24, r7
      fc:	9c 05       	cpc	r25, r12
      fe:	b3 05       	cpc	r27, r3
     100:	c1 05       	cpc	r28, r1
     102:	d7 05       	cpc	r29, r7
     104:	ed 05       	cpc	r30, r13
     106:	04 06       	cpc	r0, r20
     108:	1a 06       	cpc	r1, r26
     10a:	30 06       	cpc	r3, r16
     10c:	b1 06       	cpc	r11, r17
     10e:	b1 06       	cpc	r11, r17
     110:	b1 06       	cpc	r11, r17
     112:	47 06       	cpc	r4, r23
     114:	5c 06       	cpc	r5, r28
     116:	b1 06       	cpc	r11, r17
     118:	b1 06       	cpc	r11, r17
     11a:	b1 06       	cpc	r11, r17
     11c:	6f 06       	cpc	r6, r31
     11e:	84 06       	cpc	r8, r20
     120:	9b 06       	cpc	r9, r27
     122:	a8 07       	cpc	r26, r24
     124:	c0 07       	cpc	r28, r16
     126:	d2 07       	cpc	r29, r18
     128:	07 09       	sbc	r16, r7
     12a:	07 09       	sbc	r16, r7
     12c:	e8 07       	cpc	r30, r24
     12e:	07 09       	sbc	r16, r7
     130:	07 09       	sbc	r16, r7
     132:	07 09       	sbc	r16, r7
     134:	07 09       	sbc	r16, r7
     136:	07 09       	sbc	r16, r7
     138:	07 09       	sbc	r16, r7
     13a:	07 09       	sbc	r16, r7
     13c:	07 09       	sbc	r16, r7
     13e:	07 09       	sbc	r16, r7
     140:	07 09       	sbc	r16, r7
     142:	07 09       	sbc	r16, r7
     144:	1c 08       	sbc	r1, r12
     146:	38 08       	sbc	r3, r8
     148:	4e 08       	sbc	r4, r14
     14a:	08 00       	.word	0x0008	; ????
     14c:	00 00       	nop
     14e:	be 92       	st	-X, r11
     150:	24 49       	sbci	r18, 0x94	; 148
     152:	12 3e       	cpi	r17, 0xE2	; 226
     154:	ab aa       	std	Y+51, r10	; 0x33
     156:	aa 2a       	or	r10, r26
     158:	be cd       	rjmp	.-1156   	; 0xfffffcd6 <__eeprom_end+0xff7efcd6>
     15a:	cc cc       	rjmp	.-1640   	; 0xfffffaf4 <__eeprom_end+0xff7efaf4>
     15c:	4c 3e       	cpi	r20, 0xEC	; 236
     15e:	00 00       	nop
     160:	00 80       	ld	r0, Z
     162:	be ab       	std	Y+54, r27	; 0x36
     164:	aa aa       	std	Y+50, r10	; 0x32
     166:	aa 3e       	cpi	r26, 0xEA	; 234
     168:	00 00       	nop
     16a:	00 00       	nop
     16c:	bf 00       	.word	0x00bf	; ????
     16e:	00 00       	nop
     170:	80 3f       	cpi	r24, 0xF0	; 240
     172:	00 00       	nop
     174:	00 00       	nop
     176:	00 08       	sbc	r0, r0
     178:	41 78       	andi	r20, 0x81	; 129
     17a:	d3 bb       	out	0x13, r29	; 19
     17c:	43 87       	std	Z+11, r20	; 0x0b
     17e:	d1 13       	cpse	r29, r17
     180:	3d 19       	sub	r19, r13
     182:	0e 3c       	cpi	r16, 0xCE	; 206
     184:	c3 bd       	out	0x23, r28	; 35
     186:	42 82       	std	Z+2, r4	; 0x02
     188:	ad 2b       	or	r26, r29
     18a:	3e 68       	ori	r19, 0x8E	; 142
     18c:	ec 82       	std	Y+4, r14	; 0x04
     18e:	76 be       	out	0x36, r7	; 54
     190:	d9 8f       	std	Y+25, r29	; 0x19
     192:	e1 a9       	ldd	r30, Z+49	; 0x31
     194:	3e 4c       	sbci	r19, 0xCE	; 206
     196:	80 ef       	ldi	r24, 0xF0	; 240
     198:	ff be       	out	0x3f, r15	; 63
     19a:	01 c4       	rjmp	.+2050   	; 0x99e <_ZN14ADF5610_Driver13ReadRegistersEh+0x4c>
     19c:	ff 7f       	andi	r31, 0xFF	; 255
     19e:	3f 00       	.word	0x003f	; ????
     1a0:	00 00       	nop
     1a2:	00 00       	nop
     1a4:	07 63       	ori	r16, 0x37	; 55
     1a6:	42 36       	cpi	r20, 0x62	; 98
     1a8:	b7 9b       	sbis	0x16, 7	; 22
     1aa:	d8 a7       	std	Y+40, r29	; 0x28
     1ac:	1a 39       	cpi	r17, 0x9A	; 154
     1ae:	68 56       	subi	r22, 0x68	; 104
     1b0:	18 ae       	std	Y+56, r1	; 0x38
     1b2:	ba ab       	std	Y+50, r27	; 0x32
     1b4:	55 8c       	ldd	r5, Z+29	; 0x1d
     1b6:	1d 3c       	cpi	r17, 0xCD	; 205
     1b8:	b7 cc       	rjmp	.-1682   	; 0xfffffb28 <__eeprom_end+0xff7efb28>
     1ba:	57 63       	ori	r21, 0x37	; 55
     1bc:	bd 6d       	ori	r27, 0xDD	; 221
     1be:	ed fd       	.word	0xfded	; ????
     1c0:	75 3e       	cpi	r23, 0xE5	; 229
     1c2:	f6 17       	cp	r31, r22
     1c4:	72 31       	cpi	r23, 0x12	; 18
     1c6:	bf 00       	.word	0x00bf	; ????
     1c8:	00 00       	nop
     1ca:	80 3f       	cpi	r24, 0xF0	; 240

000001cc <__trampolines_end>:
     1cc:	6e 61       	ori	r22, 0x1E	; 30
     1ce:	6e 00       	.word	0x006e	; ????

000001d0 <__c.2332>:
     1d0:	69 6e 66 00 00 40 7a 10 f3 5a 00 a0 72 4e 18 09     inf..@z..Z..rN..
     1e0:	00 10 a5 d4 e8 00 00 e8 76 48 17 00 00 e4 0b 54     ........vH.....T
     1f0:	02 00 00 ca 9a 3b 00 00 00 e1 f5 05 00 00 80 96     .....;..........
     200:	98 00 00 00 40 42 0f 00 00 00 a0 86 01 00 00 00     ....@B..........
     210:	10 27 00 00 00 00 e8 03 00 00 00 00 64 00 00 00     .'..........d...
     220:	00 00 0a 00 00 00 00 00 01 00 00 00 00 00 2c 76     ..............,v
     230:	d8 88 dc 67 4f 08 23 df c1 df ae 59 e1 b1 b7 96     ...gO.#....Y....
     240:	e5 e3 e4 53 c6 3a e6 51 99 76 96 e8 e6 c2 84 26     ...S.:.Q.v.....&
     250:	eb 89 8c 9b 62 ed 40 7c 6f fc ef bc 9c 9f 40 f2     ....b.@|o.....@.
     260:	ba a5 6f a5 f4 90 05 5a 2a f7 5c 93 6b 6c f9 67     ..o....Z*.\.kl.g
     270:	6d c1 1b fc e0 e4 0d 47 fe f5 20 e6 b5 00 d0 ed     m......G.. .....
     280:	90 2e 03 00 94 35 77 05 00 80 84 1e 08 00 00 20     .....5w........ 
     290:	4e 0a 00 00 00 c8 0c 33 33 33 33 0f 98 6e 12 83     N......3333..n..
     2a0:	11 41 ef 8d 21 14 89 3b e6 55 16 cf fe e6 db 18     .A..!..;.U......
     2b0:	d1 84 4b 38 1b f7 7c 1d 90 1d a4 bb e4 24 20 32     ..K8..|......$ 2
     2c0:	84 72 5e 22 81 00 c9 f1 24 ec a1 e5 3d 27           .r^"....$...='

000002ce <__ctors_start>:
     2ce:	23 03       	mulsu	r18, r19
     2d0:	82 03       	fmuls	r16, r18
     2d2:	73 0c       	add	r7, r3
     2d4:	8e 14       	cp	r8, r14

000002d6 <__ctors_end>:
     2d6:	2a 03       	fmul	r18, r18
     2d8:	89 03       	fmulsu	r16, r17
     2da:	7a 0c       	add	r7, r10
     2dc:	93 14       	cp	r9, r3

000002de <__dtors_end>:
     2de:	11 24       	eor	r1, r1
     2e0:	1f be       	out	0x3f, r1	; 63
     2e2:	cf ef       	ldi	r28, 0xFF	; 255
     2e4:	cd bf       	out	0x3d, r28	; 61
     2e6:	df e7       	ldi	r29, 0x7F	; 127
     2e8:	de bf       	out	0x3e, r29	; 62

000002ea <__do_copy_data>:
     2ea:	11 e4       	ldi	r17, 0x41	; 65
     2ec:	a0 e0       	ldi	r26, 0x00	; 0
     2ee:	b0 e4       	ldi	r27, 0x40	; 64
     2f0:	ea e7       	ldi	r30, 0x7A	; 122
     2f2:	ff e3       	ldi	r31, 0x3F	; 63
     2f4:	00 e0       	ldi	r16, 0x00	; 0
     2f6:	0b bf       	out	0x3b, r16	; 59
     2f8:	02 c0       	rjmp	.+4      	; 0x2fe <__do_copy_data+0x14>
     2fa:	07 90       	elpm	r0, Z+
     2fc:	0d 92       	st	X+, r0
     2fe:	a0 3e       	cpi	r26, 0xE0	; 224
     300:	b1 07       	cpc	r27, r17
     302:	d9 f7       	brne	.-10     	; 0x2fa <__do_copy_data+0x10>

00000304 <__do_clear_bss>:
     304:	25 e4       	ldi	r18, 0x45	; 69
     306:	a0 ee       	ldi	r26, 0xE0	; 224
     308:	b1 e4       	ldi	r27, 0x41	; 65
     30a:	01 c0       	rjmp	.+2      	; 0x30e <.do_clear_bss_start>

0000030c <.do_clear_bss_loop>:
     30c:	1d 92       	st	X+, r1

0000030e <.do_clear_bss_start>:
     30e:	ae 38       	cpi	r26, 0x8E	; 142
     310:	b2 07       	cpc	r27, r18
     312:	e1 f7       	brne	.-8      	; 0x30c <.do_clear_bss_loop>

00000314 <__do_global_ctors>:
     314:	11 e0       	ldi	r17, 0x01	; 1
     316:	cb e6       	ldi	r28, 0x6B	; 107
     318:	d1 e0       	ldi	r29, 0x01	; 1
     31a:	04 c0       	rjmp	.+8      	; 0x324 <__do_global_ctors+0x10>
     31c:	21 97       	sbiw	r28, 0x01	; 1
     31e:	fe 01       	movw	r30, r28
     320:	0e 94 c7 1d 	call	0x3b8e	; 0x3b8e <__tablejump2__>
     324:	c7 36       	cpi	r28, 0x67	; 103
     326:	d1 07       	cpc	r29, r17
     328:	c9 f7       	brne	.-14     	; 0x31c <__do_global_ctors+0x8>
     32a:	0e 94 6a 03 	call	0x6d4	; 0x6d4 <main>
     32e:	0c 94 b0 1f 	jmp	0x3f60	; 0x3f60 <__do_global_dtors>

00000332 <__bad_interrupt>:
     332:	0c 94 00 00 	jmp	0	; 0x0 <__vectors>

00000336 <_Z41__static_initialization_and_destruction_0ii>:

}
uint8_t LTC5548_HANDLER::Read_Index(void){
	
	return max_index;
}
     336:	0f 93       	push	r16
     338:	1f 93       	push	r17
     33a:	cf 93       	push	r28
     33c:	df 93       	push	r29
     33e:	ec 01       	movw	r28, r24
     340:	8b 01       	movw	r16, r22
     342:	01 97       	sbiw	r24, 0x01	; 1
     344:	79 f4       	brne	.+30     	; 0x364 <_Z41__static_initialization_and_destruction_0ii+0x2e>
     346:	6f 3f       	cpi	r22, 0xFF	; 255
     348:	7f 4f       	sbci	r23, 0xFF	; 255
     34a:	61 f4       	brne	.+24     	; 0x364 <_Z41__static_initialization_and_destruction_0ii+0x2e>
     34c:	8d e4       	ldi	r24, 0x4D	; 77
     34e:	93 e4       	ldi	r25, 0x43	; 67
     350:	0e 94 7b 0e 	call	0x1cf6	; 0x1cf6 <_ZN15lmx2694_HandlerC1Ev>
     354:	88 ee       	ldi	r24, 0xE8	; 232
     356:	91 e4       	ldi	r25, 0x41	; 65
     358:	0e 94 ad 03 	call	0x75a	; 0x75a <_ZN14ADF5610_DriverC1Ev>
     35c:	80 ee       	ldi	r24, 0xE0	; 224
     35e:	91 e4       	ldi	r25, 0x41	; 65
     360:	0e 94 d6 14 	call	0x29ac	; 0x29ac <_ZN18Zero_Cross_CounterC1Ev>
     364:	cd 2b       	or	r28, r29
     366:	79 f4       	brne	.+30     	; 0x386 <_Z41__static_initialization_and_destruction_0ii+0x50>
     368:	0f 3f       	cpi	r16, 0xFF	; 255
     36a:	1f 4f       	sbci	r17, 0xFF	; 255
     36c:	61 f4       	brne	.+24     	; 0x386 <_Z41__static_initialization_and_destruction_0ii+0x50>
     36e:	80 ee       	ldi	r24, 0xE0	; 224
     370:	91 e4       	ldi	r25, 0x41	; 65
     372:	0e 94 db 14 	call	0x29b6	; 0x29b6 <_ZN18Zero_Cross_CounterD1Ev>
     376:	88 ee       	ldi	r24, 0xE8	; 232
     378:	91 e4       	ldi	r25, 0x41	; 65
     37a:	0e 94 f2 03 	call	0x7e4	; 0x7e4 <_ZN14ADF5610_DriverD1Ev>
     37e:	8d e4       	ldi	r24, 0x4D	; 77
     380:	93 e4       	ldi	r25, 0x43	; 67
     382:	0e 94 a2 0e 	call	0x1d44	; 0x1d44 <_ZN15lmx2694_HandlerD1Ev>
     386:	df 91       	pop	r29
     388:	cf 91       	pop	r28
     38a:	1f 91       	pop	r17
     38c:	0f 91       	pop	r16
     38e:	08 95       	ret

00000390 <_ZN15LTC5548_HANDLERC1Ev>:
     390:	fc 01       	movw	r30, r24
     392:	13 86       	std	Z+11, r1	; 0x0b
     394:	14 86       	std	Z+12, r1	; 0x0c
     396:	15 86       	std	Z+13, r1	; 0x0d
     398:	16 86       	std	Z+14, r1	; 0x0e
     39a:	17 86       	std	Z+15, r1	; 0x0f
     39c:	10 8a       	std	Z+16, r1	; 0x10
     39e:	11 8a       	std	Z+17, r1	; 0x11
     3a0:	12 8a       	std	Z+18, r1	; 0x12
     3a2:	13 8a       	std	Z+19, r1	; 0x13
     3a4:	14 8a       	std	Z+20, r1	; 0x14
     3a6:	15 8a       	std	Z+21, r1	; 0x15
     3a8:	16 8a       	std	Z+22, r1	; 0x16
     3aa:	17 8a       	std	Z+23, r1	; 0x17
     3ac:	10 8e       	std	Z+24, r1	; 0x18
     3ae:	11 8e       	std	Z+25, r1	; 0x19
     3b0:	12 8e       	std	Z+26, r1	; 0x1a
     3b2:	08 95       	ret

000003b4 <_ZN15LTC5548_HANDLERD1Ev>:
     3b4:	08 95       	ret

000003b6 <_ZN15LTC5548_HANDLER8Start_RFEv>:
     3b6:	cf 93       	push	r28
     3b8:	df 93       	push	r29
     3ba:	ec 01       	movw	r28, r24
     3bc:	8a 81       	ldd	r24, Y+2	; 0x02
     3be:	9b 81       	ldd	r25, Y+3	; 0x03
     3c0:	0e 94 d6 0a 	call	0x15ac	; 0x15ac <_ZN14ADF5610_Driver4InitEv>
     3c4:	81 11       	cpse	r24, r1
     3c6:	0e c0       	rjmp	.+28     	; 0x3e4 <_ZN15LTC5548_HANDLER8Start_RFEv+0x2e>
     3c8:	88 ee       	ldi	r24, 0xE8	; 232
     3ca:	93 e0       	ldi	r25, 0x03	; 3
     3cc:	00 97       	sbiw	r24, 0x00	; 0
     3ce:	31 f0       	breq	.+12     	; 0x3dc <_ZN15LTC5548_HANDLER8Start_RFEv+0x26>
     3d0:	e8 e5       	ldi	r30, 0x58	; 88
     3d2:	f2 e0       	ldi	r31, 0x02	; 2
     3d4:	31 97       	sbiw	r30, 0x01	; 1
     3d6:	f1 f7       	brne	.-4      	; 0x3d4 <_ZN15LTC5548_HANDLER8Start_RFEv+0x1e>
     3d8:	01 97       	sbiw	r24, 0x01	; 1
     3da:	f8 cf       	rjmp	.-16     	; 0x3cc <_ZN15LTC5548_HANDLER8Start_RFEv+0x16>
     3dc:	86 b1       	in	r24, 0x06	; 6
     3de:	88 60       	ori	r24, 0x08	; 8
     3e0:	86 b9       	out	0x06, r24	; 6
     3e2:	ec cf       	rjmp	.-40     	; 0x3bc <_ZN15LTC5548_HANDLER8Start_RFEv+0x6>
     3e4:	81 e0       	ldi	r24, 0x01	; 1
     3e6:	df 91       	pop	r29
     3e8:	cf 91       	pop	r28
     3ea:	08 95       	ret

000003ec <_ZN15LTC5548_HANDLER8Start_LOEv>:
     3ec:	cf 93       	push	r28
     3ee:	df 93       	push	r29
     3f0:	ec 01       	movw	r28, r24
     3f2:	88 81       	ld	r24, Y
     3f4:	99 81       	ldd	r25, Y+1	; 0x01
     3f6:	0e 94 1a 13 	call	0x2634	; 0x2634 <_ZN15lmx2694_Handler4InitEv>
     3fa:	81 11       	cpse	r24, r1
     3fc:	0e c0       	rjmp	.+28     	; 0x41a <__LOCK_REGION_LENGTH__+0x1a>
     3fe:	88 ee       	ldi	r24, 0xE8	; 232
     400:	93 e0       	ldi	r25, 0x03	; 3
     402:	00 97       	sbiw	r24, 0x00	; 0
     404:	31 f0       	breq	.+12     	; 0x412 <__LOCK_REGION_LENGTH__+0x12>
     406:	e8 e5       	ldi	r30, 0x58	; 88
     408:	f2 e0       	ldi	r31, 0x02	; 2
     40a:	31 97       	sbiw	r30, 0x01	; 1
     40c:	f1 f7       	brne	.-4      	; 0x40a <__LOCK_REGION_LENGTH__+0xa>
     40e:	01 97       	sbiw	r24, 0x01	; 1
     410:	f8 cf       	rjmp	.-16     	; 0x402 <__LOCK_REGION_LENGTH__+0x2>
     412:	86 b1       	in	r24, 0x06	; 6
     414:	88 60       	ori	r24, 0x08	; 8
     416:	86 b9       	out	0x06, r24	; 6
     418:	ec cf       	rjmp	.-40     	; 0x3f2 <_ZN15LTC5548_HANDLER8Start_LOEv+0x6>
     41a:	81 e0       	ldi	r24, 0x01	; 1
     41c:	df 91       	pop	r29
     41e:	cf 91       	pop	r28
     420:	08 95       	ret

00000422 <_ZN15LTC5548_HANDLER10Set_EnableEb>:
     422:	fc 01       	movw	r30, r24
     424:	66 83       	std	Z+6, r22	; 0x06
     426:	66 23       	and	r22, r22
     428:	21 f0       	breq	.+8      	; 0x432 <_ZN15LTC5548_HANDLER10Set_EnableEb+0x10>
     42a:	8d b1       	in	r24, 0x0d	; 13
     42c:	84 60       	ori	r24, 0x04	; 4
     42e:	8d b9       	out	0x0d, r24	; 13
     430:	03 c0       	rjmp	.+6      	; 0x438 <_ZN15LTC5548_HANDLER10Set_EnableEb+0x16>
     432:	8d b1       	in	r24, 0x0d	; 13
     434:	8b 7f       	andi	r24, 0xFB	; 251
     436:	8d b9       	out	0x0d, r24	; 13
     438:	86 2f       	mov	r24, r22
     43a:	08 95       	ret

0000043c <_ZN15LTC5548_HANDLER11Start_MixerEv>:
     43c:	0f 93       	push	r16
     43e:	1f 93       	push	r17
     440:	cf 93       	push	r28
     442:	df 93       	push	r29
     444:	ec 01       	movw	r28, r24
     446:	0e 94 f6 01 	call	0x3ec	; 0x3ec <_ZN15LTC5548_HANDLER8Start_LOEv>
     44a:	88 23       	and	r24, r24
     44c:	79 f1       	breq	.+94     	; 0x4ac <_ZN15LTC5548_HANDLER11Start_MixerEv+0x70>
     44e:	40 e0       	ldi	r20, 0x00	; 0
     450:	50 e0       	ldi	r21, 0x00	; 0
     452:	61 e6       	ldi	r22, 0x61	; 97
     454:	75 e4       	ldi	r23, 0x45	; 69
     456:	88 81       	ld	r24, Y
     458:	99 81       	ldd	r25, Y+1	; 0x01
     45a:	0e 94 bc 13 	call	0x2778	; 0x2778 <_ZN15lmx2694_Handler20Set_Target_FrequencyEf>
     45e:	88 81       	ld	r24, Y
     460:	99 81       	ldd	r25, Y+1	; 0x01
     462:	0e 94 c6 12 	call	0x258c	; 0x258c <_ZN15lmx2694_Handler8IsLockedEv>
     466:	88 23       	and	r24, r24
     468:	d1 f3       	breq	.-12     	; 0x45e <_ZN15LTC5548_HANDLER11Start_MixerEv+0x22>
     46a:	ce 01       	movw	r24, r28
     46c:	0e 94 db 01 	call	0x3b6	; 0x3b6 <_ZN15LTC5548_HANDLER8Start_RFEv>
     470:	88 23       	and	r24, r24
     472:	b9 f0       	breq	.+46     	; 0x4a2 <_ZN15LTC5548_HANDLER11Start_MixerEv+0x66>
     474:	00 e0       	ldi	r16, 0x00	; 0
     476:	10 ea       	ldi	r17, 0xA0	; 160
     478:	20 e6       	ldi	r18, 0x60	; 96
     47a:	35 e4       	ldi	r19, 0x45	; 69
     47c:	40 e0       	ldi	r20, 0x00	; 0
     47e:	50 e6       	ldi	r21, 0x60	; 96
     480:	61 e6       	ldi	r22, 0x61	; 97
     482:	75 e4       	ldi	r23, 0x45	; 69
     484:	8a 81       	ldd	r24, Y+2	; 0x02
     486:	9b 81       	ldd	r25, Y+3	; 0x03
     488:	0e 94 0f 0c 	call	0x181e	; 0x181e <_ZN14ADF5610_Driver14Start_WooblingEff>
     48c:	8a 81       	ldd	r24, Y+2	; 0x02
     48e:	9b 81       	ldd	r25, Y+3	; 0x03
     490:	0e 94 1f 0b 	call	0x163e	; 0x163e <_ZN14ADF5610_Driver13Keep_WooblingEv>
     494:	88 23       	and	r24, r24
     496:	d1 f3       	breq	.-12     	; 0x48c <_ZN15LTC5548_HANDLER11Start_MixerEv+0x50>
     498:	61 e0       	ldi	r22, 0x01	; 1
     49a:	ce 01       	movw	r24, r28
     49c:	0e 94 11 02 	call	0x422	; 0x422 <_ZN15LTC5548_HANDLER10Set_EnableEb>
     4a0:	09 c0       	rjmp	.+18     	; 0x4b4 <_ZN15LTC5548_HANDLER11Start_MixerEv+0x78>
     4a2:	60 e0       	ldi	r22, 0x00	; 0
     4a4:	ce 01       	movw	r24, r28
     4a6:	0e 94 11 02 	call	0x422	; 0x422 <_ZN15LTC5548_HANDLER10Set_EnableEb>
     4aa:	04 c0       	rjmp	.+8      	; 0x4b4 <_ZN15LTC5548_HANDLER11Start_MixerEv+0x78>
     4ac:	60 e0       	ldi	r22, 0x00	; 0
     4ae:	ce 01       	movw	r24, r28
     4b0:	0e 94 11 02 	call	0x422	; 0x422 <_ZN15LTC5548_HANDLER10Set_EnableEb>
     4b4:	8e 81       	ldd	r24, Y+6	; 0x06
     4b6:	df 91       	pop	r29
     4b8:	cf 91       	pop	r28
     4ba:	1f 91       	pop	r17
     4bc:	0f 91       	pop	r16
     4be:	08 95       	ret

000004c0 <_ZN15LTC5548_HANDLER4InitEv>:
     4c0:	cf 93       	push	r28
     4c2:	df 93       	push	r29
     4c4:	ec 01       	movw	r28, r24
     4c6:	60 e0       	ldi	r22, 0x00	; 0
     4c8:	0e 94 11 02 	call	0x422	; 0x422 <_ZN15LTC5548_HANDLER10Set_EnableEb>
     4cc:	8d e4       	ldi	r24, 0x4D	; 77
     4ce:	93 e4       	ldi	r25, 0x43	; 67
     4d0:	88 83       	st	Y, r24
     4d2:	99 83       	std	Y+1, r25	; 0x01
     4d4:	88 ee       	ldi	r24, 0xE8	; 232
     4d6:	91 e4       	ldi	r25, 0x41	; 65
     4d8:	8a 83       	std	Y+2, r24	; 0x02
     4da:	9b 83       	std	Y+3, r25	; 0x03
     4dc:	80 ee       	ldi	r24, 0xE0	; 224
     4de:	91 e4       	ldi	r25, 0x41	; 65
     4e0:	8c 83       	std	Y+4, r24	; 0x04
     4e2:	9d 83       	std	Y+5, r25	; 0x05
     4e4:	ce 01       	movw	r24, r28
     4e6:	0e 94 1e 02 	call	0x43c	; 0x43c <_ZN15LTC5548_HANDLER11Start_MixerEv>
     4ea:	9e 81       	ldd	r25, Y+6	; 0x06
     4ec:	81 e0       	ldi	r24, 0x01	; 1
     4ee:	89 27       	eor	r24, r25
     4f0:	df 91       	pop	r29
     4f2:	cf 91       	pop	r28
     4f4:	08 95       	ret

000004f6 <_ZN15LTC5548_HANDLER21Read_Frequency_ValuesEv>:
     4f6:	0f 93       	push	r16
     4f8:	1f 93       	push	r17
     4fa:	cf 93       	push	r28
     4fc:	df 93       	push	r29
     4fe:	ec 01       	movw	r28, r24
     500:	0c 81       	ldd	r16, Y+4	; 0x04
     502:	1d 81       	ldd	r17, Y+5	; 0x05
     504:	f8 01       	movw	r30, r16
     506:	23 81       	ldd	r18, Z+3	; 0x03
     508:	34 81       	ldd	r19, Z+4	; 0x04
     50a:	40 e0       	ldi	r20, 0x00	; 0
     50c:	50 e0       	ldi	r21, 0x00	; 0
     50e:	60 e0       	ldi	r22, 0x00	; 0
     510:	76 e3       	ldi	r23, 0x36	; 54
     512:	8e e6       	ldi	r24, 0x6E	; 110
     514:	91 e0       	ldi	r25, 0x01	; 1
     516:	0e 94 a8 1d 	call	0x3b50	; 0x3b50 <__divmodsi4>
     51a:	2f 8b       	std	Y+23, r18	; 0x17
     51c:	38 8f       	std	Y+24, r19	; 0x18
     51e:	49 8f       	std	Y+25, r20	; 0x19
     520:	5a 8f       	std	Y+26, r21	; 0x1a
     522:	8f 85       	ldd	r24, Y+15	; 0x0f
     524:	98 89       	ldd	r25, Y+16	; 0x10
     526:	a9 89       	ldd	r26, Y+17	; 0x11
     528:	ba 89       	ldd	r27, Y+18	; 0x12
     52a:	28 17       	cp	r18, r24
     52c:	39 07       	cpc	r19, r25
     52e:	4a 07       	cpc	r20, r26
     530:	5b 07       	cpc	r21, r27
     532:	c9 f0       	breq	.+50     	; 0x566 <_ZN15LTC5548_HANDLER21Read_Frequency_ValuesEv+0x70>
     534:	f8 01       	movw	r30, r16
     536:	83 81       	ldd	r24, Z+3	; 0x03
     538:	94 81       	ldd	r25, Z+4	; 0x04
     53a:	89 2b       	or	r24, r25
     53c:	a1 f0       	breq	.+40     	; 0x566 <_ZN15LTC5548_HANDLER21Read_Frequency_ValuesEv+0x70>
     53e:	2f 87       	std	Y+15, r18	; 0x0f
     540:	38 8b       	std	Y+16, r19	; 0x10
     542:	49 8b       	std	Y+17, r20	; 0x11
     544:	5a 8b       	std	Y+18, r21	; 0x12
     546:	5f 93       	push	r21
     548:	4f 93       	push	r20
     54a:	3f 93       	push	r19
     54c:	2f 93       	push	r18
     54e:	8e e0       	ldi	r24, 0x0E	; 14
     550:	90 e4       	ldi	r25, 0x40	; 64
     552:	9f 93       	push	r25
     554:	8f 93       	push	r24
     556:	0e 94 0e 1f 	call	0x3e1c	; 0x3e1c <printf>
     55a:	0f 90       	pop	r0
     55c:	0f 90       	pop	r0
     55e:	0f 90       	pop	r0
     560:	0f 90       	pop	r0
     562:	0f 90       	pop	r0
     564:	0f 90       	pop	r0
     566:	0c 81       	ldd	r16, Y+4	; 0x04
     568:	1d 81       	ldd	r17, Y+5	; 0x05
     56a:	f8 01       	movw	r30, r16
     56c:	25 81       	ldd	r18, Z+5	; 0x05
     56e:	36 81       	ldd	r19, Z+6	; 0x06
     570:	40 e0       	ldi	r20, 0x00	; 0
     572:	50 e0       	ldi	r21, 0x00	; 0
     574:	60 e0       	ldi	r22, 0x00	; 0
     576:	76 e3       	ldi	r23, 0x36	; 54
     578:	8e e6       	ldi	r24, 0x6E	; 110
     57a:	91 e0       	ldi	r25, 0x01	; 1
     57c:	0e 94 a8 1d 	call	0x3b50	; 0x3b50 <__divmodsi4>
     580:	2b 8b       	std	Y+19, r18	; 0x13
     582:	3c 8b       	std	Y+20, r19	; 0x14
     584:	4d 8b       	std	Y+21, r20	; 0x15
     586:	5e 8b       	std	Y+22, r21	; 0x16
     588:	8b 85       	ldd	r24, Y+11	; 0x0b
     58a:	9c 85       	ldd	r25, Y+12	; 0x0c
     58c:	ad 85       	ldd	r26, Y+13	; 0x0d
     58e:	be 85       	ldd	r27, Y+14	; 0x0e
     590:	28 17       	cp	r18, r24
     592:	39 07       	cpc	r19, r25
     594:	4a 07       	cpc	r20, r26
     596:	5b 07       	cpc	r21, r27
     598:	c9 f0       	breq	.+50     	; 0x5cc <_ZN15LTC5548_HANDLER21Read_Frequency_ValuesEv+0xd6>
     59a:	f8 01       	movw	r30, r16
     59c:	85 81       	ldd	r24, Z+5	; 0x05
     59e:	96 81       	ldd	r25, Z+6	; 0x06
     5a0:	89 2b       	or	r24, r25
     5a2:	a1 f0       	breq	.+40     	; 0x5cc <_ZN15LTC5548_HANDLER21Read_Frequency_ValuesEv+0xd6>
     5a4:	2b 87       	std	Y+11, r18	; 0x0b
     5a6:	3c 87       	std	Y+12, r19	; 0x0c
     5a8:	4d 87       	std	Y+13, r20	; 0x0d
     5aa:	5e 87       	std	Y+14, r21	; 0x0e
     5ac:	5f 93       	push	r21
     5ae:	4f 93       	push	r20
     5b0:	3f 93       	push	r19
     5b2:	2f 93       	push	r18
     5b4:	81 e2       	ldi	r24, 0x21	; 33
     5b6:	90 e4       	ldi	r25, 0x40	; 64
     5b8:	9f 93       	push	r25
     5ba:	8f 93       	push	r24
     5bc:	0e 94 0e 1f 	call	0x3e1c	; 0x3e1c <printf>
     5c0:	0f 90       	pop	r0
     5c2:	0f 90       	pop	r0
     5c4:	0f 90       	pop	r0
     5c6:	0f 90       	pop	r0
     5c8:	0f 90       	pop	r0
     5ca:	0f 90       	pop	r0
     5cc:	df 91       	pop	r29
     5ce:	cf 91       	pop	r28
     5d0:	1f 91       	pop	r17
     5d2:	0f 91       	pop	r16
     5d4:	08 95       	ret

000005d6 <_ZN15LTC5548_HANDLER11Check_MixerEv>:
bool LTC5548_HANDLER::Check_Mixer(void){
     5d6:	cf 93       	push	r28
     5d8:	df 93       	push	r29
     5da:	ec 01       	movw	r28, r24
	if(enable){
     5dc:	8e 81       	ldd	r24, Y+6	; 0x06
     5de:	88 23       	and	r24, r24
     5e0:	51 f1       	breq	.+84     	; 0x636 <_ZN15LTC5548_HANDLER11Check_MixerEv+0x60>
		if(lmx->IsLocked()){
     5e2:	88 81       	ld	r24, Y
     5e4:	99 81       	ldd	r25, Y+1	; 0x01
     5e6:	0e 94 c6 12 	call	0x258c	; 0x258c <_ZN15lmx2694_Handler8IsLockedEv>
     5ea:	88 23       	and	r24, r24
     5ec:	b9 f0       	breq	.+46     	; 0x61c <_ZN15LTC5548_HANDLER11Check_MixerEv+0x46>
			printf("LMX frequency : %f \n\r", lmx->current_frequency);
     5ee:	e8 81       	ld	r30, Y
     5f0:	f9 81       	ldd	r31, Y+1	; 0x01
     5f2:	80 81       	ld	r24, Z
     5f4:	91 81       	ldd	r25, Z+1	; 0x01
     5f6:	22 81       	ldd	r18, Z+2	; 0x02
     5f8:	33 81       	ldd	r19, Z+3	; 0x03
     5fa:	3f 93       	push	r19
     5fc:	2f 93       	push	r18
     5fe:	9f 93       	push	r25
     600:	8f 93       	push	r24
     602:	84 e3       	ldi	r24, 0x34	; 52
     604:	90 e4       	ldi	r25, 0x40	; 64
     606:	9f 93       	push	r25
     608:	8f 93       	push	r24
     60a:	0e 94 0e 1f 	call	0x3e1c	; 0x3e1c <printf>
     60e:	0f 90       	pop	r0
     610:	0f 90       	pop	r0
     612:	0f 90       	pop	r0
     614:	0f 90       	pop	r0
     616:	0f 90       	pop	r0
     618:	0f 90       	pop	r0
     61a:	11 c0       	rjmp	.+34     	; 0x63e <_ZN15LTC5548_HANDLER11Check_MixerEv+0x68>
		}else{
			lmx->Init();
     61c:	88 81       	ld	r24, Y
     61e:	99 81       	ldd	r25, Y+1	; 0x01
     620:	0e 94 1a 13 	call	0x2634	; 0x2634 <_ZN15lmx2694_Handler4InitEv>
			lmx->Set_Target_Frequency( CENTER_FREQUENCY);
     624:	40 e0       	ldi	r20, 0x00	; 0
     626:	50 e0       	ldi	r21, 0x00	; 0
     628:	61 e6       	ldi	r22, 0x61	; 97
     62a:	75 e4       	ldi	r23, 0x45	; 69
     62c:	88 81       	ld	r24, Y
     62e:	99 81       	ldd	r25, Y+1	; 0x01
     630:	0e 94 bc 13 	call	0x2778	; 0x2778 <_ZN15lmx2694_Handler20Set_Target_FrequencyEf>
     634:	04 c0       	rjmp	.+8      	; 0x63e <_ZN15LTC5548_HANDLER11Check_MixerEv+0x68>
		}
	}else{
		Set_Enable(false);
     636:	60 e0       	ldi	r22, 0x00	; 0
     638:	ce 01       	movw	r24, r28
     63a:	0e 94 11 02 	call	0x422	; 0x422 <_ZN15LTC5548_HANDLER10Set_EnableEb>
	}
	return enable;
}
     63e:	8e 81       	ldd	r24, Y+6	; 0x06
     640:	df 91       	pop	r29
     642:	cf 91       	pop	r28
     644:	08 95       	ret

00000646 <_GLOBAL__sub_I__ZN15LTC5548_HANDLERC2Ev>:
     646:	6f ef       	ldi	r22, 0xFF	; 255
     648:	7f ef       	ldi	r23, 0xFF	; 255
     64a:	81 e0       	ldi	r24, 0x01	; 1
     64c:	90 e0       	ldi	r25, 0x00	; 0
     64e:	0e 94 9b 01 	call	0x336	; 0x336 <_Z41__static_initialization_and_destruction_0ii>
     652:	08 95       	ret

00000654 <_GLOBAL__sub_D__ZN15LTC5548_HANDLERC2Ev>:
     654:	6f ef       	ldi	r22, 0xFF	; 255
     656:	7f ef       	ldi	r23, 0xFF	; 255
     658:	80 e0       	ldi	r24, 0x00	; 0
     65a:	90 e0       	ldi	r25, 0x00	; 0
     65c:	0e 94 9b 01 	call	0x336	; 0x336 <_Z41__static_initialization_and_destruction_0ii>
     660:	08 95       	ret

00000662 <_Z41__static_initialization_and_destruction_0ii>:
		ltc.Read_Frequency_Values();
		ltc.adf->Keep_Woobling();
		ltc.Check_Mixer();
		
    }
}
     662:	0f 93       	push	r16
     664:	1f 93       	push	r17
     666:	cf 93       	push	r28
     668:	df 93       	push	r29
     66a:	ec 01       	movw	r28, r24
     66c:	8b 01       	movw	r16, r22
     66e:	01 97       	sbiw	r24, 0x01	; 1
     670:	39 f4       	brne	.+14     	; 0x680 <_Z41__static_initialization_and_destruction_0ii+0x1e>
     672:	6f 3f       	cpi	r22, 0xFF	; 255
     674:	7f 4f       	sbci	r23, 0xFF	; 255
     676:	21 f4       	brne	.+8      	; 0x680 <_Z41__static_initialization_and_destruction_0ii+0x1e>
#include <avr/interrupt.h>
#include <util/delay.h>

#include "LTC5548HANDLER.h"

static LTC5548_HANDLER	ltc;
     678:	8d e8       	ldi	r24, 0x8D	; 141
     67a:	93 e4       	ldi	r25, 0x43	; 67
     67c:	0e 94 c8 01 	call	0x390	; 0x390 <_ZN15LTC5548_HANDLERC1Ev>
     680:	cd 2b       	or	r28, r29
     682:	39 f4       	brne	.+14     	; 0x692 <_Z41__static_initialization_and_destruction_0ii+0x30>
     684:	0f 3f       	cpi	r16, 0xFF	; 255
     686:	1f 4f       	sbci	r17, 0xFF	; 255
     688:	21 f4       	brne	.+8      	; 0x692 <_Z41__static_initialization_and_destruction_0ii+0x30>
     68a:	8d e8       	ldi	r24, 0x8D	; 141
     68c:	93 e4       	ldi	r25, 0x43	; 67
     68e:	0e 94 da 01 	call	0x3b4	; 0x3b4 <_ZN15LTC5548_HANDLERD1Ev>
		ltc.Read_Frequency_Values();
		ltc.adf->Keep_Woobling();
		ltc.Check_Mixer();
		
    }
}
     692:	df 91       	pop	r29
     694:	cf 91       	pop	r28
     696:	1f 91       	pop	r17
     698:	0f 91       	pop	r16
     69a:	08 95       	ret

0000069c <_Z10RTC_enablev>:
static LTC5548_HANDLER	ltc;

void RTC_enable(void)
{
	// Wait for RTC CTRLA to be unsynchronized
	while (RTC.STATUS & RTC_CTRLABUSY_bm) {
     69c:	80 91 41 01 	lds	r24, 0x0141	; 0x800141 <__TEXT_REGION_LENGTH__+0x7e0141>
     6a0:	80 fd       	sbrc	r24, 0
     6a2:	fc cf       	rjmp	.-8      	; 0x69c <_Z10RTC_enablev>
	}

	// Enable RTC
	RTC.CTRLA |= RTC_RTCEN_bm;
     6a4:	e0 e4       	ldi	r30, 0x40	; 64
     6a6:	f1 e0       	ldi	r31, 0x01	; 1
     6a8:	80 81       	ld	r24, Z
     6aa:	81 60       	ori	r24, 0x01	; 1
     6ac:	80 83       	st	Z, r24
     6ae:	08 95       	ret

000006b0 <__vector_5>:
}

ISR(RTC_CNT_vect)
{
     6b0:	1f 92       	push	r1
     6b2:	0f 92       	push	r0
     6b4:	0f b6       	in	r0, 0x3f	; 63
     6b6:	0f 92       	push	r0
     6b8:	11 24       	eor	r1, r1
     6ba:	8f 93       	push	r24
 *
 * \param[in] pin       The pin number within port
 */
static inline void PORTB_toggle_pin_level(const uint8_t pin)
{
	VPORTB.IN |= 1 << pin;
     6bc:	86 b1       	in	r24, 0x06	; 6
     6be:	88 60       	ori	r24, 0x08	; 8
     6c0:	86 b9       	out	0x06, r24	; 6
	/* Toggle LED0 */
	LED0_toggle_level();

	/* Overflow interrupt flag has to be cleared manually */
	RTC.INTFLAGS = RTC_OVF_bm;
     6c2:	81 e0       	ldi	r24, 0x01	; 1
     6c4:	80 93 43 01 	sts	0x0143, r24	; 0x800143 <__TEXT_REGION_LENGTH__+0x7e0143>
}
     6c8:	8f 91       	pop	r24
     6ca:	0f 90       	pop	r0
     6cc:	0f be       	out	0x3f, r0	; 63
     6ce:	0f 90       	pop	r0
     6d0:	1f 90       	pop	r1
     6d2:	18 95       	reti

000006d4 <main>:


int main(void)
{
	atmel_start_init();
     6d4:	0e 94 b5 0c 	call	0x196a	; 0x196a <atmel_start_init>

	RTC_enable();
     6d8:	0e 94 4e 03 	call	0x69c	; 0x69c <_Z10RTC_enablev>
	sei();
     6dc:	78 94       	sei
	ltc.Init();
     6de:	8d e8       	ldi	r24, 0x8D	; 141
     6e0:	93 e4       	ldi	r25, 0x43	; 67
     6e2:	0e 94 60 02 	call	0x4c0	; 0x4c0 <_ZN15LTC5548_HANDLER4InitEv>
    /* Replace with your application code */
    while (1) 
    {
		ltc.Read_Frequency_Values();
     6e6:	8d e8       	ldi	r24, 0x8D	; 141
     6e8:	93 e4       	ldi	r25, 0x43	; 67
     6ea:	0e 94 7b 02 	call	0x4f6	; 0x4f6 <_ZN15LTC5548_HANDLER21Read_Frequency_ValuesEv>
		ltc.adf->Keep_Woobling();
     6ee:	80 91 8f 43 	lds	r24, 0x438F	; 0x80438f <_ZL3ltc+0x2>
     6f2:	90 91 90 43 	lds	r25, 0x4390	; 0x804390 <_ZL3ltc+0x3>
     6f6:	0e 94 1f 0b 	call	0x163e	; 0x163e <_ZN14ADF5610_Driver13Keep_WooblingEv>
		ltc.Check_Mixer();
     6fa:	8d e8       	ldi	r24, 0x8D	; 141
     6fc:	93 e4       	ldi	r25, 0x43	; 67
     6fe:	0e 94 eb 02 	call	0x5d6	; 0x5d6 <_ZN15LTC5548_HANDLER11Check_MixerEv>
     702:	f1 cf       	rjmp	.-30     	; 0x6e6 <main+0x12>

00000704 <_GLOBAL__sub_I__Z10RTC_enablev>:
		
    }
}
     704:	6f ef       	ldi	r22, 0xFF	; 255
     706:	7f ef       	ldi	r23, 0xFF	; 255
     708:	81 e0       	ldi	r24, 0x01	; 1
     70a:	90 e0       	ldi	r25, 0x00	; 0
     70c:	0e 94 31 03 	call	0x662	; 0x662 <_Z41__static_initialization_and_destruction_0ii>
     710:	08 95       	ret

00000712 <_GLOBAL__sub_D__Z10RTC_enablev>:
     712:	6f ef       	ldi	r22, 0xFF	; 255
     714:	7f ef       	ldi	r23, 0xFF	; 255
     716:	80 e0       	ldi	r24, 0x00	; 0
     718:	90 e0       	ldi	r25, 0x00	; 0
     71a:	0e 94 31 03 	call	0x662	; 0x662 <_Z41__static_initialization_and_destruction_0ii>
     71e:	08 95       	ret

00000720 <_Z41__static_initialization_and_destruction_0ii>:

		 }
		 _delay_ms(1);
	}
	return true;
}
     720:	0f 93       	push	r16
     722:	1f 93       	push	r17
     724:	cf 93       	push	r28
     726:	df 93       	push	r29
     728:	ec 01       	movw	r28, r24
     72a:	8b 01       	movw	r16, r22
     72c:	01 97       	sbiw	r24, 0x01	; 1
     72e:	39 f4       	brne	.+14     	; 0x73e <_Z41__static_initialization_and_destruction_0ii+0x1e>
     730:	6f 3f       	cpi	r22, 0xFF	; 255
     732:	7f 4f       	sbci	r23, 0xFF	; 255
     734:	21 f4       	brne	.+8      	; 0x73e <_Z41__static_initialization_and_destruction_0ii+0x1e>
     736:	88 ea       	ldi	r24, 0xA8	; 168
     738:	93 e4       	ldi	r25, 0x43	; 67
     73a:	0e 94 81 0c 	call	0x1902	; 0x1902 <_ZN13SPI_Syn_ClassC1Ev>
     73e:	cd 2b       	or	r28, r29
     740:	39 f4       	brne	.+14     	; 0x750 <_Z41__static_initialization_and_destruction_0ii+0x30>
     742:	0f 3f       	cpi	r16, 0xFF	; 255
     744:	1f 4f       	sbci	r17, 0xFF	; 255
     746:	21 f4       	brne	.+8      	; 0x750 <_Z41__static_initialization_and_destruction_0ii+0x30>
     748:	88 ea       	ldi	r24, 0xA8	; 168
     74a:	93 e4       	ldi	r25, 0x43	; 67
     74c:	0e 94 86 0c 	call	0x190c	; 0x190c <_ZN13SPI_Syn_ClassD1Ev>
     750:	df 91       	pop	r29
     752:	cf 91       	pop	r28
     754:	1f 91       	pop	r17
     756:	0f 91       	pop	r16
     758:	08 95       	ret

0000075a <_ZN14ADF5610_DriverC1Ev>:
     75a:	cf 93       	push	r28
     75c:	df 93       	push	r29
     75e:	fc 01       	movw	r30, r24
     760:	80 e0       	ldi	r24, 0x00	; 0
     762:	90 e0       	ldi	r25, 0x00	; 0
     764:	a1 e6       	ldi	r26, 0x61	; 97
     766:	b5 e4       	ldi	r27, 0x45	; 69
     768:	80 83       	st	Z, r24
     76a:	91 83       	std	Z+1, r25	; 0x01
     76c:	a2 83       	std	Z+2, r26	; 0x02
     76e:	b3 83       	std	Z+3, r27	; 0x03
     770:	ef 01       	movw	r28, r30
     772:	ce 5d       	subi	r28, 0xDE	; 222
     774:	de 4f       	sbci	r29, 0xFE	; 254
     776:	18 82       	st	Y, r1
     778:	19 82       	std	Y+1, r1	; 0x01
     77a:	1a 82       	std	Y+2, r1	; 0x02
     77c:	1b 82       	std	Y+3, r1	; 0x03
     77e:	61 96       	adiw	r28, 0x11	; 17
     780:	21 e0       	ldi	r18, 0x01	; 1
     782:	30 e0       	ldi	r19, 0x00	; 0
     784:	28 83       	st	Y, r18
     786:	39 83       	std	Y+1, r19	; 0x01
     788:	28 ea       	ldi	r18, 0xA8	; 168
     78a:	33 e4       	ldi	r19, 0x43	; 67
     78c:	24 83       	std	Z+4, r18	; 0x04
     78e:	35 83       	std	Z+5, r19	; 0x05
     790:	22 96       	adiw	r28, 0x02	; 2
     792:	18 82       	st	Y, r1
     794:	40 e0       	ldi	r20, 0x00	; 0
     796:	50 e8       	ldi	r21, 0x80	; 128
     798:	69 e8       	ldi	r22, 0x89	; 137
     79a:	75 e4       	ldi	r23, 0x45	; 69
     79c:	46 83       	std	Z+6, r20	; 0x06
     79e:	57 83       	std	Z+7, r21	; 0x07
     7a0:	60 87       	std	Z+8, r22	; 0x08
     7a2:	71 87       	std	Z+9, r23	; 0x09
     7a4:	82 87       	std	Z+10, r24	; 0x0a
     7a6:	93 87       	std	Z+11, r25	; 0x0b
     7a8:	a4 87       	std	Z+12, r26	; 0x0c
     7aa:	b5 87       	std	Z+13, r27	; 0x0d
     7ac:	df 01       	movw	r26, r30
     7ae:	a5 5d       	subi	r26, 0xD5	; 213
     7b0:	be 4f       	sbci	r27, 0xFE	; 254
     7b2:	40 e0       	ldi	r20, 0x00	; 0
     7b4:	50 e0       	ldi	r21, 0x00	; 0
     7b6:	68 ec       	ldi	r22, 0xC8	; 200
     7b8:	7f e3       	ldi	r23, 0x3F	; 63
     7ba:	4d 93       	st	X+, r20
     7bc:	5d 93       	st	X+, r21
     7be:	6d 93       	st	X+, r22
     7c0:	7c 93       	st	X, r23
     7c2:	13 97       	sbiw	r26, 0x03	; 3
     7c4:	14 96       	adiw	r26, 0x04	; 4
     7c6:	40 e0       	ldi	r20, 0x00	; 0
     7c8:	59 e1       	ldi	r21, 0x19	; 25
     7ca:	61 e6       	ldi	r22, 0x61	; 97
     7cc:	75 e4       	ldi	r23, 0x45	; 69
     7ce:	4d 93       	st	X+, r20
     7d0:	5d 93       	st	X+, r21
     7d2:	6d 93       	st	X+, r22
     7d4:	7c 93       	st	X, r23
     7d6:	13 97       	sbiw	r26, 0x03	; 3
     7d8:	e8 5b       	subi	r30, 0xB8	; 184
     7da:	fe 4f       	sbci	r31, 0xFE	; 254
     7dc:	10 82       	st	Z, r1
     7de:	df 91       	pop	r29
     7e0:	cf 91       	pop	r28
     7e2:	08 95       	ret

000007e4 <_ZN14ADF5610_DriverD1Ev>:
     7e4:	08 95       	ret

000007e6 <_ZN14ADF5610_Driver13ShowRegistersEi>:
     7e6:	ef 92       	push	r14
     7e8:	ff 92       	push	r15
     7ea:	0f 93       	push	r16
     7ec:	1f 93       	push	r17
     7ee:	cf 93       	push	r28
     7f0:	df 93       	push	r29
     7f2:	7c 01       	movw	r14, r24
     7f4:	eb 01       	movw	r28, r22
     7f6:	20 97       	sbiw	r28, 0x00	; 0
     7f8:	39 f0       	breq	.+14     	; 0x808 <_ZN14ADF5610_Driver13ShowRegistersEi+0x22>
     7fa:	54 f1       	brlt	.+84     	; 0x850 <_ZN14ADF5610_Driver13ShowRegistersEi+0x6a>
     7fc:	cb 01       	movw	r24, r22
     7fe:	42 97       	sbiw	r24, 0x12	; 18
     800:	02 97       	sbiw	r24, 0x02	; 2
     802:	08 f4       	brcc	.+2      	; 0x806 <_ZN14ADF5610_Driver13ShowRegistersEi+0x20>
     804:	64 c0       	rjmp	.+200    	; 0x8ce <_ZN14ADF5610_Driver13ShowRegistersEi+0xe8>
     806:	24 c0       	rjmp	.+72     	; 0x850 <_ZN14ADF5610_Driver13ShowRegistersEi+0x6a>
     808:	df 93       	push	r29
     80a:	6f 93       	push	r22
     80c:	8a e4       	ldi	r24, 0x4A	; 74
     80e:	90 e4       	ldi	r25, 0x40	; 64
     810:	9f 93       	push	r25
     812:	8f 93       	push	r24
     814:	0e 94 0e 1f 	call	0x3e1c	; 0x3e1c <printf>
     818:	cc 0f       	add	r28, r28
     81a:	dd 1f       	adc	r29, r29
     81c:	cc 0f       	add	r28, r28
     81e:	dd 1f       	adc	r29, r29
     820:	ce 0d       	add	r28, r14
     822:	df 1d       	adc	r29, r15
     824:	fe 01       	movw	r30, r28
     826:	3e 96       	adiw	r30, 0x0e	; 14
     828:	8e 85       	ldd	r24, Y+14	; 0x0e
     82a:	91 81       	ldd	r25, Z+1	; 0x01
     82c:	22 81       	ldd	r18, Z+2	; 0x02
     82e:	33 81       	ldd	r19, Z+3	; 0x03
     830:	3f 93       	push	r19
     832:	2f 93       	push	r18
     834:	9f 93       	push	r25
     836:	8f 93       	push	r24
     838:	83 e5       	ldi	r24, 0x53	; 83
     83a:	90 e4       	ldi	r25, 0x40	; 64
     83c:	9f 93       	push	r25
     83e:	8f 93       	push	r24
     840:	0e 94 0e 1f 	call	0x3e1c	; 0x3e1c <printf>
     844:	ad b7       	in	r26, 0x3d	; 61
     846:	be b7       	in	r27, 0x3e	; 62
     848:	1a 96       	adiw	r26, 0x0a	; 10
     84a:	ad bf       	out	0x3d, r26	; 61
     84c:	be bf       	out	0x3e, r27	; 62
     84e:	3f c0       	rjmp	.+126    	; 0x8ce <_ZN14ADF5610_Driver13ShowRegistersEi+0xe8>
     850:	df 93       	push	r29
     852:	cf 93       	push	r28
     854:	8f e5       	ldi	r24, 0x5F	; 95
     856:	90 e4       	ldi	r25, 0x40	; 64
     858:	9f 93       	push	r25
     85a:	8f 93       	push	r24
     85c:	0e 94 0e 1f 	call	0x3e1c	; 0x3e1c <printf>
     860:	8e 01       	movw	r16, r28
     862:	00 0f       	add	r16, r16
     864:	11 1f       	adc	r17, r17
     866:	00 0f       	add	r16, r16
     868:	11 1f       	adc	r17, r17
     86a:	0e 0d       	add	r16, r14
     86c:	1f 1d       	adc	r17, r15
     86e:	f8 01       	movw	r30, r16
     870:	e6 59       	subi	r30, 0x96	; 150
     872:	ff 4f       	sbci	r31, 0xFF	; 255
     874:	80 81       	ld	r24, Z
     876:	91 81       	ldd	r25, Z+1	; 0x01
     878:	22 81       	ldd	r18, Z+2	; 0x02
     87a:	33 81       	ldd	r19, Z+3	; 0x03
     87c:	3f 93       	push	r19
     87e:	2f 93       	push	r18
     880:	9f 93       	push	r25
     882:	8f 93       	push	r24
     884:	89 e6       	ldi	r24, 0x69	; 105
     886:	90 e4       	ldi	r25, 0x40	; 64
     888:	9f 93       	push	r25
     88a:	8f 93       	push	r24
     88c:	0e 94 0e 1f 	call	0x3e1c	; 0x3e1c <printf>
     890:	df 93       	push	r29
     892:	cf 93       	push	r28
     894:	8a e4       	ldi	r24, 0x4A	; 74
     896:	90 e4       	ldi	r25, 0x40	; 64
     898:	9f 93       	push	r25
     89a:	8f 93       	push	r24
     89c:	0e 94 0e 1f 	call	0x3e1c	; 0x3e1c <printf>
     8a0:	f8 01       	movw	r30, r16
     8a2:	3e 96       	adiw	r30, 0x0e	; 14
     8a4:	d8 01       	movw	r26, r16
     8a6:	1e 96       	adiw	r26, 0x0e	; 14
     8a8:	8c 91       	ld	r24, X
     8aa:	91 81       	ldd	r25, Z+1	; 0x01
     8ac:	22 81       	ldd	r18, Z+2	; 0x02
     8ae:	33 81       	ldd	r19, Z+3	; 0x03
     8b0:	3f 93       	push	r19
     8b2:	2f 93       	push	r18
     8b4:	9f 93       	push	r25
     8b6:	8f 93       	push	r24
     8b8:	83 e5       	ldi	r24, 0x53	; 83
     8ba:	90 e4       	ldi	r25, 0x40	; 64
     8bc:	9f 93       	push	r25
     8be:	8f 93       	push	r24
     8c0:	0e 94 0e 1f 	call	0x3e1c	; 0x3e1c <printf>
     8c4:	8d b7       	in	r24, 0x3d	; 61
     8c6:	9e b7       	in	r25, 0x3e	; 62
     8c8:	44 96       	adiw	r24, 0x14	; 20
     8ca:	8d bf       	out	0x3d, r24	; 61
     8cc:	9e bf       	out	0x3e, r25	; 62
     8ce:	df 91       	pop	r29
     8d0:	cf 91       	pop	r28
     8d2:	1f 91       	pop	r17
     8d4:	0f 91       	pop	r16
     8d6:	ff 90       	pop	r15
     8d8:	ef 90       	pop	r14
     8da:	08 95       	ret

000008dc <_ZN14ADF5610_Driver8IsLockedEv>:
     8dc:	22 b1       	in	r18, 0x02	; 2
     8de:	30 e0       	ldi	r19, 0x00	; 0
     8e0:	22 0f       	add	r18, r18
     8e2:	23 2f       	mov	r18, r19
     8e4:	22 1f       	adc	r18, r18
     8e6:	33 0b       	sbc	r19, r19
     8e8:	21 70       	andi	r18, 0x01	; 1
     8ea:	8b 5c       	subi	r24, 0xCB	; 203
     8ec:	9e 4f       	sbci	r25, 0xFE	; 254
     8ee:	fc 01       	movw	r30, r24
     8f0:	20 83       	st	Z, r18
     8f2:	82 2f       	mov	r24, r18
     8f4:	08 95       	ret

000008f6 <_ZN14ADF5610_Driver23ConvertU32FourByteArrayEPhm>:
     8f6:	cf 92       	push	r12
     8f8:	df 92       	push	r13
     8fa:	ef 92       	push	r14
     8fc:	ff 92       	push	r15
     8fe:	0f 93       	push	r16
     900:	1f 93       	push	r17
     902:	89 01       	movw	r16, r18
     904:	9a 01       	movw	r18, r20
     906:	40 e0       	ldi	r20, 0x00	; 0
     908:	50 e0       	ldi	r21, 0x00	; 0
     90a:	44 30       	cpi	r20, 0x04	; 4
     90c:	51 05       	cpc	r21, r1
     90e:	d4 f4       	brge	.+52     	; 0x944 <_ZN14ADF5610_Driver23ConvertU32FourByteArrayEPhm+0x4e>
     910:	fb 01       	movw	r30, r22
     912:	e4 0f       	add	r30, r20
     914:	f5 1f       	adc	r31, r21
     916:	83 e0       	ldi	r24, 0x03	; 3
     918:	90 e0       	ldi	r25, 0x00	; 0
     91a:	84 1b       	sub	r24, r20
     91c:	95 0b       	sbc	r25, r21
     91e:	88 0f       	add	r24, r24
     920:	99 1f       	adc	r25, r25
     922:	88 0f       	add	r24, r24
     924:	99 1f       	adc	r25, r25
     926:	88 0f       	add	r24, r24
     928:	99 1f       	adc	r25, r25
     92a:	68 01       	movw	r12, r16
     92c:	79 01       	movw	r14, r18
     92e:	04 c0       	rjmp	.+8      	; 0x938 <_ZN14ADF5610_Driver23ConvertU32FourByteArrayEPhm+0x42>
     930:	f6 94       	lsr	r15
     932:	e7 94       	ror	r14
     934:	d7 94       	ror	r13
     936:	c7 94       	ror	r12
     938:	8a 95       	dec	r24
     93a:	d2 f7       	brpl	.-12     	; 0x930 <_ZN14ADF5610_Driver23ConvertU32FourByteArrayEPhm+0x3a>
     93c:	c0 82       	st	Z, r12
     93e:	4f 5f       	subi	r20, 0xFF	; 255
     940:	5f 4f       	sbci	r21, 0xFF	; 255
     942:	e3 cf       	rjmp	.-58     	; 0x90a <_ZN14ADF5610_Driver23ConvertU32FourByteArrayEPhm+0x14>
     944:	1f 91       	pop	r17
     946:	0f 91       	pop	r16
     948:	ff 90       	pop	r15
     94a:	ef 90       	pop	r14
     94c:	df 90       	pop	r13
     94e:	cf 90       	pop	r12
     950:	08 95       	ret

00000952 <_ZN14ADF5610_Driver13ReadRegistersEh>:
     952:	af 92       	push	r10
     954:	bf 92       	push	r11
     956:	cf 92       	push	r12
     958:	df 92       	push	r13
     95a:	ef 92       	push	r14
     95c:	ff 92       	push	r15
     95e:	0f 93       	push	r16
     960:	1f 93       	push	r17
     962:	cf 93       	push	r28
     964:	df 93       	push	r29
     966:	ec 01       	movw	r28, r24
     968:	16 2f       	mov	r17, r22
     96a:	60 e0       	ldi	r22, 0x00	; 0
     96c:	8c 81       	ldd	r24, Y+4	; 0x04
     96e:	9d 81       	ldd	r25, Y+5	; 0x05
     970:	0e 94 ab 0c 	call	0x1956	; 0x1956 <_ZN13SPI_Syn_Class5SetCSEb>
     974:	be 01       	movw	r22, r28
     976:	6d 5b       	subi	r22, 0xBD	; 189
     978:	7e 4f       	sbci	r23, 0xFE	; 254
     97a:	fb 01       	movw	r30, r22
     97c:	10 82       	st	Z, r1
     97e:	31 96       	adiw	r30, 0x01	; 1
     980:	10 82       	st	Z, r1
     982:	31 96       	adiw	r30, 0x01	; 1
     984:	10 83       	st	Z, r17
     986:	31 96       	adiw	r30, 0x01	; 1
     988:	10 82       	st	Z, r1
     98a:	44 e0       	ldi	r20, 0x04	; 4
     98c:	8c 81       	ldd	r24, Y+4	; 0x04
     98e:	9d 81       	ldd	r25, Y+5	; 0x05
     990:	0e 94 95 0c 	call	0x192a	; 0x192a <_ZN13SPI_Syn_Class5WriteEPKhh>
     994:	61 e0       	ldi	r22, 0x01	; 1
     996:	8c 81       	ldd	r24, Y+4	; 0x04
     998:	9d 81       	ldd	r25, Y+5	; 0x05
     99a:	0e 94 ab 0c 	call	0x1956	; 0x1956 <_ZN13SPI_Syn_Class5SetCSEb>
     99e:	80 e7       	ldi	r24, 0x70	; 112
     9a0:	97 e1       	ldi	r25, 0x17	; 23
     9a2:	01 97       	sbiw	r24, 0x01	; 1
     9a4:	f1 f7       	brne	.-4      	; 0x9a2 <_ZN14ADF5610_Driver13ReadRegistersEh+0x50>
     9a6:	60 e0       	ldi	r22, 0x00	; 0
     9a8:	8c 81       	ldd	r24, Y+4	; 0x04
     9aa:	9d 81       	ldd	r25, Y+5	; 0x05
     9ac:	0e 94 ab 0c 	call	0x1956	; 0x1956 <_ZN13SPI_Syn_Class5SetCSEb>
     9b0:	7e 01       	movw	r14, r28
     9b2:	f5 ec       	ldi	r31, 0xC5	; 197
     9b4:	ef 1a       	sub	r14, r31
     9b6:	fe ef       	ldi	r31, 0xFE	; 254
     9b8:	ff 0a       	sbc	r15, r31
     9ba:	44 e0       	ldi	r20, 0x04	; 4
     9bc:	b7 01       	movw	r22, r14
     9be:	8c 81       	ldd	r24, Y+4	; 0x04
     9c0:	9d 81       	ldd	r25, Y+5	; 0x05
     9c2:	0e 94 a0 0c 	call	0x1940	; 0x1940 <_ZN13SPI_Syn_Class4ReadEPhh>
     9c6:	e1 2f       	mov	r30, r17
     9c8:	f0 e0       	ldi	r31, 0x00	; 0
     9ca:	ee 0f       	add	r30, r30
     9cc:	ff 1f       	adc	r31, r31
     9ce:	ee 0f       	add	r30, r30
     9d0:	ff 1f       	adc	r31, r31
     9d2:	5f 01       	movw	r10, r30
     9d4:	ac 0e       	add	r10, r28
     9d6:	bd 1e       	adc	r11, r29
     9d8:	f5 01       	movw	r30, r10
     9da:	16 86       	std	Z+14, r1	; 0x0e
     9dc:	17 86       	std	Z+15, r1	; 0x0f
     9de:	10 8a       	std	Z+16, r1	; 0x10
     9e0:	11 8a       	std	Z+17, r1	; 0x11
     9e2:	f7 01       	movw	r30, r14
     9e4:	80 81       	ld	r24, Z
     9e6:	91 81       	ldd	r25, Z+1	; 0x01
     9e8:	a2 81       	ldd	r26, Z+2	; 0x02
     9ea:	b3 81       	ldd	r27, Z+3	; 0x03
     9ec:	78 2f       	mov	r23, r24
     9ee:	66 27       	eor	r22, r22
     9f0:	55 27       	eor	r21, r21
     9f2:	44 27       	eor	r20, r20
     9f4:	8c 01       	movw	r16, r24
     9f6:	9d 01       	movw	r18, r26
     9f8:	00 27       	eor	r16, r16
     9fa:	22 27       	eor	r18, r18
     9fc:	33 27       	eor	r19, r19
     9fe:	32 2f       	mov	r19, r18
     a00:	21 2f       	mov	r18, r17
     a02:	10 2f       	mov	r17, r16
     a04:	00 27       	eor	r16, r16
     a06:	04 2b       	or	r16, r20
     a08:	15 2b       	or	r17, r21
     a0a:	26 2b       	or	r18, r22
     a0c:	37 2b       	or	r19, r23
     a0e:	cb 2e       	mov	r12, r27
     a10:	dd 24       	eor	r13, r13
     a12:	ee 24       	eor	r14, r14
     a14:	ff 24       	eor	r15, r15
     a16:	ac 01       	movw	r20, r24
     a18:	bd 01       	movw	r22, r26
     a1a:	44 27       	eor	r20, r20
     a1c:	55 27       	eor	r21, r21
     a1e:	77 27       	eor	r23, r23
     a20:	45 2f       	mov	r20, r21
     a22:	56 2f       	mov	r21, r22
     a24:	67 2f       	mov	r22, r23
     a26:	77 27       	eor	r23, r23
     a28:	d7 01       	movw	r26, r14
     a2a:	c6 01       	movw	r24, r12
     a2c:	84 2b       	or	r24, r20
     a2e:	95 2b       	or	r25, r21
     a30:	a6 2b       	or	r26, r22
     a32:	b7 2b       	or	r27, r23
     a34:	80 2b       	or	r24, r16
     a36:	91 2b       	or	r25, r17
     a38:	a2 2b       	or	r26, r18
     a3a:	b3 2b       	or	r27, r19
     a3c:	68 94       	set
     a3e:	16 f8       	bld	r1, 6
     a40:	b6 95       	lsr	r27
     a42:	a7 95       	ror	r26
     a44:	97 95       	ror	r25
     a46:	87 95       	ror	r24
     a48:	16 94       	lsr	r1
     a4a:	d1 f7       	brne	.-12     	; 0xa40 <_ZN14ADF5610_Driver13ReadRegistersEh+0xee>
     a4c:	be 7f       	andi	r27, 0xFE	; 254
     a4e:	f5 01       	movw	r30, r10
     a50:	86 87       	std	Z+14, r24	; 0x0e
     a52:	97 87       	std	Z+15, r25	; 0x0f
     a54:	a0 8b       	std	Z+16, r26	; 0x10
     a56:	b1 8b       	std	Z+17, r27	; 0x11
     a58:	61 e0       	ldi	r22, 0x01	; 1
     a5a:	8c 81       	ldd	r24, Y+4	; 0x04
     a5c:	9d 81       	ldd	r25, Y+5	; 0x05
     a5e:	0e 94 ab 0c 	call	0x1956	; 0x1956 <_ZN13SPI_Syn_Class5SetCSEb>
     a62:	df 91       	pop	r29
     a64:	cf 91       	pop	r28
     a66:	1f 91       	pop	r17
     a68:	0f 91       	pop	r16
     a6a:	ff 90       	pop	r15
     a6c:	ef 90       	pop	r14
     a6e:	df 90       	pop	r13
     a70:	cf 90       	pop	r12
     a72:	bf 90       	pop	r11
     a74:	af 90       	pop	r10
     a76:	08 95       	ret

00000a78 <_ZN14ADF5610_Driver17InitiateRegistersEv>:
     a78:	cf 92       	push	r12
     a7a:	df 92       	push	r13
     a7c:	ef 92       	push	r14
     a7e:	ff 92       	push	r15
     a80:	40 e0       	ldi	r20, 0x00	; 0
     a82:	50 e0       	ldi	r21, 0x00	; 0
     a84:	47 31       	cpi	r20, 0x17	; 23
     a86:	51 05       	cpc	r21, r1
     a88:	0c f0       	brlt	.+2      	; 0xa8c <_ZN14ADF5610_Driver17InitiateRegistersEv+0x14>
     a8a:	8f c1       	rjmp	.+798    	; 0xdaa <_ZN14ADF5610_Driver17InitiateRegistersEv+0x332>
     a8c:	47 31       	cpi	r20, 0x17	; 23
     a8e:	51 05       	cpc	r21, r1
     a90:	08 f0       	brcs	.+2      	; 0xa94 <_ZN14ADF5610_Driver17InitiateRegistersEv+0x1c>
     a92:	67 c1       	rjmp	.+718    	; 0xd62 <_ZN14ADF5610_Driver17InitiateRegistersEv+0x2ea>
     a94:	fa 01       	movw	r30, r20
     a96:	e6 58       	subi	r30, 0x86	; 134
     a98:	ff 4f       	sbci	r31, 0xFF	; 255
     a9a:	0c 94 c7 1d 	jmp	0x3b8e	; 0x3b8e <__tablejump2__>
     a9e:	fa 01       	movw	r30, r20
     aa0:	ee 0f       	add	r30, r30
     aa2:	ff 1f       	adc	r31, r31
     aa4:	ee 0f       	add	r30, r30
     aa6:	ff 1f       	adc	r31, r31
     aa8:	e8 0f       	add	r30, r24
     aaa:	f9 1f       	adc	r31, r25
     aac:	ea 53       	subi	r30, 0x3A	; 58
     aae:	ff 4f       	sbci	r31, 0xFF	; 255
     ab0:	c1 2c       	mov	r12, r1
     ab2:	d1 2c       	mov	r13, r1
     ab4:	76 01       	movw	r14, r12
     ab6:	68 94       	set
     ab8:	c5 f8       	bld	r12, 5
     aba:	c0 82       	st	Z, r12
     abc:	d1 82       	std	Z+1, r13	; 0x01
     abe:	e2 82       	std	Z+2, r14	; 0x02
     ac0:	f3 82       	std	Z+3, r15	; 0x03
     ac2:	5c c1       	rjmp	.+696    	; 0xd7c <_ZN14ADF5610_Driver17InitiateRegistersEv+0x304>
     ac4:	fa 01       	movw	r30, r20
     ac6:	ee 0f       	add	r30, r30
     ac8:	ff 1f       	adc	r31, r31
     aca:	ee 0f       	add	r30, r30
     acc:	ff 1f       	adc	r31, r31
     ace:	e8 0f       	add	r30, r24
     ad0:	f9 1f       	adc	r31, r25
     ad2:	ea 53       	subi	r30, 0x3A	; 58
     ad4:	ff 4f       	sbci	r31, 0xFF	; 255
     ad6:	c1 2c       	mov	r12, r1
     ad8:	d1 2c       	mov	r13, r1
     ada:	76 01       	movw	r14, r12
     adc:	68 94       	set
     ade:	c1 f8       	bld	r12, 1
     ae0:	c0 82       	st	Z, r12
     ae2:	d1 82       	std	Z+1, r13	; 0x01
     ae4:	e2 82       	std	Z+2, r14	; 0x02
     ae6:	f3 82       	std	Z+3, r15	; 0x03
     ae8:	49 c1       	rjmp	.+658    	; 0xd7c <_ZN14ADF5610_Driver17InitiateRegistersEv+0x304>
     aea:	fa 01       	movw	r30, r20
     aec:	ee 0f       	add	r30, r30
     aee:	ff 1f       	adc	r31, r31
     af0:	ee 0f       	add	r30, r30
     af2:	ff 1f       	adc	r31, r31
     af4:	e8 0f       	add	r30, r24
     af6:	f9 1f       	adc	r31, r25
     af8:	ea 53       	subi	r30, 0x3A	; 58
     afa:	ff 4f       	sbci	r31, 0xFF	; 255
     afc:	c1 2c       	mov	r12, r1
     afe:	d1 2c       	mov	r13, r1
     b00:	76 01       	movw	r14, r12
     b02:	c3 94       	inc	r12
     b04:	c0 82       	st	Z, r12
     b06:	d1 82       	std	Z+1, r13	; 0x01
     b08:	e2 82       	std	Z+2, r14	; 0x02
     b0a:	f3 82       	std	Z+3, r15	; 0x03
     b0c:	37 c1       	rjmp	.+622    	; 0xd7c <_ZN14ADF5610_Driver17InitiateRegistersEv+0x304>
     b0e:	fa 01       	movw	r30, r20
     b10:	ee 0f       	add	r30, r30
     b12:	ff 1f       	adc	r31, r31
     b14:	ee 0f       	add	r30, r30
     b16:	ff 1f       	adc	r31, r31
     b18:	e8 0f       	add	r30, r24
     b1a:	f9 1f       	adc	r31, r25
     b1c:	ea 53       	subi	r30, 0x3A	; 58
     b1e:	ff 4f       	sbci	r31, 0xFF	; 255
     b20:	0f 2e       	mov	r0, r31
     b22:	f1 e3       	ldi	r31, 0x31	; 49
     b24:	cf 2e       	mov	r12, r31
     b26:	d1 2c       	mov	r13, r1
     b28:	e1 2c       	mov	r14, r1
     b2a:	f1 2c       	mov	r15, r1
     b2c:	f0 2d       	mov	r31, r0
     b2e:	c0 82       	st	Z, r12
     b30:	d1 82       	std	Z+1, r13	; 0x01
     b32:	e2 82       	std	Z+2, r14	; 0x02
     b34:	f3 82       	std	Z+3, r15	; 0x03
     b36:	22 c1       	rjmp	.+580    	; 0xd7c <_ZN14ADF5610_Driver17InitiateRegistersEv+0x304>
     b38:	fa 01       	movw	r30, r20
     b3a:	ee 0f       	add	r30, r30
     b3c:	ff 1f       	adc	r31, r31
     b3e:	ee 0f       	add	r30, r30
     b40:	ff 1f       	adc	r31, r31
     b42:	e8 0f       	add	r30, r24
     b44:	f9 1f       	adc	r31, r25
     b46:	ea 53       	subi	r30, 0x3A	; 58
     b48:	ff 4f       	sbci	r31, 0xFF	; 255
     b4a:	0f 2e       	mov	r0, r31
     b4c:	f3 ea       	ldi	r31, 0xA3	; 163
     b4e:	cf 2e       	mov	r12, r31
     b50:	f0 e7       	ldi	r31, 0x70	; 112
     b52:	df 2e       	mov	r13, r31
     b54:	fd ef       	ldi	r31, 0xFD	; 253
     b56:	ef 2e       	mov	r14, r31
     b58:	f1 2c       	mov	r15, r1
     b5a:	f0 2d       	mov	r31, r0
     b5c:	c0 82       	st	Z, r12
     b5e:	d1 82       	std	Z+1, r13	; 0x01
     b60:	e2 82       	std	Z+2, r14	; 0x02
     b62:	f3 82       	std	Z+3, r15	; 0x03
     b64:	0b c1       	rjmp	.+534    	; 0xd7c <_ZN14ADF5610_Driver17InitiateRegistersEv+0x304>
     b66:	fa 01       	movw	r30, r20
     b68:	ee 0f       	add	r30, r30
     b6a:	ff 1f       	adc	r31, r31
     b6c:	ee 0f       	add	r30, r30
     b6e:	ff 1f       	adc	r31, r31
     b70:	e8 0f       	add	r30, r24
     b72:	f9 1f       	adc	r31, r25
     b74:	ea 53       	subi	r30, 0x3A	; 58
     b76:	ff 4f       	sbci	r31, 0xFF	; 255
     b78:	10 82       	st	Z, r1
     b7a:	11 82       	std	Z+1, r1	; 0x01
     b7c:	12 82       	std	Z+2, r1	; 0x02
     b7e:	13 82       	std	Z+3, r1	; 0x03
     b80:	fd c0       	rjmp	.+506    	; 0xd7c <_ZN14ADF5610_Driver17InitiateRegistersEv+0x304>
     b82:	fa 01       	movw	r30, r20
     b84:	ee 0f       	add	r30, r30
     b86:	ff 1f       	adc	r31, r31
     b88:	ee 0f       	add	r30, r30
     b8a:	ff 1f       	adc	r31, r31
     b8c:	e8 0f       	add	r30, r24
     b8e:	f9 1f       	adc	r31, r25
     b90:	ea 53       	subi	r30, 0x3A	; 58
     b92:	ff 4f       	sbci	r31, 0xFF	; 255
     b94:	0f 2e       	mov	r0, r31
     b96:	fa e4       	ldi	r31, 0x4A	; 74
     b98:	cf 2e       	mov	r12, r31
     b9a:	ff e2       	ldi	r31, 0x2F	; 47
     b9c:	df 2e       	mov	r13, r31
     b9e:	e1 2c       	mov	r14, r1
     ba0:	f1 2c       	mov	r15, r1
     ba2:	f0 2d       	mov	r31, r0
     ba4:	c0 82       	st	Z, r12
     ba6:	d1 82       	std	Z+1, r13	; 0x01
     ba8:	e2 82       	std	Z+2, r14	; 0x02
     baa:	f3 82       	std	Z+3, r15	; 0x03
     bac:	e7 c0       	rjmp	.+462    	; 0xd7c <_ZN14ADF5610_Driver17InitiateRegistersEv+0x304>
     bae:	fa 01       	movw	r30, r20
     bb0:	ee 0f       	add	r30, r30
     bb2:	ff 1f       	adc	r31, r31
     bb4:	ee 0f       	add	r30, r30
     bb6:	ff 1f       	adc	r31, r31
     bb8:	e8 0f       	add	r30, r24
     bba:	f9 1f       	adc	r31, r25
     bbc:	ea 53       	subi	r30, 0x3A	; 58
     bbe:	ff 4f       	sbci	r31, 0xFF	; 255
     bc0:	0f 2e       	mov	r0, r31
     bc2:	fd e4       	ldi	r31, 0x4D	; 77
     bc4:	cf 2e       	mov	r12, r31
     bc6:	f1 e2       	ldi	r31, 0x21	; 33
     bc8:	df 2e       	mov	r13, r31
     bca:	e1 2c       	mov	r14, r1
     bcc:	f1 2c       	mov	r15, r1
     bce:	f0 2d       	mov	r31, r0
     bd0:	c0 82       	st	Z, r12
     bd2:	d1 82       	std	Z+1, r13	; 0x01
     bd4:	e2 82       	std	Z+2, r14	; 0x02
     bd6:	f3 82       	std	Z+3, r15	; 0x03
     bd8:	d1 c0       	rjmp	.+418    	; 0xd7c <_ZN14ADF5610_Driver17InitiateRegistersEv+0x304>
     bda:	fa 01       	movw	r30, r20
     bdc:	ee 0f       	add	r30, r30
     bde:	ff 1f       	adc	r31, r31
     be0:	ee 0f       	add	r30, r30
     be2:	ff 1f       	adc	r31, r31
     be4:	e8 0f       	add	r30, r24
     be6:	f9 1f       	adc	r31, r25
     be8:	ea 53       	subi	r30, 0x3A	; 58
     bea:	ff 4f       	sbci	r31, 0xFF	; 255
     bec:	0f 2e       	mov	r0, r31
     bee:	cc 24       	eor	r12, r12
     bf0:	ca 94       	dec	r12
     bf2:	fe eb       	ldi	r31, 0xBE	; 190
     bf4:	df 2e       	mov	r13, r31
     bf6:	f9 ec       	ldi	r31, 0xC9	; 201
     bf8:	ef 2e       	mov	r14, r31
     bfa:	f1 2c       	mov	r15, r1
     bfc:	f0 2d       	mov	r31, r0
     bfe:	c0 82       	st	Z, r12
     c00:	d1 82       	std	Z+1, r13	; 0x01
     c02:	e2 82       	std	Z+2, r14	; 0x02
     c04:	f3 82       	std	Z+3, r15	; 0x03
     c06:	ba c0       	rjmp	.+372    	; 0xd7c <_ZN14ADF5610_Driver17InitiateRegistersEv+0x304>
     c08:	fa 01       	movw	r30, r20
     c0a:	ee 0f       	add	r30, r30
     c0c:	ff 1f       	adc	r31, r31
     c0e:	ee 0f       	add	r30, r30
     c10:	ff 1f       	adc	r31, r31
     c12:	e8 0f       	add	r30, r24
     c14:	f9 1f       	adc	r31, r25
     c16:	ea 53       	subi	r30, 0x3A	; 58
     c18:	ff 4f       	sbci	r31, 0xFF	; 255
     c1a:	0f 2e       	mov	r0, r31
     c1c:	cc 24       	eor	r12, r12
     c1e:	ca 94       	dec	r12
     c20:	ff e3       	ldi	r31, 0x3F	; 63
     c22:	df 2e       	mov	r13, r31
     c24:	e1 2c       	mov	r14, r1
     c26:	f1 2c       	mov	r15, r1
     c28:	f0 2d       	mov	r31, r0
     c2a:	c0 82       	st	Z, r12
     c2c:	d1 82       	std	Z+1, r13	; 0x01
     c2e:	e2 82       	std	Z+2, r14	; 0x02
     c30:	f3 82       	std	Z+3, r15	; 0x03
     c32:	a4 c0       	rjmp	.+328    	; 0xd7c <_ZN14ADF5610_Driver17InitiateRegistersEv+0x304>
     c34:	fa 01       	movw	r30, r20
     c36:	ee 0f       	add	r30, r30
     c38:	ff 1f       	adc	r31, r31
     c3a:	ee 0f       	add	r30, r30
     c3c:	ff 1f       	adc	r31, r31
     c3e:	e8 0f       	add	r30, r24
     c40:	f9 1f       	adc	r31, r25
     c42:	ea 53       	subi	r30, 0x3A	; 58
     c44:	ff 4f       	sbci	r31, 0xFF	; 255
     c46:	0f 2e       	mov	r0, r31
     c48:	f7 e4       	ldi	r31, 0x47	; 71
     c4a:	cf 2e       	mov	r12, r31
     c4c:	f0 e2       	ldi	r31, 0x20	; 32
     c4e:	df 2e       	mov	r13, r31
     c50:	e1 2c       	mov	r14, r1
     c52:	f1 2c       	mov	r15, r1
     c54:	f0 2d       	mov	r31, r0
     c56:	c0 82       	st	Z, r12
     c58:	d1 82       	std	Z+1, r13	; 0x01
     c5a:	e2 82       	std	Z+2, r14	; 0x02
     c5c:	f3 82       	std	Z+3, r15	; 0x03
     c5e:	8e c0       	rjmp	.+284    	; 0xd7c <_ZN14ADF5610_Driver17InitiateRegistersEv+0x304>
     c60:	fa 01       	movw	r30, r20
     c62:	ee 0f       	add	r30, r30
     c64:	ff 1f       	adc	r31, r31
     c66:	ee 0f       	add	r30, r30
     c68:	ff 1f       	adc	r31, r31
     c6a:	e8 0f       	add	r30, r24
     c6c:	f9 1f       	adc	r31, r25
     c6e:	ea 53       	subi	r30, 0x3A	; 58
     c70:	ff 4f       	sbci	r31, 0xFF	; 255
     c72:	0f 2e       	mov	r0, r31
     c74:	f1 e6       	ldi	r31, 0x61	; 97
     c76:	cf 2e       	mov	r12, r31
     c78:	f0 e8       	ldi	r31, 0x80	; 128
     c7a:	df 2e       	mov	r13, r31
     c7c:	ff e0       	ldi	r31, 0x0F	; 15
     c7e:	ef 2e       	mov	r14, r31
     c80:	f1 2c       	mov	r15, r1
     c82:	f0 2d       	mov	r31, r0
     c84:	c0 82       	st	Z, r12
     c86:	d1 82       	std	Z+1, r13	; 0x01
     c88:	e2 82       	std	Z+2, r14	; 0x02
     c8a:	f3 82       	std	Z+3, r15	; 0x03
     c8c:	77 c0       	rjmp	.+238    	; 0xd7c <_ZN14ADF5610_Driver17InitiateRegistersEv+0x304>
     c8e:	fa 01       	movw	r30, r20
     c90:	ee 0f       	add	r30, r30
     c92:	ff 1f       	adc	r31, r31
     c94:	ee 0f       	add	r30, r30
     c96:	ff 1f       	adc	r31, r31
     c98:	e8 0f       	add	r30, r24
     c9a:	f9 1f       	adc	r31, r25
     c9c:	ea 53       	subi	r30, 0x3A	; 58
     c9e:	ff 4f       	sbci	r31, 0xFF	; 255
     ca0:	0f 2e       	mov	r0, r31
     ca2:	f1 e8       	ldi	r31, 0x81	; 129
     ca4:	cf 2e       	mov	r12, r31
     ca6:	d1 2c       	mov	r13, r1
     ca8:	e1 2c       	mov	r14, r1
     caa:	f1 2c       	mov	r15, r1
     cac:	f0 2d       	mov	r31, r0
     cae:	c0 82       	st	Z, r12
     cb0:	d1 82       	std	Z+1, r13	; 0x01
     cb2:	e2 82       	std	Z+2, r14	; 0x02
     cb4:	f3 82       	std	Z+3, r15	; 0x03
     cb6:	62 c0       	rjmp	.+196    	; 0xd7c <_ZN14ADF5610_Driver17InitiateRegistersEv+0x304>
     cb8:	fa 01       	movw	r30, r20
     cba:	ee 0f       	add	r30, r30
     cbc:	ff 1f       	adc	r31, r31
     cbe:	ee 0f       	add	r30, r30
     cc0:	ff 1f       	adc	r31, r31
     cc2:	e8 0f       	add	r30, r24
     cc4:	f9 1f       	adc	r31, r25
     cc6:	ea 53       	subi	r30, 0x3A	; 58
     cc8:	ff 4f       	sbci	r31, 0xFF	; 255
     cca:	c1 2c       	mov	r12, r1
     ccc:	d1 2c       	mov	r13, r1
     cce:	76 01       	movw	r14, r12
     cd0:	68 94       	set
     cd2:	c5 f8       	bld	r12, 5
     cd4:	c0 82       	st	Z, r12
     cd6:	d1 82       	std	Z+1, r13	; 0x01
     cd8:	e2 82       	std	Z+2, r14	; 0x02
     cda:	f3 82       	std	Z+3, r15	; 0x03
     cdc:	4f c0       	rjmp	.+158    	; 0xd7c <_ZN14ADF5610_Driver17InitiateRegistersEv+0x304>
     cde:	fc 01       	movw	r30, r24
     ce0:	e6 52       	subi	r30, 0x26	; 38
     ce2:	ff 4f       	sbci	r31, 0xFF	; 255
     ce4:	c0 80       	ld	r12, Z
     ce6:	d1 80       	ldd	r13, Z+1	; 0x01
     ce8:	e2 80       	ldd	r14, Z+2	; 0x02
     cea:	f3 80       	ldd	r15, Z+3	; 0x03
     cec:	fa 01       	movw	r30, r20
     cee:	ee 0f       	add	r30, r30
     cf0:	ff 1f       	adc	r31, r31
     cf2:	ee 0f       	add	r30, r30
     cf4:	ff 1f       	adc	r31, r31
     cf6:	e8 0f       	add	r30, r24
     cf8:	f9 1f       	adc	r31, r25
     cfa:	ea 53       	subi	r30, 0x3A	; 58
     cfc:	ff 4f       	sbci	r31, 0xFF	; 255
     cfe:	c0 82       	st	Z, r12
     d00:	d1 82       	std	Z+1, r13	; 0x01
     d02:	e2 82       	std	Z+2, r14	; 0x02
     d04:	f3 82       	std	Z+3, r15	; 0x03
     d06:	3a c0       	rjmp	.+116    	; 0xd7c <_ZN14ADF5610_Driver17InitiateRegistersEv+0x304>
     d08:	fa 01       	movw	r30, r20
     d0a:	ee 0f       	add	r30, r30
     d0c:	ff 1f       	adc	r31, r31
     d0e:	ee 0f       	add	r30, r30
     d10:	ff 1f       	adc	r31, r31
     d12:	e8 0f       	add	r30, r24
     d14:	f9 1f       	adc	r31, r25
     d16:	ea 53       	subi	r30, 0x3A	; 58
     d18:	ff 4f       	sbci	r31, 0xFF	; 255
     d1a:	0f 2e       	mov	r0, r31
     d1c:	f8 e0       	ldi	r31, 0x08	; 8
     d1e:	cf 2e       	mov	r12, r31
     d20:	fe eb       	ldi	r31, 0xBE	; 190
     d22:	df 2e       	mov	r13, r31
     d24:	ee 24       	eor	r14, r14
     d26:	ea 94       	dec	r14
     d28:	fe 2c       	mov	r15, r14
     d2a:	f0 2d       	mov	r31, r0
     d2c:	c0 82       	st	Z, r12
     d2e:	d1 82       	std	Z+1, r13	; 0x01
     d30:	e2 82       	std	Z+2, r14	; 0x02
     d32:	f3 82       	std	Z+3, r15	; 0x03
     d34:	23 c0       	rjmp	.+70     	; 0xd7c <_ZN14ADF5610_Driver17InitiateRegistersEv+0x304>
     d36:	fa 01       	movw	r30, r20
     d38:	ee 0f       	add	r30, r30
     d3a:	ff 1f       	adc	r31, r31
     d3c:	ee 0f       	add	r30, r30
     d3e:	ff 1f       	adc	r31, r31
     d40:	e8 0f       	add	r30, r24
     d42:	f9 1f       	adc	r31, r25
     d44:	ea 53       	subi	r30, 0x3A	; 58
     d46:	ff 4f       	sbci	r31, 0xFF	; 255
     d48:	0f 2e       	mov	r0, r31
     d4a:	f0 e9       	ldi	r31, 0x90	; 144
     d4c:	cf 2e       	mov	r12, r31
     d4e:	f3 e0       	ldi	r31, 0x03	; 3
     d50:	df 2e       	mov	r13, r31
     d52:	e1 2c       	mov	r14, r1
     d54:	f1 2c       	mov	r15, r1
     d56:	f0 2d       	mov	r31, r0
     d58:	c0 82       	st	Z, r12
     d5a:	d1 82       	std	Z+1, r13	; 0x01
     d5c:	e2 82       	std	Z+2, r14	; 0x02
     d5e:	f3 82       	std	Z+3, r15	; 0x03
     d60:	0d c0       	rjmp	.+26     	; 0xd7c <_ZN14ADF5610_Driver17InitiateRegistersEv+0x304>
     d62:	fa 01       	movw	r30, r20
     d64:	ee 0f       	add	r30, r30
     d66:	ff 1f       	adc	r31, r31
     d68:	ee 0f       	add	r30, r30
     d6a:	ff 1f       	adc	r31, r31
     d6c:	e8 0f       	add	r30, r24
     d6e:	f9 1f       	adc	r31, r25
     d70:	ea 53       	subi	r30, 0x3A	; 58
     d72:	ff 4f       	sbci	r31, 0xFF	; 255
     d74:	10 82       	st	Z, r1
     d76:	11 82       	std	Z+1, r1	; 0x01
     d78:	12 82       	std	Z+2, r1	; 0x02
     d7a:	13 82       	std	Z+3, r1	; 0x03
     d7c:	9a 01       	movw	r18, r20
     d7e:	22 0f       	add	r18, r18
     d80:	33 1f       	adc	r19, r19
     d82:	22 0f       	add	r18, r18
     d84:	33 1f       	adc	r19, r19
     d86:	28 0f       	add	r18, r24
     d88:	39 1f       	adc	r19, r25
     d8a:	f9 01       	movw	r30, r18
     d8c:	ea 53       	subi	r30, 0x3A	; 58
     d8e:	ff 4f       	sbci	r31, 0xFF	; 255
     d90:	c0 80       	ld	r12, Z
     d92:	d1 80       	ldd	r13, Z+1	; 0x01
     d94:	e2 80       	ldd	r14, Z+2	; 0x02
     d96:	f3 80       	ldd	r15, Z+3	; 0x03
     d98:	ec 55       	subi	r30, 0x5C	; 92
     d9a:	f1 09       	sbc	r31, r1
     d9c:	c0 82       	st	Z, r12
     d9e:	d1 82       	std	Z+1, r13	; 0x01
     da0:	e2 82       	std	Z+2, r14	; 0x02
     da2:	f3 82       	std	Z+3, r15	; 0x03
     da4:	4f 5f       	subi	r20, 0xFF	; 255
     da6:	5f 4f       	sbci	r21, 0xFF	; 255
     da8:	6d ce       	rjmp	.-806    	; 0xa84 <_ZN14ADF5610_Driver17InitiateRegistersEv+0xc>
     daa:	ff 90       	pop	r15
     dac:	ef 90       	pop	r14
     dae:	df 90       	pop	r13
     db0:	cf 90       	pop	r12
     db2:	08 95       	ret

00000db4 <_ZN14ADF5610_Driver16ReadAllRegistersEv>:
     db4:	0f 93       	push	r16
     db6:	1f 93       	push	r17
     db8:	cf 93       	push	r28
     dba:	df 93       	push	r29
     dbc:	8c 01       	movw	r16, r24
     dbe:	c0 e0       	ldi	r28, 0x00	; 0
     dc0:	d0 e0       	ldi	r29, 0x00	; 0
     dc2:	c4 31       	cpi	r28, 0x14	; 20
     dc4:	d1 05       	cpc	r29, r1
     dc6:	34 f4       	brge	.+12     	; 0xdd4 <_ZN14ADF5610_Driver16ReadAllRegistersEv+0x20>
     dc8:	6c 2f       	mov	r22, r28
     dca:	c8 01       	movw	r24, r16
     dcc:	0e 94 a9 04 	call	0x952	; 0x952 <_ZN14ADF5610_Driver13ReadRegistersEh>
     dd0:	21 96       	adiw	r28, 0x01	; 1
     dd2:	f7 cf       	rjmp	.-18     	; 0xdc2 <_ZN14ADF5610_Driver16ReadAllRegistersEv+0xe>
     dd4:	df 91       	pop	r29
     dd6:	cf 91       	pop	r28
     dd8:	1f 91       	pop	r17
     dda:	0f 91       	pop	r16
     ddc:	08 95       	ret

00000dde <_ZN14ADF5610_Driver18CalculateVCOValuesEv>:
     dde:	3f 92       	push	r3
     de0:	4f 92       	push	r4
     de2:	5f 92       	push	r5
     de4:	6f 92       	push	r6
     de6:	7f 92       	push	r7
     de8:	8f 92       	push	r8
     dea:	9f 92       	push	r9
     dec:	af 92       	push	r10
     dee:	bf 92       	push	r11
     df0:	cf 92       	push	r12
     df2:	df 92       	push	r13
     df4:	ef 92       	push	r14
     df6:	ff 92       	push	r15
     df8:	0f 93       	push	r16
     dfa:	1f 93       	push	r17
     dfc:	cf 93       	push	r28
     dfe:	df 93       	push	r29
     e00:	cd b7       	in	r28, 0x3d	; 61
     e02:	de b7       	in	r29, 0x3e	; 62
     e04:	26 97       	sbiw	r28, 0x06	; 6
     e06:	cd bf       	out	0x3d, r28	; 61
     e08:	de bf       	out	0x3e, r29	; 62
     e0a:	8c 01       	movw	r16, r24
     e0c:	fc 01       	movw	r30, r24
     e0e:	ea 5c       	subi	r30, 0xCA	; 202
     e10:	fe 4f       	sbci	r31, 0xFE	; 254
     e12:	10 82       	st	Z, r1
     e14:	11 82       	std	Z+1, r1	; 0x01
     e16:	12 82       	std	Z+2, r1	; 0x02
     e18:	13 82       	std	Z+3, r1	; 0x03
     e1a:	37 97       	sbiw	r30, 0x07	; 7
     e1c:	c0 80       	ld	r12, Z
     e1e:	d1 80       	ldd	r13, Z+1	; 0x01
     e20:	e2 80       	ldd	r14, Z+2	; 0x02
     e22:	f3 80       	ldd	r15, Z+3	; 0x03
     e24:	a7 01       	movw	r20, r14
     e26:	96 01       	movw	r18, r12
     e28:	60 e0       	ldi	r22, 0x00	; 0
     e2a:	70 e2       	ldi	r23, 0x20	; 32
     e2c:	84 e6       	ldi	r24, 0x64	; 100
     e2e:	96 e4       	ldi	r25, 0x46	; 70
     e30:	0e 94 13 16 	call	0x2c26	; 0x2c26 <__divsf3>
     e34:	0e 94 d2 17 	call	0x2fa4	; 0x2fa4 <log>
     e38:	28 e1       	ldi	r18, 0x18	; 24
     e3a:	32 e7       	ldi	r19, 0x72	; 114
     e3c:	41 e3       	ldi	r20, 0x31	; 49
     e3e:	5f e3       	ldi	r21, 0x3F	; 63
     e40:	0e 94 13 16 	call	0x2c26	; 0x2c26 <__divsf3>
     e44:	0e 94 f8 16 	call	0x2df0	; 0x2df0 <floor>
     e48:	0e 94 85 16 	call	0x2d0a	; 0x2d0a <__fixsfsi>
     e4c:	27 e0       	ldi	r18, 0x07	; 7
     e4e:	32 2e       	mov	r3, r18
     e50:	36 1a       	sub	r3, r22
     e52:	07 2e       	mov	r0, r23
     e54:	00 0c       	add	r0, r0
     e56:	88 0b       	sbc	r24, r24
     e58:	99 0b       	sbc	r25, r25
     e5a:	0e 94 bd 16 	call	0x2d7a	; 0x2d7a <__floatsisf>
     e5e:	9b 01       	movw	r18, r22
     e60:	ac 01       	movw	r20, r24
     e62:	60 e0       	ldi	r22, 0x00	; 0
     e64:	70 e0       	ldi	r23, 0x00	; 0
     e66:	80 e0       	ldi	r24, 0x00	; 0
     e68:	90 e4       	ldi	r25, 0x40	; 64
     e6a:	0e 94 87 18 	call	0x310e	; 0x310e <pow>
     e6e:	9b 01       	movw	r18, r22
     e70:	ac 01       	movw	r20, r24
     e72:	c7 01       	movw	r24, r14
     e74:	b6 01       	movw	r22, r12
     e76:	0e 94 1a 18 	call	0x3034	; 0x3034 <__mulsf3>
     e7a:	20 e0       	ldi	r18, 0x00	; 0
     e7c:	30 e2       	ldi	r19, 0x20	; 32
     e7e:	44 e6       	ldi	r20, 0x64	; 100
     e80:	56 e4       	ldi	r21, 0x46	; 70
     e82:	0e 94 13 16 	call	0x2c26	; 0x2c26 <__divsf3>
     e86:	20 e0       	ldi	r18, 0x00	; 0
     e88:	30 e2       	ldi	r19, 0x20	; 32
     e8a:	44 ee       	ldi	r20, 0xE4	; 228
     e8c:	55 e4       	ldi	r21, 0x45	; 69
     e8e:	0e 94 1a 18 	call	0x3034	; 0x3034 <__mulsf3>
     e92:	69 83       	std	Y+1, r22	; 0x01
     e94:	7a 83       	std	Y+2, r23	; 0x02
     e96:	8b 83       	std	Y+3, r24	; 0x03
     e98:	9c 83       	std	Y+4, r25	; 0x04
     e9a:	20 e0       	ldi	r18, 0x00	; 0
     e9c:	30 e0       	ldi	r19, 0x00	; 0
     e9e:	4a e7       	ldi	r20, 0x7A	; 122
     ea0:	55 e4       	ldi	r21, 0x45	; 69
     ea2:	0e 94 0e 16 	call	0x2c1c	; 0x2c1c <__cmpsf2>
     ea6:	88 23       	and	r24, r24
     ea8:	2c f4       	brge	.+10     	; 0xeb4 <_ZN14ADF5610_Driver18CalculateVCOValuesEv+0xd6>
     eaa:	20 e0       	ldi	r18, 0x00	; 0
     eac:	30 e0       	ldi	r19, 0x00	; 0
     eae:	48 e4       	ldi	r20, 0x48	; 72
     eb0:	52 e4       	ldi	r21, 0x42	; 66
     eb2:	04 c0       	rjmp	.+8      	; 0xebc <_ZN14ADF5610_Driver18CalculateVCOValuesEv+0xde>
     eb4:	20 e0       	ldi	r18, 0x00	; 0
     eb6:	30 e0       	ldi	r19, 0x00	; 0
     eb8:	48 ec       	ldi	r20, 0xC8	; 200
     eba:	52 e4       	ldi	r21, 0x42	; 66
     ebc:	69 81       	ldd	r22, Y+1	; 0x01
     ebe:	7a 81       	ldd	r23, Y+2	; 0x02
     ec0:	8b 81       	ldd	r24, Y+3	; 0x03
     ec2:	9c 81       	ldd	r25, Y+4	; 0x04
     ec4:	0e 94 13 16 	call	0x2c26	; 0x2c26 <__divsf3>
     ec8:	2b 01       	movw	r4, r22
     eca:	3c 01       	movw	r6, r24
     ecc:	f8 01       	movw	r30, r16
     ece:	eb 5a       	subi	r30, 0xAB	; 171
     ed0:	fe 4f       	sbci	r31, 0xFE	; 254
     ed2:	60 83       	st	Z, r22
     ed4:	71 83       	std	Z+1, r23	; 0x01
     ed6:	82 83       	std	Z+2, r24	; 0x02
     ed8:	93 83       	std	Z+3, r25	; 0x03
     eda:	0e 94 f8 16 	call	0x2df0	; 0x2df0 <floor>
     ede:	6b 01       	movw	r12, r22
     ee0:	7c 01       	movw	r14, r24
     ee2:	f8 01       	movw	r30, r16
     ee4:	ef 5a       	subi	r30, 0xAF	; 175
     ee6:	fe 4f       	sbci	r31, 0xFE	; 254
     ee8:	60 83       	st	Z, r22
     eea:	71 83       	std	Z+1, r23	; 0x01
     eec:	82 83       	std	Z+2, r24	; 0x02
     eee:	93 83       	std	Z+3, r25	; 0x03
     ef0:	9b 01       	movw	r18, r22
     ef2:	ac 01       	movw	r20, r24
     ef4:	c3 01       	movw	r24, r6
     ef6:	b2 01       	movw	r22, r4
     ef8:	0e 94 a1 15 	call	0x2b42	; 0x2b42 <__subsf3>
     efc:	20 e0       	ldi	r18, 0x00	; 0
     efe:	30 e0       	ldi	r19, 0x00	; 0
     f00:	40 e8       	ldi	r20, 0x80	; 128
     f02:	5b e4       	ldi	r21, 0x4B	; 75
     f04:	0e 94 1a 18 	call	0x3034	; 0x3034 <__mulsf3>
     f08:	f8 01       	movw	r30, r16
     f0a:	e7 5a       	subi	r30, 0xA7	; 167
     f0c:	fe 4f       	sbci	r31, 0xFE	; 254
     f0e:	60 83       	st	Z, r22
     f10:	71 83       	std	Z+1, r23	; 0x01
     f12:	82 83       	std	Z+2, r24	; 0x02
     f14:	93 83       	std	Z+3, r25	; 0x03
     f16:	0e 94 8c 16 	call	0x2d18	; 0x2d18 <__fixunssfsi>
     f1a:	4b 01       	movw	r8, r22
     f1c:	5c 01       	movw	r10, r24
     f1e:	f8 01       	movw	r30, r16
     f20:	e3 5a       	subi	r30, 0xA3	; 163
     f22:	fe 4f       	sbci	r31, 0xFE	; 254
     f24:	60 83       	st	Z, r22
     f26:	71 83       	std	Z+1, r23	; 0x01
     f28:	82 83       	std	Z+2, r24	; 0x02
     f2a:	93 83       	std	Z+3, r25	; 0x03
     f2c:	1d 82       	std	Y+5, r1	; 0x05
     f2e:	1e 82       	std	Y+6, r1	; 0x06
     f30:	8d 81       	ldd	r24, Y+5	; 0x05
     f32:	9e 81       	ldd	r25, Y+6	; 0x06
     f34:	87 31       	cpi	r24, 0x17	; 23
     f36:	91 05       	cpc	r25, r1
     f38:	0c f0       	brlt	.+2      	; 0xf3c <_ZN14ADF5610_Driver18CalculateVCOValuesEv+0x15e>
     f3a:	6f c1       	rjmp	.+734    	; 0x121a <_ZN14ADF5610_Driver18CalculateVCOValuesEv+0x43c>
     f3c:	fc 01       	movw	r30, r24
     f3e:	33 97       	sbiw	r30, 0x03	; 3
     f40:	e4 31       	cpi	r30, 0x14	; 20
     f42:	f1 05       	cpc	r31, r1
     f44:	08 f0       	brcs	.+2      	; 0xf48 <_ZN14ADF5610_Driver18CalculateVCOValuesEv+0x16a>
     f46:	63 c1       	rjmp	.+710    	; 0x120e <_ZN14ADF5610_Driver18CalculateVCOValuesEv+0x430>
     f48:	ef 56       	subi	r30, 0x6F	; 111
     f4a:	ff 4f       	sbci	r31, 0xFF	; 255
     f4c:	0c 94 c7 1d 	jmp	0x3b8e	; 0x3b8e <__tablejump2__>
     f50:	6d 80       	ldd	r6, Y+5	; 0x05
     f52:	7e 80       	ldd	r7, Y+6	; 0x06
     f54:	66 0c       	add	r6, r6
     f56:	77 1c       	adc	r7, r7
     f58:	66 0c       	add	r6, r6
     f5a:	77 1c       	adc	r7, r7
     f5c:	60 0e       	add	r6, r16
     f5e:	71 1e       	adc	r7, r17
     f60:	9a e6       	ldi	r25, 0x6A	; 106
     f62:	69 0e       	add	r6, r25
     f64:	71 1c       	adc	r7, r1
     f66:	c7 01       	movw	r24, r14
     f68:	b6 01       	movw	r22, r12
     f6a:	0e 94 85 16 	call	0x2d0a	; 0x2d0a <__fixsfsi>
     f6e:	dc 01       	movw	r26, r24
     f70:	cb 01       	movw	r24, r22
     f72:	bb 27       	eor	r27, r27
     f74:	f3 01       	movw	r30, r6
     f76:	80 83       	st	Z, r24
     f78:	91 83       	std	Z+1, r25	; 0x01
     f7a:	a2 83       	std	Z+2, r26	; 0x02
     f7c:	b3 83       	std	Z+3, r27	; 0x03
     f7e:	47 c1       	rjmp	.+654    	; 0x120e <_ZN14ADF5610_Driver18CalculateVCOValuesEv+0x430>
     f80:	ed 81       	ldd	r30, Y+5	; 0x05
     f82:	fe 81       	ldd	r31, Y+6	; 0x06
     f84:	ee 0f       	add	r30, r30
     f86:	ff 1f       	adc	r31, r31
     f88:	ee 0f       	add	r30, r30
     f8a:	ff 1f       	adc	r31, r31
     f8c:	e0 0f       	add	r30, r16
     f8e:	f1 1f       	adc	r31, r17
     f90:	e6 59       	subi	r30, 0x96	; 150
     f92:	ff 4f       	sbci	r31, 0xFF	; 255
     f94:	d5 01       	movw	r26, r10
     f96:	c4 01       	movw	r24, r8
     f98:	bb 27       	eor	r27, r27
     f9a:	80 83       	st	Z, r24
     f9c:	91 83       	std	Z+1, r25	; 0x01
     f9e:	a2 83       	std	Z+2, r26	; 0x02
     fa0:	b3 83       	std	Z+3, r27	; 0x03
     fa2:	35 c1       	rjmp	.+618    	; 0x120e <_ZN14ADF5610_Driver18CalculateVCOValuesEv+0x430>
     fa4:	8d 81       	ldd	r24, Y+5	; 0x05
     fa6:	9e 81       	ldd	r25, Y+6	; 0x06
     fa8:	88 0f       	add	r24, r24
     faa:	99 1f       	adc	r25, r25
     fac:	88 0f       	add	r24, r24
     fae:	99 1f       	adc	r25, r25
     fb0:	80 0f       	add	r24, r16
     fb2:	91 1f       	adc	r25, r17
     fb4:	fc 01       	movw	r30, r24
     fb6:	ea 53       	subi	r30, 0x3A	; 58
     fb8:	ff 4f       	sbci	r31, 0xFF	; 255
     fba:	40 81       	ld	r20, Z
     fbc:	51 81       	ldd	r21, Z+1	; 0x01
     fbe:	62 81       	ldd	r22, Z+2	; 0x02
     fc0:	73 81       	ldd	r23, Z+3	; 0x03
     fc2:	ec 55       	subi	r30, 0x5C	; 92
     fc4:	f1 09       	sbc	r31, r1
     fc6:	40 83       	st	Z, r20
     fc8:	51 83       	std	Z+1, r21	; 0x01
     fca:	62 83       	std	Z+2, r22	; 0x02
     fcc:	73 83       	std	Z+3, r23	; 0x03
     fce:	1f c1       	rjmp	.+574    	; 0x120e <_ZN14ADF5610_Driver18CalculateVCOValuesEv+0x430>
     fd0:	20 e0       	ldi	r18, 0x00	; 0
     fd2:	30 e0       	ldi	r19, 0x00	; 0
     fd4:	4a e7       	ldi	r20, 0x7A	; 122
     fd6:	55 e4       	ldi	r21, 0x45	; 69
     fd8:	69 81       	ldd	r22, Y+1	; 0x01
     fda:	7a 81       	ldd	r23, Y+2	; 0x02
     fdc:	8b 81       	ldd	r24, Y+3	; 0x03
     fde:	9c 81       	ldd	r25, Y+4	; 0x04
     fe0:	0e 94 0e 16 	call	0x2c1c	; 0x2c1c <__cmpsf2>
     fe4:	88 23       	and	r24, r24
     fe6:	a4 f4       	brge	.+40     	; 0x1010 <_ZN14ADF5610_Driver18CalculateVCOValuesEv+0x232>
     fe8:	ed 81       	ldd	r30, Y+5	; 0x05
     fea:	fe 81       	ldd	r31, Y+6	; 0x06
     fec:	ee 0f       	add	r30, r30
     fee:	ff 1f       	adc	r31, r31
     ff0:	ee 0f       	add	r30, r30
     ff2:	ff 1f       	adc	r31, r31
     ff4:	e0 0f       	add	r30, r16
     ff6:	f1 1f       	adc	r31, r17
     ff8:	e6 59       	subi	r30, 0x96	; 150
     ffa:	ff 4f       	sbci	r31, 0xFF	; 255
     ffc:	80 81       	ld	r24, Z
     ffe:	91 81       	ldd	r25, Z+1	; 0x01
    1000:	a2 81       	ldd	r26, Z+2	; 0x02
    1002:	b3 81       	ldd	r27, Z+3	; 0x03
    1004:	a7 7f       	andi	r26, 0xF7	; 247
    1006:	80 83       	st	Z, r24
    1008:	91 83       	std	Z+1, r25	; 0x01
    100a:	a2 83       	std	Z+2, r26	; 0x02
    100c:	b3 83       	std	Z+3, r27	; 0x03
    100e:	ff c0       	rjmp	.+510    	; 0x120e <_ZN14ADF5610_Driver18CalculateVCOValuesEv+0x430>
    1010:	ed 81       	ldd	r30, Y+5	; 0x05
    1012:	fe 81       	ldd	r31, Y+6	; 0x06
    1014:	ee 0f       	add	r30, r30
    1016:	ff 1f       	adc	r31, r31
    1018:	ee 0f       	add	r30, r30
    101a:	ff 1f       	adc	r31, r31
    101c:	e0 0f       	add	r30, r16
    101e:	f1 1f       	adc	r31, r17
    1020:	e6 59       	subi	r30, 0x96	; 150
    1022:	ff 4f       	sbci	r31, 0xFF	; 255
    1024:	80 81       	ld	r24, Z
    1026:	91 81       	ldd	r25, Z+1	; 0x01
    1028:	a2 81       	ldd	r26, Z+2	; 0x02
    102a:	b3 81       	ldd	r27, Z+3	; 0x03
    102c:	a8 60       	ori	r26, 0x08	; 8
    102e:	80 83       	st	Z, r24
    1030:	91 83       	std	Z+1, r25	; 0x01
    1032:	a2 83       	std	Z+2, r26	; 0x02
    1034:	b3 83       	std	Z+3, r27	; 0x03
    1036:	eb c0       	rjmp	.+470    	; 0x120e <_ZN14ADF5610_Driver18CalculateVCOValuesEv+0x430>
    1038:	f8 01       	movw	r30, r16
    103a:	e2 58       	subi	r30, 0x82	; 130
    103c:	ff 4f       	sbci	r31, 0xFF	; 255
    103e:	80 81       	ld	r24, Z
    1040:	91 81       	ldd	r25, Z+1	; 0x01
    1042:	a2 81       	ldd	r26, Z+2	; 0x02
    1044:	b3 81       	ldd	r27, Z+3	; 0x03
    1046:	e8 54       	subi	r30, 0x48	; 72
    1048:	ff 4f       	sbci	r31, 0xFF	; 255
    104a:	80 83       	st	Z, r24
    104c:	91 83       	std	Z+1, r25	; 0x01
    104e:	a2 83       	std	Z+2, r26	; 0x02
    1050:	b3 83       	std	Z+3, r27	; 0x03
    1052:	ed 81       	ldd	r30, Y+5	; 0x05
    1054:	fe 81       	ldd	r31, Y+6	; 0x06
    1056:	ee 0f       	add	r30, r30
    1058:	ff 1f       	adc	r31, r31
    105a:	ee 0f       	add	r30, r30
    105c:	ff 1f       	adc	r31, r31
    105e:	e0 0f       	add	r30, r16
    1060:	f1 1f       	adc	r31, r17
    1062:	e6 59       	subi	r30, 0x96	; 150
    1064:	ff 4f       	sbci	r31, 0xFF	; 255
    1066:	80 83       	st	Z, r24
    1068:	91 83       	std	Z+1, r25	; 0x01
    106a:	a2 83       	std	Z+2, r26	; 0x02
    106c:	b3 83       	std	Z+3, r27	; 0x03
    106e:	cf c0       	rjmp	.+414    	; 0x120e <_ZN14ADF5610_Driver18CalculateVCOValuesEv+0x430>
    1070:	8d 81       	ldd	r24, Y+5	; 0x05
    1072:	9e 81       	ldd	r25, Y+6	; 0x06
    1074:	88 0f       	add	r24, r24
    1076:	99 1f       	adc	r25, r25
    1078:	88 0f       	add	r24, r24
    107a:	99 1f       	adc	r25, r25
    107c:	80 0f       	add	r24, r16
    107e:	91 1f       	adc	r25, r17
    1080:	fc 01       	movw	r30, r24
    1082:	ea 53       	subi	r30, 0x3A	; 58
    1084:	ff 4f       	sbci	r31, 0xFF	; 255
    1086:	40 81       	ld	r20, Z
    1088:	51 81       	ldd	r21, Z+1	; 0x01
    108a:	62 81       	ldd	r22, Z+2	; 0x02
    108c:	73 81       	ldd	r23, Z+3	; 0x03
    108e:	ec 55       	subi	r30, 0x5C	; 92
    1090:	f1 09       	sbc	r31, r1
    1092:	40 83       	st	Z, r20
    1094:	51 83       	std	Z+1, r21	; 0x01
    1096:	62 83       	std	Z+2, r22	; 0x02
    1098:	73 83       	std	Z+3, r23	; 0x03
    109a:	b9 c0       	rjmp	.+370    	; 0x120e <_ZN14ADF5610_Driver18CalculateVCOValuesEv+0x430>
    109c:	83 e0       	ldi	r24, 0x03	; 3
    109e:	90 e0       	ldi	r25, 0x00	; 0
    10a0:	80 31       	cpi	r24, 0x10	; 16
    10a2:	91 05       	cpc	r25, r1
    10a4:	0c f0       	brlt	.+2      	; 0x10a8 <_ZN14ADF5610_Driver18CalculateVCOValuesEv+0x2ca>
    10a6:	b3 c0       	rjmp	.+358    	; 0x120e <_ZN14ADF5610_Driver18CalculateVCOValuesEv+0x430>
    10a8:	87 30       	cpi	r24, 0x07	; 7
    10aa:	91 05       	cpc	r25, r1
    10ac:	0c f0       	brlt	.+2      	; 0x10b0 <_ZN14ADF5610_Driver18CalculateVCOValuesEv+0x2d2>
    10ae:	58 c0       	rjmp	.+176    	; 0x1160 <_ZN14ADF5610_Driver18CalculateVCOValuesEv+0x382>
    10b0:	ac 01       	movw	r20, r24
    10b2:	43 50       	subi	r20, 0x03	; 3
    10b4:	51 09       	sbc	r21, r1
    10b6:	22 e0       	ldi	r18, 0x02	; 2
    10b8:	30 e0       	ldi	r19, 0x00	; 0
    10ba:	02 c0       	rjmp	.+4      	; 0x10c0 <_ZN14ADF5610_Driver18CalculateVCOValuesEv+0x2e2>
    10bc:	35 95       	asr	r19
    10be:	27 95       	ror	r18
    10c0:	4a 95       	dec	r20
    10c2:	e2 f7       	brpl	.-8      	; 0x10bc <_ZN14ADF5610_Driver18CalculateVCOValuesEv+0x2de>
    10c4:	20 ff       	sbrs	r18, 0
    10c6:	24 c0       	rjmp	.+72     	; 0x1110 <_ZN14ADF5610_Driver18CalculateVCOValuesEv+0x332>
    10c8:	41 e0       	ldi	r20, 0x01	; 1
    10ca:	50 e0       	ldi	r21, 0x00	; 0
    10cc:	60 e0       	ldi	r22, 0x00	; 0
    10ce:	70 e0       	ldi	r23, 0x00	; 0
    10d0:	08 2e       	mov	r0, r24
    10d2:	04 c0       	rjmp	.+8      	; 0x10dc <_ZN14ADF5610_Driver18CalculateVCOValuesEv+0x2fe>
    10d4:	44 0f       	add	r20, r20
    10d6:	55 1f       	adc	r21, r21
    10d8:	66 1f       	adc	r22, r22
    10da:	77 1f       	adc	r23, r23
    10dc:	0a 94       	dec	r0
    10de:	d2 f7       	brpl	.-12     	; 0x10d4 <_ZN14ADF5610_Driver18CalculateVCOValuesEv+0x2f6>
    10e0:	2d 81       	ldd	r18, Y+5	; 0x05
    10e2:	3e 81       	ldd	r19, Y+6	; 0x06
    10e4:	22 0f       	add	r18, r18
    10e6:	33 1f       	adc	r19, r19
    10e8:	22 0f       	add	r18, r18
    10ea:	33 1f       	adc	r19, r19
    10ec:	20 0f       	add	r18, r16
    10ee:	31 1f       	adc	r19, r17
    10f0:	f9 01       	movw	r30, r18
    10f2:	e6 59       	subi	r30, 0x96	; 150
    10f4:	ff 4f       	sbci	r31, 0xFF	; 255
    10f6:	40 80       	ld	r4, Z
    10f8:	51 80       	ldd	r5, Z+1	; 0x01
    10fa:	62 80       	ldd	r6, Z+2	; 0x02
    10fc:	73 80       	ldd	r7, Z+3	; 0x03
    10fe:	44 29       	or	r20, r4
    1100:	55 29       	or	r21, r5
    1102:	66 29       	or	r22, r6
    1104:	77 29       	or	r23, r7
    1106:	40 83       	st	Z, r20
    1108:	51 83       	std	Z+1, r21	; 0x01
    110a:	62 83       	std	Z+2, r22	; 0x02
    110c:	73 83       	std	Z+3, r23	; 0x03
    110e:	7d c0       	rjmp	.+250    	; 0x120a <_ZN14ADF5610_Driver18CalculateVCOValuesEv+0x42c>
    1110:	41 e0       	ldi	r20, 0x01	; 1
    1112:	50 e0       	ldi	r21, 0x00	; 0
    1114:	60 e0       	ldi	r22, 0x00	; 0
    1116:	70 e0       	ldi	r23, 0x00	; 0
    1118:	08 2e       	mov	r0, r24
    111a:	04 c0       	rjmp	.+8      	; 0x1124 <_ZN14ADF5610_Driver18CalculateVCOValuesEv+0x346>
    111c:	44 0f       	add	r20, r20
    111e:	55 1f       	adc	r21, r21
    1120:	66 1f       	adc	r22, r22
    1122:	77 1f       	adc	r23, r23
    1124:	0a 94       	dec	r0
    1126:	d2 f7       	brpl	.-12     	; 0x111c <_ZN14ADF5610_Driver18CalculateVCOValuesEv+0x33e>
    1128:	2d 81       	ldd	r18, Y+5	; 0x05
    112a:	3e 81       	ldd	r19, Y+6	; 0x06
    112c:	22 0f       	add	r18, r18
    112e:	33 1f       	adc	r19, r19
    1130:	22 0f       	add	r18, r18
    1132:	33 1f       	adc	r19, r19
    1134:	20 0f       	add	r18, r16
    1136:	31 1f       	adc	r19, r17
    1138:	f9 01       	movw	r30, r18
    113a:	e6 59       	subi	r30, 0x96	; 150
    113c:	ff 4f       	sbci	r31, 0xFF	; 255
    113e:	40 95       	com	r20
    1140:	50 95       	com	r21
    1142:	60 95       	com	r22
    1144:	70 95       	com	r23
    1146:	40 80       	ld	r4, Z
    1148:	51 80       	ldd	r5, Z+1	; 0x01
    114a:	62 80       	ldd	r6, Z+2	; 0x02
    114c:	73 80       	ldd	r7, Z+3	; 0x03
    114e:	44 21       	and	r20, r4
    1150:	55 21       	and	r21, r5
    1152:	66 21       	and	r22, r6
    1154:	77 21       	and	r23, r7
    1156:	40 83       	st	Z, r20
    1158:	51 83       	std	Z+1, r21	; 0x01
    115a:	62 83       	std	Z+2, r22	; 0x02
    115c:	73 83       	std	Z+3, r23	; 0x03
    115e:	55 c0       	rjmp	.+170    	; 0x120a <_ZN14ADF5610_Driver18CalculateVCOValuesEv+0x42c>
    1160:	23 2d       	mov	r18, r3
    1162:	30 e0       	ldi	r19, 0x00	; 0
    1164:	ac 01       	movw	r20, r24
    1166:	47 50       	subi	r20, 0x07	; 7
    1168:	51 09       	sbc	r21, r1
    116a:	02 c0       	rjmp	.+4      	; 0x1170 <_ZN14ADF5610_Driver18CalculateVCOValuesEv+0x392>
    116c:	35 95       	asr	r19
    116e:	27 95       	ror	r18
    1170:	4a 95       	dec	r20
    1172:	e2 f7       	brpl	.-8      	; 0x116c <_ZN14ADF5610_Driver18CalculateVCOValuesEv+0x38e>
    1174:	20 ff       	sbrs	r18, 0
    1176:	23 c0       	rjmp	.+70     	; 0x11be <_ZN14ADF5610_Driver18CalculateVCOValuesEv+0x3e0>
    1178:	41 e0       	ldi	r20, 0x01	; 1
    117a:	50 e0       	ldi	r21, 0x00	; 0
    117c:	60 e0       	ldi	r22, 0x00	; 0
    117e:	70 e0       	ldi	r23, 0x00	; 0
    1180:	08 2e       	mov	r0, r24
    1182:	04 c0       	rjmp	.+8      	; 0x118c <_ZN14ADF5610_Driver18CalculateVCOValuesEv+0x3ae>
    1184:	44 0f       	add	r20, r20
    1186:	55 1f       	adc	r21, r21
    1188:	66 1f       	adc	r22, r22
    118a:	77 1f       	adc	r23, r23
    118c:	0a 94       	dec	r0
    118e:	d2 f7       	brpl	.-12     	; 0x1184 <_ZN14ADF5610_Driver18CalculateVCOValuesEv+0x3a6>
    1190:	ed 81       	ldd	r30, Y+5	; 0x05
    1192:	fe 81       	ldd	r31, Y+6	; 0x06
    1194:	ee 0f       	add	r30, r30
    1196:	ff 1f       	adc	r31, r31
    1198:	ee 0f       	add	r30, r30
    119a:	ff 1f       	adc	r31, r31
    119c:	e0 0f       	add	r30, r16
    119e:	f1 1f       	adc	r31, r17
    11a0:	e6 59       	subi	r30, 0x96	; 150
    11a2:	ff 4f       	sbci	r31, 0xFF	; 255
    11a4:	40 80       	ld	r4, Z
    11a6:	51 80       	ldd	r5, Z+1	; 0x01
    11a8:	62 80       	ldd	r6, Z+2	; 0x02
    11aa:	73 80       	ldd	r7, Z+3	; 0x03
    11ac:	44 29       	or	r20, r4
    11ae:	55 29       	or	r21, r5
    11b0:	66 29       	or	r22, r6
    11b2:	77 29       	or	r23, r7
    11b4:	40 83       	st	Z, r20
    11b6:	51 83       	std	Z+1, r21	; 0x01
    11b8:	62 83       	std	Z+2, r22	; 0x02
    11ba:	73 83       	std	Z+3, r23	; 0x03
    11bc:	26 c0       	rjmp	.+76     	; 0x120a <_ZN14ADF5610_Driver18CalculateVCOValuesEv+0x42c>
    11be:	41 e0       	ldi	r20, 0x01	; 1
    11c0:	50 e0       	ldi	r21, 0x00	; 0
    11c2:	60 e0       	ldi	r22, 0x00	; 0
    11c4:	70 e0       	ldi	r23, 0x00	; 0
    11c6:	08 2e       	mov	r0, r24
    11c8:	04 c0       	rjmp	.+8      	; 0x11d2 <_ZN14ADF5610_Driver18CalculateVCOValuesEv+0x3f4>
    11ca:	44 0f       	add	r20, r20
    11cc:	55 1f       	adc	r21, r21
    11ce:	66 1f       	adc	r22, r22
    11d0:	77 1f       	adc	r23, r23
    11d2:	0a 94       	dec	r0
    11d4:	d2 f7       	brpl	.-12     	; 0x11ca <_ZN14ADF5610_Driver18CalculateVCOValuesEv+0x3ec>
    11d6:	ed 81       	ldd	r30, Y+5	; 0x05
    11d8:	fe 81       	ldd	r31, Y+6	; 0x06
    11da:	ee 0f       	add	r30, r30
    11dc:	ff 1f       	adc	r31, r31
    11de:	ee 0f       	add	r30, r30
    11e0:	ff 1f       	adc	r31, r31
    11e2:	e0 0f       	add	r30, r16
    11e4:	f1 1f       	adc	r31, r17
    11e6:	e6 59       	subi	r30, 0x96	; 150
    11e8:	ff 4f       	sbci	r31, 0xFF	; 255
    11ea:	40 95       	com	r20
    11ec:	50 95       	com	r21
    11ee:	60 95       	com	r22
    11f0:	70 95       	com	r23
    11f2:	40 80       	ld	r4, Z
    11f4:	51 80       	ldd	r5, Z+1	; 0x01
    11f6:	62 80       	ldd	r6, Z+2	; 0x02
    11f8:	73 80       	ldd	r7, Z+3	; 0x03
    11fa:	44 21       	and	r20, r4
    11fc:	55 21       	and	r21, r5
    11fe:	66 21       	and	r22, r6
    1200:	77 21       	and	r23, r7
    1202:	40 83       	st	Z, r20
    1204:	51 83       	std	Z+1, r21	; 0x01
    1206:	62 83       	std	Z+2, r22	; 0x02
    1208:	73 83       	std	Z+3, r23	; 0x03
    120a:	01 96       	adiw	r24, 0x01	; 1
    120c:	49 cf       	rjmp	.-366    	; 0x10a0 <_ZN14ADF5610_Driver18CalculateVCOValuesEv+0x2c2>
    120e:	8d 81       	ldd	r24, Y+5	; 0x05
    1210:	9e 81       	ldd	r25, Y+6	; 0x06
    1212:	01 96       	adiw	r24, 0x01	; 1
    1214:	8d 83       	std	Y+5, r24	; 0x05
    1216:	9e 83       	std	Y+6, r25	; 0x06
    1218:	8b ce       	rjmp	.-746    	; 0xf30 <_ZN14ADF5610_Driver18CalculateVCOValuesEv+0x152>
    121a:	26 96       	adiw	r28, 0x06	; 6
    121c:	cd bf       	out	0x3d, r28	; 61
    121e:	de bf       	out	0x3e, r29	; 62
    1220:	df 91       	pop	r29
    1222:	cf 91       	pop	r28
    1224:	1f 91       	pop	r17
    1226:	0f 91       	pop	r16
    1228:	ff 90       	pop	r15
    122a:	ef 90       	pop	r14
    122c:	df 90       	pop	r13
    122e:	cf 90       	pop	r12
    1230:	bf 90       	pop	r11
    1232:	af 90       	pop	r10
    1234:	9f 90       	pop	r9
    1236:	8f 90       	pop	r8
    1238:	7f 90       	pop	r7
    123a:	6f 90       	pop	r6
    123c:	5f 90       	pop	r5
    123e:	4f 90       	pop	r4
    1240:	3f 90       	pop	r3
    1242:	08 95       	ret

00001244 <_ZN14ADF5610_Driver16SetNextFrequencyEv>:
    1244:	0e 94 ef 06 	call	0xdde	; 0xdde <_ZN14ADF5610_Driver18CalculateVCOValuesEv>
    1248:	08 95       	ret

0000124a <_ZN14ADF5610_Driver18SetTargetFrequencyEf>:
    124a:	fc 01       	movw	r30, r24
    124c:	e1 5d       	subi	r30, 0xD1	; 209
    124e:	fe 4f       	sbci	r31, 0xFE	; 254
    1250:	40 83       	st	Z, r20
    1252:	51 83       	std	Z+1, r21	; 0x01
    1254:	62 83       	std	Z+2, r22	; 0x02
    1256:	73 83       	std	Z+3, r23	; 0x03
    1258:	0e 94 ef 06 	call	0xdde	; 0xdde <_ZN14ADF5610_Driver18CalculateVCOValuesEv>
    125c:	08 95       	ret

0000125e <_ZN14ADF5610_Driver6usleepEl>:
    125e:	8f 92       	push	r8
    1260:	9f 92       	push	r9
    1262:	af 92       	push	r10
    1264:	bf 92       	push	r11
    1266:	cf 92       	push	r12
    1268:	df 92       	push	r13
    126a:	ef 92       	push	r14
    126c:	ff 92       	push	r15
    126e:	40 3d       	cpi	r20, 0xD0	; 208
    1270:	87 e0       	ldi	r24, 0x07	; 7
    1272:	58 07       	cpc	r21, r24
    1274:	61 05       	cpc	r22, r1
    1276:	71 05       	cpc	r23, r1
    1278:	0c f4       	brge	.+2      	; 0x127c <_ZN14ADF5610_Driver6usleepEl+0x1e>
    127a:	47 c0       	rjmp	.+142    	; 0x130a <_ZN14ADF5610_Driver6usleepEl+0xac>
    127c:	cb 01       	movw	r24, r22
    127e:	ba 01       	movw	r22, r20
    1280:	28 ee       	ldi	r18, 0xE8	; 232
    1282:	33 e0       	ldi	r19, 0x03	; 3
    1284:	40 e0       	ldi	r20, 0x00	; 0
    1286:	50 e0       	ldi	r21, 0x00	; 0
    1288:	0e 94 a8 1d 	call	0x3b50	; 0x3b50 <__divmodsi4>
    128c:	ca 01       	movw	r24, r20
    128e:	b9 01       	movw	r22, r18
    1290:	0e 94 bd 16 	call	0x2d7a	; 0x2d7a <__floatsisf>
    1294:	4b 01       	movw	r8, r22
    1296:	5c 01       	movw	r10, r24
    1298:	20 e0       	ldi	r18, 0x00	; 0
    129a:	30 e8       	ldi	r19, 0x80	; 128
    129c:	4b eb       	ldi	r20, 0xBB	; 187
    129e:	55 e4       	ldi	r21, 0x45	; 69
    12a0:	0e 94 1a 18 	call	0x3034	; 0x3034 <__mulsf3>
    12a4:	6b 01       	movw	r12, r22
    12a6:	7c 01       	movw	r14, r24
    12a8:	20 e0       	ldi	r18, 0x00	; 0
    12aa:	30 e0       	ldi	r19, 0x00	; 0
    12ac:	40 e8       	ldi	r20, 0x80	; 128
    12ae:	5f e3       	ldi	r21, 0x3F	; 63
    12b0:	0e 94 0e 16 	call	0x2c1c	; 0x2c1c <__cmpsf2>
    12b4:	88 23       	and	r24, r24
    12b6:	1c f1       	brlt	.+70     	; 0x12fe <_ZN14ADF5610_Driver6usleepEl+0xa0>
    12b8:	20 e0       	ldi	r18, 0x00	; 0
    12ba:	3f ef       	ldi	r19, 0xFF	; 255
    12bc:	4f e7       	ldi	r20, 0x7F	; 127
    12be:	57 e4       	ldi	r21, 0x47	; 71
    12c0:	c7 01       	movw	r24, r14
    12c2:	b6 01       	movw	r22, r12
    12c4:	0e 94 c5 17 	call	0x2f8a	; 0x2f8a <__gesf2>
    12c8:	18 16       	cp	r1, r24
    12ca:	a4 f4       	brge	.+40     	; 0x12f4 <_ZN14ADF5610_Driver6usleepEl+0x96>
    12cc:	20 e0       	ldi	r18, 0x00	; 0
    12ce:	30 e0       	ldi	r19, 0x00	; 0
    12d0:	40 e2       	ldi	r20, 0x20	; 32
    12d2:	51 e4       	ldi	r21, 0x41	; 65
    12d4:	c5 01       	movw	r24, r10
    12d6:	b4 01       	movw	r22, r8
    12d8:	0e 94 1a 18 	call	0x3034	; 0x3034 <__mulsf3>
    12dc:	0e 94 8c 16 	call	0x2d18	; 0x2d18 <__fixunssfsi>
    12e0:	61 15       	cp	r22, r1
    12e2:	71 05       	cpc	r23, r1
    12e4:	b1 f0       	breq	.+44     	; 0x1312 <_ZN14ADF5610_Driver6usleepEl+0xb4>
    12e6:	88 e5       	ldi	r24, 0x58	; 88
    12e8:	92 e0       	ldi	r25, 0x02	; 2
    12ea:	01 97       	sbiw	r24, 0x01	; 1
    12ec:	f1 f7       	brne	.-4      	; 0x12ea <_ZN14ADF5610_Driver6usleepEl+0x8c>
    12ee:	61 50       	subi	r22, 0x01	; 1
    12f0:	71 09       	sbc	r23, r1
    12f2:	f6 cf       	rjmp	.-20     	; 0x12e0 <_ZN14ADF5610_Driver6usleepEl+0x82>
    12f4:	c7 01       	movw	r24, r14
    12f6:	b6 01       	movw	r22, r12
    12f8:	0e 94 8c 16 	call	0x2d18	; 0x2d18 <__fixunssfsi>
    12fc:	02 c0       	rjmp	.+4      	; 0x1302 <_ZN14ADF5610_Driver6usleepEl+0xa4>
    12fe:	61 e0       	ldi	r22, 0x01	; 1
    1300:	70 e0       	ldi	r23, 0x00	; 0
    1302:	cb 01       	movw	r24, r22
    1304:	01 97       	sbiw	r24, 0x01	; 1
    1306:	f1 f7       	brne	.-4      	; 0x1304 <_ZN14ADF5610_Driver6usleepEl+0xa6>
    1308:	04 c0       	rjmp	.+8      	; 0x1312 <_ZN14ADF5610_Driver6usleepEl+0xb4>
    130a:	80 e7       	ldi	r24, 0x70	; 112
    130c:	97 e1       	ldi	r25, 0x17	; 23
    130e:	01 97       	sbiw	r24, 0x01	; 1
    1310:	f1 f7       	brne	.-4      	; 0x130e <_ZN14ADF5610_Driver6usleepEl+0xb0>
    1312:	ff 90       	pop	r15
    1314:	ef 90       	pop	r14
    1316:	df 90       	pop	r13
    1318:	cf 90       	pop	r12
    131a:	bf 90       	pop	r11
    131c:	af 90       	pop	r10
    131e:	9f 90       	pop	r9
    1320:	8f 90       	pop	r8
    1322:	08 95       	ret

00001324 <_ZN14ADF5610_Driver14WriteRegistersEh>:
    1324:	ef 92       	push	r14
    1326:	ff 92       	push	r15
    1328:	0f 93       	push	r16
    132a:	1f 93       	push	r17
    132c:	cf 93       	push	r28
    132e:	df 93       	push	r29
    1330:	fc 01       	movw	r30, r24
    1332:	e6 5c       	subi	r30, 0xC6	; 198
    1334:	fe 4f       	sbci	r31, 0xFE	; 254
    1336:	10 82       	st	Z, r1
    1338:	78 97       	sbiw	r30, 0x18	; 24
    133a:	10 82       	st	Z, r1
    133c:	11 82       	std	Z+1, r1	; 0x01
    133e:	12 82       	std	Z+2, r1	; 0x02
    1340:	13 82       	std	Z+3, r1	; 0x03
    1342:	64 31       	cpi	r22, 0x14	; 20
    1344:	e0 f0       	brcs	.+56     	; 0x137e <_ZN14ADF5610_Driver14WriteRegistersEh+0x5a>
    1346:	67 31       	cpi	r22, 0x17	; 23
    1348:	a0 f0       	brcs	.+40     	; 0x1372 <_ZN14ADF5610_Driver14WriteRegistersEh+0x4e>
    134a:	68 31       	cpi	r22, 0x18	; 24
    134c:	60 f0       	brcs	.+24     	; 0x1366 <_ZN14ADF5610_Driver14WriteRegistersEh+0x42>
    134e:	68 31       	cpi	r22, 0x18	; 24
    1350:	21 f4       	brne	.+8      	; 0x135a <_ZN14ADF5610_Driver14WriteRegistersEh+0x36>
    1352:	24 e0       	ldi	r18, 0x04	; 4
    1354:	78 96       	adiw	r30, 0x18	; 24
    1356:	20 83       	st	Z, r18
    1358:	16 c0       	rjmp	.+44     	; 0x1386 <_ZN14ADF5610_Driver14WriteRegistersEh+0x62>
    135a:	23 e0       	ldi	r18, 0x03	; 3
    135c:	fc 01       	movw	r30, r24
    135e:	e6 5c       	subi	r30, 0xC6	; 198
    1360:	fe 4f       	sbci	r31, 0xFE	; 254
    1362:	20 83       	st	Z, r18
    1364:	10 c0       	rjmp	.+32     	; 0x1386 <_ZN14ADF5610_Driver14WriteRegistersEh+0x62>
    1366:	23 e0       	ldi	r18, 0x03	; 3
    1368:	fc 01       	movw	r30, r24
    136a:	e6 5c       	subi	r30, 0xC6	; 198
    136c:	fe 4f       	sbci	r31, 0xFE	; 254
    136e:	20 83       	st	Z, r18
    1370:	0a c0       	rjmp	.+20     	; 0x1386 <_ZN14ADF5610_Driver14WriteRegistersEh+0x62>
    1372:	25 e0       	ldi	r18, 0x05	; 5
    1374:	fc 01       	movw	r30, r24
    1376:	e6 5c       	subi	r30, 0xC6	; 198
    1378:	fe 4f       	sbci	r31, 0xFE	; 254
    137a:	20 83       	st	Z, r18
    137c:	04 c0       	rjmp	.+8      	; 0x1386 <_ZN14ADF5610_Driver14WriteRegistersEh+0x62>
    137e:	fc 01       	movw	r30, r24
    1380:	e6 5c       	subi	r30, 0xC6	; 198
    1382:	fe 4f       	sbci	r31, 0xFE	; 254
    1384:	60 83       	st	Z, r22
    1386:	fc 01       	movw	r30, r24
    1388:	e6 5c       	subi	r30, 0xC6	; 198
    138a:	fe 4f       	sbci	r31, 0xFE	; 254
    138c:	20 81       	ld	r18, Z
    138e:	20 51       	subi	r18, 0x10	; 16
    1390:	24 30       	cpi	r18, 0x04	; 4
    1392:	08 f4       	brcc	.+2      	; 0x1396 <_ZN14ADF5610_Driver14WriteRegistersEh+0x72>
    1394:	95 c0       	rjmp	.+298    	; 0x14c0 <_ZN14ADF5610_Driver14WriteRegistersEh+0x19c>
    1396:	c6 2f       	mov	r28, r22
    1398:	8c 01       	movw	r16, r24
    139a:	60 e0       	ldi	r22, 0x00	; 0
    139c:	dc 01       	movw	r26, r24
    139e:	14 96       	adiw	r26, 0x04	; 4
    13a0:	8d 91       	ld	r24, X+
    13a2:	9c 91       	ld	r25, X
    13a4:	15 97       	sbiw	r26, 0x05	; 5
    13a6:	0e 94 ab 0c 	call	0x1956	; 0x1956 <_ZN13SPI_Syn_Class5SetCSEb>
    13aa:	f8 01       	movw	r30, r16
    13ac:	e6 5c       	subi	r30, 0xC6	; 198
    13ae:	fe 4f       	sbci	r31, 0xFE	; 254
    13b0:	80 81       	ld	r24, Z
    13b2:	90 e0       	ldi	r25, 0x00	; 0
    13b4:	a0 e0       	ldi	r26, 0x00	; 0
    13b6:	b0 e0       	ldi	r27, 0x00	; 0
    13b8:	88 0f       	add	r24, r24
    13ba:	99 1f       	adc	r25, r25
    13bc:	aa 1f       	adc	r26, r26
    13be:	bb 1f       	adc	r27, r27
    13c0:	88 0f       	add	r24, r24
    13c2:	99 1f       	adc	r25, r25
    13c4:	aa 1f       	adc	r26, r26
    13c6:	bb 1f       	adc	r27, r27
    13c8:	88 0f       	add	r24, r24
    13ca:	99 1f       	adc	r25, r25
    13cc:	aa 1f       	adc	r26, r26
    13ce:	bb 1f       	adc	r27, r27
    13d0:	d0 e0       	ldi	r29, 0x00	; 0
    13d2:	fe 01       	movw	r30, r28
    13d4:	ee 0f       	add	r30, r30
    13d6:	ff 1f       	adc	r31, r31
    13d8:	ee 0f       	add	r30, r30
    13da:	ff 1f       	adc	r31, r31
    13dc:	e0 0f       	add	r30, r16
    13de:	f1 1f       	adc	r31, r17
    13e0:	e6 59       	subi	r30, 0x96	; 150
    13e2:	ff 4f       	sbci	r31, 0xFF	; 255
    13e4:	40 81       	ld	r20, Z
    13e6:	51 81       	ldd	r21, Z+1	; 0x01
    13e8:	62 81       	ldd	r22, Z+2	; 0x02
    13ea:	73 81       	ldd	r23, Z+3	; 0x03
    13ec:	76 2f       	mov	r23, r22
    13ee:	65 2f       	mov	r22, r21
    13f0:	54 2f       	mov	r21, r20
    13f2:	44 27       	eor	r20, r20
    13f4:	9a 01       	movw	r18, r20
    13f6:	ab 01       	movw	r20, r22
    13f8:	28 2b       	or	r18, r24
    13fa:	39 2b       	or	r19, r25
    13fc:	4a 2b       	or	r20, r26
    13fe:	5b 2b       	or	r21, r27
    1400:	f8 01       	movw	r30, r16
    1402:	ee 5d       	subi	r30, 0xDE	; 222
    1404:	fe 4f       	sbci	r31, 0xFE	; 254
    1406:	20 83       	st	Z, r18
    1408:	31 83       	std	Z+1, r19	; 0x01
    140a:	42 83       	std	Z+2, r20	; 0x02
    140c:	53 83       	std	Z+3, r21	; 0x03
    140e:	78 01       	movw	r14, r16
    1410:	bd eb       	ldi	r27, 0xBD	; 189
    1412:	eb 1a       	sub	r14, r27
    1414:	be ef       	ldi	r27, 0xFE	; 254
    1416:	fb 0a       	sbc	r15, r27
    1418:	b7 01       	movw	r22, r14
    141a:	c8 01       	movw	r24, r16
    141c:	0e 94 7b 04 	call	0x8f6	; 0x8f6 <_ZN14ADF5610_Driver23ConvertU32FourByteArrayEPhm>
    1420:	44 e0       	ldi	r20, 0x04	; 4
    1422:	b7 01       	movw	r22, r14
    1424:	f8 01       	movw	r30, r16
    1426:	84 81       	ldd	r24, Z+4	; 0x04
    1428:	95 81       	ldd	r25, Z+5	; 0x05
    142a:	0e 94 95 0c 	call	0x192a	; 0x192a <_ZN13SPI_Syn_Class5WriteEPKhh>
    142e:	41 e0       	ldi	r20, 0x01	; 1
    1430:	50 e0       	ldi	r21, 0x00	; 0
    1432:	60 e0       	ldi	r22, 0x00	; 0
    1434:	70 e0       	ldi	r23, 0x00	; 0
    1436:	c8 01       	movw	r24, r16
    1438:	0e 94 2f 09 	call	0x125e	; 0x125e <_ZN14ADF5610_Driver6usleepEl>
    143c:	61 e0       	ldi	r22, 0x01	; 1
    143e:	d8 01       	movw	r26, r16
    1440:	14 96       	adiw	r26, 0x04	; 4
    1442:	8d 91       	ld	r24, X+
    1444:	9c 91       	ld	r25, X
    1446:	15 97       	sbiw	r26, 0x05	; 5
    1448:	0e 94 ab 0c 	call	0x1956	; 0x1956 <_ZN13SPI_Syn_Class5SetCSEb>
    144c:	f8 01       	movw	r30, r16
    144e:	eb 5c       	subi	r30, 0xCB	; 203
    1450:	fe 4f       	sbci	r31, 0xFE	; 254
    1452:	80 81       	ld	r24, Z
    1454:	81 11       	cpse	r24, r1
    1456:	34 c0       	rjmp	.+104    	; 0x14c0 <_ZN14ADF5610_Driver14WriteRegistersEh+0x19c>
    1458:	41 e0       	ldi	r20, 0x01	; 1
    145a:	50 e0       	ldi	r21, 0x00	; 0
    145c:	60 e0       	ldi	r22, 0x00	; 0
    145e:	70 e0       	ldi	r23, 0x00	; 0
    1460:	c8 01       	movw	r24, r16
    1462:	0e 94 2f 09 	call	0x125e	; 0x125e <_ZN14ADF5610_Driver6usleepEl>
    1466:	78 01       	movw	r14, r16
    1468:	b6 ec       	ldi	r27, 0xC6	; 198
    146a:	eb 1a       	sub	r14, r27
    146c:	be ef       	ldi	r27, 0xFE	; 254
    146e:	fb 0a       	sbc	r15, r27
    1470:	f7 01       	movw	r30, r14
    1472:	60 81       	ld	r22, Z
    1474:	c8 01       	movw	r24, r16
    1476:	0e 94 a9 04 	call	0x952	; 0x952 <_ZN14ADF5610_Driver13ReadRegistersEh>
    147a:	d7 01       	movw	r26, r14
    147c:	ec 91       	ld	r30, X
    147e:	f0 e0       	ldi	r31, 0x00	; 0
    1480:	ee 0f       	add	r30, r30
    1482:	ff 1f       	adc	r31, r31
    1484:	ee 0f       	add	r30, r30
    1486:	ff 1f       	adc	r31, r31
    1488:	e0 0f       	add	r30, r16
    148a:	f1 1f       	adc	r31, r17
    148c:	46 85       	ldd	r20, Z+14	; 0x0e
    148e:	57 85       	ldd	r21, Z+15	; 0x0f
    1490:	60 89       	ldd	r22, Z+16	; 0x10
    1492:	71 89       	ldd	r23, Z+17	; 0x11
    1494:	fe 01       	movw	r30, r28
    1496:	ee 0f       	add	r30, r30
    1498:	ff 1f       	adc	r31, r31
    149a:	ee 0f       	add	r30, r30
    149c:	ff 1f       	adc	r31, r31
    149e:	e0 0f       	add	r30, r16
    14a0:	f1 1f       	adc	r31, r17
    14a2:	e6 59       	subi	r30, 0x96	; 150
    14a4:	ff 4f       	sbci	r31, 0xFF	; 255
    14a6:	80 81       	ld	r24, Z
    14a8:	91 81       	ldd	r25, Z+1	; 0x01
    14aa:	a2 81       	ldd	r26, Z+2	; 0x02
    14ac:	b3 81       	ldd	r27, Z+3	; 0x03
    14ae:	48 17       	cp	r20, r24
    14b0:	59 07       	cpc	r21, r25
    14b2:	6a 07       	cpc	r22, r26
    14b4:	7b 07       	cpc	r23, r27
    14b6:	21 f0       	breq	.+8      	; 0x14c0 <_ZN14ADF5610_Driver14WriteRegistersEh+0x19c>
    14b8:	be 01       	movw	r22, r28
    14ba:	c8 01       	movw	r24, r16
    14bc:	0e 94 f3 03 	call	0x7e6	; 0x7e6 <_ZN14ADF5610_Driver13ShowRegistersEi>
    14c0:	df 91       	pop	r29
    14c2:	cf 91       	pop	r28
    14c4:	1f 91       	pop	r17
    14c6:	0f 91       	pop	r16
    14c8:	ff 90       	pop	r15
    14ca:	ef 90       	pop	r14
    14cc:	08 95       	ret

000014ce <_ZN14ADF5610_Driver25CompleteConfigurationFlowEj>:
    14ce:	ef 92       	push	r14
    14d0:	ff 92       	push	r15
    14d2:	0f 93       	push	r16
    14d4:	1f 93       	push	r17
    14d6:	cf 93       	push	r28
    14d8:	df 93       	push	r29
    14da:	8c 01       	movw	r16, r24
    14dc:	eb 01       	movw	r28, r22
    14de:	c4 31       	cpi	r28, 0x14	; 20
    14e0:	d1 05       	cpc	r29, r1
    14e2:	fc f4       	brge	.+62     	; 0x1522 <_ZN14ADF5610_Driver25CompleteConfigurationFlowEj+0x54>
    14e4:	c5 30       	cpi	r28, 0x05	; 5
    14e6:	d1 05       	cpc	r29, r1
    14e8:	b1 f4       	brne	.+44     	; 0x1516 <_ZN14ADF5610_Driver25CompleteConfigurationFlowEj+0x48>
    14ea:	0f 2e       	mov	r0, r31
    14ec:	f6 e1       	ldi	r31, 0x16	; 22
    14ee:	ef 2e       	mov	r14, r31
    14f0:	f1 2c       	mov	r15, r1
    14f2:	f0 2d       	mov	r31, r0
    14f4:	84 e1       	ldi	r24, 0x14	; 20
    14f6:	e8 16       	cp	r14, r24
    14f8:	f1 04       	cpc	r15, r1
    14fa:	44 f0       	brlt	.+16     	; 0x150c <_ZN14ADF5610_Driver25CompleteConfigurationFlowEj+0x3e>
    14fc:	6e 2d       	mov	r22, r14
    14fe:	c8 01       	movw	r24, r16
    1500:	0e 94 92 09 	call	0x1324	; 0x1324 <_ZN14ADF5610_Driver14WriteRegistersEh>
    1504:	81 e0       	ldi	r24, 0x01	; 1
    1506:	e8 1a       	sub	r14, r24
    1508:	f1 08       	sbc	r15, r1
    150a:	f4 cf       	rjmp	.-24     	; 0x14f4 <_ZN14ADF5610_Driver25CompleteConfigurationFlowEj+0x26>
    150c:	65 e0       	ldi	r22, 0x05	; 5
    150e:	c8 01       	movw	r24, r16
    1510:	0e 94 92 09 	call	0x1324	; 0x1324 <_ZN14ADF5610_Driver14WriteRegistersEh>
    1514:	04 c0       	rjmp	.+8      	; 0x151e <_ZN14ADF5610_Driver25CompleteConfigurationFlowEj+0x50>
    1516:	6c 2f       	mov	r22, r28
    1518:	c8 01       	movw	r24, r16
    151a:	0e 94 92 09 	call	0x1324	; 0x1324 <_ZN14ADF5610_Driver14WriteRegistersEh>
    151e:	21 96       	adiw	r28, 0x01	; 1
    1520:	de cf       	rjmp	.-68     	; 0x14de <_ZN14ADF5610_Driver25CompleteConfigurationFlowEj+0x10>
    1522:	63 e0       	ldi	r22, 0x03	; 3
    1524:	c8 01       	movw	r24, r16
    1526:	0e 94 92 09 	call	0x1324	; 0x1324 <_ZN14ADF5610_Driver14WriteRegistersEh>
    152a:	64 e0       	ldi	r22, 0x04	; 4
    152c:	c8 01       	movw	r24, r16
    152e:	0e 94 92 09 	call	0x1324	; 0x1324 <_ZN14ADF5610_Driver14WriteRegistersEh>
    1532:	df 91       	pop	r29
    1534:	cf 91       	pop	r28
    1536:	1f 91       	pop	r17
    1538:	0f 91       	pop	r16
    153a:	ff 90       	pop	r15
    153c:	ef 90       	pop	r14
    153e:	08 95       	ret

00001540 <_ZN14ADF5610_Driver7InitPLLEv>:
    1540:	cf 93       	push	r28
    1542:	df 93       	push	r29
    1544:	ec 01       	movw	r28, r24
    1546:	60 e0       	ldi	r22, 0x00	; 0
    1548:	70 e0       	ldi	r23, 0x00	; 0
    154a:	ce 01       	movw	r24, r28
    154c:	0e 94 67 0a 	call	0x14ce	; 0x14ce <_ZN14ADF5610_Driver25CompleteConfigurationFlowEj>
    1550:	ce 01       	movw	r24, r28
    1552:	0e 94 da 06 	call	0xdb4	; 0xdb4 <_ZN14ADF5610_Driver16ReadAllRegistersEv>
    1556:	4a 89       	ldd	r20, Y+18	; 0x12
    1558:	5b 89       	ldd	r21, Y+19	; 0x13
    155a:	6c 89       	ldd	r22, Y+20	; 0x14
    155c:	7d 89       	ldd	r23, Y+21	; 0x15
    155e:	db 01       	movw	r26, r22
    1560:	ca 01       	movw	r24, r20
    1562:	b6 95       	lsr	r27
    1564:	a7 95       	ror	r26
    1566:	97 95       	ror	r25
    1568:	87 95       	ror	r24
    156a:	fe 01       	movw	r30, r28
    156c:	e8 5b       	subi	r30, 0xB8	; 184
    156e:	fe 4f       	sbci	r31, 0xFE	; 254
    1570:	21 e0       	ldi	r18, 0x01	; 1
    1572:	40 fd       	sbrc	r20, 0
    1574:	20 e0       	ldi	r18, 0x00	; 0
    1576:	82 23       	and	r24, r18
    1578:	80 83       	st	Z, r24
    157a:	88 ee       	ldi	r24, 0xE8	; 232
    157c:	93 e0       	ldi	r25, 0x03	; 3
    157e:	00 97       	sbiw	r24, 0x00	; 0
    1580:	31 f0       	breq	.+12     	; 0x158e <_ZN14ADF5610_Driver7InitPLLEv+0x4e>
    1582:	e8 e5       	ldi	r30, 0x58	; 88
    1584:	f2 e0       	ldi	r31, 0x02	; 2
    1586:	31 97       	sbiw	r30, 0x01	; 1
    1588:	f1 f7       	brne	.-4      	; 0x1586 <_ZN14ADF5610_Driver7InitPLLEv+0x46>
    158a:	01 97       	sbiw	r24, 0x01	; 1
    158c:	f8 cf       	rjmp	.-16     	; 0x157e <_ZN14ADF5610_Driver7InitPLLEv+0x3e>
    158e:	ce 01       	movw	r24, r28
    1590:	0e 94 6e 04 	call	0x8dc	; 0x8dc <_ZN14ADF5610_Driver8IsLockedEv>
    1594:	fe 01       	movw	r30, r28
    1596:	e8 5b       	subi	r30, 0xB8	; 184
    1598:	fe 4f       	sbci	r31, 0xFE	; 254
    159a:	20 81       	ld	r18, Z
    159c:	91 e0       	ldi	r25, 0x01	; 1
    159e:	92 27       	eor	r25, r18
    15a0:	98 17       	cp	r25, r24
    15a2:	88 f6       	brcc	.-94     	; 0x1546 <_ZN14ADF5610_Driver7InitPLLEv+0x6>
    15a4:	82 2f       	mov	r24, r18
    15a6:	df 91       	pop	r29
    15a8:	cf 91       	pop	r28
    15aa:	08 95       	ret

000015ac <_ZN14ADF5610_Driver4InitEv>:
    15ac:	cf 93       	push	r28
    15ae:	df 93       	push	r29
    15b0:	ec 01       	movw	r28, r24
    15b2:	88 ea       	ldi	r24, 0xA8	; 168
    15b4:	93 e4       	ldi	r25, 0x43	; 67
    15b6:	8c 83       	std	Y+4, r24	; 0x04
    15b8:	9d 83       	std	Y+5, r25	; 0x05
    15ba:	0e 94 8b 0c 	call	0x1916	; 0x1916 <_ZN13SPI_Syn_Class4InitEv>
    15be:	be 01       	movw	r22, r28
    15c0:	6d 5b       	subi	r22, 0xBD	; 189
    15c2:	7e 4f       	sbci	r23, 0xFE	; 254
    15c4:	84 e0       	ldi	r24, 0x04	; 4
    15c6:	fb 01       	movw	r30, r22
    15c8:	11 92       	st	Z+, r1
    15ca:	8a 95       	dec	r24
    15cc:	e9 f7       	brne	.-6      	; 0x15c8 <_ZN14ADF5610_Driver4InitEv+0x1c>
    15ce:	44 e0       	ldi	r20, 0x04	; 4
    15d0:	8c 81       	ldd	r24, Y+4	; 0x04
    15d2:	9d 81       	ldd	r25, Y+5	; 0x05
    15d4:	0e 94 95 0c 	call	0x192a	; 0x192a <_ZN13SPI_Syn_Class5WriteEPKhh>
    15d8:	61 e0       	ldi	r22, 0x01	; 1
    15da:	8c 81       	ldd	r24, Y+4	; 0x04
    15dc:	9d 81       	ldd	r25, Y+5	; 0x05
    15de:	0e 94 ab 0c 	call	0x1956	; 0x1956 <_ZN13SPI_Syn_Class5SetCSEb>
    15e2:	ce 01       	movw	r24, r28
    15e4:	0e 94 3c 05 	call	0xa78	; 0xa78 <_ZN14ADF5610_Driver17InitiateRegistersEv>
    15e8:	ce 01       	movw	r24, r28
    15ea:	0e 94 a0 0a 	call	0x1540	; 0x1540 <_ZN14ADF5610_Driver7InitPLLEv>
    15ee:	df 91       	pop	r29
    15f0:	cf 91       	pop	r28
    15f2:	08 95       	ret

000015f4 <_ZN14ADF5610_Driver11WriteSubVCOEv>:
    15f4:	cf 93       	push	r28
    15f6:	df 93       	push	r29
    15f8:	ec 01       	movw	r28, r24
    15fa:	66 e1       	ldi	r22, 0x16	; 22
    15fc:	0e 94 92 09 	call	0x1324	; 0x1324 <_ZN14ADF5610_Driver14WriteRegistersEh>
    1600:	64 e1       	ldi	r22, 0x14	; 20
    1602:	ce 01       	movw	r24, r28
    1604:	0e 94 92 09 	call	0x1324	; 0x1324 <_ZN14ADF5610_Driver14WriteRegistersEh>
    1608:	65 e0       	ldi	r22, 0x05	; 5
    160a:	ce 01       	movw	r24, r28
    160c:	0e 94 92 09 	call	0x1324	; 0x1324 <_ZN14ADF5610_Driver14WriteRegistersEh>
    1610:	df 91       	pop	r29
    1612:	cf 91       	pop	r28
    1614:	08 95       	ret

00001616 <_ZN14ADF5610_Driver22ShortConfigurationFlowEv>:
    1616:	cf 93       	push	r28
    1618:	df 93       	push	r29
    161a:	ec 01       	movw	r28, r24
    161c:	68 e0       	ldi	r22, 0x08	; 8
    161e:	0e 94 92 09 	call	0x1324	; 0x1324 <_ZN14ADF5610_Driver14WriteRegistersEh>
    1622:	ce 01       	movw	r24, r28
    1624:	0e 94 fa 0a 	call	0x15f4	; 0x15f4 <_ZN14ADF5610_Driver11WriteSubVCOEv>
    1628:	63 e0       	ldi	r22, 0x03	; 3
    162a:	ce 01       	movw	r24, r28
    162c:	0e 94 92 09 	call	0x1324	; 0x1324 <_ZN14ADF5610_Driver14WriteRegistersEh>
    1630:	64 e0       	ldi	r22, 0x04	; 4
    1632:	ce 01       	movw	r24, r28
    1634:	0e 94 92 09 	call	0x1324	; 0x1324 <_ZN14ADF5610_Driver14WriteRegistersEh>
    1638:	df 91       	pop	r29
    163a:	cf 91       	pop	r28
    163c:	08 95       	ret

0000163e <_ZN14ADF5610_Driver13Keep_WooblingEv>:
	step=(ul+ll)/(2*1024);
	upper_limit=ul;
	lower_limit=ll;
	return Keep_Woobling();
}
bool	ADF5610_Driver::Keep_Woobling(void){
    163e:	8f 92       	push	r8
    1640:	9f 92       	push	r9
    1642:	af 92       	push	r10
    1644:	bf 92       	push	r11
    1646:	cf 92       	push	r12
    1648:	df 92       	push	r13
    164a:	ef 92       	push	r14
    164c:	ff 92       	push	r15
    164e:	0f 93       	push	r16
    1650:	1f 93       	push	r17
    1652:	cf 93       	push	r28
    1654:	df 93       	push	r29
    1656:	ec 01       	movw	r28, r24



		if(IsLocked()){
    1658:	0e 94 6e 04 	call	0x8dc	; 0x8dc <_ZN14ADF5610_Driver8IsLockedEv>
    165c:	18 2f       	mov	r17, r24
    165e:	88 23       	and	r24, r24
    1660:	09 f4       	brne	.+2      	; 0x1664 <_ZN14ADF5610_Driver13Keep_WooblingEv+0x26>
    1662:	95 c0       	rjmp	.+298    	; 0x178e <_ZN14ADF5610_Driver13Keep_WooblingEv+0x150>
			is_locked=true;
    1664:	81 e0       	ldi	r24, 0x01	; 1
    1666:	fe 01       	movw	r30, r28
    1668:	eb 5c       	subi	r30, 0xCB	; 203
    166a:	fe 4f       	sbci	r31, 0xFE	; 254
    166c:	80 83       	st	Z, r24

			current_frequency=target_frequency;
    166e:	36 97       	sbiw	r30, 0x06	; 6
    1670:	00 81       	ld	r16, Z
    1672:	f1 80       	ldd	r15, Z+1	; 0x01
    1674:	e2 80       	ldd	r14, Z+2	; 0x02
    1676:	d3 80       	ldd	r13, Z+3	; 0x03
    1678:	80 2f       	mov	r24, r16
    167a:	9f 2d       	mov	r25, r15
    167c:	ae 2d       	mov	r26, r14
    167e:	bd 2d       	mov	r27, r13
    1680:	88 83       	st	Y, r24
    1682:	99 83       	std	Y+1, r25	; 0x01
    1684:	aa 83       	std	Y+2, r26	; 0x02
    1686:	bb 83       	std	Y+3, r27	; 0x03
			if ((current_frequency>(upper_limit-step))&&(dir==1)){
    1688:	6e 81       	ldd	r22, Y+6	; 0x06
    168a:	7f 81       	ldd	r23, Y+7	; 0x07
    168c:	88 85       	ldd	r24, Y+8	; 0x08
    168e:	99 85       	ldd	r25, Y+9	; 0x09
    1690:	34 97       	sbiw	r30, 0x04	; 4
    1692:	80 80       	ld	r8, Z
    1694:	91 80       	ldd	r9, Z+1	; 0x01
    1696:	a2 80       	ldd	r10, Z+2	; 0x02
    1698:	b3 80       	ldd	r11, Z+3	; 0x03
    169a:	a5 01       	movw	r20, r10
    169c:	94 01       	movw	r18, r8
    169e:	0e 94 a1 15 	call	0x2b42	; 0x2b42 <__subsf3>
    16a2:	9b 01       	movw	r18, r22
    16a4:	ac 01       	movw	r20, r24
    16a6:	60 2f       	mov	r22, r16
    16a8:	7f 2d       	mov	r23, r15
    16aa:	8e 2d       	mov	r24, r14
    16ac:	9d 2d       	mov	r25, r13
    16ae:	0e 94 c5 17 	call	0x2f8a	; 0x2f8a <__gesf2>
    16b2:	18 16       	cp	r1, r24
    16b4:	64 f4       	brge	.+24     	; 0x16ce <_ZN14ADF5610_Driver13Keep_WooblingEv+0x90>
    16b6:	fe 01       	movw	r30, r28
    16b8:	ed 5c       	subi	r30, 0xCD	; 205
    16ba:	fe 4f       	sbci	r31, 0xFE	; 254
    16bc:	80 81       	ld	r24, Z
    16be:	91 81       	ldd	r25, Z+1	; 0x01
    16c0:	01 97       	sbiw	r24, 0x01	; 1
    16c2:	29 f4       	brne	.+10     	; 0x16ce <_ZN14ADF5610_Driver13Keep_WooblingEv+0x90>


				dir=-1;
    16c4:	8f ef       	ldi	r24, 0xFF	; 255
    16c6:	9f ef       	ldi	r25, 0xFF	; 255
    16c8:	80 83       	st	Z, r24
    16ca:	91 83       	std	Z+1, r25	; 0x01
    16cc:	1d c0       	rjmp	.+58     	; 0x1708 <_ZN14ADF5610_Driver13Keep_WooblingEv+0xca>
				}else if((current_frequency<(lower_limit+step))&&(dir==-1)){
    16ce:	2a 85       	ldd	r18, Y+10	; 0x0a
    16d0:	3b 85       	ldd	r19, Y+11	; 0x0b
    16d2:	4c 85       	ldd	r20, Y+12	; 0x0c
    16d4:	5d 85       	ldd	r21, Y+13	; 0x0d
    16d6:	c5 01       	movw	r24, r10
    16d8:	b4 01       	movw	r22, r8
    16da:	0e 94 a2 15 	call	0x2b44	; 0x2b44 <__addsf3>
    16de:	9b 01       	movw	r18, r22
    16e0:	ac 01       	movw	r20, r24
    16e2:	60 2f       	mov	r22, r16
    16e4:	7f 2d       	mov	r23, r15
    16e6:	8e 2d       	mov	r24, r14
    16e8:	9d 2d       	mov	r25, r13
    16ea:	0e 94 0e 16 	call	0x2c1c	; 0x2c1c <__cmpsf2>
    16ee:	88 23       	and	r24, r24
    16f0:	5c f4       	brge	.+22     	; 0x1708 <_ZN14ADF5610_Driver13Keep_WooblingEv+0xca>
    16f2:	fe 01       	movw	r30, r28
    16f4:	ed 5c       	subi	r30, 0xCD	; 205
    16f6:	fe 4f       	sbci	r31, 0xFE	; 254
    16f8:	80 81       	ld	r24, Z
    16fa:	91 81       	ldd	r25, Z+1	; 0x01
    16fc:	01 96       	adiw	r24, 0x01	; 1
    16fe:	21 f4       	brne	.+8      	; 0x1708 <_ZN14ADF5610_Driver13Keep_WooblingEv+0xca>

				dir=1;
    1700:	81 e0       	ldi	r24, 0x01	; 1
    1702:	90 e0       	ldi	r25, 0x00	; 0
    1704:	80 83       	st	Z, r24
    1706:	91 83       	std	Z+1, r25	; 0x01
			Serial.print("Locked at : ");
			Serial.print(current_frequency);
			Serial.println(" MHz");
			#else

			printf("Current frequence: %lf\n",current_frequency);
    1708:	df 92       	push	r13
    170a:	ef 92       	push	r14
    170c:	ff 92       	push	r15
    170e:	0f 93       	push	r16
    1710:	85 e7       	ldi	r24, 0x75	; 117
    1712:	90 e4       	ldi	r25, 0x40	; 64
    1714:	9f 93       	push	r25
    1716:	8f 93       	push	r24
    1718:	0e 94 0e 1f 	call	0x3e1c	; 0x3e1c <printf>

			#endif
			target_frequency=current_frequency+(dir*step);
    171c:	88 80       	ld	r8, Y
    171e:	99 80       	ldd	r9, Y+1	; 0x01
    1720:	aa 80       	ldd	r10, Y+2	; 0x02
    1722:	bb 80       	ldd	r11, Y+3	; 0x03
    1724:	fe 01       	movw	r30, r28
    1726:	ed 5c       	subi	r30, 0xCD	; 205
    1728:	fe 4f       	sbci	r31, 0xFE	; 254
    172a:	60 81       	ld	r22, Z
    172c:	71 81       	ldd	r23, Z+1	; 0x01
    172e:	38 97       	sbiw	r30, 0x08	; 8
    1730:	c0 80       	ld	r12, Z
    1732:	d1 80       	ldd	r13, Z+1	; 0x01
    1734:	e2 80       	ldd	r14, Z+2	; 0x02
    1736:	f3 80       	ldd	r15, Z+3	; 0x03
    1738:	07 2e       	mov	r0, r23
    173a:	00 0c       	add	r0, r0
    173c:	88 0b       	sbc	r24, r24
    173e:	99 0b       	sbc	r25, r25
    1740:	0e 94 bd 16 	call	0x2d7a	; 0x2d7a <__floatsisf>
    1744:	a7 01       	movw	r20, r14
    1746:	96 01       	movw	r18, r12
    1748:	0e 94 1a 18 	call	0x3034	; 0x3034 <__mulsf3>
    174c:	9b 01       	movw	r18, r22
    174e:	ac 01       	movw	r20, r24
    1750:	c5 01       	movw	r24, r10
    1752:	b4 01       	movw	r22, r8
    1754:	0e 94 a2 15 	call	0x2b44	; 0x2b44 <__addsf3>
    1758:	fe 01       	movw	r30, r28
    175a:	e1 5d       	subi	r30, 0xD1	; 209
    175c:	fe 4f       	sbci	r31, 0xFE	; 254
    175e:	60 83       	st	Z, r22
    1760:	71 83       	std	Z+1, r23	; 0x01
    1762:	82 83       	std	Z+2, r24	; 0x02
    1764:	93 83       	std	Z+3, r25	; 0x03

			SetNextFrequency();
    1766:	ce 01       	movw	r24, r28
    1768:	0e 94 22 09 	call	0x1244	; 0x1244 <_ZN14ADF5610_Driver16SetNextFrequencyEv>
			ShortConfigurationFlow();
    176c:	ce 01       	movw	r24, r28
    176e:	0e 94 0b 0b 	call	0x1616	; 0x1616 <_ZN14ADF5610_Driver22ShortConfigurationFlowEv>
			usleep(1000);
    1772:	48 ee       	ldi	r20, 0xE8	; 232
    1774:	53 e0       	ldi	r21, 0x03	; 3
    1776:	60 e0       	ldi	r22, 0x00	; 0
    1778:	70 e0       	ldi	r23, 0x00	; 0
    177a:	ce 01       	movw	r24, r28
    177c:	0e 94 2f 09 	call	0x125e	; 0x125e <_ZN14ADF5610_Driver6usleepEl>
			return true;
    1780:	0f 90       	pop	r0
    1782:	0f 90       	pop	r0
    1784:	0f 90       	pop	r0
    1786:	0f 90       	pop	r0
    1788:	0f 90       	pop	r0
    178a:	0f 90       	pop	r0
    178c:	3a c0       	rjmp	.+116    	; 0x1802 <_ZN14ADF5610_Driver13Keep_WooblingEv+0x1c4>

		}else{
		
			if(is_locked){
    178e:	fe 01       	movw	r30, r28
    1790:	eb 5c       	subi	r30, 0xCB	; 203
    1792:	fe 4f       	sbci	r31, 0xFE	; 254
    1794:	80 81       	ld	r24, Z
    1796:	88 23       	and	r24, r24
    1798:	29 f1       	breq	.+74     	; 0x17e4 <_ZN14ADF5610_Driver13Keep_WooblingEv+0x1a6>
				is_locked=false;
    179a:	10 82       	st	Z, r1
				Serial.println(" MHz");
				Serial.println(" ");
				Serial.println("**************************");
				#else
				
				printf("**************************\n\r");
    179c:	8d e8       	ldi	r24, 0x8D	; 141
    179e:	90 e4       	ldi	r25, 0x40	; 64
    17a0:	9f 93       	push	r25
    17a2:	8f 93       	push	r24
    17a4:	0e 94 0e 1f 	call	0x3e1c	; 0x3e1c <printf>
				printf("Not Locked at:  %lf",target_frequency);
    17a8:	fe 01       	movw	r30, r28
    17aa:	e1 5d       	subi	r30, 0xD1	; 209
    17ac:	fe 4f       	sbci	r31, 0xFE	; 254
    17ae:	80 81       	ld	r24, Z
    17b0:	91 81       	ldd	r25, Z+1	; 0x01
    17b2:	22 81       	ldd	r18, Z+2	; 0x02
    17b4:	33 81       	ldd	r19, Z+3	; 0x03
    17b6:	3f 93       	push	r19
    17b8:	2f 93       	push	r18
    17ba:	9f 93       	push	r25
    17bc:	8f 93       	push	r24
    17be:	8a ea       	ldi	r24, 0xAA	; 170
    17c0:	90 e4       	ldi	r25, 0x40	; 64
    17c2:	9f 93       	push	r25
    17c4:	8f 93       	push	r24
    17c6:	0e 94 0e 1f 	call	0x3e1c	; 0x3e1c <printf>
				printf(" MHz\n");
    17ca:	8e eb       	ldi	r24, 0xBE	; 190
    17cc:	90 e4       	ldi	r25, 0x40	; 64
    17ce:	0e 94 22 1f 	call	0x3e44	; 0x3e44 <puts>
				printf("**************************\n");
    17d2:	83 ec       	ldi	r24, 0xC3	; 195
    17d4:	90 e4       	ldi	r25, 0x40	; 64
    17d6:	0e 94 22 1f 	call	0x3e44	; 0x3e44 <puts>
    17da:	8d b7       	in	r24, 0x3d	; 61
    17dc:	9e b7       	in	r25, 0x3e	; 62
    17de:	08 96       	adiw	r24, 0x08	; 8
    17e0:	8d bf       	out	0x3d, r24	; 61
    17e2:	9e bf       	out	0x3e, r25	; 62
				
				#endif
			}
			//next_frequency=current_frequency;
			SetNextFrequency();
    17e4:	ce 01       	movw	r24, r28
    17e6:	0e 94 22 09 	call	0x1244	; 0x1244 <_ZN14ADF5610_Driver16SetNextFrequencyEv>
			/// Serial.print("Not Locked at:  ");
			//   Serial.println(current_frequency);
			CompleteConfigurationFlow(0);
    17ea:	60 e0       	ldi	r22, 0x00	; 0
    17ec:	70 e0       	ldi	r23, 0x00	; 0
    17ee:	ce 01       	movw	r24, r28
    17f0:	0e 94 67 0a 	call	0x14ce	; 0x14ce <_ZN14ADF5610_Driver25CompleteConfigurationFlowEj>

	

			usleep(10000);
    17f4:	40 e1       	ldi	r20, 0x10	; 16
    17f6:	57 e2       	ldi	r21, 0x27	; 39
    17f8:	60 e0       	ldi	r22, 0x00	; 0
    17fa:	70 e0       	ldi	r23, 0x00	; 0
    17fc:	ce 01       	movw	r24, r28
    17fe:	0e 94 2f 09 	call	0x125e	; 0x125e <_ZN14ADF5610_Driver6usleepEl>
		
			return false;
		}
	
}
    1802:	81 2f       	mov	r24, r17
    1804:	df 91       	pop	r29
    1806:	cf 91       	pop	r28
    1808:	1f 91       	pop	r17
    180a:	0f 91       	pop	r16
    180c:	ff 90       	pop	r15
    180e:	ef 90       	pop	r14
    1810:	df 90       	pop	r13
    1812:	cf 90       	pop	r12
    1814:	bf 90       	pop	r11
    1816:	af 90       	pop	r10
    1818:	9f 90       	pop	r9
    181a:	8f 90       	pop	r8
    181c:	08 95       	ret

0000181e <_ZN14ADF5610_Driver14Start_WooblingEff>:
	return true;
}



bool	ADF5610_Driver::Start_Woobling(float ul, float ll){
    181e:	4f 92       	push	r4
    1820:	5f 92       	push	r5
    1822:	6f 92       	push	r6
    1824:	7f 92       	push	r7
    1826:	8f 92       	push	r8
    1828:	9f 92       	push	r9
    182a:	af 92       	push	r10
    182c:	bf 92       	push	r11
    182e:	cf 92       	push	r12
    1830:	df 92       	push	r13
    1832:	ef 92       	push	r14
    1834:	ff 92       	push	r15
    1836:	0f 93       	push	r16
    1838:	1f 93       	push	r17
    183a:	cf 93       	push	r28
    183c:	df 93       	push	r29
    183e:	ec 01       	movw	r28, r24
    1840:	4a 01       	movw	r8, r20
    1842:	5b 01       	movw	r10, r22
    1844:	68 01       	movw	r12, r16
    1846:	79 01       	movw	r14, r18
	dir=1;
    1848:	fc 01       	movw	r30, r24
    184a:	ed 5c       	subi	r30, 0xCD	; 205
    184c:	fe 4f       	sbci	r31, 0xFE	; 254
    184e:	81 e0       	ldi	r24, 0x01	; 1
    1850:	90 e0       	ldi	r25, 0x00	; 0
    1852:	80 83       	st	Z, r24
    1854:	91 83       	std	Z+1, r25	; 0x01
	int errorCounter=0;
	int counter=0;
	SetTargetFrequency((ul+ll)/2);
    1856:	a9 01       	movw	r20, r18
    1858:	98 01       	movw	r18, r16
    185a:	c5 01       	movw	r24, r10
    185c:	b4 01       	movw	r22, r8
    185e:	0e 94 a2 15 	call	0x2b44	; 0x2b44 <__addsf3>
    1862:	2b 01       	movw	r4, r22
    1864:	3c 01       	movw	r6, r24
    1866:	20 e0       	ldi	r18, 0x00	; 0
    1868:	30 e0       	ldi	r19, 0x00	; 0
    186a:	40 e0       	ldi	r20, 0x00	; 0
    186c:	5f e3       	ldi	r21, 0x3F	; 63
    186e:	0e 94 1a 18 	call	0x3034	; 0x3034 <__mulsf3>
    1872:	ab 01       	movw	r20, r22
    1874:	bc 01       	movw	r22, r24
    1876:	ce 01       	movw	r24, r28
    1878:	0e 94 25 09 	call	0x124a	; 0x124a <_ZN14ADF5610_Driver18SetTargetFrequencyEf>
	ShortConfigurationFlow();
    187c:	ce 01       	movw	r24, r28
    187e:	0e 94 0b 0b 	call	0x1616	; 0x1616 <_ZN14ADF5610_Driver22ShortConfigurationFlowEv>
	usleep(1000);
    1882:	48 ee       	ldi	r20, 0xE8	; 232
    1884:	53 e0       	ldi	r21, 0x03	; 3
    1886:	60 e0       	ldi	r22, 0x00	; 0
    1888:	70 e0       	ldi	r23, 0x00	; 0
    188a:	ce 01       	movw	r24, r28
    188c:	0e 94 2f 09 	call	0x125e	; 0x125e <_ZN14ADF5610_Driver6usleepEl>
	step=(ul+ll)/(2*1024);
    1890:	20 e0       	ldi	r18, 0x00	; 0
    1892:	30 e0       	ldi	r19, 0x00	; 0
    1894:	40 e0       	ldi	r20, 0x00	; 0
    1896:	5a e3       	ldi	r21, 0x3A	; 58
    1898:	c3 01       	movw	r24, r6
    189a:	b2 01       	movw	r22, r4
    189c:	0e 94 1a 18 	call	0x3034	; 0x3034 <__mulsf3>
    18a0:	fe 01       	movw	r30, r28
    18a2:	e5 5d       	subi	r30, 0xD5	; 213
    18a4:	fe 4f       	sbci	r31, 0xFE	; 254
    18a6:	60 83       	st	Z, r22
    18a8:	71 83       	std	Z+1, r23	; 0x01
    18aa:	82 83       	std	Z+2, r24	; 0x02
    18ac:	93 83       	std	Z+3, r25	; 0x03
	upper_limit=ul;
    18ae:	8e 82       	std	Y+6, r8	; 0x06
    18b0:	9f 82       	std	Y+7, r9	; 0x07
    18b2:	a8 86       	std	Y+8, r10	; 0x08
    18b4:	b9 86       	std	Y+9, r11	; 0x09
	lower_limit=ll;
    18b6:	ca 86       	std	Y+10, r12	; 0x0a
    18b8:	db 86       	std	Y+11, r13	; 0x0b
    18ba:	ec 86       	std	Y+12, r14	; 0x0c
    18bc:	fd 86       	std	Y+13, r15	; 0x0d
	return Keep_Woobling();
    18be:	ce 01       	movw	r24, r28
    18c0:	0e 94 1f 0b 	call	0x163e	; 0x163e <_ZN14ADF5610_Driver13Keep_WooblingEv>
}
    18c4:	df 91       	pop	r29
    18c6:	cf 91       	pop	r28
    18c8:	1f 91       	pop	r17
    18ca:	0f 91       	pop	r16
    18cc:	ff 90       	pop	r15
    18ce:	ef 90       	pop	r14
    18d0:	df 90       	pop	r13
    18d2:	cf 90       	pop	r12
    18d4:	bf 90       	pop	r11
    18d6:	af 90       	pop	r10
    18d8:	9f 90       	pop	r9
    18da:	8f 90       	pop	r8
    18dc:	7f 90       	pop	r7
    18de:	6f 90       	pop	r6
    18e0:	5f 90       	pop	r5
    18e2:	4f 90       	pop	r4
    18e4:	08 95       	ret

000018e6 <_GLOBAL__sub_I__ZN14ADF5610_DriverC2Ev>:
	else
	{
		_delay_ms(1);
	}
	
}
    18e6:	6f ef       	ldi	r22, 0xFF	; 255
    18e8:	7f ef       	ldi	r23, 0xFF	; 255
    18ea:	81 e0       	ldi	r24, 0x01	; 1
    18ec:	90 e0       	ldi	r25, 0x00	; 0
    18ee:	0e 94 90 03 	call	0x720	; 0x720 <_Z41__static_initialization_and_destruction_0ii>
    18f2:	08 95       	ret

000018f4 <_GLOBAL__sub_D__ZN14ADF5610_DriverC2Ev>:
    18f4:	6f ef       	ldi	r22, 0xFF	; 255
    18f6:	7f ef       	ldi	r23, 0xFF	; 255
    18f8:	80 e0       	ldi	r24, 0x00	; 0
    18fa:	90 e0       	ldi	r25, 0x00	; 0
    18fc:	0e 94 90 03 	call	0x720	; 0x720 <_Z41__static_initialization_and_destruction_0ii>
    1900:	08 95       	ret

00001902 <_ZN13SPI_Syn_ClassC1Ev>:

	
	return n;
}
void SPI_Syn_Class::Disable(void){
	SPI_ADF_disable();
    1902:	80 93 ad 43 	sts	0x43AD, r24	; 0x8043ad <ptrSPISync>
    1906:	90 93 ae 43 	sts	0x43AE, r25	; 0x8043ae <ptrSPISync+0x1>
    190a:	08 95       	ret

0000190c <_ZN13SPI_Syn_ClassD1Ev>:
    190c:	08 95       	ret

0000190e <_ZN13SPI_Syn_Class6EnableEv>:
    190e:	0e 94 c8 0d 	call	0x1b90	; 0x1b90 <SPI_ADF_enable>
    1912:	80 e0       	ldi	r24, 0x00	; 0
    1914:	08 95       	ret

00001916 <_ZN13SPI_Syn_Class4InitEv>:
    1916:	cf 93       	push	r28
    1918:	df 93       	push	r29
    191a:	ec 01       	movw	r28, r24
    191c:	0e 94 87 0c 	call	0x190e	; 0x190e <_ZN13SPI_Syn_Class6EnableEv>
    1920:	81 e0       	ldi	r24, 0x01	; 1
    1922:	88 83       	st	Y, r24
    1924:	df 91       	pop	r29
    1926:	cf 91       	pop	r28
    1928:	08 95       	ret

0000192a <_ZN13SPI_Syn_Class5WriteEPKhh>:
    192a:	cf 93       	push	r28
    192c:	fc 01       	movw	r30, r24
    192e:	cb 01       	movw	r24, r22
    1930:	c4 2f       	mov	r28, r20
    1932:	10 82       	st	Z, r1
    1934:	64 2f       	mov	r22, r20
    1936:	0e 94 ce 0d 	call	0x1b9c	; 0x1b9c <SPI_ADF_write_block>
    193a:	8c 2f       	mov	r24, r28
    193c:	cf 91       	pop	r28
    193e:	08 95       	ret

00001940 <_ZN13SPI_Syn_Class4ReadEPhh>:
    1940:	cf 93       	push	r28
    1942:	fc 01       	movw	r30, r24
    1944:	cb 01       	movw	r24, r22
    1946:	c4 2f       	mov	r28, r20
    1948:	10 82       	st	Z, r1
    194a:	64 2f       	mov	r22, r20
    194c:	0e 94 de 0d 	call	0x1bbc	; 0x1bbc <SPI_ADF_read_block>
    1950:	8c 2f       	mov	r24, r28
    1952:	cf 91       	pop	r28
    1954:	08 95       	ret

00001956 <_ZN13SPI_Syn_Class5SetCSEb>:
 * \param[in] level true  = Pin level set to "high" state
 *                  false = Pin level set to "low" state
 */
static inline void PORTA_set_pin_level(const uint8_t pin, const bool level)
{
	if (level == true) {
    1956:	66 23       	and	r22, r22
    1958:	21 f0       	breq	.+8      	; 0x1962 <_ZN13SPI_Syn_Class5SetCSEb+0xc>
		VPORTA.OUT |= (1 << pin);
    195a:	81 b1       	in	r24, 0x01	; 1
    195c:	80 68       	ori	r24, 0x80	; 128
    195e:	81 b9       	out	0x01, r24	; 1
    1960:	08 95       	ret
	} else {
		VPORTA.OUT &= ~(1 << pin);
    1962:	81 b1       	in	r24, 0x01	; 1
    1964:	8f 77       	andi	r24, 0x7F	; 127
    1966:	81 b9       	out	0x01, r24	; 1
    1968:	08 95       	ret

0000196a <atmel_start_init>:
/**
 * Initializes MCU, drivers and middleware in the project
 **/
void atmel_start_init(void)
{
	system_init();
    196a:	0e 94 64 0d 	call	0x1ac8	; 0x1ac8 <system_init>
    196e:	08 95       	ret

00001970 <mcu_init>:
	 * disables all peripherals to save power. Driver shall enable
	 * peripheral if used */

	/* Set all pins to low power mode */

	for (uint8_t i = 0; i < 8; i++) {
    1970:	80 e0       	ldi	r24, 0x00	; 0
    1972:	08 c0       	rjmp	.+16     	; 0x1984 <mcu_init+0x14>
		*((uint8_t *)&PORTA + 0x10 + i) |= 1 << PORT_PULLUPEN_bp;
    1974:	e8 2f       	mov	r30, r24
    1976:	f0 e0       	ldi	r31, 0x00	; 0
    1978:	e0 5f       	subi	r30, 0xF0	; 240
    197a:	fb 4f       	sbci	r31, 0xFB	; 251
    197c:	90 81       	ld	r25, Z
    197e:	98 60       	ori	r25, 0x08	; 8
    1980:	90 83       	st	Z, r25
	 * disables all peripherals to save power. Driver shall enable
	 * peripheral if used */

	/* Set all pins to low power mode */

	for (uint8_t i = 0; i < 8; i++) {
    1982:	8f 5f       	subi	r24, 0xFF	; 255
    1984:	88 30       	cpi	r24, 0x08	; 8
    1986:	b0 f3       	brcs	.-20     	; 0x1974 <mcu_init+0x4>
    1988:	80 e0       	ldi	r24, 0x00	; 0
    198a:	08 c0       	rjmp	.+16     	; 0x199c <mcu_init+0x2c>
		*((uint8_t *)&PORTA + 0x10 + i) |= 1 << PORT_PULLUPEN_bp;
	}

	for (uint8_t i = 0; i < 8; i++) {
		*((uint8_t *)&PORTB + 0x10 + i) |= 1 << PORT_PULLUPEN_bp;
    198c:	e8 2f       	mov	r30, r24
    198e:	f0 e0       	ldi	r31, 0x00	; 0
    1990:	e0 5d       	subi	r30, 0xD0	; 208
    1992:	fb 4f       	sbci	r31, 0xFB	; 251
    1994:	90 81       	ld	r25, Z
    1996:	98 60       	ori	r25, 0x08	; 8
    1998:	90 83       	st	Z, r25

	for (uint8_t i = 0; i < 8; i++) {
		*((uint8_t *)&PORTA + 0x10 + i) |= 1 << PORT_PULLUPEN_bp;
	}

	for (uint8_t i = 0; i < 8; i++) {
    199a:	8f 5f       	subi	r24, 0xFF	; 255
    199c:	88 30       	cpi	r24, 0x08	; 8
    199e:	b0 f3       	brcs	.-20     	; 0x198c <mcu_init+0x1c>
    19a0:	80 e0       	ldi	r24, 0x00	; 0
    19a2:	08 c0       	rjmp	.+16     	; 0x19b4 <mcu_init+0x44>
		*((uint8_t *)&PORTB + 0x10 + i) |= 1 << PORT_PULLUPEN_bp;
	}

	for (uint8_t i = 0; i < 8; i++) {
		*((uint8_t *)&PORTC + 0x10 + i) |= 1 << PORT_PULLUPEN_bp;
    19a4:	e8 2f       	mov	r30, r24
    19a6:	f0 e0       	ldi	r31, 0x00	; 0
    19a8:	e0 5b       	subi	r30, 0xB0	; 176
    19aa:	fb 4f       	sbci	r31, 0xFB	; 251
    19ac:	90 81       	ld	r25, Z
    19ae:	98 60       	ori	r25, 0x08	; 8
    19b0:	90 83       	st	Z, r25

	for (uint8_t i = 0; i < 8; i++) {
		*((uint8_t *)&PORTB + 0x10 + i) |= 1 << PORT_PULLUPEN_bp;
	}

	for (uint8_t i = 0; i < 8; i++) {
    19b2:	8f 5f       	subi	r24, 0xFF	; 255
    19b4:	88 30       	cpi	r24, 0x08	; 8
    19b6:	b0 f3       	brcs	.-20     	; 0x19a4 <mcu_init+0x34>
    19b8:	80 e0       	ldi	r24, 0x00	; 0
    19ba:	08 c0       	rjmp	.+16     	; 0x19cc <mcu_init+0x5c>
		*((uint8_t *)&PORTC + 0x10 + i) |= 1 << PORT_PULLUPEN_bp;
	}

	for (uint8_t i = 0; i < 8; i++) {
		*((uint8_t *)&PORTD + 0x10 + i) |= 1 << PORT_PULLUPEN_bp;
    19bc:	e8 2f       	mov	r30, r24
    19be:	f0 e0       	ldi	r31, 0x00	; 0
    19c0:	e0 59       	subi	r30, 0x90	; 144
    19c2:	fb 4f       	sbci	r31, 0xFB	; 251
    19c4:	90 81       	ld	r25, Z
    19c6:	98 60       	ori	r25, 0x08	; 8
    19c8:	90 83       	st	Z, r25

	for (uint8_t i = 0; i < 8; i++) {
		*((uint8_t *)&PORTC + 0x10 + i) |= 1 << PORT_PULLUPEN_bp;
	}

	for (uint8_t i = 0; i < 8; i++) {
    19ca:	8f 5f       	subi	r24, 0xFF	; 255
    19cc:	88 30       	cpi	r24, 0x08	; 8
    19ce:	b0 f3       	brcs	.-20     	; 0x19bc <mcu_init+0x4c>
    19d0:	80 e0       	ldi	r24, 0x00	; 0
    19d2:	08 c0       	rjmp	.+16     	; 0x19e4 <mcu_init+0x74>
		*((uint8_t *)&PORTD + 0x10 + i) |= 1 << PORT_PULLUPEN_bp;
	}

	for (uint8_t i = 0; i < 8; i++) {
		*((uint8_t *)&PORTE + 0x10 + i) |= 1 << PORT_PULLUPEN_bp;
    19d4:	e8 2f       	mov	r30, r24
    19d6:	f0 e0       	ldi	r31, 0x00	; 0
    19d8:	e0 57       	subi	r30, 0x70	; 112
    19da:	fb 4f       	sbci	r31, 0xFB	; 251
    19dc:	90 81       	ld	r25, Z
    19de:	98 60       	ori	r25, 0x08	; 8
    19e0:	90 83       	st	Z, r25

	for (uint8_t i = 0; i < 8; i++) {
		*((uint8_t *)&PORTD + 0x10 + i) |= 1 << PORT_PULLUPEN_bp;
	}

	for (uint8_t i = 0; i < 8; i++) {
    19e2:	8f 5f       	subi	r24, 0xFF	; 255
    19e4:	88 30       	cpi	r24, 0x08	; 8
    19e6:	b0 f3       	brcs	.-20     	; 0x19d4 <mcu_init+0x64>
    19e8:	80 e0       	ldi	r24, 0x00	; 0
    19ea:	08 c0       	rjmp	.+16     	; 0x19fc <mcu_init+0x8c>
		*((uint8_t *)&PORTE + 0x10 + i) |= 1 << PORT_PULLUPEN_bp;
	}

	for (uint8_t i = 0; i < 8; i++) {
		*((uint8_t *)&PORTF + 0x10 + i) |= 1 << PORT_PULLUPEN_bp;
    19ec:	e8 2f       	mov	r30, r24
    19ee:	f0 e0       	ldi	r31, 0x00	; 0
    19f0:	e0 55       	subi	r30, 0x50	; 80
    19f2:	fb 4f       	sbci	r31, 0xFB	; 251
    19f4:	90 81       	ld	r25, Z
    19f6:	98 60       	ori	r25, 0x08	; 8
    19f8:	90 83       	st	Z, r25

	for (uint8_t i = 0; i < 8; i++) {
		*((uint8_t *)&PORTE + 0x10 + i) |= 1 << PORT_PULLUPEN_bp;
	}

	for (uint8_t i = 0; i < 8; i++) {
    19fa:	8f 5f       	subi	r24, 0xFF	; 255
    19fc:	88 30       	cpi	r24, 0x08	; 8
    19fe:	b0 f3       	brcs	.-20     	; 0x19ec <mcu_init+0x7c>
		*((uint8_t *)&PORTF + 0x10 + i) |= 1 << PORT_PULLUPEN_bp;
	}
}
    1a00:	08 95       	ret

00001a02 <USART_0_initialization>:
 */
static inline void PORTB_set_pin_dir(const uint8_t pin, const enum port_dir dir)
{
	switch (dir) {
	case PORT_DIR_IN:
		VPORTB.DIR &= ~(1 << pin);
    1a02:	84 b1       	in	r24, 0x04	; 4
    1a04:	8d 7f       	andi	r24, 0xFD	; 253
    1a06:	84 b9       	out	0x04, r24	; 4
	volatile uint8_t *port_pin_ctrl = ((uint8_t *)&PORTB + 0x10 + pin);

	if (pull_mode == PORT_PULL_UP) {
		*port_pin_ctrl |= PORT_PULLUPEN_bm;
	} else if (pull_mode == PORT_PULL_OFF) {
		*port_pin_ctrl &= ~PORT_PULLUPEN_bm;
    1a08:	e1 e3       	ldi	r30, 0x31	; 49
    1a0a:	f4 e0       	ldi	r31, 0x04	; 4
    1a0c:	80 81       	ld	r24, Z
    1a0e:	87 7f       	andi	r24, 0xF7	; 247
    1a10:	80 83       	st	Z, r24
static inline void PORTB_set_pin_level(const uint8_t pin, const bool level)
{
	if (level == true) {
		VPORTB.OUT |= (1 << pin);
	} else {
		VPORTB.OUT &= ~(1 << pin);
    1a12:	85 b1       	in	r24, 0x05	; 5
    1a14:	8e 7f       	andi	r24, 0xFE	; 254
    1a16:	85 b9       	out	0x05, r24	; 5
	switch (dir) {
	case PORT_DIR_IN:
		VPORTB.DIR &= ~(1 << pin);
		break;
	case PORT_DIR_OUT:
		VPORTB.DIR |= (1 << pin);
    1a18:	84 b1       	in	r24, 0x04	; 4
    1a1a:	81 60       	ori	r24, 0x01	; 1
    1a1c:	84 b9       	out	0x04, r24	; 4
	    // <true"> High
	    false);

	PB0_set_dir(PORT_DIR_OUT);

	USART_0_init();
    1a1e:	0e 94 2b 0e 	call	0x1c56	; 0x1c56 <USART_0_init>
    1a22:	08 95       	ret

00001a24 <EVENT_SYSTEM_0_initialization>:
}

void EVENT_SYSTEM_0_initialization(void)
{

	EVENT_SYSTEM_0_init();
    1a24:	0e 94 9b 0d 	call	0x1b36	; 0x1b36 <EVENT_SYSTEM_0_init>
    1a28:	08 95       	ret

00001a2a <ZCD_Rising_initialization>:
 */
static inline void PORTD_pin_set_isc(const uint8_t pin, const PORT_ISC_t isc)
{
	volatile uint8_t *port_pin_ctrl = ((uint8_t *)&PORTD + 0x10 + pin);

	*port_pin_ctrl = (*port_pin_ctrl & ~PORT_ISC_gm) | isc;
    1a2a:	e1 e7       	ldi	r30, 0x71	; 113
    1a2c:	f4 e0       	ldi	r31, 0x04	; 4
    1a2e:	80 81       	ld	r24, Z
    1a30:	88 7f       	andi	r24, 0xF8	; 248
    1a32:	84 60       	ori	r24, 0x04	; 4
    1a34:	80 83       	st	Z, r24
	volatile uint8_t *port_pin_ctrl = ((uint8_t *)&PORTD + 0x10 + pin);

	if (pull_mode == PORT_PULL_UP) {
		*port_pin_ctrl |= PORT_PULLUPEN_bm;
	} else if (pull_mode == PORT_PULL_OFF) {
		*port_pin_ctrl &= ~PORT_PULLUPEN_bm;
    1a36:	80 81       	ld	r24, Z
    1a38:	87 7f       	andi	r24, 0xF7	; 247
    1a3a:	80 83       	st	Z, r24
	// Disable digital input buffer
	PD1_set_isc(PORT_ISC_INPUT_DISABLE_gc);
	// Disable pull-up resistor
	PD1_set_pull_mode(PORT_PULL_OFF);

	ZCD_Rising_init();
    1a3c:	0e 94 47 0e 	call	0x1c8e	; 0x1c8e <ZCD_Rising_init>
    1a40:	08 95       	ret

00001a42 <ZCD_Falling_initialization>:
 */
static inline void PORTE_pin_set_isc(const uint8_t pin, const PORT_ISC_t isc)
{
	volatile uint8_t *port_pin_ctrl = ((uint8_t *)&PORTE + 0x10 + pin);

	*port_pin_ctrl = (*port_pin_ctrl & ~PORT_ISC_gm) | isc;
    1a42:	e3 e9       	ldi	r30, 0x93	; 147
    1a44:	f4 e0       	ldi	r31, 0x04	; 4
    1a46:	80 81       	ld	r24, Z
    1a48:	88 7f       	andi	r24, 0xF8	; 248
    1a4a:	84 60       	ori	r24, 0x04	; 4
    1a4c:	80 83       	st	Z, r24
	volatile uint8_t *port_pin_ctrl = ((uint8_t *)&PORTE + 0x10 + pin);

	if (pull_mode == PORT_PULL_UP) {
		*port_pin_ctrl |= PORT_PULLUPEN_bm;
	} else if (pull_mode == PORT_PULL_OFF) {
		*port_pin_ctrl &= ~PORT_PULLUPEN_bm;
    1a4e:	80 81       	ld	r24, Z
    1a50:	87 7f       	andi	r24, 0xF7	; 247
    1a52:	80 83       	st	Z, r24
	// Disable digital input buffer
	PE3_set_isc(PORT_ISC_INPUT_DISABLE_gc);
	// Disable pull-up resistor
	PE3_set_pull_mode(PORT_PULL_OFF);

	ZCD_Falling_init();
    1a54:	0e 94 4e 0e 	call	0x1c9c	; 0x1c9c <ZCD_Falling_init>
    1a58:	08 95       	ret

00001a5a <SPI_ADF_initialization>:
 */
static inline void PORTA_set_pin_dir(const uint8_t pin, const enum port_dir dir)
{
	switch (dir) {
	case PORT_DIR_IN:
		VPORTA.DIR &= ~(1 << pin);
    1a5a:	80 b1       	in	r24, 0x00	; 0
    1a5c:	8f 7d       	andi	r24, 0xDF	; 223
    1a5e:	80 b9       	out	0x00, r24	; 0
	volatile uint8_t *port_pin_ctrl = ((uint8_t *)&PORTA + 0x10 + pin);

	if (pull_mode == PORT_PULL_UP) {
		*port_pin_ctrl |= PORT_PULLUPEN_bm;
	} else if (pull_mode == PORT_PULL_OFF) {
		*port_pin_ctrl &= ~PORT_PULLUPEN_bm;
    1a60:	e5 e1       	ldi	r30, 0x15	; 21
    1a62:	f4 e0       	ldi	r31, 0x04	; 4
    1a64:	80 81       	ld	r24, Z
    1a66:	87 7f       	andi	r24, 0xF7	; 247
    1a68:	80 83       	st	Z, r24
static inline void PORTA_set_pin_level(const uint8_t pin, const bool level)
{
	if (level == true) {
		VPORTA.OUT |= (1 << pin);
	} else {
		VPORTA.OUT &= ~(1 << pin);
    1a6a:	81 b1       	in	r24, 0x01	; 1
    1a6c:	8f 7e       	andi	r24, 0xEF	; 239
    1a6e:	81 b9       	out	0x01, r24	; 1
	switch (dir) {
	case PORT_DIR_IN:
		VPORTA.DIR &= ~(1 << pin);
		break;
	case PORT_DIR_OUT:
		VPORTA.DIR |= (1 << pin);
    1a70:	80 b1       	in	r24, 0x00	; 0
    1a72:	80 61       	ori	r24, 0x10	; 16
    1a74:	80 b9       	out	0x00, r24	; 0
static inline void PORTA_set_pin_level(const uint8_t pin, const bool level)
{
	if (level == true) {
		VPORTA.OUT |= (1 << pin);
	} else {
		VPORTA.OUT &= ~(1 << pin);
    1a76:	81 b1       	in	r24, 0x01	; 1
    1a78:	8f 7b       	andi	r24, 0xBF	; 191
    1a7a:	81 b9       	out	0x01, r24	; 1
	switch (dir) {
	case PORT_DIR_IN:
		VPORTA.DIR &= ~(1 << pin);
		break;
	case PORT_DIR_OUT:
		VPORTA.DIR |= (1 << pin);
    1a7c:	80 b1       	in	r24, 0x00	; 0
    1a7e:	80 64       	ori	r24, 0x40	; 64
    1a80:	80 b9       	out	0x00, r24	; 0
	    // <true"> High
	    false);

	PA6_set_dir(PORT_DIR_OUT);

	SPI_ADF_init();
    1a82:	0e 94 bf 0d 	call	0x1b7e	; 0x1b7e <SPI_ADF_init>
    1a86:	08 95       	ret

00001a88 <SPI_LMX_initialization>:
 */
static inline void PORTC_set_pin_dir(const uint8_t pin, const enum port_dir dir)
{
	switch (dir) {
	case PORT_DIR_IN:
		VPORTC.DIR &= ~(1 << pin);
    1a88:	88 b1       	in	r24, 0x08	; 8
    1a8a:	8d 7f       	andi	r24, 0xFD	; 253
    1a8c:	88 b9       	out	0x08, r24	; 8
	volatile uint8_t *port_pin_ctrl = ((uint8_t *)&PORTC + 0x10 + pin);

	if (pull_mode == PORT_PULL_UP) {
		*port_pin_ctrl |= PORT_PULLUPEN_bm;
	} else if (pull_mode == PORT_PULL_OFF) {
		*port_pin_ctrl &= ~PORT_PULLUPEN_bm;
    1a8e:	e1 e5       	ldi	r30, 0x51	; 81
    1a90:	f4 e0       	ldi	r31, 0x04	; 4
    1a92:	80 81       	ld	r24, Z
    1a94:	87 7f       	andi	r24, 0xF7	; 247
    1a96:	80 83       	st	Z, r24
static inline void PORTC_set_pin_level(const uint8_t pin, const bool level)
{
	if (level == true) {
		VPORTC.OUT |= (1 << pin);
	} else {
		VPORTC.OUT &= ~(1 << pin);
    1a98:	89 b1       	in	r24, 0x09	; 9
    1a9a:	8e 7f       	andi	r24, 0xFE	; 254
    1a9c:	89 b9       	out	0x09, r24	; 9
	switch (dir) {
	case PORT_DIR_IN:
		VPORTC.DIR &= ~(1 << pin);
		break;
	case PORT_DIR_OUT:
		VPORTC.DIR |= (1 << pin);
    1a9e:	88 b1       	in	r24, 0x08	; 8
    1aa0:	81 60       	ori	r24, 0x01	; 1
    1aa2:	88 b9       	out	0x08, r24	; 8
static inline void PORTC_set_pin_level(const uint8_t pin, const bool level)
{
	if (level == true) {
		VPORTC.OUT |= (1 << pin);
	} else {
		VPORTC.OUT &= ~(1 << pin);
    1aa4:	89 b1       	in	r24, 0x09	; 9
    1aa6:	8b 7f       	andi	r24, 0xFB	; 251
    1aa8:	89 b9       	out	0x09, r24	; 9
	switch (dir) {
	case PORT_DIR_IN:
		VPORTC.DIR &= ~(1 << pin);
		break;
	case PORT_DIR_OUT:
		VPORTC.DIR |= (1 << pin);
    1aaa:	88 b1       	in	r24, 0x08	; 8
    1aac:	84 60       	ori	r24, 0x04	; 4
    1aae:	88 b9       	out	0x08, r24	; 8
	    // <true"> High
	    false);

	PC2_set_dir(PORT_DIR_OUT);

	SPI_LMX_init();
    1ab0:	0e 94 ef 0d 	call	0x1bde	; 0x1bde <SPI_LMX_init>
    1ab4:	08 95       	ret

00001ab6 <TIMER_RISING_initialization>:
}

void TIMER_RISING_initialization(void)
{

	TIMER_RISING_init();
    1ab6:	0e 94 f8 0d 	call	0x1bf0	; 0x1bf0 <TIMER_RISING_init>
    1aba:	08 95       	ret

00001abc <TIMER_Falling_initialization>:
}

void TIMER_Falling_initialization(void)
{

	TIMER_Falling_init();
    1abc:	0e 94 0a 0e 	call	0x1c14	; 0x1c14 <TIMER_Falling_init>
    1ac0:	08 95       	ret

00001ac2 <TIMER_C_initialization>:
}

void TIMER_C_initialization(void)
{

	TIMER_C_init();
    1ac2:	0e 94 15 0e 	call	0x1c2a	; 0x1c2a <TIMER_C_init>
    1ac6:	08 95       	ret

00001ac8 <system_init>:
/**
 * \brief System initialization
 */
void system_init()
{
	mcu_init();
    1ac8:	0e 94 b8 0c 	call	0x1970	; 0x1970 <mcu_init>
static inline void PORTA_set_pin_level(const uint8_t pin, const bool level)
{
	if (level == true) {
		VPORTA.OUT |= (1 << pin);
	} else {
		VPORTA.OUT &= ~(1 << pin);
    1acc:	81 b1       	in	r24, 0x01	; 1
    1ace:	8f 77       	andi	r24, 0x7F	; 127
    1ad0:	81 b9       	out	0x01, r24	; 1
	switch (dir) {
	case PORT_DIR_IN:
		VPORTA.DIR &= ~(1 << pin);
		break;
	case PORT_DIR_OUT:
		VPORTA.DIR |= (1 << pin);
    1ad2:	80 b1       	in	r24, 0x00	; 0
    1ad4:	80 68       	ori	r24, 0x80	; 128
    1ad6:	80 b9       	out	0x00, r24	; 0
static inline void PORTB_set_pin_level(const uint8_t pin, const bool level)
{
	if (level == true) {
		VPORTB.OUT |= (1 << pin);
	} else {
		VPORTB.OUT &= ~(1 << pin);
    1ad8:	85 b1       	in	r24, 0x05	; 5
    1ada:	87 7f       	andi	r24, 0xF7	; 247
    1adc:	85 b9       	out	0x05, r24	; 5
	switch (dir) {
	case PORT_DIR_IN:
		VPORTB.DIR &= ~(1 << pin);
		break;
	case PORT_DIR_OUT:
		VPORTB.DIR |= (1 << pin);
    1ade:	84 b1       	in	r24, 0x04	; 4
    1ae0:	88 60       	ori	r24, 0x08	; 8
    1ae2:	84 b9       	out	0x04, r24	; 4
 *                  false = Pin level set to "low" state
 */
static inline void PORTC_set_pin_level(const uint8_t pin, const bool level)
{
	if (level == true) {
		VPORTC.OUT |= (1 << pin);
    1ae4:	89 b1       	in	r24, 0x09	; 9
    1ae6:	88 60       	ori	r24, 0x08	; 8
    1ae8:	89 b9       	out	0x09, r24	; 9
	switch (dir) {
	case PORT_DIR_IN:
		VPORTC.DIR &= ~(1 << pin);
		break;
	case PORT_DIR_OUT:
		VPORTC.DIR |= (1 << pin);
    1aea:	88 b1       	in	r24, 0x08	; 8
    1aec:	88 60       	ori	r24, 0x08	; 8
    1aee:	88 b9       	out	0x08, r24	; 8
static inline void PORTD_set_pin_level(const uint8_t pin, const bool level)
{
	if (level == true) {
		VPORTD.OUT |= (1 << pin);
	} else {
		VPORTD.OUT &= ~(1 << pin);
    1af0:	8d b1       	in	r24, 0x0d	; 13
    1af2:	8b 7f       	andi	r24, 0xFB	; 251
    1af4:	8d b9       	out	0x0d, r24	; 13
	switch (dir) {
	case PORT_DIR_IN:
		VPORTD.DIR &= ~(1 << pin);
		break;
	case PORT_DIR_OUT:
		VPORTD.DIR |= (1 << pin);
    1af6:	8c b1       	in	r24, 0x0c	; 12
    1af8:	84 60       	ori	r24, 0x04	; 4
    1afa:	8c b9       	out	0x0c, r24	; 12
	    // <true"> High
	    false);

	LTC_ENABLE_set_dir(PORT_DIR_OUT);

	CLKCTRL_init();
    1afc:	0e 94 5a 0e 	call	0x1cb4	; 0x1cb4 <CLKCTRL_init>

	USART_0_initialization();
    1b00:	0e 94 01 0d 	call	0x1a02	; 0x1a02 <USART_0_initialization>

	EVENT_SYSTEM_0_initialization();
    1b04:	0e 94 12 0d 	call	0x1a24	; 0x1a24 <EVENT_SYSTEM_0_initialization>

	SLPCTRL_init();
    1b08:	0e 94 bd 0d 	call	0x1b7a	; 0x1b7a <SLPCTRL_init>

	CPUINT_init();
    1b0c:	0e 94 74 0e 	call	0x1ce8	; 0x1ce8 <CPUINT_init>

	ZCD_Rising_initialization();
    1b10:	0e 94 15 0d 	call	0x1a2a	; 0x1a2a <ZCD_Rising_initialization>

	ZCD_Falling_initialization();
    1b14:	0e 94 21 0d 	call	0x1a42	; 0x1a42 <ZCD_Falling_initialization>

	SPI_ADF_initialization();
    1b18:	0e 94 2d 0d 	call	0x1a5a	; 0x1a5a <SPI_ADF_initialization>

	SPI_LMX_initialization();
    1b1c:	0e 94 44 0d 	call	0x1a88	; 0x1a88 <SPI_LMX_initialization>

	RTC_0_init();
    1b20:	0e 94 ac 0d 	call	0x1b58	; 0x1b58 <RTC_0_init>

	TIMER_RISING_initialization();
    1b24:	0e 94 5b 0d 	call	0x1ab6	; 0x1ab6 <TIMER_RISING_initialization>

	TIMER_Falling_initialization();
    1b28:	0e 94 5e 0d 	call	0x1abc	; 0x1abc <TIMER_Falling_initialization>

	TIMER_C_initialization();
    1b2c:	0e 94 61 0d 	call	0x1ac2	; 0x1ac2 <TIMER_C_initialization>

	BOD_init();
    1b30:	0e 94 56 0e 	call	0x1cac	; 0x1cac <BOD_init>
    1b34:	08 95       	ret

00001b36 <EVENT_SYSTEM_0_init>:
 * \return Initialization status.
 */
int8_t EVENT_SYSTEM_0_init()
{

	EVSYS.CHANNEL0 = EVSYS_CHANNEL0_ZCD0_gc; /* Zero Cross Detect 0 out */
    1b36:	e0 e0       	ldi	r30, 0x00	; 0
    1b38:	f2 e0       	ldi	r31, 0x02	; 2
    1b3a:	80 e3       	ldi	r24, 0x30	; 48
    1b3c:	80 8b       	std	Z+16, r24	; 0x10

	EVSYS.CHANNEL1 = EVSYS_CHANNEL1_ZCD1_gc; /* Zero Cross Detect 1 out */
    1b3e:	81 e3       	ldi	r24, 0x31	; 49
    1b40:	81 8b       	std	Z+17, r24	; 0x11

	// EVSYS.USERTCA1CNTA = EVSYS_USER_OFF_gc; /* Off */

	// EVSYS.USERTCA1CNTB = EVSYS_USER_OFF_gc; /* Off */

	EVSYS.USERTCB0CAPT = EVSYS_USER_CHANNEL0_gc; /* Connect user to event channel 0 */
    1b42:	91 e0       	ldi	r25, 0x01	; 1
    1b44:	96 af       	std	Z+62, r25	; 0x3e

	// EVSYS.USERTCB1CAPT = EVSYS_USER_OFF_gc; /* Off */

	// EVSYS.USERTCB1COUNT = EVSYS_USER_OFF_gc; /* Off */

	EVSYS.USERTCB2CAPT = EVSYS_USER_CHANNEL1_gc; /* Connect user to event channel 1 */
    1b46:	82 e0       	ldi	r24, 0x02	; 2
    1b48:	80 93 42 02 	sts	0x0242, r24	; 0x800242 <__TEXT_REGION_LENGTH__+0x7e0242>

	// EVSYS.USERTCB3CAPT = EVSYS_USER_OFF_gc; /* Off */

	// EVSYS.USERTCB3COUNT = EVSYS_USER_OFF_gc; /* Off */

	EVSYS.USERTCD0INPUTA = EVSYS_USER_CHANNEL0_gc; /* Connect user to event channel 0 */
    1b4c:	90 93 48 02 	sts	0x0248, r25	; 0x800248 <__TEXT_REGION_LENGTH__+0x7e0248>

	EVSYS.USERTCD0INPUTB = EVSYS_USER_CHANNEL1_gc; /* Connect user to event channel 1 */
    1b50:	80 93 49 02 	sts	0x0249, r24	; 0x800249 <__TEXT_REGION_LENGTH__+0x7e0249>
	// EVSYS.USEROPAMP2DUMP = EVSYS_USER_OFF_gc; /* Off */

	// EVSYS.USEROPAMP2DISABLE = EVSYS_USER_OFF_gc; /* Off */

	return 0;
}
    1b54:	80 e0       	ldi	r24, 0x00	; 0
    1b56:	08 95       	ret

00001b58 <RTC_0_init>:
 * \return Initialization status.
 */
int8_t RTC_0_init()
{

	while (RTC.STATUS > 0) { /* Wait for all register to be synchronized */
    1b58:	80 91 41 01 	lds	r24, 0x0141	; 0x800141 <__TEXT_REGION_LENGTH__+0x7e0141>
    1b5c:	81 11       	cpse	r24, r1
    1b5e:	fc cf       	rjmp	.-8      	; 0x1b58 <RTC_0_init>

	// RTC.CMP = 0x0; /* Compare: 0x0 */

	// RTC.CNT = 0x0; /* Counter: 0x0 */

	RTC.CTRLA = RTC_PRESCALER_DIV32_gc  /* 32 */
    1b60:	e0 e4       	ldi	r30, 0x40	; 64
    1b62:	f1 e0       	ldi	r31, 0x01	; 1
    1b64:	88 ea       	ldi	r24, 0xA8	; 168
    1b66:	80 83       	st	Z, r24
	            | 0 << RTC_RTCEN_bp     /* Enable: disabled */
	            | 1 << RTC_RUNSTDBY_bp; /* Run In Standby: enabled */

	RTC.PER = 0x1ff; /* Period: 0x1ff */
    1b68:	8f ef       	ldi	r24, 0xFF	; 255
    1b6a:	91 e0       	ldi	r25, 0x01	; 1
    1b6c:	82 87       	std	Z+10, r24	; 0x0a
    1b6e:	93 87       	std	Z+11, r25	; 0x0b

	RTC.CLKSEL = RTC_CLKSEL_OSC32K_gc; /* Internal 32.768 kHz oscillator */
    1b70:	17 82       	std	Z+7, r1	; 0x07

	// RTC.DBGCTRL = 0 << RTC_DBGRUN_bp; /* Run in debug: disabled */

	RTC.INTCTRL = 0 << RTC_CMP_bp    /* Compare Match Interrupt enable: disabled */
    1b72:	81 e0       	ldi	r24, 0x01	; 1
    1b74:	82 83       	std	Z+2, r24	; 0x02
	// RTC.PITDBGCTRL = 0 << RTC_DBGRUN_bp; /* Run in debug: disabled */

	// RTC.PITINTCTRL = 0 << RTC_PI_bp; /* Periodic Interrupt: disabled */

	return 0;
}
    1b76:	80 e0       	ldi	r24, 0x00	; 0
    1b78:	08 95       	ret

00001b7a <SLPCTRL_init>:

	// SLPCTRL.CTRLA = 0 << SLPCTRL_SEN_bp /* Sleep enable: disabled */
	//		 | SLPCTRL_SMODE_IDLE_gc; /* Idle mode */

	return 0;
}
    1b7a:	80 e0       	ldi	r24, 0x00	; 0
    1b7c:	08 95       	ret

00001b7e <SPI_ADF_init>:
		while (!(SPI0.INTFLAGS & SPI_RXCIF_bm))
			;
		*b = SPI0.DATA;
		b++;
	}
}
    1b7e:	e0 e4       	ldi	r30, 0x40	; 64
    1b80:	f9 e0       	ldi	r31, 0x09	; 9
    1b82:	81 e2       	ldi	r24, 0x21	; 33
    1b84:	80 83       	st	Z, r24
    1b86:	81 e0       	ldi	r24, 0x01	; 1
    1b88:	82 83       	std	Z+2, r24	; 0x02
    1b8a:	10 92 b0 43 	sts	0x43B0, r1	; 0x8043b0 <SPI_ADF_desc>
    1b8e:	08 95       	ret

00001b90 <SPI_ADF_enable>:
    1b90:	e0 e4       	ldi	r30, 0x40	; 64
    1b92:	f9 e0       	ldi	r31, 0x09	; 9
    1b94:	80 81       	ld	r24, Z
    1b96:	81 60       	ori	r24, 0x01	; 1
    1b98:	80 83       	st	Z, r24
    1b9a:	08 95       	ret

00001b9c <SPI_ADF_write_block>:
 * \param[in] size The size of buffer to transfer
 *
 * \return Nothing.
 */
void SPI_ADF_write_block(void *block, uint8_t size)
{
    1b9c:	fc 01       	movw	r30, r24
	uint8_t *b = (uint8_t *)block;
	while (size--) {
    1b9e:	09 c0       	rjmp	.+18     	; 0x1bb2 <SPI_ADF_write_block+0x16>
		SPI0.DATA = *b;
    1ba0:	90 81       	ld	r25, Z
    1ba2:	90 93 44 09 	sts	0x0944, r25	; 0x800944 <__TEXT_REGION_LENGTH__+0x7e0944>
		while (!(SPI0.INTFLAGS & SPI_RXCIF_bm))
    1ba6:	90 91 43 09 	lds	r25, 0x0943	; 0x800943 <__TEXT_REGION_LENGTH__+0x7e0943>
    1baa:	99 23       	and	r25, r25
    1bac:	e4 f7       	brge	.-8      	; 0x1ba6 <SPI_ADF_write_block+0xa>
			;
		b++;
    1bae:	31 96       	adiw	r30, 0x01	; 1
 * \return Nothing.
 */
void SPI_ADF_write_block(void *block, uint8_t size)
{
	uint8_t *b = (uint8_t *)block;
	while (size--) {
    1bb0:	68 2f       	mov	r22, r24
    1bb2:	8f ef       	ldi	r24, 0xFF	; 255
    1bb4:	86 0f       	add	r24, r22
    1bb6:	61 11       	cpse	r22, r1
    1bb8:	f3 cf       	rjmp	.-26     	; 0x1ba0 <SPI_ADF_write_block+0x4>
		SPI0.DATA = *b;
		while (!(SPI0.INTFLAGS & SPI_RXCIF_bm))
			;
		b++;
	}
}
    1bba:	08 95       	ret

00001bbc <SPI_ADF_read_block>:
 * \param[in] size The size of buffer to transfer
 *
 * \return Nothing.
 */
void SPI_ADF_read_block(void *block, uint8_t size)
{
    1bbc:	fc 01       	movw	r30, r24
	uint8_t *b = (uint8_t *)block;
	while (size--) {
    1bbe:	0a c0       	rjmp	.+20     	; 0x1bd4 <SPI_ADF_read_block+0x18>
		SPI0.DATA = 0;
    1bc0:	10 92 44 09 	sts	0x0944, r1	; 0x800944 <__TEXT_REGION_LENGTH__+0x7e0944>
		while (!(SPI0.INTFLAGS & SPI_RXCIF_bm))
    1bc4:	90 91 43 09 	lds	r25, 0x0943	; 0x800943 <__TEXT_REGION_LENGTH__+0x7e0943>
    1bc8:	99 23       	and	r25, r25
    1bca:	e4 f7       	brge	.-8      	; 0x1bc4 <SPI_ADF_read_block+0x8>
			;
		*b = SPI0.DATA;
    1bcc:	90 91 44 09 	lds	r25, 0x0944	; 0x800944 <__TEXT_REGION_LENGTH__+0x7e0944>
    1bd0:	91 93       	st	Z+, r25
 * \return Nothing.
 */
void SPI_ADF_read_block(void *block, uint8_t size)
{
	uint8_t *b = (uint8_t *)block;
	while (size--) {
    1bd2:	68 2f       	mov	r22, r24
    1bd4:	8f ef       	ldi	r24, 0xFF	; 255
    1bd6:	86 0f       	add	r24, r22
    1bd8:	61 11       	cpse	r22, r1
    1bda:	f2 cf       	rjmp	.-28     	; 0x1bc0 <SPI_ADF_read_block+0x4>
		while (!(SPI0.INTFLAGS & SPI_RXCIF_bm))
			;
		*b = SPI0.DATA;
		b++;
	}
}
    1bdc:	08 95       	ret

00001bde <SPI_LMX_init>:
 * \retval 1 the SPI init was not successful
 */
void SPI_LMX_init()
{

	SPI1.CTRLA = 0 << SPI_CLK2X_bp    /* Enable Double Speed: disabled */
    1bde:	e0 e6       	ldi	r30, 0x60	; 96
    1be0:	f9 e0       	ldi	r31, 0x09	; 9
    1be2:	81 e2       	ldi	r24, 0x21	; 33
    1be4:	80 83       	st	Z, r24
	// SPI1.CTRLB = 0 << SPI_BUFEN_bp /* Buffer Mode Enable: disabled */
	//		 | 0 << SPI_BUFWR_bp /* Buffer Write Mode: disabled */
	//		 | SPI_MODE_0_gc /* SPI Mode 0 */
	//		 | 0 << SPI_SSD_bp; /* Slave Select Disable: disabled */

	SPI1.INTCTRL = 0 << SPI_DREIE_bp    /* Data Register Empty Interrupt Enable: disabled */
    1be6:	81 e0       	ldi	r24, 0x01	; 1
    1be8:	82 83       	std	Z+2, r24	; 0x02
	               | 1 << SPI_IE_bp     /* Interrupt Enable: enabled */
	               | 0 << SPI_RXCIE_bp  /* Receive Complete Interrupt Enable: disabled */
	               | 0 << SPI_SSIE_bp   /* Slave Select Trigger Interrupt Enable: disabled */
	               | 0 << SPI_TXCIE_bp; /* Transfer Complete Interrupt Enable: disabled */

	SPI_LMX_desc.status = SPI_FREE;
    1bea:	10 92 af 43 	sts	0x43AF, r1	; 0x8043af <SPI_LMX_desc>
    1bee:	08 95       	ret

00001bf0 <TIMER_RISING_init>:
 * \return Initialization status.
 */
int8_t TIMER_RISING_init()
{

	TCB0.CCMP = 0xffff; /* Compare or Capture: 0xffff */
    1bf0:	e0 e0       	ldi	r30, 0x00	; 0
    1bf2:	fb e0       	ldi	r31, 0x0B	; 11
    1bf4:	8f ef       	ldi	r24, 0xFF	; 255
    1bf6:	9f ef       	ldi	r25, 0xFF	; 255
    1bf8:	84 87       	std	Z+12, r24	; 0x0c
    1bfa:	95 87       	std	Z+13, r25	; 0x0d

	TCB0.CNT = 0xffff; /* Count: 0xffff */
    1bfc:	82 87       	std	Z+10, r24	; 0x0a
    1bfe:	93 87       	std	Z+11, r25	; 0x0b

	TCB0.CTRLB = 0 << TCB_ASYNC_bp      /* Asynchronous Enable: disabled */
    1c00:	83 e0       	ldi	r24, 0x03	; 3
    1c02:	81 83       	std	Z+1, r24	; 0x01
	             | 0 << TCB_CCMPEN_bp   /* Pin Output Enable: disabled */
	             | 0 << TCB_CCMPINIT_bp /* Pin Initial State: disabled */
	             | TCB_CNTMODE_FRQ_gc;  /* Input Capture Frequency measurement */

	TCB0.DBGCTRL = 1 << TCB_DBGRUN_bp; /* Debug Run: enabled */
    1c04:	81 e0       	ldi	r24, 0x01	; 1
    1c06:	80 87       	std	Z+8, r24	; 0x08

	TCB0.EVCTRL = 1 << TCB_CAPTEI_bp    /* Event Input Enable: enabled */
    1c08:	84 83       	std	Z+4, r24	; 0x04
	              | 0 << TCB_EDGE_bp    /* Event Edge: disabled */
	              | 0 << TCB_FILTER_bp; /* Input Capture Noise Cancellation Filter: disabled */

	TCB0.INTCTRL = 1 << TCB_CAPT_bp   /* Capture or Timeout: enabled */
    1c0a:	85 83       	std	Z+5, r24	; 0x05
	               | 0 << TCB_OVF_bp; /* OverFlow Interrupt: disabled */

	TCB0.CTRLA = TCB_CLKSEL_DIV1_gc     /* CLK_PER */
    1c0c:	81 e4       	ldi	r24, 0x41	; 65
    1c0e:	80 83       	st	Z, r24
	             | 1 << TCB_RUNSTDBY_bp /* Run Standby: enabled */
	             | 0 << TCB_SYNCUPD_bp  /* Synchronize Update: disabled */
	             | 0 << TCB_CASCADE_bp; /* Cascade Two Timer/Counters: disabled */

	return 0;
}
    1c10:	80 e0       	ldi	r24, 0x00	; 0
    1c12:	08 95       	ret

00001c14 <TIMER_Falling_init>:

	// TCB2.CCMP = 0x0; /* Compare or Capture: 0x0 */

	// TCB2.CNT = 0x0; /* Count: 0x0 */

	TCB2.CTRLB = 1 << TCB_ASYNC_bp      /* Asynchronous Enable: enabled */
    1c14:	e0 e2       	ldi	r30, 0x20	; 32
    1c16:	fb e0       	ldi	r31, 0x0B	; 11
    1c18:	83 e4       	ldi	r24, 0x43	; 67
    1c1a:	81 83       	std	Z+1, r24	; 0x01
	             | 0 << TCB_CCMPINIT_bp /* Pin Initial State: disabled */
	             | TCB_CNTMODE_FRQ_gc;  /* Input Capture Frequency measurement */

	// TCB2.DBGCTRL = 0 << TCB_DBGRUN_bp; /* Debug Run: disabled */

	TCB2.EVCTRL = 1 << TCB_CAPTEI_bp    /* Event Input Enable: enabled */
    1c1c:	81 e0       	ldi	r24, 0x01	; 1
    1c1e:	84 83       	std	Z+4, r24	; 0x04
	              | 0 << TCB_EDGE_bp    /* Event Edge: disabled */
	              | 0 << TCB_FILTER_bp; /* Input Capture Noise Cancellation Filter: disabled */

	TCB2.INTCTRL = 1 << TCB_CAPT_bp   /* Capture or Timeout: enabled */
    1c20:	85 83       	std	Z+5, r24	; 0x05
	               | 0 << TCB_OVF_bp; /* OverFlow Interrupt: disabled */

	TCB2.CTRLA = TCB_CLKSEL_DIV1_gc     /* CLK_PER */
    1c22:	81 e4       	ldi	r24, 0x41	; 65
    1c24:	80 83       	st	Z, r24
	             | 1 << TCB_RUNSTDBY_bp /* Run Standby: enabled */
	             | 0 << TCB_SYNCUPD_bp  /* Synchronize Update: disabled */
	             | 0 << TCB_CASCADE_bp; /* Cascade Two Timer/Counters: disabled */

	return 0;
}
    1c26:	80 e0       	ldi	r24, 0x00	; 0
    1c28:	08 95       	ret

00001c2a <TIMER_C_init>:
int8_t TIMER_C_init()
{

	// Enable Protected register, peripheral must be disabled (ENABLE=0, in TCD.CTRLA).

	TCD0.CMPASET = 4095; /* Compare A Set: 4095 */
    1c2a:	e0 e8       	ldi	r30, 0x80	; 128
    1c2c:	fb e0       	ldi	r31, 0x0B	; 11
    1c2e:	8f ef       	ldi	r24, 0xFF	; 255
    1c30:	9f e0       	ldi	r25, 0x0F	; 15
    1c32:	80 a7       	std	Z+40, r24	; 0x28
    1c34:	91 a7       	std	Z+41, r25	; 0x29

	// TCD0.CMPACLR = 0; /* Compare A Clear: 0 */

	TCD0.CMPBSET = 4095; /* Compare B Set: 4095 */
    1c36:	84 a7       	std	Z+44, r24	; 0x2c
    1c38:	95 a7       	std	Z+45, r25	; 0x2d
	//		 | TCD_DLYTRIG_CMPASET_gc; /* Compare A set */

	// TCD0.DLYVAL = 0 << TCD_DLYVAL_gp; /* Delay value: 0 */

	TCD0.EVCTRLA
	    = TCD_CFG_NEITHER_gc      /* Neither Filter nor Asynchronous Event is enabled */
    1c3a:	85 e1       	ldi	r24, 0x15	; 21
    1c3c:	80 87       	std	Z+8, r24	; 0x08
	      | TCD_ACTION_CAPTURE_gc /* Event trigger a fault and capture */
	      | TCD_EDGE_RISE_HIGH_gc /* The rising edge or high level of event generates retrigger or fault action */
	      | 1 << TCD_TRIGEI_bp;   /* Trigger event enable: enabled */

	TCD0.EVCTRLB
	    = TCD_CFG_NEITHER_gc      /* Neither Filter nor Asynchronous Event is enabled */
    1c3e:	81 87       	std	Z+9, r24	; 0x09

	// TCD0.INPUTCTRLA = TCD_INPUTMODE_NONE_gc; /* Input has no actions */

	// TCD0.INPUTCTRLB = TCD_INPUTMODE_NONE_gc; /* Input has no actions */

	TCD0.INTCTRL = 0 << TCD_OVF_bp      /* Overflow interrupt enable: disabled */
    1c40:	8c e0       	ldi	r24, 0x0C	; 12
    1c42:	84 87       	std	Z+12, r24	; 0x0c
	               | 1 << TCD_TRIGA_bp  /* Trigger A interrupt enable: enabled */
	               | 1 << TCD_TRIGB_bp; /* Trigger B interrupt enable: enabled */

	while ((TCD0.STATUS & TCD_ENRDY_bm) == 0)
    1c44:	80 91 8e 0b 	lds	r24, 0x0B8E	; 0x800b8e <__TEXT_REGION_LENGTH__+0x7e0b8e>
    1c48:	80 ff       	sbrs	r24, 0
    1c4a:	fc cf       	rjmp	.-8      	; 0x1c44 <TIMER_C_init+0x1a>
		; // Wait for Enable Ready to be high.

	TCD0.CTRLA = 1 << TCD_ENABLE_bp      /* Enable: enabled */
    1c4c:	81 e2       	ldi	r24, 0x21	; 33
    1c4e:	80 93 80 0b 	sts	0x0B80, r24	; 0x800b80 <__TEXT_REGION_LENGTH__+0x7e0b80>
	             | TCD_CLKSEL_PLL_gc     /*  */
	             | TCD_CNTPRES_DIV1_gc   /* Sync clock divided by 1 */
	             | TCD_SYNCPRES_DIV1_gc; /*  */

	return 0;
}
    1c52:	80 e0       	ldi	r24, 0x00	; 0
    1c54:	08 95       	ret

00001c56 <USART_0_init>:
uint8_t USART_0_read()
{
	while (!(USART3.STATUS & USART_RXCIF_bm))
		;
	return USART3.RXDATAL;
}
    1c56:	e0 e6       	ldi	r30, 0x60	; 96
    1c58:	f8 e0       	ldi	r31, 0x08	; 8
    1c5a:	81 e4       	ldi	r24, 0x41	; 65
    1c5c:	93 e0       	ldi	r25, 0x03	; 3
    1c5e:	80 87       	std	Z+8, r24	; 0x08
    1c60:	91 87       	std	Z+9, r25	; 0x09
    1c62:	80 ec       	ldi	r24, 0xC0	; 192
    1c64:	86 83       	std	Z+6, r24	; 0x06
    1c66:	80 e0       	ldi	r24, 0x00	; 0
    1c68:	90 e4       	ldi	r25, 0x40	; 64
    1c6a:	80 93 8a 45 	sts	0x458A, r24	; 0x80458a <__iob+0x2>
    1c6e:	90 93 8b 45 	sts	0x458B, r25	; 0x80458b <__iob+0x3>
    1c72:	80 e0       	ldi	r24, 0x00	; 0
    1c74:	08 95       	ret

00001c76 <USART_0_write>:
 *
 * \return Nothing
 */
void USART_0_write(const uint8_t data)
{
	while (!(USART3.STATUS & USART_DREIF_bm))
    1c76:	90 91 64 08 	lds	r25, 0x0864	; 0x800864 <__TEXT_REGION_LENGTH__+0x7e0864>
    1c7a:	95 ff       	sbrs	r25, 5
    1c7c:	fc cf       	rjmp	.-8      	; 0x1c76 <USART_0_write>
		;
	USART3.TXDATAL = data;
    1c7e:	80 93 62 08 	sts	0x0862, r24	; 0x800862 <__TEXT_REGION_LENGTH__+0x7e0862>
    1c82:	08 95       	ret

00001c84 <USART_0_printCHAR>:

#if defined(__GNUC__)

int USART_0_printCHAR(char character, FILE *stream)
{
	USART_0_write(character);
    1c84:	0e 94 3b 0e 	call	0x1c76	; 0x1c76 <USART_0_write>
	return 0;
}
    1c88:	80 e0       	ldi	r24, 0x00	; 0
    1c8a:	90 e0       	ldi	r25, 0x00	; 0
    1c8c:	08 95       	ret

00001c8e <ZCD_Rising_init>:
 * \return Initialization status.
 */
int8_t ZCD_Rising_init()
{

	ZCD0.CTRLA = 1 << ZCD_ENABLE_bp     /* Setting: enabled */
    1c8e:	e0 ec       	ldi	r30, 0xC0	; 192
    1c90:	f6 e0       	ldi	r31, 0x06	; 6
    1c92:	81 e0       	ldi	r24, 0x01	; 1
    1c94:	80 83       	st	Z, r24
	             | 0 << ZCD_OUTEN_bp    /* Setting: disabled */
	             | 0 << ZCD_RUNSTDBY_bp /* Setting: disabled */
	             | 0 << ZCD_INVERT_bp;  /* Setting: disabled */

	ZCD0.INTCTRL = ZCD_INTMODE_RISING_gc; /* Interrupt on rising input signal */
    1c96:	82 83       	std	Z+2, r24	; 0x02

	return 0;
}
    1c98:	80 e0       	ldi	r24, 0x00	; 0
    1c9a:	08 95       	ret

00001c9c <ZCD_Falling_init>:
 * \return Initialization status.
 */
int8_t ZCD_Falling_init()
{

	ZCD1.CTRLA = 1 << ZCD_ENABLE_bp     /* Setting: enabled */
    1c9c:	e8 ec       	ldi	r30, 0xC8	; 200
    1c9e:	f6 e0       	ldi	r31, 0x06	; 6
    1ca0:	81 e0       	ldi	r24, 0x01	; 1
    1ca2:	80 83       	st	Z, r24
	             | 0 << ZCD_OUTEN_bp    /* Setting: disabled */
	             | 0 << ZCD_RUNSTDBY_bp /* Setting: disabled */
	             | 0 << ZCD_INVERT_bp;  /* Setting: disabled */

	ZCD1.INTCTRL = ZCD_INTMODE_FALLING_gc; /* Interrupt on falling input signal */
    1ca4:	82 e0       	ldi	r24, 0x02	; 2
    1ca6:	82 83       	std	Z+2, r24	; 0x02

	return 0;
}
    1ca8:	80 e0       	ldi	r24, 0x00	; 0
    1caa:	08 95       	ret

00001cac <BOD_init>:
int8_t BOD_init()
{

	// ccp_write_io((void*)&(BOD.CTRLA),BOD_SLEEP_DIS_gc /* Disabled */);

	BOD.INTCTRL = 0 << BOD_VLMIE_bp        /* voltage level monitor interrrupt enable: disabled */
    1cac:	10 92 a9 00 	sts	0x00A9, r1	; 0x8000a9 <__TEXT_REGION_LENGTH__+0x7e00a9>
	              | BOD_VLMCFG_FALLING_gc; /* Interrupt when supply goes below VLM level */

	// BOD.VLMCTRLA = BOD_VLMLVL_5ABOVE_gc; /* VLM threshold 5% above BOD level */

	return 0;
}
    1cb0:	80 e0       	ldi	r24, 0x00	; 0
    1cb2:	08 95       	ret

00001cb4 <CLKCTRL_init>:
 *       on calling convention. The memory model is not visible to the
 *       preprocessor, so it must be defined in the Assembler preprocessor directives.
 */
static inline void ccp_write_io(void *addr, uint8_t value)
{
	protected_write_io(addr, CCP_IOREG_gc, value);
    1cb4:	45 e8       	ldi	r20, 0x85	; 133
    1cb6:	68 ed       	ldi	r22, 0xD8	; 216
    1cb8:	8c e7       	ldi	r24, 0x7C	; 124
    1cba:	90 e0       	ldi	r25, 0x00	; 0
    1cbc:	0e 94 76 0e 	call	0x1cec	; 0x1cec <protected_write_io>
    1cc0:	41 e8       	ldi	r20, 0x81	; 129
    1cc2:	68 ed       	ldi	r22, 0xD8	; 216
    1cc4:	80 e7       	ldi	r24, 0x70	; 112
    1cc6:	90 e0       	ldi	r25, 0x00	; 0
    1cc8:	0e 94 76 0e 	call	0x1cec	; 0x1cec <protected_write_io>
    1ccc:	4c e0       	ldi	r20, 0x0C	; 12
    1cce:	68 ed       	ldi	r22, 0xD8	; 216
    1cd0:	80 e8       	ldi	r24, 0x80	; 128
    1cd2:	90 e0       	ldi	r25, 0x00	; 0
    1cd4:	0e 94 76 0e 	call	0x1cec	; 0x1cec <protected_write_io>
    1cd8:	44 e2       	ldi	r20, 0x24	; 36
    1cda:	68 ed       	ldi	r22, 0xD8	; 216
    1cdc:	88 e6       	ldi	r24, 0x68	; 104
    1cde:	90 e0       	ldi	r25, 0x00	; 0
    1ce0:	0e 94 76 0e 	call	0x1cec	; 0x1cec <protected_write_io>
	// ccp_write_io((void*)&(CLKCTRL.MCLKCTRLA),CLKCTRL_CLKSEL_OSCHF_gc /* Internal high-frequency oscillator */
	//		 | 0 << CLKCTRL_CLKOUT_bp /* System clock out: disabled */);


	return 0;
}
    1ce4:	80 e0       	ldi	r24, 0x00	; 0
    1ce6:	08 95       	ret

00001ce8 <CPUINT_init>:
	// CPUINT.LVL0PRI = 0x0 << CPUINT_LVL0PRI_gp; /* Interrupt Level Priority: 0x0 */

	// CPUINT.LVL1VEC = 0x0 << CPUINT_LVL1VEC_gp; /* Interrupt Vector with High Priority: 0x0 */

	return 0;
}
    1ce8:	80 e0       	ldi	r24, 0x00	; 0
    1cea:	08 95       	ret

00001cec <protected_write_io>:
	PUBLIC_FUNCTION(protected_write_io)

#if defined(__GNUC__)
  
#ifdef RAMPZ
	out     _SFR_IO_ADDR(RAMPZ), r1         // Clear bits 23:16 of Z
    1cec:	1b be       	out	0x3b, r1	; 59
#endif
	movw    r30, r24                // Load addr into Z
    1cee:	fc 01       	movw	r30, r24
	out     CCP, r22                // Start CCP handshake
    1cf0:	64 bf       	out	0x34, r22	; 52
	st      Z, r20                  // Write value to I/O register
    1cf2:	40 83       	st	Z, r20
	ret                             // Return to caller
    1cf4:	08 95       	ret

00001cf6 <_ZN15lmx2694_HandlerC1Ev>:
			Set_Target_Frequency(current_frequency);
			_delay_ms(100);
		}
	}
	return false;
}
    1cf6:	fc 01       	movw	r30, r24
    1cf8:	87 e9       	ldi	r24, 0x97	; 151
    1cfa:	94 e4       	ldi	r25, 0x44	; 68
    1cfc:	86 83       	std	Z+6, r24	; 0x06
    1cfe:	97 83       	std	Z+7, r25	; 0x07
    1d00:	81 eb       	ldi	r24, 0xB1	; 177
    1d02:	93 e4       	ldi	r25, 0x43	; 67
    1d04:	84 83       	std	Z+4, r24	; 0x04
    1d06:	95 83       	std	Z+5, r25	; 0x05
    1d08:	81 e0       	ldi	r24, 0x01	; 1
    1d0a:	81 8f       	std	Z+25, r24	; 0x19
    1d0c:	17 8a       	std	Z+23, r1	; 0x17
    1d0e:	40 e0       	ldi	r20, 0x00	; 0
    1d10:	50 e0       	ldi	r21, 0x00	; 0
    1d12:	68 ec       	ldi	r22, 0xC8	; 200
    1d14:	7e e3       	ldi	r23, 0x3E	; 62
    1d16:	42 af       	std	Z+58, r20	; 0x3a
    1d18:	53 af       	std	Z+59, r21	; 0x3b
    1d1a:	64 af       	std	Z+60, r22	; 0x3c
    1d1c:	75 af       	std	Z+61, r23	; 0x3d
    1d1e:	40 e0       	ldi	r20, 0x00	; 0
    1d20:	50 e0       	ldi	r21, 0x00	; 0
    1d22:	6a e7       	ldi	r22, 0x7A	; 122
    1d24:	75 e4       	ldi	r23, 0x45	; 69
    1d26:	40 83       	st	Z, r20
    1d28:	51 83       	std	Z+1, r21	; 0x01
    1d2a:	62 83       	std	Z+2, r22	; 0x02
    1d2c:	73 83       	std	Z+3, r23	; 0x03
    1d2e:	40 e4       	ldi	r20, 0x40	; 64
    1d30:	56 e0       	ldi	r21, 0x06	; 6
    1d32:	6a e7       	ldi	r22, 0x7A	; 122
    1d34:	75 e4       	ldi	r23, 0x45	; 69
    1d36:	42 a7       	std	Z+42, r20	; 0x2a
    1d38:	53 a7       	std	Z+43, r21	; 0x2b
    1d3a:	64 a7       	std	Z+44, r22	; 0x2c
    1d3c:	75 a7       	std	Z+45, r23	; 0x2d
    1d3e:	87 af       	std	Z+63, r24	; 0x3f
    1d40:	80 8f       	std	Z+24, r24	; 0x18
    1d42:	08 95       	ret

00001d44 <_ZN15lmx2694_HandlerD1Ev>:
    1d44:	08 95       	ret

00001d46 <_ZN15lmx2694_Handler13Get_N_DividerEb>:
    1d46:	fc 01       	movw	r30, r24
    1d48:	61 11       	cpse	r22, r1
    1d4a:	18 c0       	rjmp	.+48     	; 0x1d7c <_ZN15lmx2694_Handler13Get_N_DividerEb+0x36>
    1d4c:	86 81       	ldd	r24, Z+6	; 0x06
    1d4e:	97 81       	ldd	r25, Z+7	; 0x07
    1d50:	dc 01       	movw	r26, r24
    1d52:	ac 5b       	subi	r26, 0xBC	; 188
    1d54:	bf 4f       	sbci	r27, 0xFF	; 255
    1d56:	4d 91       	ld	r20, X+
    1d58:	5c 91       	ld	r21, X
    1d5a:	11 97       	sbiw	r26, 0x01	; 1
    1d5c:	60 e0       	ldi	r22, 0x00	; 0
    1d5e:	70 e0       	ldi	r23, 0x00	; 0
    1d60:	ba 01       	movw	r22, r20
    1d62:	55 27       	eor	r21, r21
    1d64:	44 27       	eor	r20, r20
    1d66:	14 96       	adiw	r26, 0x04	; 4
    1d68:	8d 91       	ld	r24, X+
    1d6a:	9c 91       	ld	r25, X
    1d6c:	48 0f       	add	r20, r24
    1d6e:	59 1f       	adc	r21, r25
    1d70:	61 1d       	adc	r22, r1
    1d72:	71 1d       	adc	r23, r1
    1d74:	42 8f       	std	Z+26, r20	; 0x1a
    1d76:	53 8f       	std	Z+27, r21	; 0x1b
    1d78:	64 8f       	std	Z+28, r22	; 0x1c
    1d7a:	75 8f       	std	Z+29, r23	; 0x1d
    1d7c:	62 8d       	ldd	r22, Z+26	; 0x1a
    1d7e:	73 8d       	ldd	r23, Z+27	; 0x1b
    1d80:	84 8d       	ldd	r24, Z+28	; 0x1c
    1d82:	95 8d       	ldd	r25, Z+29	; 0x1d
    1d84:	08 95       	ret

00001d86 <_ZN15lmx2694_Handler13Get_NumeratorEb>:
    1d86:	fc 01       	movw	r30, r24
    1d88:	61 11       	cpse	r22, r1
    1d8a:	18 c0       	rjmp	.+48     	; 0x1dbc <_ZN15lmx2694_Handler13Get_NumeratorEb+0x36>
    1d8c:	86 81       	ldd	r24, Z+6	; 0x06
    1d8e:	97 81       	ldd	r25, Z+7	; 0x07
    1d90:	dc 01       	movw	r26, r24
    1d92:	ac 5a       	subi	r26, 0xAC	; 172
    1d94:	bf 4f       	sbci	r27, 0xFF	; 255
    1d96:	4d 91       	ld	r20, X+
    1d98:	5c 91       	ld	r21, X
    1d9a:	11 97       	sbiw	r26, 0x01	; 1
    1d9c:	60 e0       	ldi	r22, 0x00	; 0
    1d9e:	70 e0       	ldi	r23, 0x00	; 0
    1da0:	ba 01       	movw	r22, r20
    1da2:	55 27       	eor	r21, r21
    1da4:	44 27       	eor	r20, r20
    1da6:	12 96       	adiw	r26, 0x02	; 2
    1da8:	8d 91       	ld	r24, X+
    1daa:	9c 91       	ld	r25, X
    1dac:	48 0f       	add	r20, r24
    1dae:	59 1f       	adc	r21, r25
    1db0:	61 1d       	adc	r22, r1
    1db2:	71 1d       	adc	r23, r1
    1db4:	46 8f       	std	Z+30, r20	; 0x1e
    1db6:	57 8f       	std	Z+31, r21	; 0x1f
    1db8:	60 a3       	std	Z+32, r22	; 0x20
    1dba:	71 a3       	std	Z+33, r23	; 0x21
    1dbc:	66 8d       	ldd	r22, Z+30	; 0x1e
    1dbe:	77 8d       	ldd	r23, Z+31	; 0x1f
    1dc0:	80 a1       	ldd	r24, Z+32	; 0x20
    1dc2:	91 a1       	ldd	r25, Z+33	; 0x21
    1dc4:	08 95       	ret

00001dc6 <_ZN15lmx2694_Handler15Get_DenominatorEb>:
    1dc6:	fc 01       	movw	r30, r24
    1dc8:	61 11       	cpse	r22, r1
    1dca:	18 c0       	rjmp	.+48     	; 0x1dfc <_ZN15lmx2694_Handler15Get_DenominatorEb+0x36>
    1dcc:	86 81       	ldd	r24, Z+6	; 0x06
    1dce:	97 81       	ldd	r25, Z+7	; 0x07
    1dd0:	dc 01       	movw	r26, r24
    1dd2:	a4 5b       	subi	r26, 0xB4	; 180
    1dd4:	bf 4f       	sbci	r27, 0xFF	; 255
    1dd6:	4d 91       	ld	r20, X+
    1dd8:	5c 91       	ld	r21, X
    1dda:	11 97       	sbiw	r26, 0x01	; 1
    1ddc:	60 e0       	ldi	r22, 0x00	; 0
    1dde:	70 e0       	ldi	r23, 0x00	; 0
    1de0:	ba 01       	movw	r22, r20
    1de2:	55 27       	eor	r21, r21
    1de4:	44 27       	eor	r20, r20
    1de6:	12 96       	adiw	r26, 0x02	; 2
    1de8:	8d 91       	ld	r24, X+
    1dea:	9c 91       	ld	r25, X
    1dec:	48 0f       	add	r20, r24
    1dee:	59 1f       	adc	r21, r25
    1df0:	61 1d       	adc	r22, r1
    1df2:	71 1d       	adc	r23, r1
    1df4:	42 a3       	std	Z+34, r20	; 0x22
    1df6:	53 a3       	std	Z+35, r21	; 0x23
    1df8:	64 a3       	std	Z+36, r22	; 0x24
    1dfa:	75 a3       	std	Z+37, r23	; 0x25
    1dfc:	62 a1       	ldd	r22, Z+34	; 0x22
    1dfe:	73 a1       	ldd	r23, Z+35	; 0x23
    1e00:	84 a1       	ldd	r24, Z+36	; 0x24
    1e02:	95 a1       	ldd	r25, Z+37	; 0x25
    1e04:	08 95       	ret

00001e06 <_ZN15lmx2694_Handler27Calculate_Current_FrequencyEb>:
    1e06:	4f 92       	push	r4
    1e08:	5f 92       	push	r5
    1e0a:	6f 92       	push	r6
    1e0c:	7f 92       	push	r7
    1e0e:	8f 92       	push	r8
    1e10:	9f 92       	push	r9
    1e12:	af 92       	push	r10
    1e14:	bf 92       	push	r11
    1e16:	cf 92       	push	r12
    1e18:	df 92       	push	r13
    1e1a:	ef 92       	push	r14
    1e1c:	ff 92       	push	r15
    1e1e:	cf 93       	push	r28
    1e20:	df 93       	push	r29
    1e22:	ec 01       	movw	r28, r24
    1e24:	61 11       	cpse	r22, r1
    1e26:	36 c0       	rjmp	.+108    	; 0x1e94 <_ZN15lmx2694_Handler27Calculate_Current_FrequencyEb+0x8e>
    1e28:	0e 94 a3 0e 	call	0x1d46	; 0x1d46 <_ZN15lmx2694_Handler13Get_N_DividerEb>
    1e2c:	2b 01       	movw	r4, r22
    1e2e:	3c 01       	movw	r6, r24
    1e30:	60 e0       	ldi	r22, 0x00	; 0
    1e32:	ce 01       	movw	r24, r28
    1e34:	0e 94 c3 0e 	call	0x1d86	; 0x1d86 <_ZN15lmx2694_Handler13Get_NumeratorEb>
    1e38:	4b 01       	movw	r8, r22
    1e3a:	5c 01       	movw	r10, r24
    1e3c:	60 e0       	ldi	r22, 0x00	; 0
    1e3e:	ce 01       	movw	r24, r28
    1e40:	0e 94 e3 0e 	call	0x1dc6	; 0x1dc6 <_ZN15lmx2694_Handler15Get_DenominatorEb>
    1e44:	6b 01       	movw	r12, r22
    1e46:	7c 01       	movw	r14, r24
    1e48:	c5 01       	movw	r24, r10
    1e4a:	b4 01       	movw	r22, r8
    1e4c:	0e 94 bb 16 	call	0x2d76	; 0x2d76 <__floatunsisf>
    1e50:	4b 01       	movw	r8, r22
    1e52:	5c 01       	movw	r10, r24
    1e54:	c7 01       	movw	r24, r14
    1e56:	b6 01       	movw	r22, r12
    1e58:	0e 94 bb 16 	call	0x2d76	; 0x2d76 <__floatunsisf>
    1e5c:	9b 01       	movw	r18, r22
    1e5e:	ac 01       	movw	r20, r24
    1e60:	c5 01       	movw	r24, r10
    1e62:	b4 01       	movw	r22, r8
    1e64:	0e 94 13 16 	call	0x2c26	; 0x2c26 <__divsf3>
    1e68:	6b 01       	movw	r12, r22
    1e6a:	7c 01       	movw	r14, r24
    1e6c:	c3 01       	movw	r24, r6
    1e6e:	b2 01       	movw	r22, r4
    1e70:	0e 94 bb 16 	call	0x2d76	; 0x2d76 <__floatunsisf>
    1e74:	9b 01       	movw	r18, r22
    1e76:	ac 01       	movw	r20, r24
    1e78:	c7 01       	movw	r24, r14
    1e7a:	b6 01       	movw	r22, r12
    1e7c:	0e 94 a2 15 	call	0x2b44	; 0x2b44 <__addsf3>
    1e80:	20 e0       	ldi	r18, 0x00	; 0
    1e82:	30 e0       	ldi	r19, 0x00	; 0
    1e84:	48 e4       	ldi	r20, 0x48	; 72
    1e86:	53 e4       	ldi	r21, 0x43	; 67
    1e88:	0e 94 1a 18 	call	0x3034	; 0x3034 <__mulsf3>
    1e8c:	6e a7       	std	Y+46, r22	; 0x2e
    1e8e:	7f a7       	std	Y+47, r23	; 0x2f
    1e90:	88 ab       	std	Y+48, r24	; 0x30
    1e92:	99 ab       	std	Y+49, r25	; 0x31
    1e94:	6e a5       	ldd	r22, Y+46	; 0x2e
    1e96:	7f a5       	ldd	r23, Y+47	; 0x2f
    1e98:	88 a9       	ldd	r24, Y+48	; 0x30
    1e9a:	99 a9       	ldd	r25, Y+49	; 0x31
    1e9c:	df 91       	pop	r29
    1e9e:	cf 91       	pop	r28
    1ea0:	ff 90       	pop	r15
    1ea2:	ef 90       	pop	r14
    1ea4:	df 90       	pop	r13
    1ea6:	cf 90       	pop	r12
    1ea8:	bf 90       	pop	r11
    1eaa:	af 90       	pop	r10
    1eac:	9f 90       	pop	r9
    1eae:	8f 90       	pop	r8
    1eb0:	7f 90       	pop	r7
    1eb2:	6f 90       	pop	r6
    1eb4:	5f 90       	pop	r5
    1eb6:	4f 90       	pop	r4
    1eb8:	08 95       	ret

00001eba <_ZN15lmx2694_Handler3GCDEmm>:
    1eba:	8f 92       	push	r8
    1ebc:	9f 92       	push	r9
    1ebe:	af 92       	push	r10
    1ec0:	bf 92       	push	r11
    1ec2:	cf 92       	push	r12
    1ec4:	df 92       	push	r13
    1ec6:	ef 92       	push	r14
    1ec8:	ff 92       	push	r15
    1eca:	0f 93       	push	r16
    1ecc:	1f 93       	push	r17
    1ece:	cf 93       	push	r28
    1ed0:	df 93       	push	r29
    1ed2:	41 15       	cp	r20, r1
    1ed4:	51 05       	cpc	r21, r1
    1ed6:	61 05       	cpc	r22, r1
    1ed8:	71 05       	cpc	r23, r1
    1eda:	79 f1       	breq	.+94     	; 0x1f3a <_ZN15lmx2694_Handler3GCDEmm+0x80>
    1edc:	01 15       	cp	r16, r1
    1ede:	11 05       	cpc	r17, r1
    1ee0:	21 05       	cpc	r18, r1
    1ee2:	31 05       	cpc	r19, r1
    1ee4:	79 f1       	breq	.+94     	; 0x1f44 <_ZN15lmx2694_Handler3GCDEmm+0x8a>
    1ee6:	68 01       	movw	r12, r16
    1ee8:	79 01       	movw	r14, r18
    1eea:	4a 01       	movw	r8, r20
    1eec:	5b 01       	movw	r10, r22
    1eee:	ec 01       	movw	r28, r24
    1ef0:	40 17       	cp	r20, r16
    1ef2:	51 07       	cpc	r21, r17
    1ef4:	62 07       	cpc	r22, r18
    1ef6:	73 07       	cpc	r23, r19
    1ef8:	80 f4       	brcc	.+32     	; 0x1f1a <_ZN15lmx2694_Handler3GCDEmm+0x60>
    1efa:	c9 01       	movw	r24, r18
    1efc:	b8 01       	movw	r22, r16
    1efe:	a5 01       	movw	r20, r10
    1f00:	94 01       	movw	r18, r8
    1f02:	0e 94 86 1d 	call	0x3b0c	; 0x3b0c <__udivmodsi4>
    1f06:	8b 01       	movw	r16, r22
    1f08:	9c 01       	movw	r18, r24
    1f0a:	b5 01       	movw	r22, r10
    1f0c:	a4 01       	movw	r20, r8
    1f0e:	ce 01       	movw	r24, r28
    1f10:	0e 94 5d 0f 	call	0x1eba	; 0x1eba <_ZN15lmx2694_Handler3GCDEmm>
    1f14:	f6 2f       	mov	r31, r22
    1f16:	e7 2f       	mov	r30, r23
    1f18:	19 c0       	rjmp	.+50     	; 0x1f4c <_ZN15lmx2694_Handler3GCDEmm+0x92>
    1f1a:	cb 01       	movw	r24, r22
    1f1c:	ba 01       	movw	r22, r20
    1f1e:	a9 01       	movw	r20, r18
    1f20:	98 01       	movw	r18, r16
    1f22:	0e 94 86 1d 	call	0x3b0c	; 0x3b0c <__udivmodsi4>
    1f26:	8b 01       	movw	r16, r22
    1f28:	9c 01       	movw	r18, r24
    1f2a:	b7 01       	movw	r22, r14
    1f2c:	a6 01       	movw	r20, r12
    1f2e:	ce 01       	movw	r24, r28
    1f30:	0e 94 5d 0f 	call	0x1eba	; 0x1eba <_ZN15lmx2694_Handler3GCDEmm>
    1f34:	f6 2f       	mov	r31, r22
    1f36:	e7 2f       	mov	r30, r23
    1f38:	09 c0       	rjmp	.+18     	; 0x1f4c <_ZN15lmx2694_Handler3GCDEmm+0x92>
    1f3a:	f0 2f       	mov	r31, r16
    1f3c:	e1 2f       	mov	r30, r17
    1f3e:	82 2f       	mov	r24, r18
    1f40:	93 2f       	mov	r25, r19
    1f42:	04 c0       	rjmp	.+8      	; 0x1f4c <_ZN15lmx2694_Handler3GCDEmm+0x92>
    1f44:	f4 2f       	mov	r31, r20
    1f46:	e5 2f       	mov	r30, r21
    1f48:	86 2f       	mov	r24, r22
    1f4a:	97 2f       	mov	r25, r23
    1f4c:	6f 2f       	mov	r22, r31
    1f4e:	7e 2f       	mov	r23, r30
    1f50:	df 91       	pop	r29
    1f52:	cf 91       	pop	r28
    1f54:	1f 91       	pop	r17
    1f56:	0f 91       	pop	r16
    1f58:	ff 90       	pop	r15
    1f5a:	ef 90       	pop	r14
    1f5c:	df 90       	pop	r13
    1f5e:	cf 90       	pop	r12
    1f60:	bf 90       	pop	r11
    1f62:	af 90       	pop	r10
    1f64:	9f 90       	pop	r9
    1f66:	8f 90       	pop	r8
    1f68:	08 95       	ret

00001f6a <_ZN15lmx2694_Handler28Choose_Channel_Divider_IndexEv>:
    1f6a:	af 92       	push	r10
    1f6c:	bf 92       	push	r11
    1f6e:	cf 92       	push	r12
    1f70:	df 92       	push	r13
    1f72:	ef 92       	push	r14
    1f74:	ff 92       	push	r15
    1f76:	0f 93       	push	r16
    1f78:	1f 93       	push	r17
    1f7a:	cf 93       	push	r28
    1f7c:	df 93       	push	r29
    1f7e:	7c 01       	movw	r14, r24
    1f80:	0e ed       	ldi	r16, 0xDE	; 222
    1f82:	10 e4       	ldi	r17, 0x40	; 64
    1f84:	c0 e0       	ldi	r28, 0x00	; 0
    1f86:	d0 e0       	ldi	r29, 0x00	; 0
    1f88:	0f 2e       	mov	r0, r31
    1f8a:	fc ee       	ldi	r31, 0xEC	; 236
    1f8c:	cf 2e       	mov	r12, r31
    1f8e:	fc e2       	ldi	r31, 0x2C	; 44
    1f90:	df 2e       	mov	r13, r31
    1f92:	f0 2d       	mov	r31, r0
    1f94:	0f 2e       	mov	r0, r31
    1f96:	fc ef       	ldi	r31, 0xFC	; 252
    1f98:	af 2e       	mov	r10, r31
    1f9a:	fa e3       	ldi	r31, 0x3A	; 58
    1f9c:	bf 2e       	mov	r11, r31
    1f9e:	f0 2d       	mov	r31, r0
    1fa0:	c3 30       	cpi	r28, 0x03	; 3
    1fa2:	d1 05       	cpc	r29, r1
    1fa4:	fc f4       	brge	.+62     	; 0x1fe4 <_ZN15lmx2694_Handler28Choose_Channel_Divider_IndexEv+0x7a>
    1fa6:	f8 01       	movw	r30, r16
    1fa8:	60 81       	ld	r22, Z
    1faa:	71 81       	ldd	r23, Z+1	; 0x01
    1fac:	c5 01       	movw	r24, r10
    1fae:	0e 94 72 1d 	call	0x3ae4	; 0x3ae4 <__divmodhi4>
    1fb2:	07 2e       	mov	r0, r23
    1fb4:	00 0c       	add	r0, r0
    1fb6:	88 0b       	sbc	r24, r24
    1fb8:	99 0b       	sbc	r25, r25
    1fba:	0e 94 bd 16 	call	0x2d7a	; 0x2d7a <__floatsisf>
    1fbe:	f7 01       	movw	r30, r14
    1fc0:	22 a5       	ldd	r18, Z+42	; 0x2a
    1fc2:	33 a5       	ldd	r19, Z+43	; 0x2b
    1fc4:	44 a5       	ldd	r20, Z+44	; 0x2c
    1fc6:	55 a5       	ldd	r21, Z+45	; 0x2d
    1fc8:	0e 94 c5 17 	call	0x2f8a	; 0x2f8a <__gesf2>
    1fcc:	18 16       	cp	r1, r24
    1fce:	1c f1       	brlt	.+70     	; 0x2016 <_ZN15lmx2694_Handler28Choose_Channel_Divider_IndexEv+0xac>
    1fd0:	1c 16       	cp	r1, r28
    1fd2:	1d 06       	cpc	r1, r29
    1fd4:	24 f4       	brge	.+8      	; 0x1fde <_ZN15lmx2694_Handler28Choose_Channel_Divider_IndexEv+0x74>
    1fd6:	c1 50       	subi	r28, 0x01	; 1
    1fd8:	f7 01       	movw	r30, r14
    1fda:	c7 8b       	std	Z+23, r28	; 0x17
    1fdc:	23 c0       	rjmp	.+70     	; 0x2024 <_ZN15lmx2694_Handler28Choose_Channel_Divider_IndexEv+0xba>
    1fde:	f7 01       	movw	r30, r14
    1fe0:	17 8a       	std	Z+23, r1	; 0x17
    1fe2:	20 c0       	rjmp	.+64     	; 0x2024 <_ZN15lmx2694_Handler28Choose_Channel_Divider_IndexEv+0xba>
    1fe4:	f8 01       	movw	r30, r16
    1fe6:	60 81       	ld	r22, Z
    1fe8:	71 81       	ldd	r23, Z+1	; 0x01
    1fea:	c6 01       	movw	r24, r12
    1fec:	0e 94 72 1d 	call	0x3ae4	; 0x3ae4 <__divmodhi4>
    1ff0:	07 2e       	mov	r0, r23
    1ff2:	00 0c       	add	r0, r0
    1ff4:	88 0b       	sbc	r24, r24
    1ff6:	99 0b       	sbc	r25, r25
    1ff8:	0e 94 bd 16 	call	0x2d7a	; 0x2d7a <__floatsisf>
    1ffc:	f7 01       	movw	r30, r14
    1ffe:	22 a5       	ldd	r18, Z+42	; 0x2a
    2000:	33 a5       	ldd	r19, Z+43	; 0x2b
    2002:	44 a5       	ldd	r20, Z+44	; 0x2c
    2004:	55 a5       	ldd	r21, Z+45	; 0x2d
    2006:	0e 94 c5 17 	call	0x2f8a	; 0x2f8a <__gesf2>
    200a:	18 16       	cp	r1, r24
    200c:	24 f0       	brlt	.+8      	; 0x2016 <_ZN15lmx2694_Handler28Choose_Channel_Divider_IndexEv+0xac>
    200e:	c1 50       	subi	r28, 0x01	; 1
    2010:	f7 01       	movw	r30, r14
    2012:	c7 8b       	std	Z+23, r28	; 0x17
    2014:	07 c0       	rjmp	.+14     	; 0x2024 <_ZN15lmx2694_Handler28Choose_Channel_Divider_IndexEv+0xba>
    2016:	21 96       	adiw	r28, 0x01	; 1
    2018:	0e 5f       	subi	r16, 0xFE	; 254
    201a:	1f 4f       	sbci	r17, 0xFF	; 255
    201c:	ce 30       	cpi	r28, 0x0E	; 14
    201e:	d1 05       	cpc	r29, r1
    2020:	09 f0       	breq	.+2      	; 0x2024 <_ZN15lmx2694_Handler28Choose_Channel_Divider_IndexEv+0xba>
    2022:	be cf       	rjmp	.-132    	; 0x1fa0 <_ZN15lmx2694_Handler28Choose_Channel_Divider_IndexEv+0x36>
    2024:	f7 01       	movw	r30, r14
    2026:	87 89       	ldd	r24, Z+23	; 0x17
    2028:	e8 2f       	mov	r30, r24
    202a:	f0 e0       	ldi	r31, 0x00	; 0
    202c:	ee 0f       	add	r30, r30
    202e:	ff 1f       	adc	r31, r31
    2030:	e2 52       	subi	r30, 0x22	; 34
    2032:	ff 4b       	sbci	r31, 0xBF	; 191
    2034:	90 81       	ld	r25, Z
    2036:	f7 01       	movw	r30, r14
    2038:	91 8f       	std	Z+25, r25	; 0x19
    203a:	df 91       	pop	r29
    203c:	cf 91       	pop	r28
    203e:	1f 91       	pop	r17
    2040:	0f 91       	pop	r16
    2042:	ff 90       	pop	r15
    2044:	ef 90       	pop	r14
    2046:	df 90       	pop	r13
    2048:	cf 90       	pop	r12
    204a:	bf 90       	pop	r11
    204c:	af 90       	pop	r10
    204e:	08 95       	ret

00002050 <_ZN15lmx2694_Handler18Calculate_FractionEf>:
    2050:	8f 92       	push	r8
    2052:	9f 92       	push	r9
    2054:	af 92       	push	r10
    2056:	bf 92       	push	r11
    2058:	cf 92       	push	r12
    205a:	df 92       	push	r13
    205c:	ef 92       	push	r14
    205e:	ff 92       	push	r15
    2060:	0f 93       	push	r16
    2062:	1f 93       	push	r17
    2064:	cf 93       	push	r28
    2066:	df 93       	push	r29
    2068:	ec 01       	movw	r28, r24
    206a:	cb 01       	movw	r24, r22
    206c:	ba 01       	movw	r22, r20
    206e:	20 e0       	ldi	r18, 0x00	; 0
    2070:	30 e0       	ldi	r19, 0x00	; 0
    2072:	40 e8       	ldi	r20, 0x80	; 128
    2074:	5f e4       	ldi	r21, 0x4F	; 79
    2076:	0e 94 1a 18 	call	0x3034	; 0x3034 <__mulsf3>
    207a:	0e 94 d7 18 	call	0x31ae	; 0x31ae <round>
    207e:	4b 01       	movw	r8, r22
    2080:	5c 01       	movw	r10, r24
    2082:	0e 94 8c 16 	call	0x2d18	; 0x2d18 <__fixunssfsi>
    2086:	ab 01       	movw	r20, r22
    2088:	bc 01       	movw	r22, r24
    208a:	0f ef       	ldi	r16, 0xFF	; 255
    208c:	1f ef       	ldi	r17, 0xFF	; 255
    208e:	98 01       	movw	r18, r16
    2090:	ce 01       	movw	r24, r28
    2092:	0e 94 5d 0f 	call	0x1eba	; 0x1eba <_ZN15lmx2694_Handler3GCDEmm>
    2096:	6b 01       	movw	r12, r22
    2098:	7c 01       	movw	r14, r24
    209a:	6e a3       	std	Y+38, r22	; 0x26
    209c:	7f a3       	std	Y+39, r23	; 0x27
    209e:	88 a7       	std	Y+40, r24	; 0x28
    20a0:	99 a7       	std	Y+41, r25	; 0x29
    20a2:	0e 94 bb 16 	call	0x2d76	; 0x2d76 <__floatunsisf>
    20a6:	9b 01       	movw	r18, r22
    20a8:	ac 01       	movw	r20, r24
    20aa:	c5 01       	movw	r24, r10
    20ac:	b4 01       	movw	r22, r8
    20ae:	0e 94 13 16 	call	0x2c26	; 0x2c26 <__divsf3>
    20b2:	0e 94 8c 16 	call	0x2d18	; 0x2d18 <__fixunssfsi>
    20b6:	6e 8f       	std	Y+30, r22	; 0x1e
    20b8:	7f 8f       	std	Y+31, r23	; 0x1f
    20ba:	88 a3       	std	Y+32, r24	; 0x20
    20bc:	99 a3       	std	Y+33, r25	; 0x21
    20be:	6f ef       	ldi	r22, 0xFF	; 255
    20c0:	7f ef       	ldi	r23, 0xFF	; 255
    20c2:	cb 01       	movw	r24, r22
    20c4:	a7 01       	movw	r20, r14
    20c6:	96 01       	movw	r18, r12
    20c8:	0e 94 86 1d 	call	0x3b0c	; 0x3b0c <__udivmodsi4>
    20cc:	2a a3       	std	Y+34, r18	; 0x22
    20ce:	3b a3       	std	Y+35, r19	; 0x23
    20d0:	4c a3       	std	Y+36, r20	; 0x24
    20d2:	5d a3       	std	Y+37, r21	; 0x25
    20d4:	df 91       	pop	r29
    20d6:	cf 91       	pop	r28
    20d8:	1f 91       	pop	r17
    20da:	0f 91       	pop	r16
    20dc:	ff 90       	pop	r15
    20de:	ef 90       	pop	r14
    20e0:	df 90       	pop	r13
    20e2:	cf 90       	pop	r12
    20e4:	bf 90       	pop	r11
    20e6:	af 90       	pop	r10
    20e8:	9f 90       	pop	r9
    20ea:	8f 90       	pop	r8
    20ec:	08 95       	ret

000020ee <_ZN15lmx2694_Handler15Get_Three_BytesEm>:
    20ee:	fc 01       	movw	r30, r24
    20f0:	44 87       	std	Z+12, r20	; 0x0c
    20f2:	53 87       	std	Z+11, r21	; 0x0b
    20f4:	62 87       	std	Z+10, r22	; 0x0a
    20f6:	08 95       	ret

000020f8 <_ZN15lmx2694_Handler10Power_DownEv>:
    20f8:	cf 93       	push	r28
    20fa:	df 93       	push	r29
    20fc:	ec 01       	movw	r28, r24
    20fe:	60 e0       	ldi	r22, 0x00	; 0
    2100:	88 85       	ldd	r24, Y+8	; 0x08
    2102:	99 85       	ldd	r25, Y+9	; 0x09
    2104:	0e 94 ab 0c 	call	0x1956	; 0x1956 <_ZN13SPI_Syn_Class5SetCSEb>
    2108:	49 e1       	ldi	r20, 0x19	; 25
    210a:	51 e2       	ldi	r21, 0x21	; 33
    210c:	60 e0       	ldi	r22, 0x00	; 0
    210e:	70 e0       	ldi	r23, 0x00	; 0
    2110:	ce 01       	movw	r24, r28
    2112:	0e 94 77 10 	call	0x20ee	; 0x20ee <_ZN15lmx2694_Handler15Get_Three_BytesEm>
    2116:	be 01       	movw	r22, r28
    2118:	66 5f       	subi	r22, 0xF6	; 246
    211a:	7f 4f       	sbci	r23, 0xFF	; 255
    211c:	43 e0       	ldi	r20, 0x03	; 3
    211e:	88 85       	ldd	r24, Y+8	; 0x08
    2120:	99 85       	ldd	r25, Y+9	; 0x09
    2122:	0e 94 95 0c 	call	0x192a	; 0x192a <_ZN13SPI_Syn_Class5WriteEPKhh>
    2126:	90 e0       	ldi	r25, 0x00	; 0
    2128:	8a 8b       	std	Y+18, r24	; 0x12
    212a:	9b 8b       	std	Y+19, r25	; 0x13
    212c:	21 e0       	ldi	r18, 0x01	; 1
    212e:	18 16       	cp	r1, r24
    2130:	19 06       	cpc	r1, r25
    2132:	0c f0       	brlt	.+2      	; 0x2136 <_ZN15lmx2694_Handler10Power_DownEv+0x3e>
    2134:	20 e0       	ldi	r18, 0x00	; 0
    2136:	28 8b       	std	Y+16, r18	; 0x10
    2138:	61 e0       	ldi	r22, 0x01	; 1
    213a:	88 85       	ldd	r24, Y+8	; 0x08
    213c:	99 85       	ldd	r25, Y+9	; 0x09
    213e:	0e 94 ab 0c 	call	0x1956	; 0x1956 <_ZN13SPI_Syn_Class5SetCSEb>
    2142:	88 89       	ldd	r24, Y+16	; 0x10
    2144:	df 91       	pop	r29
    2146:	cf 91       	pop	r28
    2148:	08 95       	ret

0000214a <_ZN15lmx2694_Handler13Program_ResetEv>:
    214a:	0f 93       	push	r16
    214c:	1f 93       	push	r17
    214e:	cf 93       	push	r28
    2150:	df 93       	push	r29
    2152:	ec 01       	movw	r28, r24
    2154:	60 e0       	ldi	r22, 0x00	; 0
    2156:	88 85       	ldd	r24, Y+8	; 0x08
    2158:	99 85       	ldd	r25, Y+9	; 0x09
    215a:	0e 94 ab 0c 	call	0x1956	; 0x1956 <_ZN13SPI_Syn_Class5SetCSEb>
    215e:	4e e1       	ldi	r20, 0x1E	; 30
    2160:	51 e2       	ldi	r21, 0x21	; 33
    2162:	60 e0       	ldi	r22, 0x00	; 0
    2164:	70 e0       	ldi	r23, 0x00	; 0
    2166:	ce 01       	movw	r24, r28
    2168:	0e 94 77 10 	call	0x20ee	; 0x20ee <_ZN15lmx2694_Handler15Get_Three_BytesEm>
    216c:	8e 01       	movw	r16, r28
    216e:	06 5f       	subi	r16, 0xF6	; 246
    2170:	1f 4f       	sbci	r17, 0xFF	; 255
    2172:	43 e0       	ldi	r20, 0x03	; 3
    2174:	b8 01       	movw	r22, r16
    2176:	88 85       	ldd	r24, Y+8	; 0x08
    2178:	99 85       	ldd	r25, Y+9	; 0x09
    217a:	0e 94 95 0c 	call	0x192a	; 0x192a <_ZN13SPI_Syn_Class5WriteEPKhh>
    217e:	90 e0       	ldi	r25, 0x00	; 0
    2180:	8a 8b       	std	Y+18, r24	; 0x12
    2182:	9b 8b       	std	Y+19, r25	; 0x13
    2184:	61 e0       	ldi	r22, 0x01	; 1
    2186:	88 85       	ldd	r24, Y+8	; 0x08
    2188:	99 85       	ldd	r25, Y+9	; 0x09
    218a:	0e 94 ab 0c 	call	0x1956	; 0x1956 <_ZN13SPI_Syn_Class5SetCSEb>
    218e:	88 e5       	ldi	r24, 0x58	; 88
    2190:	92 e0       	ldi	r25, 0x02	; 2
    2192:	01 97       	sbiw	r24, 0x01	; 1
    2194:	f1 f7       	brne	.-4      	; 0x2192 <_ZN15lmx2694_Handler13Program_ResetEv+0x48>
    2196:	60 e0       	ldi	r22, 0x00	; 0
    2198:	88 85       	ldd	r24, Y+8	; 0x08
    219a:	99 85       	ldd	r25, Y+9	; 0x09
    219c:	0e 94 ab 0c 	call	0x1956	; 0x1956 <_ZN13SPI_Syn_Class5SetCSEb>
    21a0:	4c e1       	ldi	r20, 0x1C	; 28
    21a2:	51 e2       	ldi	r21, 0x21	; 33
    21a4:	60 e0       	ldi	r22, 0x00	; 0
    21a6:	70 e0       	ldi	r23, 0x00	; 0
    21a8:	ce 01       	movw	r24, r28
    21aa:	0e 94 77 10 	call	0x20ee	; 0x20ee <_ZN15lmx2694_Handler15Get_Three_BytesEm>
    21ae:	43 e0       	ldi	r20, 0x03	; 3
    21b0:	b8 01       	movw	r22, r16
    21b2:	88 85       	ldd	r24, Y+8	; 0x08
    21b4:	99 85       	ldd	r25, Y+9	; 0x09
    21b6:	0e 94 95 0c 	call	0x192a	; 0x192a <_ZN13SPI_Syn_Class5WriteEPKhh>
    21ba:	90 e0       	ldi	r25, 0x00	; 0
    21bc:	8a 8b       	std	Y+18, r24	; 0x12
    21be:	9b 8b       	std	Y+19, r25	; 0x13
    21c0:	21 e0       	ldi	r18, 0x01	; 1
    21c2:	18 16       	cp	r1, r24
    21c4:	19 06       	cpc	r1, r25
    21c6:	0c f0       	brlt	.+2      	; 0x21ca <_ZN15lmx2694_Handler13Program_ResetEv+0x80>
    21c8:	20 e0       	ldi	r18, 0x00	; 0
    21ca:	28 8b       	std	Y+16, r18	; 0x10
    21cc:	61 e0       	ldi	r22, 0x01	; 1
    21ce:	88 85       	ldd	r24, Y+8	; 0x08
    21d0:	99 85       	ldd	r25, Y+9	; 0x09
    21d2:	0e 94 ab 0c 	call	0x1956	; 0x1956 <_ZN13SPI_Syn_Class5SetCSEb>
    21d6:	88 89       	ldd	r24, Y+16	; 0x10
    21d8:	df 91       	pop	r29
    21da:	cf 91       	pop	r28
    21dc:	1f 91       	pop	r17
    21de:	0f 91       	pop	r16
    21e0:	08 95       	ret

000021e2 <_ZN15lmx2694_Handler16Make_Three_BytesEhj>:
    21e2:	fc 01       	movw	r30, r24
    21e4:	44 87       	std	Z+12, r20	; 0x0c
    21e6:	53 87       	std	Z+11, r21	; 0x0b
    21e8:	62 87       	std	Z+10, r22	; 0x0a
    21ea:	08 95       	ret

000021ec <_ZN15lmx2694_Handler21Write_Single_RegisterEhj>:
    21ec:	df 92       	push	r13
    21ee:	ef 92       	push	r14
    21f0:	ff 92       	push	r15
    21f2:	0f 93       	push	r16
    21f4:	1f 93       	push	r17
    21f6:	cf 93       	push	r28
    21f8:	df 93       	push	r29
    21fa:	ec 01       	movw	r28, r24
    21fc:	d6 2e       	mov	r13, r22
    21fe:	7a 01       	movw	r14, r20
    2200:	06 2f       	mov	r16, r22
    2202:	10 e0       	ldi	r17, 0x00	; 0
    2204:	00 0f       	add	r16, r16
    2206:	11 1f       	adc	r17, r17
    2208:	ee 81       	ldd	r30, Y+6	; 0x06
    220a:	ff 81       	ldd	r31, Y+7	; 0x07
    220c:	e0 0f       	add	r30, r16
    220e:	f1 1f       	adc	r31, r17
    2210:	81 e0       	ldi	r24, 0x01	; 1
    2212:	20 81       	ld	r18, Z
    2214:	31 81       	ldd	r19, Z+1	; 0x01
    2216:	24 17       	cp	r18, r20
    2218:	35 07       	cpc	r19, r21
    221a:	09 f0       	breq	.+2      	; 0x221e <_ZN15lmx2694_Handler21Write_Single_RegisterEhj+0x32>
    221c:	80 e0       	ldi	r24, 0x00	; 0
    221e:	88 23       	and	r24, r24
    2220:	19 f0       	breq	.+6      	; 0x2228 <_ZN15lmx2694_Handler21Write_Single_RegisterEhj+0x3c>
    2222:	89 89       	ldd	r24, Y+17	; 0x11
    2224:	81 11       	cpse	r24, r1
    2226:	24 c0       	rjmp	.+72     	; 0x2270 <_ZN15lmx2694_Handler21Write_Single_RegisterEhj+0x84>
    2228:	60 e0       	ldi	r22, 0x00	; 0
    222a:	88 85       	ldd	r24, Y+8	; 0x08
    222c:	99 85       	ldd	r25, Y+9	; 0x09
    222e:	0e 94 ab 0c 	call	0x1956	; 0x1956 <_ZN13SPI_Syn_Class5SetCSEb>
    2232:	a7 01       	movw	r20, r14
    2234:	6d 2d       	mov	r22, r13
    2236:	ce 01       	movw	r24, r28
    2238:	0e 94 f1 10 	call	0x21e2	; 0x21e2 <_ZN15lmx2694_Handler16Make_Three_BytesEhj>
    223c:	43 e0       	ldi	r20, 0x03	; 3
    223e:	be 01       	movw	r22, r28
    2240:	66 5f       	subi	r22, 0xF6	; 246
    2242:	7f 4f       	sbci	r23, 0xFF	; 255
    2244:	88 85       	ldd	r24, Y+8	; 0x08
    2246:	99 85       	ldd	r25, Y+9	; 0x09
    2248:	0e 94 95 0c 	call	0x192a	; 0x192a <_ZN13SPI_Syn_Class5WriteEPKhh>
    224c:	90 e0       	ldi	r25, 0x00	; 0
    224e:	8a 8b       	std	Y+18, r24	; 0x12
    2250:	9b 8b       	std	Y+19, r25	; 0x13
    2252:	18 16       	cp	r1, r24
    2254:	19 06       	cpc	r1, r25
    2256:	3c f4       	brge	.+14     	; 0x2266 <_ZN15lmx2694_Handler21Write_Single_RegisterEhj+0x7a>
    2258:	8e 81       	ldd	r24, Y+6	; 0x06
    225a:	9f 81       	ldd	r25, Y+7	; 0x07
    225c:	fc 01       	movw	r30, r24
    225e:	e0 0f       	add	r30, r16
    2260:	f1 1f       	adc	r31, r17
    2262:	e0 82       	st	Z, r14
    2264:	f1 82       	std	Z+1, r15	; 0x01
    2266:	61 e0       	ldi	r22, 0x01	; 1
    2268:	88 85       	ldd	r24, Y+8	; 0x08
    226a:	99 85       	ldd	r25, Y+9	; 0x09
    226c:	0e 94 ab 0c 	call	0x1956	; 0x1956 <_ZN13SPI_Syn_Class5SetCSEb>
    2270:	8a 89       	ldd	r24, Y+18	; 0x12
    2272:	9b 89       	ldd	r25, Y+19	; 0x13
    2274:	df 91       	pop	r29
    2276:	cf 91       	pop	r28
    2278:	1f 91       	pop	r17
    227a:	0f 91       	pop	r16
    227c:	ff 90       	pop	r15
    227e:	ef 90       	pop	r14
    2280:	df 90       	pop	r13
    2282:	08 95       	ret

00002284 <_ZN15lmx2694_Handler19Program_PFD_DLY_SELEf>:
    2284:	cf 92       	push	r12
    2286:	df 92       	push	r13
    2288:	ef 92       	push	r14
    228a:	ff 92       	push	r15
    228c:	cf 93       	push	r28
    228e:	df 93       	push	r29
    2290:	ec 01       	movw	r28, r24
    2292:	6a 01       	movw	r12, r20
    2294:	7b 01       	movw	r14, r22
    2296:	88 8d       	ldd	r24, Y+24	; 0x18
    2298:	88 23       	and	r24, r24
    229a:	09 f4       	brne	.+2      	; 0x229e <_ZN15lmx2694_Handler19Program_PFD_DLY_SELEf+0x1a>
    229c:	44 c0       	rjmp	.+136    	; 0x2326 <_ZN15lmx2694_Handler19Program_PFD_DLY_SELEf+0xa2>
    229e:	19 f0       	breq	.+6      	; 0x22a6 <_ZN15lmx2694_Handler19Program_PFD_DLY_SELEf+0x22>
    22a0:	81 30       	cpi	r24, 0x01	; 1
    22a2:	c9 f0       	breq	.+50     	; 0x22d6 <_ZN15lmx2694_Handler19Program_PFD_DLY_SELEf+0x52>
    22a4:	40 c0       	rjmp	.+128    	; 0x2326 <_ZN15lmx2694_Handler19Program_PFD_DLY_SELEf+0xa2>
    22a6:	20 e0       	ldi	r18, 0x00	; 0
    22a8:	30 e5       	ldi	r19, 0x50	; 80
    22aa:	43 e4       	ldi	r20, 0x43	; 67
    22ac:	56 e4       	ldi	r21, 0x46	; 70
    22ae:	c7 01       	movw	r24, r14
    22b0:	b6 01       	movw	r22, r12
    22b2:	0e 94 c5 17 	call	0x2f8a	; 0x2f8a <__gesf2>
    22b6:	18 16       	cp	r1, r24
    22b8:	3c f4       	brge	.+14     	; 0x22c8 <_ZN15lmx2694_Handler19Program_PFD_DLY_SELEf+0x44>
    22ba:	44 e0       	ldi	r20, 0x04	; 4
    22bc:	52 e8       	ldi	r21, 0x82	; 130
    22be:	65 e2       	ldi	r22, 0x25	; 37
    22c0:	ce 01       	movw	r24, r28
    22c2:	0e 94 f6 10 	call	0x21ec	; 0x21ec <_ZN15lmx2694_Handler21Write_Single_RegisterEhj>
    22c6:	2f c0       	rjmp	.+94     	; 0x2326 <_ZN15lmx2694_Handler19Program_PFD_DLY_SELEf+0xa2>
    22c8:	44 e0       	ldi	r20, 0x04	; 4
    22ca:	51 e8       	ldi	r21, 0x81	; 129
    22cc:	65 e2       	ldi	r22, 0x25	; 37
    22ce:	ce 01       	movw	r24, r28
    22d0:	0e 94 f6 10 	call	0x21ec	; 0x21ec <_ZN15lmx2694_Handler21Write_Single_RegisterEhj>
    22d4:	28 c0       	rjmp	.+80     	; 0x2326 <_ZN15lmx2694_Handler19Program_PFD_DLY_SELEf+0xa2>
    22d6:	20 e0       	ldi	r18, 0x00	; 0
    22d8:	30 e5       	ldi	r19, 0x50	; 80
    22da:	43 e4       	ldi	r20, 0x43	; 67
    22dc:	56 e4       	ldi	r21, 0x46	; 70
    22de:	c7 01       	movw	r24, r14
    22e0:	b6 01       	movw	r22, r12
    22e2:	0e 94 c5 17 	call	0x2f8a	; 0x2f8a <__gesf2>
    22e6:	18 16       	cp	r1, r24
    22e8:	3c f4       	brge	.+14     	; 0x22f8 <_ZN15lmx2694_Handler19Program_PFD_DLY_SELEf+0x74>
    22ea:	44 e0       	ldi	r20, 0x04	; 4
    22ec:	53 e8       	ldi	r21, 0x83	; 131
    22ee:	65 e2       	ldi	r22, 0x25	; 37
    22f0:	ce 01       	movw	r24, r28
    22f2:	0e 94 f6 10 	call	0x21ec	; 0x21ec <_ZN15lmx2694_Handler21Write_Single_RegisterEhj>
    22f6:	17 c0       	rjmp	.+46     	; 0x2326 <_ZN15lmx2694_Handler19Program_PFD_DLY_SELEf+0xa2>
    22f8:	20 e0       	ldi	r18, 0x00	; 0
    22fa:	30 e4       	ldi	r19, 0x40	; 64
    22fc:	4c e1       	ldi	r20, 0x1C	; 28
    22fe:	56 e4       	ldi	r21, 0x46	; 70
    2300:	c7 01       	movw	r24, r14
    2302:	b6 01       	movw	r22, r12
    2304:	0e 94 c5 17 	call	0x2f8a	; 0x2f8a <__gesf2>
    2308:	18 16       	cp	r1, r24
    230a:	3c f4       	brge	.+14     	; 0x231a <_ZN15lmx2694_Handler19Program_PFD_DLY_SELEf+0x96>
    230c:	44 e0       	ldi	r20, 0x04	; 4
    230e:	52 e8       	ldi	r21, 0x82	; 130
    2310:	65 e2       	ldi	r22, 0x25	; 37
    2312:	ce 01       	movw	r24, r28
    2314:	0e 94 f6 10 	call	0x21ec	; 0x21ec <_ZN15lmx2694_Handler21Write_Single_RegisterEhj>
    2318:	06 c0       	rjmp	.+12     	; 0x2326 <_ZN15lmx2694_Handler19Program_PFD_DLY_SELEf+0xa2>
    231a:	44 e0       	ldi	r20, 0x04	; 4
    231c:	51 e8       	ldi	r21, 0x81	; 129
    231e:	65 e2       	ldi	r22, 0x25	; 37
    2320:	ce 01       	movw	r24, r28
    2322:	0e 94 f6 10 	call	0x21ec	; 0x21ec <_ZN15lmx2694_Handler21Write_Single_RegisterEhj>
    2326:	ee 81       	ldd	r30, Y+6	; 0x06
    2328:	ff 81       	ldd	r31, Y+7	; 0x07
    232a:	e6 5b       	subi	r30, 0xB6	; 182
    232c:	ff 4f       	sbci	r31, 0xFF	; 255
    232e:	80 81       	ld	r24, Z
    2330:	91 81       	ldd	r25, Z+1	; 0x01
    2332:	df 91       	pop	r29
    2334:	cf 91       	pop	r28
    2336:	ff 90       	pop	r15
    2338:	ef 90       	pop	r14
    233a:	df 90       	pop	r13
    233c:	cf 90       	pop	r12
    233e:	08 95       	ret

00002340 <_ZN15lmx2694_Handler13Write_FCAL_ENEb>:
    2340:	cf 93       	push	r28
    2342:	df 93       	push	r29
    2344:	ec 01       	movw	r28, r24
    2346:	66 23       	and	r22, r22
    2348:	41 f0       	breq	.+16     	; 0x235a <_ZN15lmx2694_Handler13Write_FCAL_ENEb+0x1a>
    234a:	ee 81       	ldd	r30, Y+6	; 0x06
    234c:	ff 81       	ldd	r31, Y+7	; 0x07
    234e:	80 81       	ld	r24, Z
    2350:	91 81       	ldd	r25, Z+1	; 0x01
    2352:	88 60       	ori	r24, 0x08	; 8
    2354:	8c 8b       	std	Y+20, r24	; 0x14
    2356:	9d 8b       	std	Y+21, r25	; 0x15
    2358:	07 c0       	rjmp	.+14     	; 0x2368 <_ZN15lmx2694_Handler13Write_FCAL_ENEb+0x28>
    235a:	ee 81       	ldd	r30, Y+6	; 0x06
    235c:	ff 81       	ldd	r31, Y+7	; 0x07
    235e:	80 81       	ld	r24, Z
    2360:	91 81       	ldd	r25, Z+1	; 0x01
    2362:	87 7f       	andi	r24, 0xF7	; 247
    2364:	8c 8b       	std	Y+20, r24	; 0x14
    2366:	9d 8b       	std	Y+21, r25	; 0x15
    2368:	4c 89       	ldd	r20, Y+20	; 0x14
    236a:	5d 89       	ldd	r21, Y+21	; 0x15
    236c:	60 e0       	ldi	r22, 0x00	; 0
    236e:	ce 01       	movw	r24, r28
    2370:	0e 94 f6 10 	call	0x21ec	; 0x21ec <_ZN15lmx2694_Handler21Write_Single_RegisterEhj>
    2374:	8a 8b       	std	Y+18, r24	; 0x12
    2376:	9b 8b       	std	Y+19, r25	; 0x13
    2378:	21 e0       	ldi	r18, 0x01	; 1
    237a:	89 2b       	or	r24, r25
    237c:	09 f4       	brne	.+2      	; 0x2380 <_ZN15lmx2694_Handler13Write_FCAL_ENEb+0x40>
    237e:	20 e0       	ldi	r18, 0x00	; 0
    2380:	82 2f       	mov	r24, r18
    2382:	df 91       	pop	r29
    2384:	cf 91       	pop	r28
    2386:	08 95       	ret

00002388 <_ZN15lmx2694_Handler14Toggle_FCAL_ENEv>:
    2388:	cf 93       	push	r28
    238a:	df 93       	push	r29
    238c:	ec 01       	movw	r28, r24
    238e:	60 e0       	ldi	r22, 0x00	; 0
    2390:	0e 94 a0 11 	call	0x2340	; 0x2340 <_ZN15lmx2694_Handler13Write_FCAL_ENEb>
    2394:	88 e5       	ldi	r24, 0x58	; 88
    2396:	92 e0       	ldi	r25, 0x02	; 2
    2398:	01 97       	sbiw	r24, 0x01	; 1
    239a:	f1 f7       	brne	.-4      	; 0x2398 <_ZN15lmx2694_Handler14Toggle_FCAL_ENEv+0x10>
    239c:	61 e0       	ldi	r22, 0x01	; 1
    239e:	ce 01       	movw	r24, r28
    23a0:	0e 94 a0 11 	call	0x2340	; 0x2340 <_ZN15lmx2694_Handler13Write_FCAL_ENEb>
    23a4:	88 8b       	std	Y+16, r24	; 0x10
    23a6:	df 91       	pop	r29
    23a8:	cf 91       	pop	r28
    23aa:	08 95       	ret

000023ac <_ZN15lmx2694_Handler18Initiate_RegistersEv>:
    23ac:	ff 92       	push	r15
    23ae:	0f 93       	push	r16
    23b0:	1f 93       	push	r17
    23b2:	cf 93       	push	r28
    23b4:	df 93       	push	r29
    23b6:	8c 01       	movw	r16, r24
    23b8:	a0 ee       	ldi	r26, 0xE0	; 224
    23ba:	b1 e4       	ldi	r27, 0x41	; 65
    23bc:	80 e0       	ldi	r24, 0x00	; 0
    23be:	90 e0       	ldi	r25, 0x00	; 0
    23c0:	3e 91       	ld	r19, -X
    23c2:	2e 91       	ld	r18, -X
    23c4:	e8 01       	movw	r28, r16
    23c6:	ec 81       	ldd	r30, Y+4	; 0x04
    23c8:	fd 81       	ldd	r31, Y+5	; 0x05
    23ca:	e8 0f       	add	r30, r24
    23cc:	f9 1f       	adc	r31, r25
    23ce:	20 83       	st	Z, r18
    23d0:	31 83       	std	Z+1, r19	; 0x01
    23d2:	02 96       	adiw	r24, 0x02	; 2
    23d4:	86 3e       	cpi	r24, 0xE6	; 230
    23d6:	91 05       	cpc	r25, r1
    23d8:	99 f7       	brne	.-26     	; 0x23c0 <_ZN15lmx2694_Handler18Initiate_RegistersEv+0x14>
    23da:	0f 2e       	mov	r0, r31
    23dc:	f2 e7       	ldi	r31, 0x72	; 114
    23de:	ff 2e       	mov	r15, r31
    23e0:	f0 2d       	mov	r31, r0
    23e2:	c4 ee       	ldi	r28, 0xE4	; 228
    23e4:	d0 e0       	ldi	r29, 0x00	; 0
    23e6:	d8 01       	movw	r26, r16
    23e8:	14 96       	adiw	r26, 0x04	; 4
    23ea:	ed 91       	ld	r30, X+
    23ec:	fc 91       	ld	r31, X
    23ee:	15 97       	sbiw	r26, 0x05	; 5
    23f0:	ec 0f       	add	r30, r28
    23f2:	fd 1f       	adc	r31, r29
    23f4:	40 81       	ld	r20, Z
    23f6:	51 81       	ldd	r21, Z+1	; 0x01
    23f8:	6f 2d       	mov	r22, r15
    23fa:	c8 01       	movw	r24, r16
    23fc:	0e 94 f6 10 	call	0x21ec	; 0x21ec <_ZN15lmx2694_Handler21Write_Single_RegisterEhj>
    2400:	22 97       	sbiw	r28, 0x02	; 2
    2402:	fa 94       	dec	r15
    2404:	ce 3f       	cpi	r28, 0xFE	; 254
    2406:	bf ef       	ldi	r27, 0xFF	; 255
    2408:	db 07       	cpc	r29, r27
    240a:	69 f7       	brne	.-38     	; 0x23e6 <_ZN15lmx2694_Handler18Initiate_RegistersEv+0x3a>
    240c:	df 91       	pop	r29
    240e:	cf 91       	pop	r28
    2410:	1f 91       	pop	r17
    2412:	0f 91       	pop	r16
    2414:	ff 90       	pop	r15
    2416:	08 95       	ret

00002418 <_ZN15lmx2694_Handler19Set_MUXOUT_READBACKEb>:
    2418:	cf 93       	push	r28
    241a:	df 93       	push	r29
    241c:	ec 01       	movw	r28, r24
    241e:	66 23       	and	r22, r22
    2420:	41 f0       	breq	.+16     	; 0x2432 <_ZN15lmx2694_Handler19Set_MUXOUT_READBACKEb+0x1a>
    2422:	ec 81       	ldd	r30, Y+4	; 0x04
    2424:	fd 81       	ldd	r31, Y+5	; 0x05
    2426:	80 81       	ld	r24, Z
    2428:	91 81       	ldd	r25, Z+1	; 0x01
    242a:	84 60       	ori	r24, 0x04	; 4
    242c:	8c 8b       	std	Y+20, r24	; 0x14
    242e:	9d 8b       	std	Y+21, r25	; 0x15
    2430:	07 c0       	rjmp	.+14     	; 0x2440 <_ZN15lmx2694_Handler19Set_MUXOUT_READBACKEb+0x28>
    2432:	ec 81       	ldd	r30, Y+4	; 0x04
    2434:	fd 81       	ldd	r31, Y+5	; 0x05
    2436:	80 81       	ld	r24, Z
    2438:	91 81       	ldd	r25, Z+1	; 0x01
    243a:	8b 7f       	andi	r24, 0xFB	; 251
    243c:	8c 8b       	std	Y+20, r24	; 0x14
    243e:	9d 8b       	std	Y+21, r25	; 0x15
    2440:	4c 89       	ldd	r20, Y+20	; 0x14
    2442:	5d 89       	ldd	r21, Y+21	; 0x15
    2444:	60 e0       	ldi	r22, 0x00	; 0
    2446:	ce 01       	movw	r24, r28
    2448:	0e 94 f6 10 	call	0x21ec	; 0x21ec <_ZN15lmx2694_Handler21Write_Single_RegisterEhj>
    244c:	8a 8b       	std	Y+18, r24	; 0x12
    244e:	9b 8b       	std	Y+19, r25	; 0x13
    2450:	df 91       	pop	r29
    2452:	cf 91       	pop	r28
    2454:	08 95       	ret

00002456 <_ZN15lmx2694_Handler20Read_Single_RegisterEh>:
    2456:	bf 92       	push	r11
    2458:	cf 92       	push	r12
    245a:	df 92       	push	r13
    245c:	ef 92       	push	r14
    245e:	ff 92       	push	r15
    2460:	0f 93       	push	r16
    2462:	1f 93       	push	r17
    2464:	cf 93       	push	r28
    2466:	df 93       	push	r29
    2468:	ec 01       	movw	r28, r24
    246a:	b6 2e       	mov	r11, r22
    246c:	60 e0       	ldi	r22, 0x00	; 0
    246e:	0e 94 0c 12 	call	0x2418	; 0x2418 <_ZN15lmx2694_Handler19Set_MUXOUT_READBACKEb>
    2472:	1c 8a       	std	Y+20, r1	; 0x14
    2474:	1d 8a       	std	Y+21, r1	; 0x15
    2476:	4b 2d       	mov	r20, r11
    2478:	40 68       	ori	r20, 0x80	; 128
    247a:	c4 2e       	mov	r12, r20
    247c:	8e 01       	movw	r16, r28
    247e:	03 5f       	subi	r16, 0xF3	; 243
    2480:	1f 4f       	sbci	r17, 0xFF	; 255
    2482:	0f 2e       	mov	r0, r31
    2484:	f3 e0       	ldi	r31, 0x03	; 3
    2486:	df 2e       	mov	r13, r31
    2488:	f0 2d       	mov	r31, r0
    248a:	7e 01       	movw	r14, r28
    248c:	86 e1       	ldi	r24, 0x16	; 22
    248e:	e8 0e       	add	r14, r24
    2490:	f1 1c       	adc	r15, r1
    2492:	60 e0       	ldi	r22, 0x00	; 0
    2494:	88 85       	ldd	r24, Y+8	; 0x08
    2496:	99 85       	ldd	r25, Y+9	; 0x09
    2498:	0e 94 ab 0c 	call	0x1956	; 0x1956 <_ZN13SPI_Syn_Class5SetCSEb>
    249c:	ce 8a       	std	Y+22, r12	; 0x16
    249e:	f8 01       	movw	r30, r16
    24a0:	4d 2d       	mov	r20, r13
    24a2:	11 92       	st	Z+, r1
    24a4:	4a 95       	dec	r20
    24a6:	e9 f7       	brne	.-6      	; 0x24a2 <_ZN15lmx2694_Handler20Read_Single_RegisterEh+0x4c>
    24a8:	41 e0       	ldi	r20, 0x01	; 1
    24aa:	b7 01       	movw	r22, r14
    24ac:	88 85       	ldd	r24, Y+8	; 0x08
    24ae:	99 85       	ldd	r25, Y+9	; 0x09
    24b0:	0e 94 95 0c 	call	0x192a	; 0x192a <_ZN13SPI_Syn_Class5WriteEPKhh>
    24b4:	90 e0       	ldi	r25, 0x00	; 0
    24b6:	8a 8b       	std	Y+18, r24	; 0x12
    24b8:	9b 8b       	std	Y+19, r25	; 0x13
    24ba:	42 e0       	ldi	r20, 0x02	; 2
    24bc:	b8 01       	movw	r22, r16
    24be:	88 85       	ldd	r24, Y+8	; 0x08
    24c0:	99 85       	ldd	r25, Y+9	; 0x09
    24c2:	0e 94 a0 0c 	call	0x1940	; 0x1940 <_ZN13SPI_Syn_Class4ReadEPhh>
    24c6:	90 e0       	ldi	r25, 0x00	; 0
    24c8:	8a 8b       	std	Y+18, r24	; 0x12
    24ca:	9b 8b       	std	Y+19, r25	; 0x13
    24cc:	8d 85       	ldd	r24, Y+13	; 0x0d
    24ce:	90 e0       	ldi	r25, 0x00	; 0
    24d0:	98 2f       	mov	r25, r24
    24d2:	88 27       	eor	r24, r24
    24d4:	2e 85       	ldd	r18, Y+14	; 0x0e
    24d6:	82 0f       	add	r24, r18
    24d8:	91 1d       	adc	r25, r1
    24da:	8c 8b       	std	Y+20, r24	; 0x14
    24dc:	9d 8b       	std	Y+21, r25	; 0x15
    24de:	61 e0       	ldi	r22, 0x01	; 1
    24e0:	88 85       	ldd	r24, Y+8	; 0x08
    24e2:	99 85       	ldd	r25, Y+9	; 0x09
    24e4:	0e 94 ab 0c 	call	0x1956	; 0x1956 <_ZN13SPI_Syn_Class5SetCSEb>
    24e8:	8c 89       	ldd	r24, Y+20	; 0x14
    24ea:	9d 89       	ldd	r25, Y+21	; 0x15
    24ec:	9c 01       	movw	r18, r24
    24ee:	21 50       	subi	r18, 0x01	; 1
    24f0:	31 09       	sbc	r19, r1
    24f2:	2e 3f       	cpi	r18, 0xFE	; 254
    24f4:	3f 4f       	sbci	r19, 0xFF	; 255
    24f6:	68 f6       	brcc	.-102    	; 0x2492 <_ZN15lmx2694_Handler20Read_Single_RegisterEh+0x3c>
    24f8:	eb 2d       	mov	r30, r11
    24fa:	f0 e0       	ldi	r31, 0x00	; 0
    24fc:	ee 0f       	add	r30, r30
    24fe:	ff 1f       	adc	r31, r31
    2500:	2c 81       	ldd	r18, Y+4	; 0x04
    2502:	3d 81       	ldd	r19, Y+5	; 0x05
    2504:	e2 0f       	add	r30, r18
    2506:	f3 1f       	adc	r31, r19
    2508:	80 83       	st	Z, r24
    250a:	91 83       	std	Z+1, r25	; 0x01
    250c:	61 e0       	ldi	r22, 0x01	; 1
    250e:	ce 01       	movw	r24, r28
    2510:	0e 94 0c 12 	call	0x2418	; 0x2418 <_ZN15lmx2694_Handler19Set_MUXOUT_READBACKEb>
    2514:	8c 89       	ldd	r24, Y+20	; 0x14
    2516:	9d 89       	ldd	r25, Y+21	; 0x15
    2518:	df 91       	pop	r29
    251a:	cf 91       	pop	r28
    251c:	1f 91       	pop	r17
    251e:	0f 91       	pop	r16
    2520:	ff 90       	pop	r15
    2522:	ef 90       	pop	r14
    2524:	df 90       	pop	r13
    2526:	cf 90       	pop	r12
    2528:	bf 90       	pop	r11
    252a:	08 95       	ret

0000252c <_ZN15lmx2694_Handler25Get_Channel_Divider_ValueEb>:
    252c:	cf 93       	push	r28
    252e:	df 93       	push	r29
    2530:	ec 01       	movw	r28, r24
    2532:	66 23       	and	r22, r22
    2534:	79 f0       	breq	.+30     	; 0x2554 <_ZN15lmx2694_Handler25Get_Channel_Divider_ValueEb+0x28>
    2536:	6b e4       	ldi	r22, 0x4B	; 75
    2538:	0e 94 2b 12 	call	0x2456	; 0x2456 <_ZN15lmx2694_Handler20Read_Single_RegisterEh>
    253c:	00 24       	eor	r0, r0
    253e:	88 0f       	add	r24, r24
    2540:	99 1f       	adc	r25, r25
    2542:	00 1c       	adc	r0, r0
    2544:	88 0f       	add	r24, r24
    2546:	99 1f       	adc	r25, r25
    2548:	00 1c       	adc	r0, r0
    254a:	89 2f       	mov	r24, r25
    254c:	90 2d       	mov	r25, r0
    254e:	8f 71       	andi	r24, 0x1F	; 31
    2550:	8f 8b       	std	Y+23, r24	; 0x17
    2552:	11 c0       	rjmp	.+34     	; 0x2576 <_ZN15lmx2694_Handler25Get_Channel_Divider_ValueEb+0x4a>
    2554:	ee 81       	ldd	r30, Y+6	; 0x06
    2556:	ff 81       	ldd	r31, Y+7	; 0x07
    2558:	ea 56       	subi	r30, 0x6A	; 106
    255a:	ff 4f       	sbci	r31, 0xFF	; 255
    255c:	80 81       	ld	r24, Z
    255e:	91 81       	ldd	r25, Z+1	; 0x01
    2560:	00 24       	eor	r0, r0
    2562:	88 0f       	add	r24, r24
    2564:	99 1f       	adc	r25, r25
    2566:	00 1c       	adc	r0, r0
    2568:	88 0f       	add	r24, r24
    256a:	99 1f       	adc	r25, r25
    256c:	00 1c       	adc	r0, r0
    256e:	89 2f       	mov	r24, r25
    2570:	90 2d       	mov	r25, r0
    2572:	8f 71       	andi	r24, 0x1F	; 31
    2574:	8f 8b       	std	Y+23, r24	; 0x17
    2576:	ef 89       	ldd	r30, Y+23	; 0x17
    2578:	f0 e0       	ldi	r31, 0x00	; 0
    257a:	ee 0f       	add	r30, r30
    257c:	ff 1f       	adc	r31, r31
    257e:	e2 52       	subi	r30, 0x22	; 34
    2580:	ff 4b       	sbci	r31, 0xBF	; 191
    2582:	80 81       	ld	r24, Z
    2584:	91 81       	ldd	r25, Z+1	; 0x01
    2586:	df 91       	pop	r29
    2588:	cf 91       	pop	r28
    258a:	08 95       	ret

0000258c <_ZN15lmx2694_Handler8IsLockedEv>:
    258c:	cf 92       	push	r12
    258e:	df 92       	push	r13
    2590:	ef 92       	push	r14
    2592:	ff 92       	push	r15
    2594:	cf 93       	push	r28
    2596:	df 93       	push	r29
    2598:	ec 01       	movw	r28, r24
    259a:	8a b1       	in	r24, 0x0a	; 10
    259c:	91 e0       	ldi	r25, 0x01	; 1
    259e:	81 fb       	bst	r24, 1
    25a0:	22 27       	eor	r18, r18
    25a2:	20 f9       	bld	r18, 0
    25a4:	30 e0       	ldi	r19, 0x00	; 0
    25a6:	81 ff       	sbrs	r24, 1
    25a8:	90 e0       	ldi	r25, 0x00	; 0
    25aa:	99 8b       	std	Y+17, r25	; 0x11
    25ac:	23 2b       	or	r18, r19
    25ae:	79 f4       	brne	.+30     	; 0x25ce <_ZN15lmx2694_Handler8IsLockedEv+0x42>
    25b0:	80 e6       	ldi	r24, 0x60	; 96
    25b2:	9a ee       	ldi	r25, 0xEA	; 234
    25b4:	01 97       	sbiw	r24, 0x01	; 1
    25b6:	f1 f7       	brne	.-4      	; 0x25b4 <_ZN15lmx2694_Handler8IsLockedEv+0x28>
    25b8:	8a b1       	in	r24, 0x0a	; 10
    25ba:	91 e0       	ldi	r25, 0x01	; 1
    25bc:	81 fb       	bst	r24, 1
    25be:	44 27       	eor	r20, r20
    25c0:	40 f9       	bld	r20, 0
    25c2:	50 e0       	ldi	r21, 0x00	; 0
    25c4:	81 ff       	sbrs	r24, 1
    25c6:	90 e0       	ldi	r25, 0x00	; 0
    25c8:	99 8b       	std	Y+17, r25	; 0x11
    25ca:	45 2b       	or	r20, r21
    25cc:	59 f1       	breq	.+86     	; 0x2624 <_ZN15lmx2694_Handler8IsLockedEv+0x98>
    25ce:	ee 81       	ldd	r30, Y+6	; 0x06
    25d0:	ff 81       	ldd	r31, Y+7	; 0x07
    25d2:	e4 5a       	subi	r30, 0xA4	; 164
    25d4:	ff 4f       	sbci	r31, 0xFF	; 255
    25d6:	80 81       	ld	r24, Z
    25d8:	83 70       	andi	r24, 0x03	; 3
    25da:	49 f0       	breq	.+18     	; 0x25ee <_ZN15lmx2694_Handler8IsLockedEv+0x62>
    25dc:	60 e0       	ldi	r22, 0x00	; 0
    25de:	ce 01       	movw	r24, r28
    25e0:	0e 94 03 0f 	call	0x1e06	; 0x1e06 <_ZN15lmx2694_Handler27Calculate_Current_FrequencyEb>
    25e4:	68 83       	st	Y, r22
    25e6:	79 83       	std	Y+1, r23	; 0x01
    25e8:	8a 83       	std	Y+2, r24	; 0x02
    25ea:	9b 83       	std	Y+3, r25	; 0x03
    25ec:	1b c0       	rjmp	.+54     	; 0x2624 <_ZN15lmx2694_Handler8IsLockedEv+0x98>
    25ee:	60 e0       	ldi	r22, 0x00	; 0
    25f0:	ce 01       	movw	r24, r28
    25f2:	0e 94 96 12 	call	0x252c	; 0x252c <_ZN15lmx2694_Handler25Get_Channel_Divider_ValueEb>
    25f6:	89 8f       	std	Y+25, r24	; 0x19
    25f8:	60 e0       	ldi	r22, 0x00	; 0
    25fa:	ce 01       	movw	r24, r28
    25fc:	0e 94 03 0f 	call	0x1e06	; 0x1e06 <_ZN15lmx2694_Handler27Calculate_Current_FrequencyEb>
    2600:	6b 01       	movw	r12, r22
    2602:	7c 01       	movw	r14, r24
    2604:	69 8d       	ldd	r22, Y+25	; 0x19
    2606:	70 e0       	ldi	r23, 0x00	; 0
    2608:	80 e0       	ldi	r24, 0x00	; 0
    260a:	90 e0       	ldi	r25, 0x00	; 0
    260c:	0e 94 bd 16 	call	0x2d7a	; 0x2d7a <__floatsisf>
    2610:	9b 01       	movw	r18, r22
    2612:	ac 01       	movw	r20, r24
    2614:	c7 01       	movw	r24, r14
    2616:	b6 01       	movw	r22, r12
    2618:	0e 94 13 16 	call	0x2c26	; 0x2c26 <__divsf3>
    261c:	68 83       	st	Y, r22
    261e:	79 83       	std	Y+1, r23	; 0x01
    2620:	8a 83       	std	Y+2, r24	; 0x02
    2622:	9b 83       	std	Y+3, r25	; 0x03
    2624:	89 89       	ldd	r24, Y+17	; 0x11
    2626:	df 91       	pop	r29
    2628:	cf 91       	pop	r28
    262a:	ff 90       	pop	r15
    262c:	ef 90       	pop	r14
    262e:	df 90       	pop	r13
    2630:	cf 90       	pop	r12
    2632:	08 95       	ret

00002634 <_ZN15lmx2694_Handler4InitEv>:
    2634:	cf 93       	push	r28
    2636:	df 93       	push	r29
    2638:	ec 01       	movw	r28, r24
    263a:	8d e7       	ldi	r24, 0x7D	; 125
    263c:	95 e4       	ldi	r25, 0x45	; 69
    263e:	88 87       	std	Y+8, r24	; 0x08
    2640:	99 87       	std	Y+9, r25	; 0x09
    2642:	0e 94 8b 0c 	call	0x1916	; 0x1916 <_ZN13SPI_Syn_Class4InitEv>
    2646:	61 e0       	ldi	r22, 0x01	; 1
    2648:	88 85       	ldd	r24, Y+8	; 0x08
    264a:	99 85       	ldd	r25, Y+9	; 0x09
    264c:	0e 94 ab 0c 	call	0x1956	; 0x1956 <_ZN13SPI_Syn_Class5SetCSEb>
    2650:	ce 01       	movw	r24, r28
    2652:	0e 94 7c 10 	call	0x20f8	; 0x20f8 <_ZN15lmx2694_Handler10Power_DownEv>
    2656:	ce 01       	movw	r24, r28
    2658:	0e 94 a5 10 	call	0x214a	; 0x214a <_ZN15lmx2694_Handler13Program_ResetEv>
    265c:	ce 01       	movw	r24, r28
    265e:	0e 94 d6 11 	call	0x23ac	; 0x23ac <_ZN15lmx2694_Handler18Initiate_RegistersEv>
    2662:	80 e6       	ldi	r24, 0x60	; 96
    2664:	9a ee       	ldi	r25, 0xEA	; 234
    2666:	01 97       	sbiw	r24, 0x01	; 1
    2668:	f1 f7       	brne	.-4      	; 0x2666 <_ZN15lmx2694_Handler4InitEv+0x32>
    266a:	ce 01       	movw	r24, r28
    266c:	0e 94 c4 11 	call	0x2388	; 0x2388 <_ZN15lmx2694_Handler14Toggle_FCAL_ENEv>
    2670:	88 ee       	ldi	r24, 0xE8	; 232
    2672:	93 e0       	ldi	r25, 0x03	; 3
    2674:	28 e5       	ldi	r18, 0x58	; 88
    2676:	32 e0       	ldi	r19, 0x02	; 2
    2678:	f9 01       	movw	r30, r18
    267a:	31 97       	sbiw	r30, 0x01	; 1
    267c:	f1 f7       	brne	.-4      	; 0x267a <_ZN15lmx2694_Handler4InitEv+0x46>
    267e:	01 97       	sbiw	r24, 0x01	; 1
    2680:	d9 f7       	brne	.-10     	; 0x2678 <_ZN15lmx2694_Handler4InitEv+0x44>
    2682:	ce 01       	movw	r24, r28
    2684:	0e 94 c6 12 	call	0x258c	; 0x258c <_ZN15lmx2694_Handler8IsLockedEv>
    2688:	df 91       	pop	r29
    268a:	cf 91       	pop	r28
    268c:	08 95       	ret

0000268e <_ZN15lmx2694_Handler19Program_PFD_DLY_SELEv>:
    268e:	cf 92       	push	r12
    2690:	df 92       	push	r13
    2692:	ef 92       	push	r14
    2694:	ff 92       	push	r15
    2696:	cf 93       	push	r28
    2698:	df 93       	push	r29
    269a:	ec 01       	movw	r28, r24
    269c:	ca a4       	ldd	r12, Y+42	; 0x2a
    269e:	db a4       	ldd	r13, Y+43	; 0x2b
    26a0:	ec a4       	ldd	r14, Y+44	; 0x2c
    26a2:	fd a4       	ldd	r15, Y+45	; 0x2d
    26a4:	20 e0       	ldi	r18, 0x00	; 0
    26a6:	30 ef       	ldi	r19, 0xF0	; 240
    26a8:	4b ee       	ldi	r20, 0xEB	; 235
    26aa:	55 e4       	ldi	r21, 0x45	; 69
    26ac:	c7 01       	movw	r24, r14
    26ae:	b6 01       	movw	r22, r12
    26b0:	0e 94 c5 17 	call	0x2f8a	; 0x2f8a <__gesf2>
    26b4:	18 16       	cp	r1, r24
    26b6:	2c f4       	brge	.+10     	; 0x26c2 <_ZN15lmx2694_Handler19Program_PFD_DLY_SELEv+0x34>
    26b8:	ce a6       	std	Y+46, r12	; 0x2e
    26ba:	df a6       	std	Y+47, r13	; 0x2f
    26bc:	e8 aa       	std	Y+48, r14	; 0x30
    26be:	f9 aa       	std	Y+49, r15	; 0x31
    26c0:	12 c0       	rjmp	.+36     	; 0x26e6 <_ZN15lmx2694_Handler19Program_PFD_DLY_SELEv+0x58>
    26c2:	60 e0       	ldi	r22, 0x00	; 0
    26c4:	ce 01       	movw	r24, r28
    26c6:	0e 94 96 12 	call	0x252c	; 0x252c <_ZN15lmx2694_Handler25Get_Channel_Divider_ValueEb>
    26ca:	bc 01       	movw	r22, r24
    26cc:	99 0f       	add	r25, r25
    26ce:	88 0b       	sbc	r24, r24
    26d0:	99 0b       	sbc	r25, r25
    26d2:	0e 94 bd 16 	call	0x2d7a	; 0x2d7a <__floatsisf>
    26d6:	a7 01       	movw	r20, r14
    26d8:	96 01       	movw	r18, r12
    26da:	0e 94 1a 18 	call	0x3034	; 0x3034 <__mulsf3>
    26de:	6e a7       	std	Y+46, r22	; 0x2e
    26e0:	7f a7       	std	Y+47, r23	; 0x2f
    26e2:	88 ab       	std	Y+48, r24	; 0x30
    26e4:	99 ab       	std	Y+49, r25	; 0x31
    26e6:	4e a5       	ldd	r20, Y+46	; 0x2e
    26e8:	5f a5       	ldd	r21, Y+47	; 0x2f
    26ea:	68 a9       	ldd	r22, Y+48	; 0x30
    26ec:	79 a9       	ldd	r23, Y+49	; 0x31
    26ee:	ce 01       	movw	r24, r28
    26f0:	0e 94 42 11 	call	0x2284	; 0x2284 <_ZN15lmx2694_Handler19Program_PFD_DLY_SELEf>
    26f4:	df 91       	pop	r29
    26f6:	cf 91       	pop	r28
    26f8:	ff 90       	pop	r15
    26fa:	ef 90       	pop	r14
    26fc:	df 90       	pop	r13
    26fe:	cf 90       	pop	r12
    2700:	08 95       	ret

00002702 <_ZN15lmx2694_Handler24Write_Division_RegistersEv>:
    2702:	cf 93       	push	r28
    2704:	df 93       	push	r29
    2706:	ec 01       	movw	r28, r24
    2708:	4e 8d       	ldd	r20, Y+30	; 0x1e
    270a:	5f 8d       	ldd	r21, Y+31	; 0x1f
    270c:	6b e2       	ldi	r22, 0x2B	; 43
    270e:	0e 94 f6 10 	call	0x21ec	; 0x21ec <_ZN15lmx2694_Handler21Write_Single_RegisterEhj>
    2712:	4e 8d       	ldd	r20, Y+30	; 0x1e
    2714:	5f 8d       	ldd	r21, Y+31	; 0x1f
    2716:	68 a1       	ldd	r22, Y+32	; 0x20
    2718:	79 a1       	ldd	r23, Y+33	; 0x21
    271a:	ab 01       	movw	r20, r22
    271c:	66 27       	eor	r22, r22
    271e:	77 27       	eor	r23, r23
    2720:	6a e2       	ldi	r22, 0x2A	; 42
    2722:	ce 01       	movw	r24, r28
    2724:	0e 94 f6 10 	call	0x21ec	; 0x21ec <_ZN15lmx2694_Handler21Write_Single_RegisterEhj>
    2728:	4a a1       	ldd	r20, Y+34	; 0x22
    272a:	5b a1       	ldd	r21, Y+35	; 0x23
    272c:	67 e2       	ldi	r22, 0x27	; 39
    272e:	ce 01       	movw	r24, r28
    2730:	0e 94 f6 10 	call	0x21ec	; 0x21ec <_ZN15lmx2694_Handler21Write_Single_RegisterEhj>
    2734:	4a a1       	ldd	r20, Y+34	; 0x22
    2736:	5b a1       	ldd	r21, Y+35	; 0x23
    2738:	6c a1       	ldd	r22, Y+36	; 0x24
    273a:	7d a1       	ldd	r23, Y+37	; 0x25
    273c:	ab 01       	movw	r20, r22
    273e:	66 27       	eor	r22, r22
    2740:	77 27       	eor	r23, r23
    2742:	66 e2       	ldi	r22, 0x26	; 38
    2744:	ce 01       	movw	r24, r28
    2746:	0e 94 f6 10 	call	0x21ec	; 0x21ec <_ZN15lmx2694_Handler21Write_Single_RegisterEhj>
    274a:	ce 01       	movw	r24, r28
    274c:	0e 94 47 13 	call	0x268e	; 0x268e <_ZN15lmx2694_Handler19Program_PFD_DLY_SELEv>
    2750:	4a 8d       	ldd	r20, Y+26	; 0x1a
    2752:	5b 8d       	ldd	r21, Y+27	; 0x1b
    2754:	64 e2       	ldi	r22, 0x24	; 36
    2756:	ce 01       	movw	r24, r28
    2758:	0e 94 f6 10 	call	0x21ec	; 0x21ec <_ZN15lmx2694_Handler21Write_Single_RegisterEhj>
    275c:	4a 8d       	ldd	r20, Y+26	; 0x1a
    275e:	5b 8d       	ldd	r21, Y+27	; 0x1b
    2760:	6c 8d       	ldd	r22, Y+28	; 0x1c
    2762:	7d 8d       	ldd	r23, Y+29	; 0x1d
    2764:	ab 01       	movw	r20, r22
    2766:	66 27       	eor	r22, r22
    2768:	77 27       	eor	r23, r23
    276a:	62 e2       	ldi	r22, 0x22	; 34
    276c:	ce 01       	movw	r24, r28
    276e:	0e 94 f6 10 	call	0x21ec	; 0x21ec <_ZN15lmx2694_Handler21Write_Single_RegisterEhj>
    2772:	df 91       	pop	r29
    2774:	cf 91       	pop	r28
    2776:	08 95       	ret

00002778 <_ZN15lmx2694_Handler20Set_Target_FrequencyEf>:
    2778:	cf 92       	push	r12
    277a:	df 92       	push	r13
    277c:	ef 92       	push	r14
    277e:	ff 92       	push	r15
    2780:	0f 93       	push	r16
    2782:	1f 93       	push	r17
    2784:	cf 93       	push	r28
    2786:	df 93       	push	r29
    2788:	ec 01       	movw	r28, r24
    278a:	6a 01       	movw	r12, r20
    278c:	7b 01       	movw	r14, r22
    278e:	20 e0       	ldi	r18, 0x00	; 0
    2790:	30 ef       	ldi	r19, 0xF0	; 240
    2792:	4b e6       	ldi	r20, 0x6B	; 107
    2794:	56 e4       	ldi	r21, 0x46	; 70
    2796:	c7 01       	movw	r24, r14
    2798:	b6 01       	movw	r22, r12
    279a:	0e 94 c5 17 	call	0x2f8a	; 0x2f8a <__gesf2>
    279e:	18 16       	cp	r1, r24
    27a0:	4c f4       	brge	.+18     	; 0x27b4 <_ZN15lmx2694_Handler20Set_Target_FrequencyEf+0x3c>
    27a2:	80 e0       	ldi	r24, 0x00	; 0
    27a4:	90 ef       	ldi	r25, 0xF0	; 240
    27a6:	ab e6       	ldi	r26, 0x6B	; 107
    27a8:	b6 e4       	ldi	r27, 0x46	; 70
    27aa:	8a a7       	std	Y+42, r24	; 0x2a
    27ac:	9b a7       	std	Y+43, r25	; 0x2b
    27ae:	ac a7       	std	Y+44, r26	; 0x2c
    27b0:	bd a7       	std	Y+45, r27	; 0x2d
    27b2:	a7 c0       	rjmp	.+334    	; 0x2902 <_ZN15lmx2694_Handler20Set_Target_FrequencyEf+0x18a>
    27b4:	20 e0       	ldi	r18, 0x00	; 0
    27b6:	30 e0       	ldi	r19, 0x00	; 0
    27b8:	48 ec       	ldi	r20, 0xC8	; 200
    27ba:	53 e4       	ldi	r21, 0x43	; 67
    27bc:	c7 01       	movw	r24, r14
    27be:	b6 01       	movw	r22, r12
    27c0:	0e 94 c5 17 	call	0x2f8a	; 0x2f8a <__gesf2>
    27c4:	18 16       	cp	r1, r24
    27c6:	0c f0       	brlt	.+2      	; 0x27ca <_ZN15lmx2694_Handler20Set_Target_FrequencyEf+0x52>
    27c8:	9c c0       	rjmp	.+312    	; 0x2902 <_ZN15lmx2694_Handler20Set_Target_FrequencyEf+0x18a>
    27ca:	ca a6       	std	Y+42, r12	; 0x2a
    27cc:	db a6       	std	Y+43, r13	; 0x2b
    27ce:	ec a6       	std	Y+44, r14	; 0x2c
    27d0:	fd a6       	std	Y+45, r15	; 0x2d
    27d2:	20 e0       	ldi	r18, 0x00	; 0
    27d4:	30 ef       	ldi	r19, 0xF0	; 240
    27d6:	4b ee       	ldi	r20, 0xEB	; 235
    27d8:	55 e4       	ldi	r21, 0x45	; 69
    27da:	c7 01       	movw	r24, r14
    27dc:	b6 01       	movw	r22, r12
    27de:	0e 94 c5 17 	call	0x2f8a	; 0x2f8a <__gesf2>
    27e2:	18 16       	cp	r1, r24
    27e4:	d4 f4       	brge	.+52     	; 0x281a <_ZN15lmx2694_Handler20Set_Target_FrequencyEf+0xa2>
    27e6:	20 e0       	ldi	r18, 0x00	; 0
    27e8:	30 ef       	ldi	r19, 0xF0	; 240
    27ea:	4b ee       	ldi	r20, 0xEB	; 235
    27ec:	55 e4       	ldi	r21, 0x45	; 69
    27ee:	68 81       	ld	r22, Y
    27f0:	79 81       	ldd	r23, Y+1	; 0x01
    27f2:	8a 81       	ldd	r24, Y+2	; 0x02
    27f4:	9b 81       	ldd	r25, Y+3	; 0x03
    27f6:	0e 94 c5 17 	call	0x2f8a	; 0x2f8a <__gesf2>
    27fa:	18 16       	cp	r1, r24
    27fc:	5c f0       	brlt	.+22     	; 0x2814 <_ZN15lmx2694_Handler20Set_Target_FrequencyEf+0x9c>
    27fe:	ee 81       	ldd	r30, Y+6	; 0x06
    2800:	ff 81       	ldd	r31, Y+7	; 0x07
    2802:	e4 5a       	subi	r30, 0xA4	; 164
    2804:	ff 4f       	sbci	r31, 0xFF	; 255
    2806:	40 81       	ld	r20, Z
    2808:	51 81       	ldd	r21, Z+1	; 0x01
    280a:	41 60       	ori	r20, 0x01	; 1
    280c:	6e e2       	ldi	r22, 0x2E	; 46
    280e:	ce 01       	movw	r24, r28
    2810:	0e 94 f6 10 	call	0x21ec	; 0x21ec <_ZN15lmx2694_Handler21Write_Single_RegisterEhj>
    2814:	81 e0       	ldi	r24, 0x01	; 1
    2816:	89 8f       	std	Y+25, r24	; 0x19
    2818:	3f c0       	rjmp	.+126    	; 0x2898 <_ZN15lmx2694_Handler20Set_Target_FrequencyEf+0x120>
    281a:	20 e0       	ldi	r18, 0x00	; 0
    281c:	30 ef       	ldi	r19, 0xF0	; 240
    281e:	4b ee       	ldi	r20, 0xEB	; 235
    2820:	55 e4       	ldi	r21, 0x45	; 69
    2822:	68 81       	ld	r22, Y
    2824:	79 81       	ldd	r23, Y+1	; 0x01
    2826:	8a 81       	ldd	r24, Y+2	; 0x02
    2828:	9b 81       	ldd	r25, Y+3	; 0x03
    282a:	0e 94 0e 16 	call	0x2c1c	; 0x2c1c <__cmpsf2>
    282e:	88 23       	and	r24, r24
    2830:	5c f0       	brlt	.+22     	; 0x2848 <_ZN15lmx2694_Handler20Set_Target_FrequencyEf+0xd0>
    2832:	ee 81       	ldd	r30, Y+6	; 0x06
    2834:	ff 81       	ldd	r31, Y+7	; 0x07
    2836:	e4 5a       	subi	r30, 0xA4	; 164
    2838:	ff 4f       	sbci	r31, 0xFF	; 255
    283a:	40 81       	ld	r20, Z
    283c:	51 81       	ldd	r21, Z+1	; 0x01
    283e:	4c 7f       	andi	r20, 0xFC	; 252
    2840:	6e e2       	ldi	r22, 0x2E	; 46
    2842:	ce 01       	movw	r24, r28
    2844:	0e 94 f6 10 	call	0x21ec	; 0x21ec <_ZN15lmx2694_Handler21Write_Single_RegisterEhj>
    2848:	ee 81       	ldd	r30, Y+6	; 0x06
    284a:	ff 81       	ldd	r31, Y+7	; 0x07
    284c:	ea 56       	subi	r30, 0x6A	; 106
    284e:	ff 4f       	sbci	r31, 0xFF	; 255
    2850:	00 81       	ld	r16, Z
    2852:	11 81       	ldd	r17, Z+1	; 0x01
    2854:	0f 73       	andi	r16, 0x3F	; 63
    2856:	18 7f       	andi	r17, 0xF8	; 248
    2858:	0c 8b       	std	Y+20, r16	; 0x14
    285a:	1d 8b       	std	Y+21, r17	; 0x15
    285c:	ce 01       	movw	r24, r28
    285e:	0e 94 b5 0f 	call	0x1f6a	; 0x1f6a <_ZN15lmx2694_Handler28Choose_Channel_Divider_IndexEv>
    2862:	20 e4       	ldi	r18, 0x40	; 64
    2864:	82 9f       	mul	r24, r18
    2866:	c0 01       	movw	r24, r0
    2868:	11 24       	eor	r1, r1
    286a:	ac 01       	movw	r20, r24
    286c:	40 2b       	or	r20, r16
    286e:	51 2b       	or	r21, r17
    2870:	6b e4       	ldi	r22, 0x4B	; 75
    2872:	ce 01       	movw	r24, r28
    2874:	0e 94 f6 10 	call	0x21ec	; 0x21ec <_ZN15lmx2694_Handler21Write_Single_RegisterEhj>
    2878:	89 8d       	ldd	r24, Y+25	; 0x19
    287a:	83 30       	cpi	r24, 0x03	; 3
    287c:	38 f0       	brcs	.+14     	; 0x288c <_ZN15lmx2694_Handler20Set_Target_FrequencyEf+0x114>
    287e:	4c ee       	ldi	r20, 0xEC	; 236
    2880:	53 e4       	ldi	r21, 0x43	; 67
    2882:	6f e1       	ldi	r22, 0x1F	; 31
    2884:	ce 01       	movw	r24, r28
    2886:	0e 94 f6 10 	call	0x21ec	; 0x21ec <_ZN15lmx2694_Handler21Write_Single_RegisterEhj>
    288a:	06 c0       	rjmp	.+12     	; 0x2898 <_ZN15lmx2694_Handler20Set_Target_FrequencyEf+0x120>
    288c:	4c ee       	ldi	r20, 0xEC	; 236
    288e:	53 e0       	ldi	r21, 0x03	; 3
    2890:	6f e1       	ldi	r22, 0x1F	; 31
    2892:	ce 01       	movw	r24, r28
    2894:	0e 94 f6 10 	call	0x21ec	; 0x21ec <_ZN15lmx2694_Handler21Write_Single_RegisterEhj>
    2898:	69 8d       	ldd	r22, Y+25	; 0x19
    289a:	70 e0       	ldi	r23, 0x00	; 0
    289c:	80 e0       	ldi	r24, 0x00	; 0
    289e:	90 e0       	ldi	r25, 0x00	; 0
    28a0:	0e 94 bd 16 	call	0x2d7a	; 0x2d7a <__floatsisf>
    28a4:	a7 01       	movw	r20, r14
    28a6:	96 01       	movw	r18, r12
    28a8:	0e 94 1a 18 	call	0x3034	; 0x3034 <__mulsf3>
    28ac:	20 e0       	ldi	r18, 0x00	; 0
    28ae:	30 e0       	ldi	r19, 0x00	; 0
    28b0:	48 e4       	ldi	r20, 0x48	; 72
    28b2:	53 e4       	ldi	r21, 0x43	; 67
    28b4:	0e 94 13 16 	call	0x2c26	; 0x2c26 <__divsf3>
    28b8:	6b 01       	movw	r12, r22
    28ba:	7c 01       	movw	r14, r24
    28bc:	6a ab       	std	Y+50, r22	; 0x32
    28be:	7b ab       	std	Y+51, r23	; 0x33
    28c0:	8c ab       	std	Y+52, r24	; 0x34
    28c2:	9d ab       	std	Y+53, r25	; 0x35
    28c4:	0e 94 f8 16 	call	0x2df0	; 0x2df0 <floor>
    28c8:	0e 94 8c 16 	call	0x2d18	; 0x2d18 <__fixunssfsi>
    28cc:	6a 8f       	std	Y+26, r22	; 0x1a
    28ce:	7b 8f       	std	Y+27, r23	; 0x1b
    28d0:	8c 8f       	std	Y+28, r24	; 0x1c
    28d2:	9d 8f       	std	Y+29, r25	; 0x1d
    28d4:	0e 94 bb 16 	call	0x2d76	; 0x2d76 <__floatunsisf>
    28d8:	9b 01       	movw	r18, r22
    28da:	ac 01       	movw	r20, r24
    28dc:	c7 01       	movw	r24, r14
    28de:	b6 01       	movw	r22, r12
    28e0:	0e 94 a1 15 	call	0x2b42	; 0x2b42 <__subsf3>
    28e4:	ab 01       	movw	r20, r22
    28e6:	bc 01       	movw	r22, r24
    28e8:	4e ab       	std	Y+54, r20	; 0x36
    28ea:	5f ab       	std	Y+55, r21	; 0x37
    28ec:	68 af       	std	Y+56, r22	; 0x38
    28ee:	79 af       	std	Y+57, r23	; 0x39
    28f0:	ce 01       	movw	r24, r28
    28f2:	0e 94 28 10 	call	0x2050	; 0x2050 <_ZN15lmx2694_Handler18Calculate_FractionEf>
    28f6:	ce 01       	movw	r24, r28
    28f8:	0e 94 81 13 	call	0x2702	; 0x2702 <_ZN15lmx2694_Handler24Write_Division_RegistersEv>
    28fc:	ce 01       	movw	r24, r28
    28fe:	0e 94 c4 11 	call	0x2388	; 0x2388 <_ZN15lmx2694_Handler14Toggle_FCAL_ENEv>
    2902:	6e a9       	ldd	r22, Y+54	; 0x36
    2904:	7f a9       	ldd	r23, Y+55	; 0x37
    2906:	88 ad       	ldd	r24, Y+56	; 0x38
    2908:	99 ad       	ldd	r25, Y+57	; 0x39
    290a:	df 91       	pop	r29
    290c:	cf 91       	pop	r28
    290e:	1f 91       	pop	r17
    2910:	0f 91       	pop	r16
    2912:	ff 90       	pop	r15
    2914:	ef 90       	pop	r14
    2916:	df 90       	pop	r13
    2918:	cf 90       	pop	r12
    291a:	08 95       	ret

0000291c <_GLOBAL__sub_I__ZN15lmx2694_HandlerC2Ev>:


#include "string.h"
//static SPI_Async_Handler staticSPI;

static SPI_Syn_Class staticSPI;
    291c:	8d e7       	ldi	r24, 0x7D	; 125
    291e:	95 e4       	ldi	r25, 0x45	; 69
    2920:	0e 94 81 0c 	call	0x1902	; 0x1902 <_ZN13SPI_Syn_ClassC1Ev>
    2924:	08 95       	ret

00002926 <_GLOBAL__sub_D__ZN15lmx2694_HandlerC2Ev>:
    2926:	8d e7       	ldi	r24, 0x7D	; 125
    2928:	95 e4       	ldi	r25, 0x45	; 69
    292a:	0e 94 86 0c 	call	0x190c	; 0x190c <_ZN13SPI_Syn_ClassD1Ev>
    292e:	08 95       	ret

00002930 <__vector_28>:
static uint16_t capture_value_rising;
static uint16_t capture_value_falling;
static uint16_t capture_value_c;

ISR(ZCD0_ZCD_vect)
{
    2930:	1f 92       	push	r1
    2932:	0f 92       	push	r0
    2934:	0f b6       	in	r0, 0x3f	; 63
    2936:	0f 92       	push	r0
    2938:	11 24       	eor	r1, r1
    293a:	0b b6       	in	r0, 0x3b	; 59
    293c:	0f 92       	push	r0
    293e:	8f 93       	push	r24
    2940:	ef 93       	push	r30
    2942:	ff 93       	push	r31
	/* Insert your ZCD interrupt handling code here */
	ptr_zero_cross_handler->leading_edge=true;
    2944:	e0 91 86 45 	lds	r30, 0x4586	; 0x804586 <ptr_zero_cross_handler>
    2948:	f0 91 87 45 	lds	r31, 0x4587	; 0x804587 <ptr_zero_cross_handler+0x1>
    294c:	81 e0       	ldi	r24, 0x01	; 1
    294e:	80 83       	st	Z, r24
	ptr_zero_cross_handler->falling_edge=false;
    2950:	e0 91 86 45 	lds	r30, 0x4586	; 0x804586 <ptr_zero_cross_handler>
    2954:	f0 91 87 45 	lds	r31, 0x4587	; 0x804587 <ptr_zero_cross_handler+0x1>
    2958:	12 82       	std	Z+2, r1	; 0x02
	//ptr_zero_cross_handler->CaptureCounterC();

	ZCD0.STATUS = ZCD_CROSSIF_bm;
    295a:	80 93 c3 06 	sts	0x06C3, r24	; 0x8006c3 <__TEXT_REGION_LENGTH__+0x7e06c3>
}
    295e:	ff 91       	pop	r31
    2960:	ef 91       	pop	r30
    2962:	8f 91       	pop	r24
    2964:	0f 90       	pop	r0
    2966:	0b be       	out	0x3b, r0	; 59
    2968:	0f 90       	pop	r0
    296a:	0f be       	out	0x3f, r0	; 63
    296c:	0f 90       	pop	r0
    296e:	1f 90       	pop	r1
    2970:	18 95       	reti

00002972 <__vector_52>:

ISR(ZCD1_ZCD_vect)
{
    2972:	1f 92       	push	r1
    2974:	0f 92       	push	r0
    2976:	0f b6       	in	r0, 0x3f	; 63
    2978:	0f 92       	push	r0
    297a:	11 24       	eor	r1, r1
    297c:	0b b6       	in	r0, 0x3b	; 59
    297e:	0f 92       	push	r0
    2980:	8f 93       	push	r24
    2982:	ef 93       	push	r30
    2984:	ff 93       	push	r31
	/* Insert your ZCD interrupt handling code here */
	ptr_zero_cross_handler->falling_edge=true;
    2986:	e0 91 86 45 	lds	r30, 0x4586	; 0x804586 <ptr_zero_cross_handler>
    298a:	f0 91 87 45 	lds	r31, 0x4587	; 0x804587 <ptr_zero_cross_handler+0x1>
    298e:	81 e0       	ldi	r24, 0x01	; 1
    2990:	82 83       	std	Z+2, r24	; 0x02
	ptr_zero_cross_handler->leading_edge=false;
    2992:	10 82       	st	Z, r1
	ZCD1.STATUS = ZCD_CROSSIF_bm;
    2994:	80 93 cb 06 	sts	0x06CB, r24	; 0x8006cb <__TEXT_REGION_LENGTH__+0x7e06cb>
}
    2998:	ff 91       	pop	r31
    299a:	ef 91       	pop	r30
    299c:	8f 91       	pop	r24
    299e:	0f 90       	pop	r0
    29a0:	0b be       	out	0x3b, r0	; 59
    29a2:	0f 90       	pop	r0
    29a4:	0f be       	out	0x3f, r0	; 63
    29a6:	0f 90       	pop	r0
    29a8:	1f 90       	pop	r1
    29aa:	18 95       	reti

000029ac <_ZN18Zero_Cross_CounterC1Ev>:
	TCD0.INTFLAGS = TCD_TRIGA_bm | TCD_TRIGB_bm;
}
// default constructor
Zero_Cross_Counter::Zero_Cross_Counter()
{
	ptr_zero_cross_handler=this;
    29ac:	80 93 86 45 	sts	0x4586, r24	; 0x804586 <ptr_zero_cross_handler>
    29b0:	90 93 87 45 	sts	0x4587, r25	; 0x804587 <ptr_zero_cross_handler+0x1>
    29b4:	08 95       	ret

000029b6 <_ZN18Zero_Cross_CounterD1Ev>:
} //Zero_Cross_Counter

// default destructor
Zero_Cross_Counter::~Zero_Cross_Counter()
    29b6:	08 95       	ret

000029b8 <_ZN18Zero_Cross_Counter15CaptureCounterCEv>:
{
} //~Zero_Cross_Counter

void Zero_Cross_Counter::CaptureCounterC(void){
    29b8:	fc 01       	movw	r30, r24
	if (ZCD0.STATUS&0x10)
    29ba:	80 91 c3 06 	lds	r24, 0x06C3	; 0x8006c3 <__TEXT_REGION_LENGTH__+0x7e06c3>
	//		while ((TCD0.STATUS & TCD_ENRDY_bm) == 0)
	//		; // Wait for Enable Ready to be high.
	//	capture_timer_c=TCD0.CAPTUREA;
		
	}
	TCD0.CTRLE=TCD_RESTART_bm;
    29be:	84 e0       	ldi	r24, 0x04	; 4
    29c0:	80 93 84 0b 	sts	0x0B84, r24	; 0x800b84 <__TEXT_REGION_LENGTH__+0x7e0b84>
	toogle_bit=!toogle_bit;
    29c4:	97 81       	ldd	r25, Z+7	; 0x07
    29c6:	81 e0       	ldi	r24, 0x01	; 1
    29c8:	89 27       	eor	r24, r25
    29ca:	87 83       	std	Z+7, r24	; 0x07
	leading_edge=false;
    29cc:	10 82       	st	Z, r1
    29ce:	08 95       	ret

000029d0 <__vector_17>:
		
	TCB2.INTFLAGS = TCB_CAPT_bm;
}

ISR(TCD0_TRIG_vect)
{
    29d0:	1f 92       	push	r1
    29d2:	0f 92       	push	r0
    29d4:	0f b6       	in	r0, 0x3f	; 63
    29d6:	0f 92       	push	r0
    29d8:	11 24       	eor	r1, r1
    29da:	0b b6       	in	r0, 0x3b	; 59
    29dc:	0f 92       	push	r0
    29de:	2f 93       	push	r18
    29e0:	3f 93       	push	r19
    29e2:	4f 93       	push	r20
    29e4:	5f 93       	push	r21
    29e6:	6f 93       	push	r22
    29e8:	7f 93       	push	r23
    29ea:	8f 93       	push	r24
    29ec:	9f 93       	push	r25
    29ee:	af 93       	push	r26
    29f0:	bf 93       	push	r27
    29f2:	ef 93       	push	r30
    29f4:	ff 93       	push	r31
		//capture_value_b= TCD0_CAPTUREA;
		capture_value_c= TCD0_CAPTUREB;
    29f6:	80 91 a4 0b 	lds	r24, 0x0BA4	; 0x800ba4 <__TEXT_REGION_LENGTH__+0x7e0ba4>
    29fa:	90 91 a5 0b 	lds	r25, 0x0BA5	; 0x800ba5 <__TEXT_REGION_LENGTH__+0x7e0ba5>
		ptr_zero_cross_handler->CaptureCounterC();
    29fe:	80 91 86 45 	lds	r24, 0x4586	; 0x804586 <ptr_zero_cross_handler>
    2a02:	90 91 87 45 	lds	r25, 0x4587	; 0x804587 <ptr_zero_cross_handler+0x1>
    2a06:	0e 94 dc 14 	call	0x29b8	; 0x29b8 <_ZN18Zero_Cross_Counter15CaptureCounterCEv>
	/* Insert your TCD TRIGB interrupt handling code here */
	
	

	/* TRIGA and TRIGB interrupt flags have to be cleared manually */
	TCD0.INTFLAGS = TCD_TRIGA_bm | TCD_TRIGB_bm;
    2a0a:	8c e0       	ldi	r24, 0x0C	; 12
    2a0c:	80 93 8d 0b 	sts	0x0B8D, r24	; 0x800b8d <__TEXT_REGION_LENGTH__+0x7e0b8d>
}
    2a10:	ff 91       	pop	r31
    2a12:	ef 91       	pop	r30
    2a14:	bf 91       	pop	r27
    2a16:	af 91       	pop	r26
    2a18:	9f 91       	pop	r25
    2a1a:	8f 91       	pop	r24
    2a1c:	7f 91       	pop	r23
    2a1e:	6f 91       	pop	r22
    2a20:	5f 91       	pop	r21
    2a22:	4f 91       	pop	r20
    2a24:	3f 91       	pop	r19
    2a26:	2f 91       	pop	r18
    2a28:	0f 90       	pop	r0
    2a2a:	0b be       	out	0x3b, r0	; 59
    2a2c:	0f 90       	pop	r0
    2a2e:	0f be       	out	0x3f, r0	; 63
    2a30:	0f 90       	pop	r0
    2a32:	1f 90       	pop	r1
    2a34:	18 95       	reti

00002a36 <_ZN18Zero_Cross_Counter22CaptureCounterB_RisingEv>:
	TCD0.CTRLE=TCD_RESTART_bm;
	toogle_bit=!toogle_bit;
	leading_edge=false;
}
void Zero_Cross_Counter::CaptureCounterB_Rising(void){
	capture_timer_b= capture_value_rising;
    2a36:	20 91 84 45 	lds	r18, 0x4584	; 0x804584 <_ZL20capture_value_rising>
    2a3a:	30 91 85 45 	lds	r19, 0x4585	; 0x804585 <_ZL20capture_value_rising+0x1>
    2a3e:	fc 01       	movw	r30, r24
    2a40:	25 83       	std	Z+5, r18	; 0x05
    2a42:	36 83       	std	Z+6, r19	; 0x06
    2a44:	08 95       	ret

00002a46 <__vector_14>:
	ptr_zero_cross_handler->falling_edge=true;
	ptr_zero_cross_handler->leading_edge=false;
	ZCD1.STATUS = ZCD_CROSSIF_bm;
}
ISR(TCB0_INT_vect)
{
    2a46:	1f 92       	push	r1
    2a48:	0f 92       	push	r0
    2a4a:	0f b6       	in	r0, 0x3f	; 63
    2a4c:	0f 92       	push	r0
    2a4e:	11 24       	eor	r1, r1
    2a50:	0b b6       	in	r0, 0x3b	; 59
    2a52:	0f 92       	push	r0
    2a54:	2f 93       	push	r18
    2a56:	3f 93       	push	r19
    2a58:	4f 93       	push	r20
    2a5a:	5f 93       	push	r21
    2a5c:	6f 93       	push	r22
    2a5e:	7f 93       	push	r23
    2a60:	8f 93       	push	r24
    2a62:	9f 93       	push	r25
    2a64:	af 93       	push	r26
    2a66:	bf 93       	push	r27
    2a68:	ef 93       	push	r30
    2a6a:	ff 93       	push	r31
	capture_value_rising= TCB0.CNT;
    2a6c:	80 91 0a 0b 	lds	r24, 0x0B0A	; 0x800b0a <__TEXT_REGION_LENGTH__+0x7e0b0a>
    2a70:	90 91 0b 0b 	lds	r25, 0x0B0B	; 0x800b0b <__TEXT_REGION_LENGTH__+0x7e0b0b>
    2a74:	80 93 84 45 	sts	0x4584, r24	; 0x804584 <_ZL20capture_value_rising>
    2a78:	90 93 85 45 	sts	0x4585, r25	; 0x804585 <_ZL20capture_value_rising+0x1>
	if (ptr_zero_cross_handler->leading_edge==true)
    2a7c:	e0 91 86 45 	lds	r30, 0x4586	; 0x804586 <ptr_zero_cross_handler>
    2a80:	f0 91 87 45 	lds	r31, 0x4587	; 0x804587 <ptr_zero_cross_handler+0x1>
    2a84:	80 81       	ld	r24, Z
    2a86:	88 23       	and	r24, r24
    2a88:	19 f0       	breq	.+6      	; 0x2a90 <__vector_14+0x4a>
	{
		ptr_zero_cross_handler->CaptureCounterB_Rising();
    2a8a:	cf 01       	movw	r24, r30
    2a8c:	0e 94 1b 15 	call	0x2a36	; 0x2a36 <_ZN18Zero_Cross_Counter22CaptureCounterB_RisingEv>
	}
	

	TCB0.INTFLAGS = TCB_CAPT_bm;
    2a90:	81 e0       	ldi	r24, 0x01	; 1
    2a92:	80 93 06 0b 	sts	0x0B06, r24	; 0x800b06 <__TEXT_REGION_LENGTH__+0x7e0b06>
}
    2a96:	ff 91       	pop	r31
    2a98:	ef 91       	pop	r30
    2a9a:	bf 91       	pop	r27
    2a9c:	af 91       	pop	r26
    2a9e:	9f 91       	pop	r25
    2aa0:	8f 91       	pop	r24
    2aa2:	7f 91       	pop	r23
    2aa4:	6f 91       	pop	r22
    2aa6:	5f 91       	pop	r21
    2aa8:	4f 91       	pop	r20
    2aaa:	3f 91       	pop	r19
    2aac:	2f 91       	pop	r18
    2aae:	0f 90       	pop	r0
    2ab0:	0b be       	out	0x3b, r0	; 59
    2ab2:	0f 90       	pop	r0
    2ab4:	0f be       	out	0x3f, r0	; 63
    2ab6:	0f 90       	pop	r0
    2ab8:	1f 90       	pop	r1
    2aba:	18 95       	reti

00002abc <_ZN18Zero_Cross_Counter23CaptureCounterB_FallingEv>:
}
void Zero_Cross_Counter::CaptureCounterB_Rising(void){
	capture_timer_b= capture_value_rising;
}
void Zero_Cross_Counter::CaptureCounterB_Falling(void){
	capture_timer_c= capture_value_falling;
    2abc:	20 91 82 45 	lds	r18, 0x4582	; 0x804582 <_ZL21capture_value_falling>
    2ac0:	30 91 83 45 	lds	r19, 0x4583	; 0x804583 <_ZL21capture_value_falling+0x1>
    2ac4:	fc 01       	movw	r30, r24
    2ac6:	23 83       	std	Z+3, r18	; 0x03
    2ac8:	34 83       	std	Z+4, r19	; 0x04
    2aca:	08 95       	ret

00002acc <__vector_31>:
	

	TCB0.INTFLAGS = TCB_CAPT_bm;
}
ISR(TCB2_INT_vect)
{
    2acc:	1f 92       	push	r1
    2ace:	0f 92       	push	r0
    2ad0:	0f b6       	in	r0, 0x3f	; 63
    2ad2:	0f 92       	push	r0
    2ad4:	11 24       	eor	r1, r1
    2ad6:	0b b6       	in	r0, 0x3b	; 59
    2ad8:	0f 92       	push	r0
    2ada:	2f 93       	push	r18
    2adc:	3f 93       	push	r19
    2ade:	4f 93       	push	r20
    2ae0:	5f 93       	push	r21
    2ae2:	6f 93       	push	r22
    2ae4:	7f 93       	push	r23
    2ae6:	8f 93       	push	r24
    2ae8:	9f 93       	push	r25
    2aea:	af 93       	push	r26
    2aec:	bf 93       	push	r27
    2aee:	ef 93       	push	r30
    2af0:	ff 93       	push	r31
		capture_value_falling= TCB2.CNT;
    2af2:	80 91 2a 0b 	lds	r24, 0x0B2A	; 0x800b2a <__TEXT_REGION_LENGTH__+0x7e0b2a>
    2af6:	90 91 2b 0b 	lds	r25, 0x0B2B	; 0x800b2b <__TEXT_REGION_LENGTH__+0x7e0b2b>
    2afa:	80 93 82 45 	sts	0x4582, r24	; 0x804582 <_ZL21capture_value_falling>
    2afe:	90 93 83 45 	sts	0x4583, r25	; 0x804583 <_ZL21capture_value_falling+0x1>
		if (ptr_zero_cross_handler->falling_edge==true)
    2b02:	e0 91 86 45 	lds	r30, 0x4586	; 0x804586 <ptr_zero_cross_handler>
    2b06:	f0 91 87 45 	lds	r31, 0x4587	; 0x804587 <ptr_zero_cross_handler+0x1>
    2b0a:	82 81       	ldd	r24, Z+2	; 0x02
    2b0c:	88 23       	and	r24, r24
    2b0e:	19 f0       	breq	.+6      	; 0x2b16 <__vector_31+0x4a>
		{
			ptr_zero_cross_handler->CaptureCounterB_Falling();
    2b10:	cf 01       	movw	r24, r30
    2b12:	0e 94 5e 15 	call	0x2abc	; 0x2abc <_ZN18Zero_Cross_Counter23CaptureCounterB_FallingEv>
		}
		
	TCB2.INTFLAGS = TCB_CAPT_bm;
    2b16:	81 e0       	ldi	r24, 0x01	; 1
    2b18:	80 93 26 0b 	sts	0x0B26, r24	; 0x800b26 <__TEXT_REGION_LENGTH__+0x7e0b26>
}
    2b1c:	ff 91       	pop	r31
    2b1e:	ef 91       	pop	r30
    2b20:	bf 91       	pop	r27
    2b22:	af 91       	pop	r26
    2b24:	9f 91       	pop	r25
    2b26:	8f 91       	pop	r24
    2b28:	7f 91       	pop	r23
    2b2a:	6f 91       	pop	r22
    2b2c:	5f 91       	pop	r21
    2b2e:	4f 91       	pop	r20
    2b30:	3f 91       	pop	r19
    2b32:	2f 91       	pop	r18
    2b34:	0f 90       	pop	r0
    2b36:	0b be       	out	0x3b, r0	; 59
    2b38:	0f 90       	pop	r0
    2b3a:	0f be       	out	0x3f, r0	; 63
    2b3c:	0f 90       	pop	r0
    2b3e:	1f 90       	pop	r1
    2b40:	18 95       	reti

00002b42 <__subsf3>:
    2b42:	50 58       	subi	r21, 0x80	; 128

00002b44 <__addsf3>:
    2b44:	bb 27       	eor	r27, r27
    2b46:	aa 27       	eor	r26, r26
    2b48:	0e 94 b9 15 	call	0x2b72	; 0x2b72 <__addsf3x>
    2b4c:	0c 94 73 17 	jmp	0x2ee6	; 0x2ee6 <__fp_round>
    2b50:	0e 94 65 17 	call	0x2eca	; 0x2eca <__fp_pscA>
    2b54:	38 f0       	brcs	.+14     	; 0x2b64 <__addsf3+0x20>
    2b56:	0e 94 6c 17 	call	0x2ed8	; 0x2ed8 <__fp_pscB>
    2b5a:	20 f0       	brcs	.+8      	; 0x2b64 <__addsf3+0x20>
    2b5c:	39 f4       	brne	.+14     	; 0x2b6c <__addsf3+0x28>
    2b5e:	9f 3f       	cpi	r25, 0xFF	; 255
    2b60:	19 f4       	brne	.+6      	; 0x2b68 <__addsf3+0x24>
    2b62:	26 f4       	brtc	.+8      	; 0x2b6c <__addsf3+0x28>
    2b64:	0c 94 62 17 	jmp	0x2ec4	; 0x2ec4 <__fp_nan>
    2b68:	0e f4       	brtc	.+2      	; 0x2b6c <__addsf3+0x28>
    2b6a:	e0 95       	com	r30
    2b6c:	e7 fb       	bst	r30, 7
    2b6e:	0c 94 33 17 	jmp	0x2e66	; 0x2e66 <__fp_inf>

00002b72 <__addsf3x>:
    2b72:	e9 2f       	mov	r30, r25
    2b74:	0e 94 84 17 	call	0x2f08	; 0x2f08 <__fp_split3>
    2b78:	58 f3       	brcs	.-42     	; 0x2b50 <__addsf3+0xc>
    2b7a:	ba 17       	cp	r27, r26
    2b7c:	62 07       	cpc	r22, r18
    2b7e:	73 07       	cpc	r23, r19
    2b80:	84 07       	cpc	r24, r20
    2b82:	95 07       	cpc	r25, r21
    2b84:	20 f0       	brcs	.+8      	; 0x2b8e <__addsf3x+0x1c>
    2b86:	79 f4       	brne	.+30     	; 0x2ba6 <__addsf3x+0x34>
    2b88:	a6 f5       	brtc	.+104    	; 0x2bf2 <__addsf3x+0x80>
    2b8a:	0c 94 be 17 	jmp	0x2f7c	; 0x2f7c <__fp_zero>
    2b8e:	0e f4       	brtc	.+2      	; 0x2b92 <__addsf3x+0x20>
    2b90:	e0 95       	com	r30
    2b92:	0b 2e       	mov	r0, r27
    2b94:	ba 2f       	mov	r27, r26
    2b96:	a0 2d       	mov	r26, r0
    2b98:	0b 01       	movw	r0, r22
    2b9a:	b9 01       	movw	r22, r18
    2b9c:	90 01       	movw	r18, r0
    2b9e:	0c 01       	movw	r0, r24
    2ba0:	ca 01       	movw	r24, r20
    2ba2:	a0 01       	movw	r20, r0
    2ba4:	11 24       	eor	r1, r1
    2ba6:	ff 27       	eor	r31, r31
    2ba8:	59 1b       	sub	r21, r25
    2baa:	99 f0       	breq	.+38     	; 0x2bd2 <__addsf3x+0x60>
    2bac:	59 3f       	cpi	r21, 0xF9	; 249
    2bae:	50 f4       	brcc	.+20     	; 0x2bc4 <__addsf3x+0x52>
    2bb0:	50 3e       	cpi	r21, 0xE0	; 224
    2bb2:	68 f1       	brcs	.+90     	; 0x2c0e <__addsf3x+0x9c>
    2bb4:	1a 16       	cp	r1, r26
    2bb6:	f0 40       	sbci	r31, 0x00	; 0
    2bb8:	a2 2f       	mov	r26, r18
    2bba:	23 2f       	mov	r18, r19
    2bbc:	34 2f       	mov	r19, r20
    2bbe:	44 27       	eor	r20, r20
    2bc0:	58 5f       	subi	r21, 0xF8	; 248
    2bc2:	f3 cf       	rjmp	.-26     	; 0x2baa <__addsf3x+0x38>
    2bc4:	46 95       	lsr	r20
    2bc6:	37 95       	ror	r19
    2bc8:	27 95       	ror	r18
    2bca:	a7 95       	ror	r26
    2bcc:	f0 40       	sbci	r31, 0x00	; 0
    2bce:	53 95       	inc	r21
    2bd0:	c9 f7       	brne	.-14     	; 0x2bc4 <__addsf3x+0x52>
    2bd2:	7e f4       	brtc	.+30     	; 0x2bf2 <__addsf3x+0x80>
    2bd4:	1f 16       	cp	r1, r31
    2bd6:	ba 0b       	sbc	r27, r26
    2bd8:	62 0b       	sbc	r22, r18
    2bda:	73 0b       	sbc	r23, r19
    2bdc:	84 0b       	sbc	r24, r20
    2bde:	ba f0       	brmi	.+46     	; 0x2c0e <__addsf3x+0x9c>
    2be0:	91 50       	subi	r25, 0x01	; 1
    2be2:	a1 f0       	breq	.+40     	; 0x2c0c <__addsf3x+0x9a>
    2be4:	ff 0f       	add	r31, r31
    2be6:	bb 1f       	adc	r27, r27
    2be8:	66 1f       	adc	r22, r22
    2bea:	77 1f       	adc	r23, r23
    2bec:	88 1f       	adc	r24, r24
    2bee:	c2 f7       	brpl	.-16     	; 0x2be0 <__addsf3x+0x6e>
    2bf0:	0e c0       	rjmp	.+28     	; 0x2c0e <__addsf3x+0x9c>
    2bf2:	ba 0f       	add	r27, r26
    2bf4:	62 1f       	adc	r22, r18
    2bf6:	73 1f       	adc	r23, r19
    2bf8:	84 1f       	adc	r24, r20
    2bfa:	48 f4       	brcc	.+18     	; 0x2c0e <__addsf3x+0x9c>
    2bfc:	87 95       	ror	r24
    2bfe:	77 95       	ror	r23
    2c00:	67 95       	ror	r22
    2c02:	b7 95       	ror	r27
    2c04:	f7 95       	ror	r31
    2c06:	9e 3f       	cpi	r25, 0xFE	; 254
    2c08:	08 f0       	brcs	.+2      	; 0x2c0c <__addsf3x+0x9a>
    2c0a:	b0 cf       	rjmp	.-160    	; 0x2b6c <__addsf3+0x28>
    2c0c:	93 95       	inc	r25
    2c0e:	88 0f       	add	r24, r24
    2c10:	08 f0       	brcs	.+2      	; 0x2c14 <__addsf3x+0xa2>
    2c12:	99 27       	eor	r25, r25
    2c14:	ee 0f       	add	r30, r30
    2c16:	97 95       	ror	r25
    2c18:	87 95       	ror	r24
    2c1a:	08 95       	ret

00002c1c <__cmpsf2>:
    2c1c:	0e 94 0f 17 	call	0x2e1e	; 0x2e1e <__fp_cmp>
    2c20:	08 f4       	brcc	.+2      	; 0x2c24 <__cmpsf2+0x8>
    2c22:	81 e0       	ldi	r24, 0x01	; 1
    2c24:	08 95       	ret

00002c26 <__divsf3>:
    2c26:	0e 94 27 16 	call	0x2c4e	; 0x2c4e <__divsf3x>
    2c2a:	0c 94 73 17 	jmp	0x2ee6	; 0x2ee6 <__fp_round>
    2c2e:	0e 94 6c 17 	call	0x2ed8	; 0x2ed8 <__fp_pscB>
    2c32:	58 f0       	brcs	.+22     	; 0x2c4a <__divsf3+0x24>
    2c34:	0e 94 65 17 	call	0x2eca	; 0x2eca <__fp_pscA>
    2c38:	40 f0       	brcs	.+16     	; 0x2c4a <__divsf3+0x24>
    2c3a:	29 f4       	brne	.+10     	; 0x2c46 <__divsf3+0x20>
    2c3c:	5f 3f       	cpi	r21, 0xFF	; 255
    2c3e:	29 f0       	breq	.+10     	; 0x2c4a <__divsf3+0x24>
    2c40:	0c 94 33 17 	jmp	0x2e66	; 0x2e66 <__fp_inf>
    2c44:	51 11       	cpse	r21, r1
    2c46:	0c 94 bf 17 	jmp	0x2f7e	; 0x2f7e <__fp_szero>
    2c4a:	0c 94 62 17 	jmp	0x2ec4	; 0x2ec4 <__fp_nan>

00002c4e <__divsf3x>:
    2c4e:	0e 94 84 17 	call	0x2f08	; 0x2f08 <__fp_split3>
    2c52:	68 f3       	brcs	.-38     	; 0x2c2e <__divsf3+0x8>

00002c54 <__divsf3_pse>:
    2c54:	99 23       	and	r25, r25
    2c56:	b1 f3       	breq	.-20     	; 0x2c44 <__divsf3+0x1e>
    2c58:	55 23       	and	r21, r21
    2c5a:	91 f3       	breq	.-28     	; 0x2c40 <__divsf3+0x1a>
    2c5c:	95 1b       	sub	r25, r21
    2c5e:	55 0b       	sbc	r21, r21
    2c60:	bb 27       	eor	r27, r27
    2c62:	aa 27       	eor	r26, r26
    2c64:	62 17       	cp	r22, r18
    2c66:	73 07       	cpc	r23, r19
    2c68:	84 07       	cpc	r24, r20
    2c6a:	38 f0       	brcs	.+14     	; 0x2c7a <__divsf3_pse+0x26>
    2c6c:	9f 5f       	subi	r25, 0xFF	; 255
    2c6e:	5f 4f       	sbci	r21, 0xFF	; 255
    2c70:	22 0f       	add	r18, r18
    2c72:	33 1f       	adc	r19, r19
    2c74:	44 1f       	adc	r20, r20
    2c76:	aa 1f       	adc	r26, r26
    2c78:	a9 f3       	breq	.-22     	; 0x2c64 <__divsf3_pse+0x10>
    2c7a:	35 d0       	rcall	.+106    	; 0x2ce6 <__divsf3_pse+0x92>
    2c7c:	0e 2e       	mov	r0, r30
    2c7e:	3a f0       	brmi	.+14     	; 0x2c8e <__divsf3_pse+0x3a>
    2c80:	e0 e8       	ldi	r30, 0x80	; 128
    2c82:	32 d0       	rcall	.+100    	; 0x2ce8 <__divsf3_pse+0x94>
    2c84:	91 50       	subi	r25, 0x01	; 1
    2c86:	50 40       	sbci	r21, 0x00	; 0
    2c88:	e6 95       	lsr	r30
    2c8a:	00 1c       	adc	r0, r0
    2c8c:	ca f7       	brpl	.-14     	; 0x2c80 <__divsf3_pse+0x2c>
    2c8e:	2b d0       	rcall	.+86     	; 0x2ce6 <__divsf3_pse+0x92>
    2c90:	fe 2f       	mov	r31, r30
    2c92:	29 d0       	rcall	.+82     	; 0x2ce6 <__divsf3_pse+0x92>
    2c94:	66 0f       	add	r22, r22
    2c96:	77 1f       	adc	r23, r23
    2c98:	88 1f       	adc	r24, r24
    2c9a:	bb 1f       	adc	r27, r27
    2c9c:	26 17       	cp	r18, r22
    2c9e:	37 07       	cpc	r19, r23
    2ca0:	48 07       	cpc	r20, r24
    2ca2:	ab 07       	cpc	r26, r27
    2ca4:	b0 e8       	ldi	r27, 0x80	; 128
    2ca6:	09 f0       	breq	.+2      	; 0x2caa <__divsf3_pse+0x56>
    2ca8:	bb 0b       	sbc	r27, r27
    2caa:	80 2d       	mov	r24, r0
    2cac:	bf 01       	movw	r22, r30
    2cae:	ff 27       	eor	r31, r31
    2cb0:	93 58       	subi	r25, 0x83	; 131
    2cb2:	5f 4f       	sbci	r21, 0xFF	; 255
    2cb4:	3a f0       	brmi	.+14     	; 0x2cc4 <__divsf3_pse+0x70>
    2cb6:	9e 3f       	cpi	r25, 0xFE	; 254
    2cb8:	51 05       	cpc	r21, r1
    2cba:	78 f0       	brcs	.+30     	; 0x2cda <__divsf3_pse+0x86>
    2cbc:	0c 94 33 17 	jmp	0x2e66	; 0x2e66 <__fp_inf>
    2cc0:	0c 94 bf 17 	jmp	0x2f7e	; 0x2f7e <__fp_szero>
    2cc4:	5f 3f       	cpi	r21, 0xFF	; 255
    2cc6:	e4 f3       	brlt	.-8      	; 0x2cc0 <__divsf3_pse+0x6c>
    2cc8:	98 3e       	cpi	r25, 0xE8	; 232
    2cca:	d4 f3       	brlt	.-12     	; 0x2cc0 <__divsf3_pse+0x6c>
    2ccc:	86 95       	lsr	r24
    2cce:	77 95       	ror	r23
    2cd0:	67 95       	ror	r22
    2cd2:	b7 95       	ror	r27
    2cd4:	f7 95       	ror	r31
    2cd6:	9f 5f       	subi	r25, 0xFF	; 255
    2cd8:	c9 f7       	brne	.-14     	; 0x2ccc <__divsf3_pse+0x78>
    2cda:	88 0f       	add	r24, r24
    2cdc:	91 1d       	adc	r25, r1
    2cde:	96 95       	lsr	r25
    2ce0:	87 95       	ror	r24
    2ce2:	97 f9       	bld	r25, 7
    2ce4:	08 95       	ret
    2ce6:	e1 e0       	ldi	r30, 0x01	; 1
    2ce8:	66 0f       	add	r22, r22
    2cea:	77 1f       	adc	r23, r23
    2cec:	88 1f       	adc	r24, r24
    2cee:	bb 1f       	adc	r27, r27
    2cf0:	62 17       	cp	r22, r18
    2cf2:	73 07       	cpc	r23, r19
    2cf4:	84 07       	cpc	r24, r20
    2cf6:	ba 07       	cpc	r27, r26
    2cf8:	20 f0       	brcs	.+8      	; 0x2d02 <__divsf3_pse+0xae>
    2cfa:	62 1b       	sub	r22, r18
    2cfc:	73 0b       	sbc	r23, r19
    2cfe:	84 0b       	sbc	r24, r20
    2d00:	ba 0b       	sbc	r27, r26
    2d02:	ee 1f       	adc	r30, r30
    2d04:	88 f7       	brcc	.-30     	; 0x2ce8 <__divsf3_pse+0x94>
    2d06:	e0 95       	com	r30
    2d08:	08 95       	ret

00002d0a <__fixsfsi>:
    2d0a:	0e 94 8c 16 	call	0x2d18	; 0x2d18 <__fixunssfsi>
    2d0e:	68 94       	set
    2d10:	b1 11       	cpse	r27, r1
    2d12:	0c 94 bf 17 	jmp	0x2f7e	; 0x2f7e <__fp_szero>
    2d16:	08 95       	ret

00002d18 <__fixunssfsi>:
    2d18:	0e 94 8c 17 	call	0x2f18	; 0x2f18 <__fp_splitA>
    2d1c:	88 f0       	brcs	.+34     	; 0x2d40 <__fixunssfsi+0x28>
    2d1e:	9f 57       	subi	r25, 0x7F	; 127
    2d20:	98 f0       	brcs	.+38     	; 0x2d48 <__fixunssfsi+0x30>
    2d22:	b9 2f       	mov	r27, r25
    2d24:	99 27       	eor	r25, r25
    2d26:	b7 51       	subi	r27, 0x17	; 23
    2d28:	b0 f0       	brcs	.+44     	; 0x2d56 <__fixunssfsi+0x3e>
    2d2a:	e1 f0       	breq	.+56     	; 0x2d64 <__fixunssfsi+0x4c>
    2d2c:	66 0f       	add	r22, r22
    2d2e:	77 1f       	adc	r23, r23
    2d30:	88 1f       	adc	r24, r24
    2d32:	99 1f       	adc	r25, r25
    2d34:	1a f0       	brmi	.+6      	; 0x2d3c <__fixunssfsi+0x24>
    2d36:	ba 95       	dec	r27
    2d38:	c9 f7       	brne	.-14     	; 0x2d2c <__fixunssfsi+0x14>
    2d3a:	14 c0       	rjmp	.+40     	; 0x2d64 <__fixunssfsi+0x4c>
    2d3c:	b1 30       	cpi	r27, 0x01	; 1
    2d3e:	91 f0       	breq	.+36     	; 0x2d64 <__fixunssfsi+0x4c>
    2d40:	0e 94 be 17 	call	0x2f7c	; 0x2f7c <__fp_zero>
    2d44:	b1 e0       	ldi	r27, 0x01	; 1
    2d46:	08 95       	ret
    2d48:	0c 94 be 17 	jmp	0x2f7c	; 0x2f7c <__fp_zero>
    2d4c:	67 2f       	mov	r22, r23
    2d4e:	78 2f       	mov	r23, r24
    2d50:	88 27       	eor	r24, r24
    2d52:	b8 5f       	subi	r27, 0xF8	; 248
    2d54:	39 f0       	breq	.+14     	; 0x2d64 <__fixunssfsi+0x4c>
    2d56:	b9 3f       	cpi	r27, 0xF9	; 249
    2d58:	cc f3       	brlt	.-14     	; 0x2d4c <__fixunssfsi+0x34>
    2d5a:	86 95       	lsr	r24
    2d5c:	77 95       	ror	r23
    2d5e:	67 95       	ror	r22
    2d60:	b3 95       	inc	r27
    2d62:	d9 f7       	brne	.-10     	; 0x2d5a <__fixunssfsi+0x42>
    2d64:	3e f4       	brtc	.+14     	; 0x2d74 <__fixunssfsi+0x5c>
    2d66:	90 95       	com	r25
    2d68:	80 95       	com	r24
    2d6a:	70 95       	com	r23
    2d6c:	61 95       	neg	r22
    2d6e:	7f 4f       	sbci	r23, 0xFF	; 255
    2d70:	8f 4f       	sbci	r24, 0xFF	; 255
    2d72:	9f 4f       	sbci	r25, 0xFF	; 255
    2d74:	08 95       	ret

00002d76 <__floatunsisf>:
    2d76:	e8 94       	clt
    2d78:	09 c0       	rjmp	.+18     	; 0x2d8c <__floatsisf+0x12>

00002d7a <__floatsisf>:
    2d7a:	97 fb       	bst	r25, 7
    2d7c:	3e f4       	brtc	.+14     	; 0x2d8c <__floatsisf+0x12>
    2d7e:	90 95       	com	r25
    2d80:	80 95       	com	r24
    2d82:	70 95       	com	r23
    2d84:	61 95       	neg	r22
    2d86:	7f 4f       	sbci	r23, 0xFF	; 255
    2d88:	8f 4f       	sbci	r24, 0xFF	; 255
    2d8a:	9f 4f       	sbci	r25, 0xFF	; 255
    2d8c:	99 23       	and	r25, r25
    2d8e:	a9 f0       	breq	.+42     	; 0x2dba <__floatsisf+0x40>
    2d90:	f9 2f       	mov	r31, r25
    2d92:	96 e9       	ldi	r25, 0x96	; 150
    2d94:	bb 27       	eor	r27, r27
    2d96:	93 95       	inc	r25
    2d98:	f6 95       	lsr	r31
    2d9a:	87 95       	ror	r24
    2d9c:	77 95       	ror	r23
    2d9e:	67 95       	ror	r22
    2da0:	b7 95       	ror	r27
    2da2:	f1 11       	cpse	r31, r1
    2da4:	f8 cf       	rjmp	.-16     	; 0x2d96 <__floatsisf+0x1c>
    2da6:	fa f4       	brpl	.+62     	; 0x2de6 <__floatsisf+0x6c>
    2da8:	bb 0f       	add	r27, r27
    2daa:	11 f4       	brne	.+4      	; 0x2db0 <__floatsisf+0x36>
    2dac:	60 ff       	sbrs	r22, 0
    2dae:	1b c0       	rjmp	.+54     	; 0x2de6 <__floatsisf+0x6c>
    2db0:	6f 5f       	subi	r22, 0xFF	; 255
    2db2:	7f 4f       	sbci	r23, 0xFF	; 255
    2db4:	8f 4f       	sbci	r24, 0xFF	; 255
    2db6:	9f 4f       	sbci	r25, 0xFF	; 255
    2db8:	16 c0       	rjmp	.+44     	; 0x2de6 <__floatsisf+0x6c>
    2dba:	88 23       	and	r24, r24
    2dbc:	11 f0       	breq	.+4      	; 0x2dc2 <__floatsisf+0x48>
    2dbe:	96 e9       	ldi	r25, 0x96	; 150
    2dc0:	11 c0       	rjmp	.+34     	; 0x2de4 <__floatsisf+0x6a>
    2dc2:	77 23       	and	r23, r23
    2dc4:	21 f0       	breq	.+8      	; 0x2dce <__floatsisf+0x54>
    2dc6:	9e e8       	ldi	r25, 0x8E	; 142
    2dc8:	87 2f       	mov	r24, r23
    2dca:	76 2f       	mov	r23, r22
    2dcc:	05 c0       	rjmp	.+10     	; 0x2dd8 <__floatsisf+0x5e>
    2dce:	66 23       	and	r22, r22
    2dd0:	71 f0       	breq	.+28     	; 0x2dee <__floatsisf+0x74>
    2dd2:	96 e8       	ldi	r25, 0x86	; 134
    2dd4:	86 2f       	mov	r24, r22
    2dd6:	70 e0       	ldi	r23, 0x00	; 0
    2dd8:	60 e0       	ldi	r22, 0x00	; 0
    2dda:	2a f0       	brmi	.+10     	; 0x2de6 <__floatsisf+0x6c>
    2ddc:	9a 95       	dec	r25
    2dde:	66 0f       	add	r22, r22
    2de0:	77 1f       	adc	r23, r23
    2de2:	88 1f       	adc	r24, r24
    2de4:	da f7       	brpl	.-10     	; 0x2ddc <__floatsisf+0x62>
    2de6:	88 0f       	add	r24, r24
    2de8:	96 95       	lsr	r25
    2dea:	87 95       	ror	r24
    2dec:	97 f9       	bld	r25, 7
    2dee:	08 95       	ret

00002df0 <floor>:
    2df0:	0e 94 a6 17 	call	0x2f4c	; 0x2f4c <__fp_trunc>
    2df4:	90 f0       	brcs	.+36     	; 0x2e1a <floor+0x2a>
    2df6:	9f 37       	cpi	r25, 0x7F	; 127
    2df8:	48 f4       	brcc	.+18     	; 0x2e0c <floor+0x1c>
    2dfa:	91 11       	cpse	r25, r1
    2dfc:	16 f0       	brts	.+4      	; 0x2e02 <floor+0x12>
    2dfe:	0c 94 bf 17 	jmp	0x2f7e	; 0x2f7e <__fp_szero>
    2e02:	60 e0       	ldi	r22, 0x00	; 0
    2e04:	70 e0       	ldi	r23, 0x00	; 0
    2e06:	80 e8       	ldi	r24, 0x80	; 128
    2e08:	9f eb       	ldi	r25, 0xBF	; 191
    2e0a:	08 95       	ret
    2e0c:	26 f4       	brtc	.+8      	; 0x2e16 <floor+0x26>
    2e0e:	1b 16       	cp	r1, r27
    2e10:	61 1d       	adc	r22, r1
    2e12:	71 1d       	adc	r23, r1
    2e14:	81 1d       	adc	r24, r1
    2e16:	0c 94 39 17 	jmp	0x2e72	; 0x2e72 <__fp_mintl>
    2e1a:	0c 94 54 17 	jmp	0x2ea8	; 0x2ea8 <__fp_mpack>

00002e1e <__fp_cmp>:
    2e1e:	99 0f       	add	r25, r25
    2e20:	00 08       	sbc	r0, r0
    2e22:	55 0f       	add	r21, r21
    2e24:	aa 0b       	sbc	r26, r26
    2e26:	e0 e8       	ldi	r30, 0x80	; 128
    2e28:	fe ef       	ldi	r31, 0xFE	; 254
    2e2a:	16 16       	cp	r1, r22
    2e2c:	17 06       	cpc	r1, r23
    2e2e:	e8 07       	cpc	r30, r24
    2e30:	f9 07       	cpc	r31, r25
    2e32:	c0 f0       	brcs	.+48     	; 0x2e64 <__fp_cmp+0x46>
    2e34:	12 16       	cp	r1, r18
    2e36:	13 06       	cpc	r1, r19
    2e38:	e4 07       	cpc	r30, r20
    2e3a:	f5 07       	cpc	r31, r21
    2e3c:	98 f0       	brcs	.+38     	; 0x2e64 <__fp_cmp+0x46>
    2e3e:	62 1b       	sub	r22, r18
    2e40:	73 0b       	sbc	r23, r19
    2e42:	84 0b       	sbc	r24, r20
    2e44:	95 0b       	sbc	r25, r21
    2e46:	39 f4       	brne	.+14     	; 0x2e56 <__fp_cmp+0x38>
    2e48:	0a 26       	eor	r0, r26
    2e4a:	61 f0       	breq	.+24     	; 0x2e64 <__fp_cmp+0x46>
    2e4c:	23 2b       	or	r18, r19
    2e4e:	24 2b       	or	r18, r20
    2e50:	25 2b       	or	r18, r21
    2e52:	21 f4       	brne	.+8      	; 0x2e5c <__fp_cmp+0x3e>
    2e54:	08 95       	ret
    2e56:	0a 26       	eor	r0, r26
    2e58:	09 f4       	brne	.+2      	; 0x2e5c <__fp_cmp+0x3e>
    2e5a:	a1 40       	sbci	r26, 0x01	; 1
    2e5c:	a6 95       	lsr	r26
    2e5e:	8f ef       	ldi	r24, 0xFF	; 255
    2e60:	81 1d       	adc	r24, r1
    2e62:	81 1d       	adc	r24, r1
    2e64:	08 95       	ret

00002e66 <__fp_inf>:
    2e66:	97 f9       	bld	r25, 7
    2e68:	9f 67       	ori	r25, 0x7F	; 127
    2e6a:	80 e8       	ldi	r24, 0x80	; 128
    2e6c:	70 e0       	ldi	r23, 0x00	; 0
    2e6e:	60 e0       	ldi	r22, 0x00	; 0
    2e70:	08 95       	ret

00002e72 <__fp_mintl>:
    2e72:	88 23       	and	r24, r24
    2e74:	71 f4       	brne	.+28     	; 0x2e92 <__fp_mintl+0x20>
    2e76:	77 23       	and	r23, r23
    2e78:	21 f0       	breq	.+8      	; 0x2e82 <__fp_mintl+0x10>
    2e7a:	98 50       	subi	r25, 0x08	; 8
    2e7c:	87 2b       	or	r24, r23
    2e7e:	76 2f       	mov	r23, r22
    2e80:	07 c0       	rjmp	.+14     	; 0x2e90 <__fp_mintl+0x1e>
    2e82:	66 23       	and	r22, r22
    2e84:	11 f4       	brne	.+4      	; 0x2e8a <__fp_mintl+0x18>
    2e86:	99 27       	eor	r25, r25
    2e88:	0d c0       	rjmp	.+26     	; 0x2ea4 <__fp_mintl+0x32>
    2e8a:	90 51       	subi	r25, 0x10	; 16
    2e8c:	86 2b       	or	r24, r22
    2e8e:	70 e0       	ldi	r23, 0x00	; 0
    2e90:	60 e0       	ldi	r22, 0x00	; 0
    2e92:	2a f0       	brmi	.+10     	; 0x2e9e <__fp_mintl+0x2c>
    2e94:	9a 95       	dec	r25
    2e96:	66 0f       	add	r22, r22
    2e98:	77 1f       	adc	r23, r23
    2e9a:	88 1f       	adc	r24, r24
    2e9c:	da f7       	brpl	.-10     	; 0x2e94 <__fp_mintl+0x22>
    2e9e:	88 0f       	add	r24, r24
    2ea0:	96 95       	lsr	r25
    2ea2:	87 95       	ror	r24
    2ea4:	97 f9       	bld	r25, 7
    2ea6:	08 95       	ret

00002ea8 <__fp_mpack>:
    2ea8:	9f 3f       	cpi	r25, 0xFF	; 255
    2eaa:	31 f0       	breq	.+12     	; 0x2eb8 <__fp_mpack_finite+0xc>

00002eac <__fp_mpack_finite>:
    2eac:	91 50       	subi	r25, 0x01	; 1
    2eae:	20 f4       	brcc	.+8      	; 0x2eb8 <__fp_mpack_finite+0xc>
    2eb0:	87 95       	ror	r24
    2eb2:	77 95       	ror	r23
    2eb4:	67 95       	ror	r22
    2eb6:	b7 95       	ror	r27
    2eb8:	88 0f       	add	r24, r24
    2eba:	91 1d       	adc	r25, r1
    2ebc:	96 95       	lsr	r25
    2ebe:	87 95       	ror	r24
    2ec0:	97 f9       	bld	r25, 7
    2ec2:	08 95       	ret

00002ec4 <__fp_nan>:
    2ec4:	9f ef       	ldi	r25, 0xFF	; 255
    2ec6:	80 ec       	ldi	r24, 0xC0	; 192
    2ec8:	08 95       	ret

00002eca <__fp_pscA>:
    2eca:	00 24       	eor	r0, r0
    2ecc:	0a 94       	dec	r0
    2ece:	16 16       	cp	r1, r22
    2ed0:	17 06       	cpc	r1, r23
    2ed2:	18 06       	cpc	r1, r24
    2ed4:	09 06       	cpc	r0, r25
    2ed6:	08 95       	ret

00002ed8 <__fp_pscB>:
    2ed8:	00 24       	eor	r0, r0
    2eda:	0a 94       	dec	r0
    2edc:	12 16       	cp	r1, r18
    2ede:	13 06       	cpc	r1, r19
    2ee0:	14 06       	cpc	r1, r20
    2ee2:	05 06       	cpc	r0, r21
    2ee4:	08 95       	ret

00002ee6 <__fp_round>:
    2ee6:	09 2e       	mov	r0, r25
    2ee8:	03 94       	inc	r0
    2eea:	00 0c       	add	r0, r0
    2eec:	11 f4       	brne	.+4      	; 0x2ef2 <__fp_round+0xc>
    2eee:	88 23       	and	r24, r24
    2ef0:	52 f0       	brmi	.+20     	; 0x2f06 <__fp_round+0x20>
    2ef2:	bb 0f       	add	r27, r27
    2ef4:	40 f4       	brcc	.+16     	; 0x2f06 <__fp_round+0x20>
    2ef6:	bf 2b       	or	r27, r31
    2ef8:	11 f4       	brne	.+4      	; 0x2efe <__fp_round+0x18>
    2efa:	60 ff       	sbrs	r22, 0
    2efc:	04 c0       	rjmp	.+8      	; 0x2f06 <__fp_round+0x20>
    2efe:	6f 5f       	subi	r22, 0xFF	; 255
    2f00:	7f 4f       	sbci	r23, 0xFF	; 255
    2f02:	8f 4f       	sbci	r24, 0xFF	; 255
    2f04:	9f 4f       	sbci	r25, 0xFF	; 255
    2f06:	08 95       	ret

00002f08 <__fp_split3>:
    2f08:	57 fd       	sbrc	r21, 7
    2f0a:	90 58       	subi	r25, 0x80	; 128
    2f0c:	44 0f       	add	r20, r20
    2f0e:	55 1f       	adc	r21, r21
    2f10:	59 f0       	breq	.+22     	; 0x2f28 <__fp_splitA+0x10>
    2f12:	5f 3f       	cpi	r21, 0xFF	; 255
    2f14:	71 f0       	breq	.+28     	; 0x2f32 <__fp_splitA+0x1a>
    2f16:	47 95       	ror	r20

00002f18 <__fp_splitA>:
    2f18:	88 0f       	add	r24, r24
    2f1a:	97 fb       	bst	r25, 7
    2f1c:	99 1f       	adc	r25, r25
    2f1e:	61 f0       	breq	.+24     	; 0x2f38 <__fp_splitA+0x20>
    2f20:	9f 3f       	cpi	r25, 0xFF	; 255
    2f22:	79 f0       	breq	.+30     	; 0x2f42 <__fp_splitA+0x2a>
    2f24:	87 95       	ror	r24
    2f26:	08 95       	ret
    2f28:	12 16       	cp	r1, r18
    2f2a:	13 06       	cpc	r1, r19
    2f2c:	14 06       	cpc	r1, r20
    2f2e:	55 1f       	adc	r21, r21
    2f30:	f2 cf       	rjmp	.-28     	; 0x2f16 <__fp_split3+0xe>
    2f32:	46 95       	lsr	r20
    2f34:	f1 df       	rcall	.-30     	; 0x2f18 <__fp_splitA>
    2f36:	08 c0       	rjmp	.+16     	; 0x2f48 <__fp_splitA+0x30>
    2f38:	16 16       	cp	r1, r22
    2f3a:	17 06       	cpc	r1, r23
    2f3c:	18 06       	cpc	r1, r24
    2f3e:	99 1f       	adc	r25, r25
    2f40:	f1 cf       	rjmp	.-30     	; 0x2f24 <__fp_splitA+0xc>
    2f42:	86 95       	lsr	r24
    2f44:	71 05       	cpc	r23, r1
    2f46:	61 05       	cpc	r22, r1
    2f48:	08 94       	sec
    2f4a:	08 95       	ret

00002f4c <__fp_trunc>:
    2f4c:	0e 94 8c 17 	call	0x2f18	; 0x2f18 <__fp_splitA>
    2f50:	a0 f0       	brcs	.+40     	; 0x2f7a <__fp_trunc+0x2e>
    2f52:	be e7       	ldi	r27, 0x7E	; 126
    2f54:	b9 17       	cp	r27, r25
    2f56:	88 f4       	brcc	.+34     	; 0x2f7a <__fp_trunc+0x2e>
    2f58:	bb 27       	eor	r27, r27
    2f5a:	9f 38       	cpi	r25, 0x8F	; 143
    2f5c:	60 f4       	brcc	.+24     	; 0x2f76 <__fp_trunc+0x2a>
    2f5e:	16 16       	cp	r1, r22
    2f60:	b1 1d       	adc	r27, r1
    2f62:	67 2f       	mov	r22, r23
    2f64:	78 2f       	mov	r23, r24
    2f66:	88 27       	eor	r24, r24
    2f68:	98 5f       	subi	r25, 0xF8	; 248
    2f6a:	f7 cf       	rjmp	.-18     	; 0x2f5a <__fp_trunc+0xe>
    2f6c:	86 95       	lsr	r24
    2f6e:	77 95       	ror	r23
    2f70:	67 95       	ror	r22
    2f72:	b1 1d       	adc	r27, r1
    2f74:	93 95       	inc	r25
    2f76:	96 39       	cpi	r25, 0x96	; 150
    2f78:	c8 f3       	brcs	.-14     	; 0x2f6c <__fp_trunc+0x20>
    2f7a:	08 95       	ret

00002f7c <__fp_zero>:
    2f7c:	e8 94       	clt

00002f7e <__fp_szero>:
    2f7e:	bb 27       	eor	r27, r27
    2f80:	66 27       	eor	r22, r22
    2f82:	77 27       	eor	r23, r23
    2f84:	cb 01       	movw	r24, r22
    2f86:	97 f9       	bld	r25, 7
    2f88:	08 95       	ret

00002f8a <__gesf2>:
    2f8a:	0e 94 0f 17 	call	0x2e1e	; 0x2e1e <__fp_cmp>
    2f8e:	08 f4       	brcc	.+2      	; 0x2f92 <__gesf2+0x8>
    2f90:	8f ef       	ldi	r24, 0xFF	; 255
    2f92:	08 95       	ret
    2f94:	16 f0       	brts	.+4      	; 0x2f9a <__gesf2+0x10>
    2f96:	0c 94 54 17 	jmp	0x2ea8	; 0x2ea8 <__fp_mpack>
    2f9a:	0c 94 62 17 	jmp	0x2ec4	; 0x2ec4 <__fp_nan>
    2f9e:	68 94       	set
    2fa0:	0c 94 33 17 	jmp	0x2e66	; 0x2e66 <__fp_inf>

00002fa4 <log>:
    2fa4:	0e 94 8c 17 	call	0x2f18	; 0x2f18 <__fp_splitA>
    2fa8:	a8 f3       	brcs	.-22     	; 0x2f94 <__gesf2+0xa>
    2faa:	99 23       	and	r25, r25
    2fac:	c1 f3       	breq	.-16     	; 0x2f9e <__gesf2+0x14>
    2fae:	ae f3       	brts	.-22     	; 0x2f9a <__gesf2+0x10>
    2fb0:	df 93       	push	r29
    2fb2:	cf 93       	push	r28
    2fb4:	1f 93       	push	r17
    2fb6:	0f 93       	push	r16
    2fb8:	ff 92       	push	r15
    2fba:	c9 2f       	mov	r28, r25
    2fbc:	dd 27       	eor	r29, r29
    2fbe:	88 23       	and	r24, r24
    2fc0:	2a f0       	brmi	.+10     	; 0x2fcc <log+0x28>
    2fc2:	21 97       	sbiw	r28, 0x01	; 1
    2fc4:	66 0f       	add	r22, r22
    2fc6:	77 1f       	adc	r23, r23
    2fc8:	88 1f       	adc	r24, r24
    2fca:	da f7       	brpl	.-10     	; 0x2fc2 <log+0x1e>
    2fcc:	20 e0       	ldi	r18, 0x00	; 0
    2fce:	30 e0       	ldi	r19, 0x00	; 0
    2fd0:	40 e8       	ldi	r20, 0x80	; 128
    2fd2:	5f eb       	ldi	r21, 0xBF	; 191
    2fd4:	9f e3       	ldi	r25, 0x3F	; 63
    2fd6:	88 39       	cpi	r24, 0x98	; 152
    2fd8:	20 f0       	brcs	.+8      	; 0x2fe2 <log+0x3e>
    2fda:	80 3e       	cpi	r24, 0xE0	; 224
    2fdc:	38 f0       	brcs	.+14     	; 0x2fec <log+0x48>
    2fde:	21 96       	adiw	r28, 0x01	; 1
    2fe0:	8f 77       	andi	r24, 0x7F	; 127
    2fe2:	0e 94 a2 15 	call	0x2b44	; 0x2b44 <__addsf3>
    2fe6:	ea e4       	ldi	r30, 0x4A	; 74
    2fe8:	f1 e0       	ldi	r31, 0x01	; 1
    2fea:	04 c0       	rjmp	.+8      	; 0x2ff4 <log+0x50>
    2fec:	0e 94 a2 15 	call	0x2b44	; 0x2b44 <__addsf3>
    2ff0:	e7 e7       	ldi	r30, 0x77	; 119
    2ff2:	f1 e0       	ldi	r31, 0x01	; 1
    2ff4:	0e 94 35 19 	call	0x326a	; 0x326a <__fp_powser>
    2ff8:	8b 01       	movw	r16, r22
    2ffa:	be 01       	movw	r22, r28
    2ffc:	ec 01       	movw	r28, r24
    2ffe:	fb 2e       	mov	r15, r27
    3000:	6f 57       	subi	r22, 0x7F	; 127
    3002:	71 09       	sbc	r23, r1
    3004:	75 95       	asr	r23
    3006:	77 1f       	adc	r23, r23
    3008:	88 0b       	sbc	r24, r24
    300a:	99 0b       	sbc	r25, r25
    300c:	0e 94 bd 16 	call	0x2d7a	; 0x2d7a <__floatsisf>
    3010:	28 e1       	ldi	r18, 0x18	; 24
    3012:	32 e7       	ldi	r19, 0x72	; 114
    3014:	41 e3       	ldi	r20, 0x31	; 49
    3016:	5f e3       	ldi	r21, 0x3F	; 63
    3018:	0e 94 2d 18 	call	0x305a	; 0x305a <__mulsf3x>
    301c:	af 2d       	mov	r26, r15
    301e:	98 01       	movw	r18, r16
    3020:	ae 01       	movw	r20, r28
    3022:	ff 90       	pop	r15
    3024:	0f 91       	pop	r16
    3026:	1f 91       	pop	r17
    3028:	cf 91       	pop	r28
    302a:	df 91       	pop	r29
    302c:	0e 94 b9 15 	call	0x2b72	; 0x2b72 <__addsf3x>
    3030:	0c 94 73 17 	jmp	0x2ee6	; 0x2ee6 <__fp_round>

00003034 <__mulsf3>:
    3034:	0e 94 2d 18 	call	0x305a	; 0x305a <__mulsf3x>
    3038:	0c 94 73 17 	jmp	0x2ee6	; 0x2ee6 <__fp_round>
    303c:	0e 94 65 17 	call	0x2eca	; 0x2eca <__fp_pscA>
    3040:	38 f0       	brcs	.+14     	; 0x3050 <__mulsf3+0x1c>
    3042:	0e 94 6c 17 	call	0x2ed8	; 0x2ed8 <__fp_pscB>
    3046:	20 f0       	brcs	.+8      	; 0x3050 <__mulsf3+0x1c>
    3048:	95 23       	and	r25, r21
    304a:	11 f0       	breq	.+4      	; 0x3050 <__mulsf3+0x1c>
    304c:	0c 94 33 17 	jmp	0x2e66	; 0x2e66 <__fp_inf>
    3050:	0c 94 62 17 	jmp	0x2ec4	; 0x2ec4 <__fp_nan>
    3054:	11 24       	eor	r1, r1
    3056:	0c 94 bf 17 	jmp	0x2f7e	; 0x2f7e <__fp_szero>

0000305a <__mulsf3x>:
    305a:	0e 94 84 17 	call	0x2f08	; 0x2f08 <__fp_split3>
    305e:	70 f3       	brcs	.-36     	; 0x303c <__mulsf3+0x8>

00003060 <__mulsf3_pse>:
    3060:	95 9f       	mul	r25, r21
    3062:	c1 f3       	breq	.-16     	; 0x3054 <__mulsf3+0x20>
    3064:	95 0f       	add	r25, r21
    3066:	50 e0       	ldi	r21, 0x00	; 0
    3068:	55 1f       	adc	r21, r21
    306a:	62 9f       	mul	r22, r18
    306c:	f0 01       	movw	r30, r0
    306e:	72 9f       	mul	r23, r18
    3070:	bb 27       	eor	r27, r27
    3072:	f0 0d       	add	r31, r0
    3074:	b1 1d       	adc	r27, r1
    3076:	63 9f       	mul	r22, r19
    3078:	aa 27       	eor	r26, r26
    307a:	f0 0d       	add	r31, r0
    307c:	b1 1d       	adc	r27, r1
    307e:	aa 1f       	adc	r26, r26
    3080:	64 9f       	mul	r22, r20
    3082:	66 27       	eor	r22, r22
    3084:	b0 0d       	add	r27, r0
    3086:	a1 1d       	adc	r26, r1
    3088:	66 1f       	adc	r22, r22
    308a:	82 9f       	mul	r24, r18
    308c:	22 27       	eor	r18, r18
    308e:	b0 0d       	add	r27, r0
    3090:	a1 1d       	adc	r26, r1
    3092:	62 1f       	adc	r22, r18
    3094:	73 9f       	mul	r23, r19
    3096:	b0 0d       	add	r27, r0
    3098:	a1 1d       	adc	r26, r1
    309a:	62 1f       	adc	r22, r18
    309c:	83 9f       	mul	r24, r19
    309e:	a0 0d       	add	r26, r0
    30a0:	61 1d       	adc	r22, r1
    30a2:	22 1f       	adc	r18, r18
    30a4:	74 9f       	mul	r23, r20
    30a6:	33 27       	eor	r19, r19
    30a8:	a0 0d       	add	r26, r0
    30aa:	61 1d       	adc	r22, r1
    30ac:	23 1f       	adc	r18, r19
    30ae:	84 9f       	mul	r24, r20
    30b0:	60 0d       	add	r22, r0
    30b2:	21 1d       	adc	r18, r1
    30b4:	82 2f       	mov	r24, r18
    30b6:	76 2f       	mov	r23, r22
    30b8:	6a 2f       	mov	r22, r26
    30ba:	11 24       	eor	r1, r1
    30bc:	9f 57       	subi	r25, 0x7F	; 127
    30be:	50 40       	sbci	r21, 0x00	; 0
    30c0:	9a f0       	brmi	.+38     	; 0x30e8 <__mulsf3_pse+0x88>
    30c2:	f1 f0       	breq	.+60     	; 0x3100 <__mulsf3_pse+0xa0>
    30c4:	88 23       	and	r24, r24
    30c6:	4a f0       	brmi	.+18     	; 0x30da <__mulsf3_pse+0x7a>
    30c8:	ee 0f       	add	r30, r30
    30ca:	ff 1f       	adc	r31, r31
    30cc:	bb 1f       	adc	r27, r27
    30ce:	66 1f       	adc	r22, r22
    30d0:	77 1f       	adc	r23, r23
    30d2:	88 1f       	adc	r24, r24
    30d4:	91 50       	subi	r25, 0x01	; 1
    30d6:	50 40       	sbci	r21, 0x00	; 0
    30d8:	a9 f7       	brne	.-22     	; 0x30c4 <__mulsf3_pse+0x64>
    30da:	9e 3f       	cpi	r25, 0xFE	; 254
    30dc:	51 05       	cpc	r21, r1
    30de:	80 f0       	brcs	.+32     	; 0x3100 <__mulsf3_pse+0xa0>
    30e0:	0c 94 33 17 	jmp	0x2e66	; 0x2e66 <__fp_inf>
    30e4:	0c 94 bf 17 	jmp	0x2f7e	; 0x2f7e <__fp_szero>
    30e8:	5f 3f       	cpi	r21, 0xFF	; 255
    30ea:	e4 f3       	brlt	.-8      	; 0x30e4 <__mulsf3_pse+0x84>
    30ec:	98 3e       	cpi	r25, 0xE8	; 232
    30ee:	d4 f3       	brlt	.-12     	; 0x30e4 <__mulsf3_pse+0x84>
    30f0:	86 95       	lsr	r24
    30f2:	77 95       	ror	r23
    30f4:	67 95       	ror	r22
    30f6:	b7 95       	ror	r27
    30f8:	f7 95       	ror	r31
    30fa:	e7 95       	ror	r30
    30fc:	9f 5f       	subi	r25, 0xFF	; 255
    30fe:	c1 f7       	brne	.-16     	; 0x30f0 <__mulsf3_pse+0x90>
    3100:	fe 2b       	or	r31, r30
    3102:	88 0f       	add	r24, r24
    3104:	91 1d       	adc	r25, r1
    3106:	96 95       	lsr	r25
    3108:	87 95       	ror	r24
    310a:	97 f9       	bld	r25, 7
    310c:	08 95       	ret

0000310e <pow>:
    310e:	fa 01       	movw	r30, r20
    3110:	ee 0f       	add	r30, r30
    3112:	ff 1f       	adc	r31, r31
    3114:	30 96       	adiw	r30, 0x00	; 0
    3116:	21 05       	cpc	r18, r1
    3118:	31 05       	cpc	r19, r1
    311a:	a1 f1       	breq	.+104    	; 0x3184 <pow+0x76>
    311c:	61 15       	cp	r22, r1
    311e:	71 05       	cpc	r23, r1
    3120:	61 f4       	brne	.+24     	; 0x313a <pow+0x2c>
    3122:	80 38       	cpi	r24, 0x80	; 128
    3124:	bf e3       	ldi	r27, 0x3F	; 63
    3126:	9b 07       	cpc	r25, r27
    3128:	49 f1       	breq	.+82     	; 0x317c <pow+0x6e>
    312a:	68 94       	set
    312c:	90 38       	cpi	r25, 0x80	; 128
    312e:	81 05       	cpc	r24, r1
    3130:	61 f0       	breq	.+24     	; 0x314a <pow+0x3c>
    3132:	80 38       	cpi	r24, 0x80	; 128
    3134:	bf ef       	ldi	r27, 0xFF	; 255
    3136:	9b 07       	cpc	r25, r27
    3138:	41 f0       	breq	.+16     	; 0x314a <pow+0x3c>
    313a:	99 23       	and	r25, r25
    313c:	4a f5       	brpl	.+82     	; 0x3190 <pow+0x82>
    313e:	ff 3f       	cpi	r31, 0xFF	; 255
    3140:	e1 05       	cpc	r30, r1
    3142:	31 05       	cpc	r19, r1
    3144:	21 05       	cpc	r18, r1
    3146:	19 f1       	breq	.+70     	; 0x318e <pow+0x80>
    3148:	e8 94       	clt
    314a:	08 94       	sec
    314c:	e7 95       	ror	r30
    314e:	d9 01       	movw	r26, r18
    3150:	aa 23       	and	r26, r26
    3152:	29 f4       	brne	.+10     	; 0x315e <pow+0x50>
    3154:	ab 2f       	mov	r26, r27
    3156:	be 2f       	mov	r27, r30
    3158:	f8 5f       	subi	r31, 0xF8	; 248
    315a:	d0 f3       	brcs	.-12     	; 0x3150 <pow+0x42>
    315c:	10 c0       	rjmp	.+32     	; 0x317e <pow+0x70>
    315e:	ff 5f       	subi	r31, 0xFF	; 255
    3160:	70 f4       	brcc	.+28     	; 0x317e <pow+0x70>
    3162:	a6 95       	lsr	r26
    3164:	e0 f7       	brcc	.-8      	; 0x315e <pow+0x50>
    3166:	f7 39       	cpi	r31, 0x97	; 151
    3168:	50 f0       	brcs	.+20     	; 0x317e <pow+0x70>
    316a:	19 f0       	breq	.+6      	; 0x3172 <pow+0x64>
    316c:	ff 3a       	cpi	r31, 0xAF	; 175
    316e:	38 f4       	brcc	.+14     	; 0x317e <pow+0x70>
    3170:	9f 77       	andi	r25, 0x7F	; 127
    3172:	9f 93       	push	r25
    3174:	0d d0       	rcall	.+26     	; 0x3190 <pow+0x82>
    3176:	0f 90       	pop	r0
    3178:	07 fc       	sbrc	r0, 7
    317a:	90 58       	subi	r25, 0x80	; 128
    317c:	08 95       	ret
    317e:	46 f0       	brts	.+16     	; 0x3190 <pow+0x82>
    3180:	0c 94 62 17 	jmp	0x2ec4	; 0x2ec4 <__fp_nan>
    3184:	60 e0       	ldi	r22, 0x00	; 0
    3186:	70 e0       	ldi	r23, 0x00	; 0
    3188:	80 e8       	ldi	r24, 0x80	; 128
    318a:	9f e3       	ldi	r25, 0x3F	; 63
    318c:	08 95       	ret
    318e:	4f e7       	ldi	r20, 0x7F	; 127
    3190:	9f 77       	andi	r25, 0x7F	; 127
    3192:	5f 93       	push	r21
    3194:	4f 93       	push	r20
    3196:	3f 93       	push	r19
    3198:	2f 93       	push	r18
    319a:	0e 94 d2 17 	call	0x2fa4	; 0x2fa4 <log>
    319e:	2f 91       	pop	r18
    31a0:	3f 91       	pop	r19
    31a2:	4f 91       	pop	r20
    31a4:	5f 91       	pop	r21
    31a6:	0e 94 1a 18 	call	0x3034	; 0x3034 <__mulsf3>
    31aa:	0c 94 03 19 	jmp	0x3206	; 0x3206 <exp>

000031ae <round>:
    31ae:	0e 94 8c 17 	call	0x2f18	; 0x2f18 <__fp_splitA>
    31b2:	e8 f0       	brcs	.+58     	; 0x31ee <round+0x40>
    31b4:	9e 37       	cpi	r25, 0x7E	; 126
    31b6:	e8 f0       	brcs	.+58     	; 0x31f2 <round+0x44>
    31b8:	96 39       	cpi	r25, 0x96	; 150
    31ba:	b8 f4       	brcc	.+46     	; 0x31ea <round+0x3c>
    31bc:	9e 38       	cpi	r25, 0x8E	; 142
    31be:	48 f4       	brcc	.+18     	; 0x31d2 <round+0x24>
    31c0:	67 2f       	mov	r22, r23
    31c2:	78 2f       	mov	r23, r24
    31c4:	88 27       	eor	r24, r24
    31c6:	98 5f       	subi	r25, 0xF8	; 248
    31c8:	f9 cf       	rjmp	.-14     	; 0x31bc <round+0xe>
    31ca:	86 95       	lsr	r24
    31cc:	77 95       	ror	r23
    31ce:	67 95       	ror	r22
    31d0:	93 95       	inc	r25
    31d2:	95 39       	cpi	r25, 0x95	; 149
    31d4:	d0 f3       	brcs	.-12     	; 0x31ca <round+0x1c>
    31d6:	b6 2f       	mov	r27, r22
    31d8:	b1 70       	andi	r27, 0x01	; 1
    31da:	6b 0f       	add	r22, r27
    31dc:	71 1d       	adc	r23, r1
    31de:	81 1d       	adc	r24, r1
    31e0:	20 f4       	brcc	.+8      	; 0x31ea <round+0x3c>
    31e2:	87 95       	ror	r24
    31e4:	77 95       	ror	r23
    31e6:	67 95       	ror	r22
    31e8:	93 95       	inc	r25
    31ea:	0c 94 39 17 	jmp	0x2e72	; 0x2e72 <__fp_mintl>
    31ee:	0c 94 54 17 	jmp	0x2ea8	; 0x2ea8 <__fp_mpack>
    31f2:	0c 94 bf 17 	jmp	0x2f7e	; 0x2f7e <__fp_szero>
    31f6:	29 f4       	brne	.+10     	; 0x3202 <round+0x54>
    31f8:	16 f0       	brts	.+4      	; 0x31fe <round+0x50>
    31fa:	0c 94 33 17 	jmp	0x2e66	; 0x2e66 <__fp_inf>
    31fe:	0c 94 be 17 	jmp	0x2f7c	; 0x2f7c <__fp_zero>
    3202:	0c 94 62 17 	jmp	0x2ec4	; 0x2ec4 <__fp_nan>

00003206 <exp>:
    3206:	0e 94 8c 17 	call	0x2f18	; 0x2f18 <__fp_splitA>
    320a:	a8 f3       	brcs	.-22     	; 0x31f6 <round+0x48>
    320c:	96 38       	cpi	r25, 0x86	; 134
    320e:	a0 f7       	brcc	.-24     	; 0x31f8 <round+0x4a>
    3210:	07 f8       	bld	r0, 7
    3212:	0f 92       	push	r0
    3214:	e8 94       	clt
    3216:	2b e3       	ldi	r18, 0x3B	; 59
    3218:	3a ea       	ldi	r19, 0xAA	; 170
    321a:	48 eb       	ldi	r20, 0xB8	; 184
    321c:	5f e7       	ldi	r21, 0x7F	; 127
    321e:	0e 94 30 18 	call	0x3060	; 0x3060 <__mulsf3_pse>
    3222:	0f 92       	push	r0
    3224:	0f 92       	push	r0
    3226:	0f 92       	push	r0
    3228:	4d b7       	in	r20, 0x3d	; 61
    322a:	5e b7       	in	r21, 0x3e	; 62
    322c:	0f 92       	push	r0
    322e:	0e 94 9e 19 	call	0x333c	; 0x333c <modf>
    3232:	e4 ea       	ldi	r30, 0xA4	; 164
    3234:	f1 e0       	ldi	r31, 0x01	; 1
    3236:	0e 94 35 19 	call	0x326a	; 0x326a <__fp_powser>
    323a:	4f 91       	pop	r20
    323c:	5f 91       	pop	r21
    323e:	ef 91       	pop	r30
    3240:	ff 91       	pop	r31
    3242:	e5 95       	asr	r30
    3244:	ee 1f       	adc	r30, r30
    3246:	ff 1f       	adc	r31, r31
    3248:	49 f0       	breq	.+18     	; 0x325c <exp+0x56>
    324a:	fe 57       	subi	r31, 0x7E	; 126
    324c:	e0 68       	ori	r30, 0x80	; 128
    324e:	44 27       	eor	r20, r20
    3250:	ee 0f       	add	r30, r30
    3252:	44 1f       	adc	r20, r20
    3254:	fa 95       	dec	r31
    3256:	e1 f7       	brne	.-8      	; 0x3250 <exp+0x4a>
    3258:	41 95       	neg	r20
    325a:	55 0b       	sbc	r21, r21
    325c:	0e 94 68 19 	call	0x32d0	; 0x32d0 <ldexp>
    3260:	0f 90       	pop	r0
    3262:	07 fe       	sbrs	r0, 7
    3264:	0c 94 5c 19 	jmp	0x32b8	; 0x32b8 <inverse>
    3268:	08 95       	ret

0000326a <__fp_powser>:
    326a:	df 93       	push	r29
    326c:	cf 93       	push	r28
    326e:	1f 93       	push	r17
    3270:	0f 93       	push	r16
    3272:	ff 92       	push	r15
    3274:	ef 92       	push	r14
    3276:	df 92       	push	r13
    3278:	7b 01       	movw	r14, r22
    327a:	8c 01       	movw	r16, r24
    327c:	68 94       	set
    327e:	06 c0       	rjmp	.+12     	; 0x328c <__fp_powser+0x22>
    3280:	da 2e       	mov	r13, r26
    3282:	ef 01       	movw	r28, r30
    3284:	0e 94 2d 18 	call	0x305a	; 0x305a <__mulsf3x>
    3288:	fe 01       	movw	r30, r28
    328a:	e8 94       	clt
    328c:	a5 91       	lpm	r26, Z+
    328e:	25 91       	lpm	r18, Z+
    3290:	35 91       	lpm	r19, Z+
    3292:	45 91       	lpm	r20, Z+
    3294:	55 91       	lpm	r21, Z+
    3296:	a6 f3       	brts	.-24     	; 0x3280 <__fp_powser+0x16>
    3298:	ef 01       	movw	r28, r30
    329a:	0e 94 b9 15 	call	0x2b72	; 0x2b72 <__addsf3x>
    329e:	fe 01       	movw	r30, r28
    32a0:	97 01       	movw	r18, r14
    32a2:	a8 01       	movw	r20, r16
    32a4:	da 94       	dec	r13
    32a6:	69 f7       	brne	.-38     	; 0x3282 <__fp_powser+0x18>
    32a8:	df 90       	pop	r13
    32aa:	ef 90       	pop	r14
    32ac:	ff 90       	pop	r15
    32ae:	0f 91       	pop	r16
    32b0:	1f 91       	pop	r17
    32b2:	cf 91       	pop	r28
    32b4:	df 91       	pop	r29
    32b6:	08 95       	ret

000032b8 <inverse>:
    32b8:	9b 01       	movw	r18, r22
    32ba:	ac 01       	movw	r20, r24
    32bc:	60 e0       	ldi	r22, 0x00	; 0
    32be:	70 e0       	ldi	r23, 0x00	; 0
    32c0:	80 e8       	ldi	r24, 0x80	; 128
    32c2:	9f e3       	ldi	r25, 0x3F	; 63
    32c4:	0c 94 13 16 	jmp	0x2c26	; 0x2c26 <__divsf3>
    32c8:	0c 94 33 17 	jmp	0x2e66	; 0x2e66 <__fp_inf>
    32cc:	0c 94 54 17 	jmp	0x2ea8	; 0x2ea8 <__fp_mpack>

000032d0 <ldexp>:
    32d0:	0e 94 8c 17 	call	0x2f18	; 0x2f18 <__fp_splitA>
    32d4:	d8 f3       	brcs	.-10     	; 0x32cc <inverse+0x14>
    32d6:	99 23       	and	r25, r25
    32d8:	c9 f3       	breq	.-14     	; 0x32cc <inverse+0x14>
    32da:	94 0f       	add	r25, r20
    32dc:	51 1d       	adc	r21, r1
    32de:	a3 f3       	brvs	.-24     	; 0x32c8 <inverse+0x10>
    32e0:	91 50       	subi	r25, 0x01	; 1
    32e2:	50 40       	sbci	r21, 0x00	; 0
    32e4:	94 f0       	brlt	.+36     	; 0x330a <ldexp+0x3a>
    32e6:	59 f0       	breq	.+22     	; 0x32fe <ldexp+0x2e>
    32e8:	88 23       	and	r24, r24
    32ea:	32 f0       	brmi	.+12     	; 0x32f8 <ldexp+0x28>
    32ec:	66 0f       	add	r22, r22
    32ee:	77 1f       	adc	r23, r23
    32f0:	88 1f       	adc	r24, r24
    32f2:	91 50       	subi	r25, 0x01	; 1
    32f4:	50 40       	sbci	r21, 0x00	; 0
    32f6:	c1 f7       	brne	.-16     	; 0x32e8 <ldexp+0x18>
    32f8:	9e 3f       	cpi	r25, 0xFE	; 254
    32fa:	51 05       	cpc	r21, r1
    32fc:	2c f7       	brge	.-54     	; 0x32c8 <inverse+0x10>
    32fe:	88 0f       	add	r24, r24
    3300:	91 1d       	adc	r25, r1
    3302:	96 95       	lsr	r25
    3304:	87 95       	ror	r24
    3306:	97 f9       	bld	r25, 7
    3308:	08 95       	ret
    330a:	5f 3f       	cpi	r21, 0xFF	; 255
    330c:	ac f0       	brlt	.+42     	; 0x3338 <ldexp+0x68>
    330e:	98 3e       	cpi	r25, 0xE8	; 232
    3310:	9c f0       	brlt	.+38     	; 0x3338 <ldexp+0x68>
    3312:	bb 27       	eor	r27, r27
    3314:	86 95       	lsr	r24
    3316:	77 95       	ror	r23
    3318:	67 95       	ror	r22
    331a:	b7 95       	ror	r27
    331c:	08 f4       	brcc	.+2      	; 0x3320 <ldexp+0x50>
    331e:	b1 60       	ori	r27, 0x01	; 1
    3320:	93 95       	inc	r25
    3322:	c1 f7       	brne	.-16     	; 0x3314 <ldexp+0x44>
    3324:	bb 0f       	add	r27, r27
    3326:	58 f7       	brcc	.-42     	; 0x32fe <ldexp+0x2e>
    3328:	11 f4       	brne	.+4      	; 0x332e <ldexp+0x5e>
    332a:	60 ff       	sbrs	r22, 0
    332c:	e8 cf       	rjmp	.-48     	; 0x32fe <ldexp+0x2e>
    332e:	6f 5f       	subi	r22, 0xFF	; 255
    3330:	7f 4f       	sbci	r23, 0xFF	; 255
    3332:	8f 4f       	sbci	r24, 0xFF	; 255
    3334:	9f 4f       	sbci	r25, 0xFF	; 255
    3336:	e3 cf       	rjmp	.-58     	; 0x32fe <ldexp+0x2e>
    3338:	0c 94 bf 17 	jmp	0x2f7e	; 0x2f7e <__fp_szero>

0000333c <modf>:
    333c:	fa 01       	movw	r30, r20
    333e:	dc 01       	movw	r26, r24
    3340:	aa 0f       	add	r26, r26
    3342:	bb 1f       	adc	r27, r27
    3344:	9b 01       	movw	r18, r22
    3346:	ac 01       	movw	r20, r24
    3348:	bf 57       	subi	r27, 0x7F	; 127
    334a:	28 f4       	brcc	.+10     	; 0x3356 <modf+0x1a>
    334c:	22 27       	eor	r18, r18
    334e:	33 27       	eor	r19, r19
    3350:	44 27       	eor	r20, r20
    3352:	50 78       	andi	r21, 0x80	; 128
    3354:	20 c0       	rjmp	.+64     	; 0x3396 <modf+0x5a>
    3356:	b7 51       	subi	r27, 0x17	; 23
    3358:	90 f4       	brcc	.+36     	; 0x337e <modf+0x42>
    335a:	ab 2f       	mov	r26, r27
    335c:	00 24       	eor	r0, r0
    335e:	46 95       	lsr	r20
    3360:	37 95       	ror	r19
    3362:	27 95       	ror	r18
    3364:	01 1c       	adc	r0, r1
    3366:	a3 95       	inc	r26
    3368:	d2 f3       	brmi	.-12     	; 0x335e <modf+0x22>
    336a:	00 20       	and	r0, r0
    336c:	71 f0       	breq	.+28     	; 0x338a <modf+0x4e>
    336e:	22 0f       	add	r18, r18
    3370:	33 1f       	adc	r19, r19
    3372:	44 1f       	adc	r20, r20
    3374:	b3 95       	inc	r27
    3376:	da f3       	brmi	.-10     	; 0x336e <modf+0x32>
    3378:	0e d0       	rcall	.+28     	; 0x3396 <modf+0x5a>
    337a:	0c 94 a1 15 	jmp	0x2b42	; 0x2b42 <__subsf3>
    337e:	61 30       	cpi	r22, 0x01	; 1
    3380:	71 05       	cpc	r23, r1
    3382:	a0 e8       	ldi	r26, 0x80	; 128
    3384:	8a 07       	cpc	r24, r26
    3386:	b9 46       	sbci	r27, 0x69	; 105
    3388:	30 f4       	brcc	.+12     	; 0x3396 <modf+0x5a>
    338a:	9b 01       	movw	r18, r22
    338c:	ac 01       	movw	r20, r24
    338e:	66 27       	eor	r22, r22
    3390:	77 27       	eor	r23, r23
    3392:	88 27       	eor	r24, r24
    3394:	90 78       	andi	r25, 0x80	; 128
    3396:	30 96       	adiw	r30, 0x00	; 0
    3398:	21 f0       	breq	.+8      	; 0x33a2 <modf+0x66>
    339a:	20 83       	st	Z, r18
    339c:	31 83       	std	Z+1, r19	; 0x01
    339e:	42 83       	std	Z+2, r20	; 0x02
    33a0:	53 83       	std	Z+3, r21	; 0x03
    33a2:	08 95       	ret

000033a4 <vfprintf>:
    33a4:	2f 92       	push	r2
    33a6:	3f 92       	push	r3
    33a8:	4f 92       	push	r4
    33aa:	5f 92       	push	r5
    33ac:	6f 92       	push	r6
    33ae:	7f 92       	push	r7
    33b0:	8f 92       	push	r8
    33b2:	9f 92       	push	r9
    33b4:	af 92       	push	r10
    33b6:	bf 92       	push	r11
    33b8:	cf 92       	push	r12
    33ba:	df 92       	push	r13
    33bc:	ef 92       	push	r14
    33be:	ff 92       	push	r15
    33c0:	0f 93       	push	r16
    33c2:	1f 93       	push	r17
    33c4:	cf 93       	push	r28
    33c6:	df 93       	push	r29
    33c8:	cd b7       	in	r28, 0x3d	; 61
    33ca:	de b7       	in	r29, 0x3e	; 62
    33cc:	60 97       	sbiw	r28, 0x10	; 16
    33ce:	cd bf       	out	0x3d, r28	; 61
    33d0:	de bf       	out	0x3e, r29	; 62
    33d2:	7c 01       	movw	r14, r24
    33d4:	1b 01       	movw	r2, r22
    33d6:	6a 01       	movw	r12, r20
    33d8:	fc 01       	movw	r30, r24
    33da:	16 82       	std	Z+6, r1	; 0x06
    33dc:	17 82       	std	Z+7, r1	; 0x07
    33de:	83 81       	ldd	r24, Z+3	; 0x03
    33e0:	81 ff       	sbrs	r24, 1
    33e2:	44 c3       	rjmp	.+1672   	; 0x3a6c <vfprintf+0x6c8>
    33e4:	9e 01       	movw	r18, r28
    33e6:	2f 5f       	subi	r18, 0xFF	; 255
    33e8:	3f 4f       	sbci	r19, 0xFF	; 255
    33ea:	39 01       	movw	r6, r18
    33ec:	f7 01       	movw	r30, r14
    33ee:	93 81       	ldd	r25, Z+3	; 0x03
    33f0:	f1 01       	movw	r30, r2
    33f2:	93 fd       	sbrc	r25, 3
    33f4:	85 91       	lpm	r24, Z+
    33f6:	93 ff       	sbrs	r25, 3
    33f8:	81 91       	ld	r24, Z+
    33fa:	1f 01       	movw	r2, r30
    33fc:	88 23       	and	r24, r24
    33fe:	09 f4       	brne	.+2      	; 0x3402 <vfprintf+0x5e>
    3400:	31 c3       	rjmp	.+1634   	; 0x3a64 <vfprintf+0x6c0>
    3402:	85 32       	cpi	r24, 0x25	; 37
    3404:	39 f4       	brne	.+14     	; 0x3414 <vfprintf+0x70>
    3406:	93 fd       	sbrc	r25, 3
    3408:	85 91       	lpm	r24, Z+
    340a:	93 ff       	sbrs	r25, 3
    340c:	81 91       	ld	r24, Z+
    340e:	1f 01       	movw	r2, r30
    3410:	85 32       	cpi	r24, 0x25	; 37
    3412:	39 f4       	brne	.+14     	; 0x3422 <vfprintf+0x7e>
    3414:	b7 01       	movw	r22, r14
    3416:	90 e0       	ldi	r25, 0x00	; 0
    3418:	0e 94 d2 1e 	call	0x3da4	; 0x3da4 <fputc>
    341c:	56 01       	movw	r10, r12
    341e:	65 01       	movw	r12, r10
    3420:	e5 cf       	rjmp	.-54     	; 0x33ec <vfprintf+0x48>
    3422:	10 e0       	ldi	r17, 0x00	; 0
    3424:	51 2c       	mov	r5, r1
    3426:	91 2c       	mov	r9, r1
    3428:	ff e1       	ldi	r31, 0x1F	; 31
    342a:	f9 15       	cp	r31, r9
    342c:	d8 f0       	brcs	.+54     	; 0x3464 <vfprintf+0xc0>
    342e:	8b 32       	cpi	r24, 0x2B	; 43
    3430:	79 f0       	breq	.+30     	; 0x3450 <vfprintf+0xac>
    3432:	38 f4       	brcc	.+14     	; 0x3442 <vfprintf+0x9e>
    3434:	80 32       	cpi	r24, 0x20	; 32
    3436:	79 f0       	breq	.+30     	; 0x3456 <vfprintf+0xb2>
    3438:	83 32       	cpi	r24, 0x23	; 35
    343a:	a1 f4       	brne	.+40     	; 0x3464 <vfprintf+0xc0>
    343c:	f9 2d       	mov	r31, r9
    343e:	f0 61       	ori	r31, 0x10	; 16
    3440:	2e c0       	rjmp	.+92     	; 0x349e <vfprintf+0xfa>
    3442:	8d 32       	cpi	r24, 0x2D	; 45
    3444:	61 f0       	breq	.+24     	; 0x345e <vfprintf+0xba>
    3446:	80 33       	cpi	r24, 0x30	; 48
    3448:	69 f4       	brne	.+26     	; 0x3464 <vfprintf+0xc0>
    344a:	29 2d       	mov	r18, r9
    344c:	21 60       	ori	r18, 0x01	; 1
    344e:	2d c0       	rjmp	.+90     	; 0x34aa <vfprintf+0x106>
    3450:	39 2d       	mov	r19, r9
    3452:	32 60       	ori	r19, 0x02	; 2
    3454:	93 2e       	mov	r9, r19
    3456:	89 2d       	mov	r24, r9
    3458:	84 60       	ori	r24, 0x04	; 4
    345a:	98 2e       	mov	r9, r24
    345c:	2a c0       	rjmp	.+84     	; 0x34b2 <vfprintf+0x10e>
    345e:	e9 2d       	mov	r30, r9
    3460:	e8 60       	ori	r30, 0x08	; 8
    3462:	15 c0       	rjmp	.+42     	; 0x348e <vfprintf+0xea>
    3464:	97 fc       	sbrc	r9, 7
    3466:	2d c0       	rjmp	.+90     	; 0x34c2 <vfprintf+0x11e>
    3468:	20 ed       	ldi	r18, 0xD0	; 208
    346a:	28 0f       	add	r18, r24
    346c:	2a 30       	cpi	r18, 0x0A	; 10
    346e:	88 f4       	brcc	.+34     	; 0x3492 <vfprintf+0xee>
    3470:	96 fe       	sbrs	r9, 6
    3472:	06 c0       	rjmp	.+12     	; 0x3480 <vfprintf+0xdc>
    3474:	3a e0       	ldi	r19, 0x0A	; 10
    3476:	13 9f       	mul	r17, r19
    3478:	20 0d       	add	r18, r0
    347a:	11 24       	eor	r1, r1
    347c:	12 2f       	mov	r17, r18
    347e:	19 c0       	rjmp	.+50     	; 0x34b2 <vfprintf+0x10e>
    3480:	8a e0       	ldi	r24, 0x0A	; 10
    3482:	58 9e       	mul	r5, r24
    3484:	20 0d       	add	r18, r0
    3486:	11 24       	eor	r1, r1
    3488:	52 2e       	mov	r5, r18
    348a:	e9 2d       	mov	r30, r9
    348c:	e0 62       	ori	r30, 0x20	; 32
    348e:	9e 2e       	mov	r9, r30
    3490:	10 c0       	rjmp	.+32     	; 0x34b2 <vfprintf+0x10e>
    3492:	8e 32       	cpi	r24, 0x2E	; 46
    3494:	31 f4       	brne	.+12     	; 0x34a2 <vfprintf+0xfe>
    3496:	96 fc       	sbrc	r9, 6
    3498:	e5 c2       	rjmp	.+1482   	; 0x3a64 <vfprintf+0x6c0>
    349a:	f9 2d       	mov	r31, r9
    349c:	f0 64       	ori	r31, 0x40	; 64
    349e:	9f 2e       	mov	r9, r31
    34a0:	08 c0       	rjmp	.+16     	; 0x34b2 <vfprintf+0x10e>
    34a2:	8c 36       	cpi	r24, 0x6C	; 108
    34a4:	21 f4       	brne	.+8      	; 0x34ae <vfprintf+0x10a>
    34a6:	29 2d       	mov	r18, r9
    34a8:	20 68       	ori	r18, 0x80	; 128
    34aa:	92 2e       	mov	r9, r18
    34ac:	02 c0       	rjmp	.+4      	; 0x34b2 <vfprintf+0x10e>
    34ae:	88 36       	cpi	r24, 0x68	; 104
    34b0:	41 f4       	brne	.+16     	; 0x34c2 <vfprintf+0x11e>
    34b2:	f1 01       	movw	r30, r2
    34b4:	93 fd       	sbrc	r25, 3
    34b6:	85 91       	lpm	r24, Z+
    34b8:	93 ff       	sbrs	r25, 3
    34ba:	81 91       	ld	r24, Z+
    34bc:	1f 01       	movw	r2, r30
    34be:	81 11       	cpse	r24, r1
    34c0:	b3 cf       	rjmp	.-154    	; 0x3428 <vfprintf+0x84>
    34c2:	9b eb       	ldi	r25, 0xBB	; 187
    34c4:	98 0f       	add	r25, r24
    34c6:	93 30       	cpi	r25, 0x03	; 3
    34c8:	20 f4       	brcc	.+8      	; 0x34d2 <vfprintf+0x12e>
    34ca:	99 2d       	mov	r25, r9
    34cc:	90 61       	ori	r25, 0x10	; 16
    34ce:	80 5e       	subi	r24, 0xE0	; 224
    34d0:	07 c0       	rjmp	.+14     	; 0x34e0 <vfprintf+0x13c>
    34d2:	9b e9       	ldi	r25, 0x9B	; 155
    34d4:	98 0f       	add	r25, r24
    34d6:	93 30       	cpi	r25, 0x03	; 3
    34d8:	08 f0       	brcs	.+2      	; 0x34dc <vfprintf+0x138>
    34da:	66 c1       	rjmp	.+716    	; 0x37a8 <vfprintf+0x404>
    34dc:	99 2d       	mov	r25, r9
    34de:	9f 7e       	andi	r25, 0xEF	; 239
    34e0:	96 ff       	sbrs	r25, 6
    34e2:	16 e0       	ldi	r17, 0x06	; 6
    34e4:	9f 73       	andi	r25, 0x3F	; 63
    34e6:	99 2e       	mov	r9, r25
    34e8:	85 36       	cpi	r24, 0x65	; 101
    34ea:	19 f4       	brne	.+6      	; 0x34f2 <vfprintf+0x14e>
    34ec:	90 64       	ori	r25, 0x40	; 64
    34ee:	99 2e       	mov	r9, r25
    34f0:	08 c0       	rjmp	.+16     	; 0x3502 <vfprintf+0x15e>
    34f2:	86 36       	cpi	r24, 0x66	; 102
    34f4:	21 f4       	brne	.+8      	; 0x34fe <vfprintf+0x15a>
    34f6:	39 2f       	mov	r19, r25
    34f8:	30 68       	ori	r19, 0x80	; 128
    34fa:	93 2e       	mov	r9, r19
    34fc:	02 c0       	rjmp	.+4      	; 0x3502 <vfprintf+0x15e>
    34fe:	11 11       	cpse	r17, r1
    3500:	11 50       	subi	r17, 0x01	; 1
    3502:	97 fe       	sbrs	r9, 7
    3504:	07 c0       	rjmp	.+14     	; 0x3514 <vfprintf+0x170>
    3506:	1c 33       	cpi	r17, 0x3C	; 60
    3508:	50 f4       	brcc	.+20     	; 0x351e <vfprintf+0x17a>
    350a:	44 24       	eor	r4, r4
    350c:	43 94       	inc	r4
    350e:	41 0e       	add	r4, r17
    3510:	27 e0       	ldi	r18, 0x07	; 7
    3512:	0b c0       	rjmp	.+22     	; 0x352a <vfprintf+0x186>
    3514:	18 30       	cpi	r17, 0x08	; 8
    3516:	38 f0       	brcs	.+14     	; 0x3526 <vfprintf+0x182>
    3518:	27 e0       	ldi	r18, 0x07	; 7
    351a:	17 e0       	ldi	r17, 0x07	; 7
    351c:	05 c0       	rjmp	.+10     	; 0x3528 <vfprintf+0x184>
    351e:	27 e0       	ldi	r18, 0x07	; 7
    3520:	9c e3       	ldi	r25, 0x3C	; 60
    3522:	49 2e       	mov	r4, r25
    3524:	02 c0       	rjmp	.+4      	; 0x352a <vfprintf+0x186>
    3526:	21 2f       	mov	r18, r17
    3528:	41 2c       	mov	r4, r1
    352a:	56 01       	movw	r10, r12
    352c:	84 e0       	ldi	r24, 0x04	; 4
    352e:	a8 0e       	add	r10, r24
    3530:	b1 1c       	adc	r11, r1
    3532:	f6 01       	movw	r30, r12
    3534:	60 81       	ld	r22, Z
    3536:	71 81       	ldd	r23, Z+1	; 0x01
    3538:	82 81       	ldd	r24, Z+2	; 0x02
    353a:	93 81       	ldd	r25, Z+3	; 0x03
    353c:	04 2d       	mov	r16, r4
    353e:	a3 01       	movw	r20, r6
    3540:	0e 94 e4 1d 	call	0x3bc8	; 0x3bc8 <__ftoa_engine>
    3544:	6c 01       	movw	r12, r24
    3546:	f9 81       	ldd	r31, Y+1	; 0x01
    3548:	fc 87       	std	Y+12, r31	; 0x0c
    354a:	f0 ff       	sbrs	r31, 0
    354c:	02 c0       	rjmp	.+4      	; 0x3552 <vfprintf+0x1ae>
    354e:	f3 ff       	sbrs	r31, 3
    3550:	06 c0       	rjmp	.+12     	; 0x355e <vfprintf+0x1ba>
    3552:	91 fc       	sbrc	r9, 1
    3554:	06 c0       	rjmp	.+12     	; 0x3562 <vfprintf+0x1be>
    3556:	92 fe       	sbrs	r9, 2
    3558:	06 c0       	rjmp	.+12     	; 0x3566 <vfprintf+0x1c2>
    355a:	00 e2       	ldi	r16, 0x20	; 32
    355c:	05 c0       	rjmp	.+10     	; 0x3568 <vfprintf+0x1c4>
    355e:	0d e2       	ldi	r16, 0x2D	; 45
    3560:	03 c0       	rjmp	.+6      	; 0x3568 <vfprintf+0x1c4>
    3562:	0b e2       	ldi	r16, 0x2B	; 43
    3564:	01 c0       	rjmp	.+2      	; 0x3568 <vfprintf+0x1c4>
    3566:	00 e0       	ldi	r16, 0x00	; 0
    3568:	8c 85       	ldd	r24, Y+12	; 0x0c
    356a:	8c 70       	andi	r24, 0x0C	; 12
    356c:	19 f0       	breq	.+6      	; 0x3574 <vfprintf+0x1d0>
    356e:	01 11       	cpse	r16, r1
    3570:	5a c2       	rjmp	.+1204   	; 0x3a26 <vfprintf+0x682>
    3572:	9b c2       	rjmp	.+1334   	; 0x3aaa <vfprintf+0x706>
    3574:	97 fe       	sbrs	r9, 7
    3576:	10 c0       	rjmp	.+32     	; 0x3598 <vfprintf+0x1f4>
    3578:	4c 0c       	add	r4, r12
    357a:	fc 85       	ldd	r31, Y+12	; 0x0c
    357c:	f4 ff       	sbrs	r31, 4
    357e:	04 c0       	rjmp	.+8      	; 0x3588 <vfprintf+0x1e4>
    3580:	8a 81       	ldd	r24, Y+2	; 0x02
    3582:	81 33       	cpi	r24, 0x31	; 49
    3584:	09 f4       	brne	.+2      	; 0x3588 <vfprintf+0x1e4>
    3586:	4a 94       	dec	r4
    3588:	14 14       	cp	r1, r4
    358a:	74 f5       	brge	.+92     	; 0x35e8 <vfprintf+0x244>
    358c:	28 e0       	ldi	r18, 0x08	; 8
    358e:	24 15       	cp	r18, r4
    3590:	78 f5       	brcc	.+94     	; 0x35f0 <vfprintf+0x24c>
    3592:	88 e0       	ldi	r24, 0x08	; 8
    3594:	48 2e       	mov	r4, r24
    3596:	2c c0       	rjmp	.+88     	; 0x35f0 <vfprintf+0x24c>
    3598:	96 fc       	sbrc	r9, 6
    359a:	2a c0       	rjmp	.+84     	; 0x35f0 <vfprintf+0x24c>
    359c:	81 2f       	mov	r24, r17
    359e:	90 e0       	ldi	r25, 0x00	; 0
    35a0:	8c 15       	cp	r24, r12
    35a2:	9d 05       	cpc	r25, r13
    35a4:	9c f0       	brlt	.+38     	; 0x35cc <vfprintf+0x228>
    35a6:	3c ef       	ldi	r19, 0xFC	; 252
    35a8:	c3 16       	cp	r12, r19
    35aa:	3f ef       	ldi	r19, 0xFF	; 255
    35ac:	d3 06       	cpc	r13, r19
    35ae:	74 f0       	brlt	.+28     	; 0x35cc <vfprintf+0x228>
    35b0:	89 2d       	mov	r24, r9
    35b2:	80 68       	ori	r24, 0x80	; 128
    35b4:	98 2e       	mov	r9, r24
    35b6:	0a c0       	rjmp	.+20     	; 0x35cc <vfprintf+0x228>
    35b8:	e2 e0       	ldi	r30, 0x02	; 2
    35ba:	f0 e0       	ldi	r31, 0x00	; 0
    35bc:	ec 0f       	add	r30, r28
    35be:	fd 1f       	adc	r31, r29
    35c0:	e1 0f       	add	r30, r17
    35c2:	f1 1d       	adc	r31, r1
    35c4:	80 81       	ld	r24, Z
    35c6:	80 33       	cpi	r24, 0x30	; 48
    35c8:	19 f4       	brne	.+6      	; 0x35d0 <vfprintf+0x22c>
    35ca:	11 50       	subi	r17, 0x01	; 1
    35cc:	11 11       	cpse	r17, r1
    35ce:	f4 cf       	rjmp	.-24     	; 0x35b8 <vfprintf+0x214>
    35d0:	97 fe       	sbrs	r9, 7
    35d2:	0e c0       	rjmp	.+28     	; 0x35f0 <vfprintf+0x24c>
    35d4:	44 24       	eor	r4, r4
    35d6:	43 94       	inc	r4
    35d8:	41 0e       	add	r4, r17
    35da:	81 2f       	mov	r24, r17
    35dc:	90 e0       	ldi	r25, 0x00	; 0
    35de:	c8 16       	cp	r12, r24
    35e0:	d9 06       	cpc	r13, r25
    35e2:	2c f4       	brge	.+10     	; 0x35ee <vfprintf+0x24a>
    35e4:	1c 19       	sub	r17, r12
    35e6:	04 c0       	rjmp	.+8      	; 0x35f0 <vfprintf+0x24c>
    35e8:	44 24       	eor	r4, r4
    35ea:	43 94       	inc	r4
    35ec:	01 c0       	rjmp	.+2      	; 0x35f0 <vfprintf+0x24c>
    35ee:	10 e0       	ldi	r17, 0x00	; 0
    35f0:	97 fe       	sbrs	r9, 7
    35f2:	06 c0       	rjmp	.+12     	; 0x3600 <vfprintf+0x25c>
    35f4:	1c 14       	cp	r1, r12
    35f6:	1d 04       	cpc	r1, r13
    35f8:	34 f4       	brge	.+12     	; 0x3606 <vfprintf+0x262>
    35fa:	c6 01       	movw	r24, r12
    35fc:	01 96       	adiw	r24, 0x01	; 1
    35fe:	05 c0       	rjmp	.+10     	; 0x360a <vfprintf+0x266>
    3600:	85 e0       	ldi	r24, 0x05	; 5
    3602:	90 e0       	ldi	r25, 0x00	; 0
    3604:	02 c0       	rjmp	.+4      	; 0x360a <vfprintf+0x266>
    3606:	81 e0       	ldi	r24, 0x01	; 1
    3608:	90 e0       	ldi	r25, 0x00	; 0
    360a:	01 11       	cpse	r16, r1
    360c:	01 96       	adiw	r24, 0x01	; 1
    360e:	11 23       	and	r17, r17
    3610:	31 f0       	breq	.+12     	; 0x361e <vfprintf+0x27a>
    3612:	21 2f       	mov	r18, r17
    3614:	30 e0       	ldi	r19, 0x00	; 0
    3616:	2f 5f       	subi	r18, 0xFF	; 255
    3618:	3f 4f       	sbci	r19, 0xFF	; 255
    361a:	82 0f       	add	r24, r18
    361c:	93 1f       	adc	r25, r19
    361e:	25 2d       	mov	r18, r5
    3620:	30 e0       	ldi	r19, 0x00	; 0
    3622:	82 17       	cp	r24, r18
    3624:	93 07       	cpc	r25, r19
    3626:	14 f4       	brge	.+4      	; 0x362c <vfprintf+0x288>
    3628:	58 1a       	sub	r5, r24
    362a:	01 c0       	rjmp	.+2      	; 0x362e <vfprintf+0x28a>
    362c:	51 2c       	mov	r5, r1
    362e:	89 2d       	mov	r24, r9
    3630:	89 70       	andi	r24, 0x09	; 9
    3632:	49 f4       	brne	.+18     	; 0x3646 <vfprintf+0x2a2>
    3634:	55 20       	and	r5, r5
    3636:	39 f0       	breq	.+14     	; 0x3646 <vfprintf+0x2a2>
    3638:	b7 01       	movw	r22, r14
    363a:	80 e2       	ldi	r24, 0x20	; 32
    363c:	90 e0       	ldi	r25, 0x00	; 0
    363e:	0e 94 d2 1e 	call	0x3da4	; 0x3da4 <fputc>
    3642:	5a 94       	dec	r5
    3644:	f7 cf       	rjmp	.-18     	; 0x3634 <vfprintf+0x290>
    3646:	00 23       	and	r16, r16
    3648:	29 f0       	breq	.+10     	; 0x3654 <vfprintf+0x2b0>
    364a:	b7 01       	movw	r22, r14
    364c:	80 2f       	mov	r24, r16
    364e:	90 e0       	ldi	r25, 0x00	; 0
    3650:	0e 94 d2 1e 	call	0x3da4	; 0x3da4 <fputc>
    3654:	93 fc       	sbrc	r9, 3
    3656:	09 c0       	rjmp	.+18     	; 0x366a <vfprintf+0x2c6>
    3658:	55 20       	and	r5, r5
    365a:	39 f0       	breq	.+14     	; 0x366a <vfprintf+0x2c6>
    365c:	b7 01       	movw	r22, r14
    365e:	80 e3       	ldi	r24, 0x30	; 48
    3660:	90 e0       	ldi	r25, 0x00	; 0
    3662:	0e 94 d2 1e 	call	0x3da4	; 0x3da4 <fputc>
    3666:	5a 94       	dec	r5
    3668:	f7 cf       	rjmp	.-18     	; 0x3658 <vfprintf+0x2b4>
    366a:	97 fe       	sbrs	r9, 7
    366c:	4c c0       	rjmp	.+152    	; 0x3706 <vfprintf+0x362>
    366e:	46 01       	movw	r8, r12
    3670:	d7 fe       	sbrs	r13, 7
    3672:	02 c0       	rjmp	.+4      	; 0x3678 <vfprintf+0x2d4>
    3674:	81 2c       	mov	r8, r1
    3676:	91 2c       	mov	r9, r1
    3678:	c6 01       	movw	r24, r12
    367a:	88 19       	sub	r24, r8
    367c:	99 09       	sbc	r25, r9
    367e:	f3 01       	movw	r30, r6
    3680:	e8 0f       	add	r30, r24
    3682:	f9 1f       	adc	r31, r25
    3684:	ed 87       	std	Y+13, r30	; 0x0d
    3686:	fe 87       	std	Y+14, r31	; 0x0e
    3688:	96 01       	movw	r18, r12
    368a:	24 19       	sub	r18, r4
    368c:	31 09       	sbc	r19, r1
    368e:	2f 87       	std	Y+15, r18	; 0x0f
    3690:	38 8b       	std	Y+16, r19	; 0x10
    3692:	01 2f       	mov	r16, r17
    3694:	10 e0       	ldi	r17, 0x00	; 0
    3696:	11 95       	neg	r17
    3698:	01 95       	neg	r16
    369a:	11 09       	sbc	r17, r1
    369c:	3f ef       	ldi	r19, 0xFF	; 255
    369e:	83 16       	cp	r8, r19
    36a0:	93 06       	cpc	r9, r19
    36a2:	29 f4       	brne	.+10     	; 0x36ae <vfprintf+0x30a>
    36a4:	b7 01       	movw	r22, r14
    36a6:	8e e2       	ldi	r24, 0x2E	; 46
    36a8:	90 e0       	ldi	r25, 0x00	; 0
    36aa:	0e 94 d2 1e 	call	0x3da4	; 0x3da4 <fputc>
    36ae:	c8 14       	cp	r12, r8
    36b0:	d9 04       	cpc	r13, r9
    36b2:	4c f0       	brlt	.+18     	; 0x36c6 <vfprintf+0x322>
    36b4:	8f 85       	ldd	r24, Y+15	; 0x0f
    36b6:	98 89       	ldd	r25, Y+16	; 0x10
    36b8:	88 15       	cp	r24, r8
    36ba:	99 05       	cpc	r25, r9
    36bc:	24 f4       	brge	.+8      	; 0x36c6 <vfprintf+0x322>
    36be:	ed 85       	ldd	r30, Y+13	; 0x0d
    36c0:	fe 85       	ldd	r31, Y+14	; 0x0e
    36c2:	81 81       	ldd	r24, Z+1	; 0x01
    36c4:	01 c0       	rjmp	.+2      	; 0x36c8 <vfprintf+0x324>
    36c6:	80 e3       	ldi	r24, 0x30	; 48
    36c8:	f1 e0       	ldi	r31, 0x01	; 1
    36ca:	8f 1a       	sub	r8, r31
    36cc:	91 08       	sbc	r9, r1
    36ce:	2d 85       	ldd	r18, Y+13	; 0x0d
    36d0:	3e 85       	ldd	r19, Y+14	; 0x0e
    36d2:	2f 5f       	subi	r18, 0xFF	; 255
    36d4:	3f 4f       	sbci	r19, 0xFF	; 255
    36d6:	2d 87       	std	Y+13, r18	; 0x0d
    36d8:	3e 87       	std	Y+14, r19	; 0x0e
    36da:	80 16       	cp	r8, r16
    36dc:	91 06       	cpc	r9, r17
    36de:	2c f0       	brlt	.+10     	; 0x36ea <vfprintf+0x346>
    36e0:	b7 01       	movw	r22, r14
    36e2:	90 e0       	ldi	r25, 0x00	; 0
    36e4:	0e 94 d2 1e 	call	0x3da4	; 0x3da4 <fputc>
    36e8:	d9 cf       	rjmp	.-78     	; 0x369c <vfprintf+0x2f8>
    36ea:	c8 14       	cp	r12, r8
    36ec:	d9 04       	cpc	r13, r9
    36ee:	41 f4       	brne	.+16     	; 0x3700 <vfprintf+0x35c>
    36f0:	9a 81       	ldd	r25, Y+2	; 0x02
    36f2:	96 33       	cpi	r25, 0x36	; 54
    36f4:	20 f4       	brcc	.+8      	; 0x36fe <vfprintf+0x35a>
    36f6:	95 33       	cpi	r25, 0x35	; 53
    36f8:	19 f4       	brne	.+6      	; 0x3700 <vfprintf+0x35c>
    36fa:	3c 85       	ldd	r19, Y+12	; 0x0c
    36fc:	34 ff       	sbrs	r19, 4
    36fe:	81 e3       	ldi	r24, 0x31	; 49
    3700:	b7 01       	movw	r22, r14
    3702:	90 e0       	ldi	r25, 0x00	; 0
    3704:	4e c0       	rjmp	.+156    	; 0x37a2 <vfprintf+0x3fe>
    3706:	8a 81       	ldd	r24, Y+2	; 0x02
    3708:	81 33       	cpi	r24, 0x31	; 49
    370a:	19 f0       	breq	.+6      	; 0x3712 <vfprintf+0x36e>
    370c:	9c 85       	ldd	r25, Y+12	; 0x0c
    370e:	9f 7e       	andi	r25, 0xEF	; 239
    3710:	9c 87       	std	Y+12, r25	; 0x0c
    3712:	b7 01       	movw	r22, r14
    3714:	90 e0       	ldi	r25, 0x00	; 0
    3716:	0e 94 d2 1e 	call	0x3da4	; 0x3da4 <fputc>
    371a:	11 11       	cpse	r17, r1
    371c:	05 c0       	rjmp	.+10     	; 0x3728 <vfprintf+0x384>
    371e:	94 fc       	sbrc	r9, 4
    3720:	18 c0       	rjmp	.+48     	; 0x3752 <vfprintf+0x3ae>
    3722:	85 e6       	ldi	r24, 0x65	; 101
    3724:	90 e0       	ldi	r25, 0x00	; 0
    3726:	17 c0       	rjmp	.+46     	; 0x3756 <vfprintf+0x3b2>
    3728:	b7 01       	movw	r22, r14
    372a:	8e e2       	ldi	r24, 0x2E	; 46
    372c:	90 e0       	ldi	r25, 0x00	; 0
    372e:	0e 94 d2 1e 	call	0x3da4	; 0x3da4 <fputc>
    3732:	1e 5f       	subi	r17, 0xFE	; 254
    3734:	82 e0       	ldi	r24, 0x02	; 2
    3736:	01 e0       	ldi	r16, 0x01	; 1
    3738:	08 0f       	add	r16, r24
    373a:	f3 01       	movw	r30, r6
    373c:	e8 0f       	add	r30, r24
    373e:	f1 1d       	adc	r31, r1
    3740:	80 81       	ld	r24, Z
    3742:	b7 01       	movw	r22, r14
    3744:	90 e0       	ldi	r25, 0x00	; 0
    3746:	0e 94 d2 1e 	call	0x3da4	; 0x3da4 <fputc>
    374a:	80 2f       	mov	r24, r16
    374c:	01 13       	cpse	r16, r17
    374e:	f3 cf       	rjmp	.-26     	; 0x3736 <vfprintf+0x392>
    3750:	e6 cf       	rjmp	.-52     	; 0x371e <vfprintf+0x37a>
    3752:	85 e4       	ldi	r24, 0x45	; 69
    3754:	90 e0       	ldi	r25, 0x00	; 0
    3756:	b7 01       	movw	r22, r14
    3758:	0e 94 d2 1e 	call	0x3da4	; 0x3da4 <fputc>
    375c:	d7 fc       	sbrc	r13, 7
    375e:	06 c0       	rjmp	.+12     	; 0x376c <vfprintf+0x3c8>
    3760:	c1 14       	cp	r12, r1
    3762:	d1 04       	cpc	r13, r1
    3764:	41 f4       	brne	.+16     	; 0x3776 <vfprintf+0x3d2>
    3766:	ec 85       	ldd	r30, Y+12	; 0x0c
    3768:	e4 ff       	sbrs	r30, 4
    376a:	05 c0       	rjmp	.+10     	; 0x3776 <vfprintf+0x3d2>
    376c:	d1 94       	neg	r13
    376e:	c1 94       	neg	r12
    3770:	d1 08       	sbc	r13, r1
    3772:	8d e2       	ldi	r24, 0x2D	; 45
    3774:	01 c0       	rjmp	.+2      	; 0x3778 <vfprintf+0x3d4>
    3776:	8b e2       	ldi	r24, 0x2B	; 43
    3778:	b7 01       	movw	r22, r14
    377a:	90 e0       	ldi	r25, 0x00	; 0
    377c:	0e 94 d2 1e 	call	0x3da4	; 0x3da4 <fputc>
    3780:	80 e3       	ldi	r24, 0x30	; 48
    3782:	2a e0       	ldi	r18, 0x0A	; 10
    3784:	c2 16       	cp	r12, r18
    3786:	d1 04       	cpc	r13, r1
    3788:	2c f0       	brlt	.+10     	; 0x3794 <vfprintf+0x3f0>
    378a:	8f 5f       	subi	r24, 0xFF	; 255
    378c:	fa e0       	ldi	r31, 0x0A	; 10
    378e:	cf 1a       	sub	r12, r31
    3790:	d1 08       	sbc	r13, r1
    3792:	f7 cf       	rjmp	.-18     	; 0x3782 <vfprintf+0x3de>
    3794:	b7 01       	movw	r22, r14
    3796:	90 e0       	ldi	r25, 0x00	; 0
    3798:	0e 94 d2 1e 	call	0x3da4	; 0x3da4 <fputc>
    379c:	b7 01       	movw	r22, r14
    379e:	c6 01       	movw	r24, r12
    37a0:	c0 96       	adiw	r24, 0x30	; 48
    37a2:	0e 94 d2 1e 	call	0x3da4	; 0x3da4 <fputc>
    37a6:	54 c1       	rjmp	.+680    	; 0x3a50 <vfprintf+0x6ac>
    37a8:	83 36       	cpi	r24, 0x63	; 99
    37aa:	31 f0       	breq	.+12     	; 0x37b8 <vfprintf+0x414>
    37ac:	83 37       	cpi	r24, 0x73	; 115
    37ae:	79 f0       	breq	.+30     	; 0x37ce <vfprintf+0x42a>
    37b0:	83 35       	cpi	r24, 0x53	; 83
    37b2:	09 f0       	breq	.+2      	; 0x37b6 <vfprintf+0x412>
    37b4:	56 c0       	rjmp	.+172    	; 0x3862 <vfprintf+0x4be>
    37b6:	20 c0       	rjmp	.+64     	; 0x37f8 <vfprintf+0x454>
    37b8:	56 01       	movw	r10, r12
    37ba:	32 e0       	ldi	r19, 0x02	; 2
    37bc:	a3 0e       	add	r10, r19
    37be:	b1 1c       	adc	r11, r1
    37c0:	f6 01       	movw	r30, r12
    37c2:	80 81       	ld	r24, Z
    37c4:	89 83       	std	Y+1, r24	; 0x01
    37c6:	01 e0       	ldi	r16, 0x01	; 1
    37c8:	10 e0       	ldi	r17, 0x00	; 0
    37ca:	63 01       	movw	r12, r6
    37cc:	12 c0       	rjmp	.+36     	; 0x37f2 <vfprintf+0x44e>
    37ce:	56 01       	movw	r10, r12
    37d0:	f2 e0       	ldi	r31, 0x02	; 2
    37d2:	af 0e       	add	r10, r31
    37d4:	b1 1c       	adc	r11, r1
    37d6:	f6 01       	movw	r30, r12
    37d8:	c0 80       	ld	r12, Z
    37da:	d1 80       	ldd	r13, Z+1	; 0x01
    37dc:	96 fe       	sbrs	r9, 6
    37de:	03 c0       	rjmp	.+6      	; 0x37e6 <vfprintf+0x442>
    37e0:	61 2f       	mov	r22, r17
    37e2:	70 e0       	ldi	r23, 0x00	; 0
    37e4:	02 c0       	rjmp	.+4      	; 0x37ea <vfprintf+0x446>
    37e6:	6f ef       	ldi	r22, 0xFF	; 255
    37e8:	7f ef       	ldi	r23, 0xFF	; 255
    37ea:	c6 01       	movw	r24, r12
    37ec:	0e 94 c7 1e 	call	0x3d8e	; 0x3d8e <strnlen>
    37f0:	8c 01       	movw	r16, r24
    37f2:	f9 2d       	mov	r31, r9
    37f4:	ff 77       	andi	r31, 0x7F	; 127
    37f6:	14 c0       	rjmp	.+40     	; 0x3820 <vfprintf+0x47c>
    37f8:	56 01       	movw	r10, r12
    37fa:	22 e0       	ldi	r18, 0x02	; 2
    37fc:	a2 0e       	add	r10, r18
    37fe:	b1 1c       	adc	r11, r1
    3800:	f6 01       	movw	r30, r12
    3802:	c0 80       	ld	r12, Z
    3804:	d1 80       	ldd	r13, Z+1	; 0x01
    3806:	96 fe       	sbrs	r9, 6
    3808:	03 c0       	rjmp	.+6      	; 0x3810 <vfprintf+0x46c>
    380a:	61 2f       	mov	r22, r17
    380c:	70 e0       	ldi	r23, 0x00	; 0
    380e:	02 c0       	rjmp	.+4      	; 0x3814 <vfprintf+0x470>
    3810:	6f ef       	ldi	r22, 0xFF	; 255
    3812:	7f ef       	ldi	r23, 0xFF	; 255
    3814:	c6 01       	movw	r24, r12
    3816:	0e 94 bc 1e 	call	0x3d78	; 0x3d78 <strnlen_P>
    381a:	8c 01       	movw	r16, r24
    381c:	f9 2d       	mov	r31, r9
    381e:	f0 68       	ori	r31, 0x80	; 128
    3820:	9f 2e       	mov	r9, r31
    3822:	f3 fd       	sbrc	r31, 3
    3824:	1a c0       	rjmp	.+52     	; 0x385a <vfprintf+0x4b6>
    3826:	85 2d       	mov	r24, r5
    3828:	90 e0       	ldi	r25, 0x00	; 0
    382a:	08 17       	cp	r16, r24
    382c:	19 07       	cpc	r17, r25
    382e:	a8 f4       	brcc	.+42     	; 0x385a <vfprintf+0x4b6>
    3830:	b7 01       	movw	r22, r14
    3832:	80 e2       	ldi	r24, 0x20	; 32
    3834:	90 e0       	ldi	r25, 0x00	; 0
    3836:	0e 94 d2 1e 	call	0x3da4	; 0x3da4 <fputc>
    383a:	5a 94       	dec	r5
    383c:	f4 cf       	rjmp	.-24     	; 0x3826 <vfprintf+0x482>
    383e:	f6 01       	movw	r30, r12
    3840:	97 fc       	sbrc	r9, 7
    3842:	85 91       	lpm	r24, Z+
    3844:	97 fe       	sbrs	r9, 7
    3846:	81 91       	ld	r24, Z+
    3848:	6f 01       	movw	r12, r30
    384a:	b7 01       	movw	r22, r14
    384c:	90 e0       	ldi	r25, 0x00	; 0
    384e:	0e 94 d2 1e 	call	0x3da4	; 0x3da4 <fputc>
    3852:	51 10       	cpse	r5, r1
    3854:	5a 94       	dec	r5
    3856:	01 50       	subi	r16, 0x01	; 1
    3858:	11 09       	sbc	r17, r1
    385a:	01 15       	cp	r16, r1
    385c:	11 05       	cpc	r17, r1
    385e:	79 f7       	brne	.-34     	; 0x383e <vfprintf+0x49a>
    3860:	f7 c0       	rjmp	.+494    	; 0x3a50 <vfprintf+0x6ac>
    3862:	84 36       	cpi	r24, 0x64	; 100
    3864:	11 f0       	breq	.+4      	; 0x386a <vfprintf+0x4c6>
    3866:	89 36       	cpi	r24, 0x69	; 105
    3868:	61 f5       	brne	.+88     	; 0x38c2 <vfprintf+0x51e>
    386a:	56 01       	movw	r10, r12
    386c:	97 fe       	sbrs	r9, 7
    386e:	09 c0       	rjmp	.+18     	; 0x3882 <vfprintf+0x4de>
    3870:	24 e0       	ldi	r18, 0x04	; 4
    3872:	a2 0e       	add	r10, r18
    3874:	b1 1c       	adc	r11, r1
    3876:	f6 01       	movw	r30, r12
    3878:	60 81       	ld	r22, Z
    387a:	71 81       	ldd	r23, Z+1	; 0x01
    387c:	82 81       	ldd	r24, Z+2	; 0x02
    387e:	93 81       	ldd	r25, Z+3	; 0x03
    3880:	0a c0       	rjmp	.+20     	; 0x3896 <vfprintf+0x4f2>
    3882:	f2 e0       	ldi	r31, 0x02	; 2
    3884:	af 0e       	add	r10, r31
    3886:	b1 1c       	adc	r11, r1
    3888:	f6 01       	movw	r30, r12
    388a:	60 81       	ld	r22, Z
    388c:	71 81       	ldd	r23, Z+1	; 0x01
    388e:	07 2e       	mov	r0, r23
    3890:	00 0c       	add	r0, r0
    3892:	88 0b       	sbc	r24, r24
    3894:	99 0b       	sbc	r25, r25
    3896:	f9 2d       	mov	r31, r9
    3898:	ff 76       	andi	r31, 0x6F	; 111
    389a:	9f 2e       	mov	r9, r31
    389c:	97 ff       	sbrs	r25, 7
    389e:	09 c0       	rjmp	.+18     	; 0x38b2 <vfprintf+0x50e>
    38a0:	90 95       	com	r25
    38a2:	80 95       	com	r24
    38a4:	70 95       	com	r23
    38a6:	61 95       	neg	r22
    38a8:	7f 4f       	sbci	r23, 0xFF	; 255
    38aa:	8f 4f       	sbci	r24, 0xFF	; 255
    38ac:	9f 4f       	sbci	r25, 0xFF	; 255
    38ae:	f0 68       	ori	r31, 0x80	; 128
    38b0:	9f 2e       	mov	r9, r31
    38b2:	2a e0       	ldi	r18, 0x0A	; 10
    38b4:	30 e0       	ldi	r19, 0x00	; 0
    38b6:	a3 01       	movw	r20, r6
    38b8:	0e 94 52 1f 	call	0x3ea4	; 0x3ea4 <__ultoa_invert>
    38bc:	c8 2e       	mov	r12, r24
    38be:	c6 18       	sub	r12, r6
    38c0:	3f c0       	rjmp	.+126    	; 0x3940 <vfprintf+0x59c>
    38c2:	09 2d       	mov	r16, r9
    38c4:	85 37       	cpi	r24, 0x75	; 117
    38c6:	21 f4       	brne	.+8      	; 0x38d0 <vfprintf+0x52c>
    38c8:	0f 7e       	andi	r16, 0xEF	; 239
    38ca:	2a e0       	ldi	r18, 0x0A	; 10
    38cc:	30 e0       	ldi	r19, 0x00	; 0
    38ce:	1d c0       	rjmp	.+58     	; 0x390a <vfprintf+0x566>
    38d0:	09 7f       	andi	r16, 0xF9	; 249
    38d2:	8f 36       	cpi	r24, 0x6F	; 111
    38d4:	91 f0       	breq	.+36     	; 0x38fa <vfprintf+0x556>
    38d6:	18 f4       	brcc	.+6      	; 0x38de <vfprintf+0x53a>
    38d8:	88 35       	cpi	r24, 0x58	; 88
    38da:	59 f0       	breq	.+22     	; 0x38f2 <vfprintf+0x54e>
    38dc:	c3 c0       	rjmp	.+390    	; 0x3a64 <vfprintf+0x6c0>
    38de:	80 37       	cpi	r24, 0x70	; 112
    38e0:	19 f0       	breq	.+6      	; 0x38e8 <vfprintf+0x544>
    38e2:	88 37       	cpi	r24, 0x78	; 120
    38e4:	11 f0       	breq	.+4      	; 0x38ea <vfprintf+0x546>
    38e6:	be c0       	rjmp	.+380    	; 0x3a64 <vfprintf+0x6c0>
    38e8:	00 61       	ori	r16, 0x10	; 16
    38ea:	04 ff       	sbrs	r16, 4
    38ec:	09 c0       	rjmp	.+18     	; 0x3900 <vfprintf+0x55c>
    38ee:	04 60       	ori	r16, 0x04	; 4
    38f0:	07 c0       	rjmp	.+14     	; 0x3900 <vfprintf+0x55c>
    38f2:	94 fe       	sbrs	r9, 4
    38f4:	08 c0       	rjmp	.+16     	; 0x3906 <vfprintf+0x562>
    38f6:	06 60       	ori	r16, 0x06	; 6
    38f8:	06 c0       	rjmp	.+12     	; 0x3906 <vfprintf+0x562>
    38fa:	28 e0       	ldi	r18, 0x08	; 8
    38fc:	30 e0       	ldi	r19, 0x00	; 0
    38fe:	05 c0       	rjmp	.+10     	; 0x390a <vfprintf+0x566>
    3900:	20 e1       	ldi	r18, 0x10	; 16
    3902:	30 e0       	ldi	r19, 0x00	; 0
    3904:	02 c0       	rjmp	.+4      	; 0x390a <vfprintf+0x566>
    3906:	20 e1       	ldi	r18, 0x10	; 16
    3908:	32 e0       	ldi	r19, 0x02	; 2
    390a:	56 01       	movw	r10, r12
    390c:	07 ff       	sbrs	r16, 7
    390e:	09 c0       	rjmp	.+18     	; 0x3922 <vfprintf+0x57e>
    3910:	84 e0       	ldi	r24, 0x04	; 4
    3912:	a8 0e       	add	r10, r24
    3914:	b1 1c       	adc	r11, r1
    3916:	f6 01       	movw	r30, r12
    3918:	60 81       	ld	r22, Z
    391a:	71 81       	ldd	r23, Z+1	; 0x01
    391c:	82 81       	ldd	r24, Z+2	; 0x02
    391e:	93 81       	ldd	r25, Z+3	; 0x03
    3920:	08 c0       	rjmp	.+16     	; 0x3932 <vfprintf+0x58e>
    3922:	f2 e0       	ldi	r31, 0x02	; 2
    3924:	af 0e       	add	r10, r31
    3926:	b1 1c       	adc	r11, r1
    3928:	f6 01       	movw	r30, r12
    392a:	60 81       	ld	r22, Z
    392c:	71 81       	ldd	r23, Z+1	; 0x01
    392e:	80 e0       	ldi	r24, 0x00	; 0
    3930:	90 e0       	ldi	r25, 0x00	; 0
    3932:	a3 01       	movw	r20, r6
    3934:	0e 94 52 1f 	call	0x3ea4	; 0x3ea4 <__ultoa_invert>
    3938:	c8 2e       	mov	r12, r24
    393a:	c6 18       	sub	r12, r6
    393c:	0f 77       	andi	r16, 0x7F	; 127
    393e:	90 2e       	mov	r9, r16
    3940:	96 fe       	sbrs	r9, 6
    3942:	0b c0       	rjmp	.+22     	; 0x395a <vfprintf+0x5b6>
    3944:	09 2d       	mov	r16, r9
    3946:	0e 7f       	andi	r16, 0xFE	; 254
    3948:	c1 16       	cp	r12, r17
    394a:	50 f4       	brcc	.+20     	; 0x3960 <vfprintf+0x5bc>
    394c:	94 fe       	sbrs	r9, 4
    394e:	0a c0       	rjmp	.+20     	; 0x3964 <vfprintf+0x5c0>
    3950:	92 fc       	sbrc	r9, 2
    3952:	08 c0       	rjmp	.+16     	; 0x3964 <vfprintf+0x5c0>
    3954:	09 2d       	mov	r16, r9
    3956:	0e 7e       	andi	r16, 0xEE	; 238
    3958:	05 c0       	rjmp	.+10     	; 0x3964 <vfprintf+0x5c0>
    395a:	dc 2c       	mov	r13, r12
    395c:	09 2d       	mov	r16, r9
    395e:	03 c0       	rjmp	.+6      	; 0x3966 <vfprintf+0x5c2>
    3960:	dc 2c       	mov	r13, r12
    3962:	01 c0       	rjmp	.+2      	; 0x3966 <vfprintf+0x5c2>
    3964:	d1 2e       	mov	r13, r17
    3966:	04 ff       	sbrs	r16, 4
    3968:	0d c0       	rjmp	.+26     	; 0x3984 <vfprintf+0x5e0>
    396a:	fe 01       	movw	r30, r28
    396c:	ec 0d       	add	r30, r12
    396e:	f1 1d       	adc	r31, r1
    3970:	80 81       	ld	r24, Z
    3972:	80 33       	cpi	r24, 0x30	; 48
    3974:	11 f4       	brne	.+4      	; 0x397a <vfprintf+0x5d6>
    3976:	09 7e       	andi	r16, 0xE9	; 233
    3978:	09 c0       	rjmp	.+18     	; 0x398c <vfprintf+0x5e8>
    397a:	02 ff       	sbrs	r16, 2
    397c:	06 c0       	rjmp	.+12     	; 0x398a <vfprintf+0x5e6>
    397e:	d3 94       	inc	r13
    3980:	d3 94       	inc	r13
    3982:	04 c0       	rjmp	.+8      	; 0x398c <vfprintf+0x5e8>
    3984:	80 2f       	mov	r24, r16
    3986:	86 78       	andi	r24, 0x86	; 134
    3988:	09 f0       	breq	.+2      	; 0x398c <vfprintf+0x5e8>
    398a:	d3 94       	inc	r13
    398c:	03 fd       	sbrc	r16, 3
    398e:	11 c0       	rjmp	.+34     	; 0x39b2 <vfprintf+0x60e>
    3990:	00 ff       	sbrs	r16, 0
    3992:	06 c0       	rjmp	.+12     	; 0x39a0 <vfprintf+0x5fc>
    3994:	1c 2d       	mov	r17, r12
    3996:	d5 14       	cp	r13, r5
    3998:	80 f4       	brcc	.+32     	; 0x39ba <vfprintf+0x616>
    399a:	15 0d       	add	r17, r5
    399c:	1d 19       	sub	r17, r13
    399e:	0d c0       	rjmp	.+26     	; 0x39ba <vfprintf+0x616>
    39a0:	d5 14       	cp	r13, r5
    39a2:	58 f4       	brcc	.+22     	; 0x39ba <vfprintf+0x616>
    39a4:	b7 01       	movw	r22, r14
    39a6:	80 e2       	ldi	r24, 0x20	; 32
    39a8:	90 e0       	ldi	r25, 0x00	; 0
    39aa:	0e 94 d2 1e 	call	0x3da4	; 0x3da4 <fputc>
    39ae:	d3 94       	inc	r13
    39b0:	f7 cf       	rjmp	.-18     	; 0x39a0 <vfprintf+0x5fc>
    39b2:	d5 14       	cp	r13, r5
    39b4:	10 f4       	brcc	.+4      	; 0x39ba <vfprintf+0x616>
    39b6:	5d 18       	sub	r5, r13
    39b8:	01 c0       	rjmp	.+2      	; 0x39bc <vfprintf+0x618>
    39ba:	51 2c       	mov	r5, r1
    39bc:	04 ff       	sbrs	r16, 4
    39be:	10 c0       	rjmp	.+32     	; 0x39e0 <vfprintf+0x63c>
    39c0:	b7 01       	movw	r22, r14
    39c2:	80 e3       	ldi	r24, 0x30	; 48
    39c4:	90 e0       	ldi	r25, 0x00	; 0
    39c6:	0e 94 d2 1e 	call	0x3da4	; 0x3da4 <fputc>
    39ca:	02 ff       	sbrs	r16, 2
    39cc:	17 c0       	rjmp	.+46     	; 0x39fc <vfprintf+0x658>
    39ce:	01 fd       	sbrc	r16, 1
    39d0:	03 c0       	rjmp	.+6      	; 0x39d8 <vfprintf+0x634>
    39d2:	88 e7       	ldi	r24, 0x78	; 120
    39d4:	90 e0       	ldi	r25, 0x00	; 0
    39d6:	02 c0       	rjmp	.+4      	; 0x39dc <vfprintf+0x638>
    39d8:	88 e5       	ldi	r24, 0x58	; 88
    39da:	90 e0       	ldi	r25, 0x00	; 0
    39dc:	b7 01       	movw	r22, r14
    39de:	0c c0       	rjmp	.+24     	; 0x39f8 <vfprintf+0x654>
    39e0:	80 2f       	mov	r24, r16
    39e2:	86 78       	andi	r24, 0x86	; 134
    39e4:	59 f0       	breq	.+22     	; 0x39fc <vfprintf+0x658>
    39e6:	01 ff       	sbrs	r16, 1
    39e8:	02 c0       	rjmp	.+4      	; 0x39ee <vfprintf+0x64a>
    39ea:	8b e2       	ldi	r24, 0x2B	; 43
    39ec:	01 c0       	rjmp	.+2      	; 0x39f0 <vfprintf+0x64c>
    39ee:	80 e2       	ldi	r24, 0x20	; 32
    39f0:	07 fd       	sbrc	r16, 7
    39f2:	8d e2       	ldi	r24, 0x2D	; 45
    39f4:	b7 01       	movw	r22, r14
    39f6:	90 e0       	ldi	r25, 0x00	; 0
    39f8:	0e 94 d2 1e 	call	0x3da4	; 0x3da4 <fputc>
    39fc:	c1 16       	cp	r12, r17
    39fe:	38 f4       	brcc	.+14     	; 0x3a0e <vfprintf+0x66a>
    3a00:	b7 01       	movw	r22, r14
    3a02:	80 e3       	ldi	r24, 0x30	; 48
    3a04:	90 e0       	ldi	r25, 0x00	; 0
    3a06:	0e 94 d2 1e 	call	0x3da4	; 0x3da4 <fputc>
    3a0a:	11 50       	subi	r17, 0x01	; 1
    3a0c:	f7 cf       	rjmp	.-18     	; 0x39fc <vfprintf+0x658>
    3a0e:	ca 94       	dec	r12
    3a10:	f3 01       	movw	r30, r6
    3a12:	ec 0d       	add	r30, r12
    3a14:	f1 1d       	adc	r31, r1
    3a16:	80 81       	ld	r24, Z
    3a18:	b7 01       	movw	r22, r14
    3a1a:	90 e0       	ldi	r25, 0x00	; 0
    3a1c:	0e 94 d2 1e 	call	0x3da4	; 0x3da4 <fputc>
    3a20:	c1 10       	cpse	r12, r1
    3a22:	f5 cf       	rjmp	.-22     	; 0x3a0e <vfprintf+0x66a>
    3a24:	15 c0       	rjmp	.+42     	; 0x3a50 <vfprintf+0x6ac>
    3a26:	f4 e0       	ldi	r31, 0x04	; 4
    3a28:	f5 15       	cp	r31, r5
    3a2a:	60 f5       	brcc	.+88     	; 0x3a84 <vfprintf+0x6e0>
    3a2c:	84 e0       	ldi	r24, 0x04	; 4
    3a2e:	58 1a       	sub	r5, r24
    3a30:	93 fe       	sbrs	r9, 3
    3a32:	1f c0       	rjmp	.+62     	; 0x3a72 <vfprintf+0x6ce>
    3a34:	01 11       	cpse	r16, r1
    3a36:	27 c0       	rjmp	.+78     	; 0x3a86 <vfprintf+0x6e2>
    3a38:	2c 85       	ldd	r18, Y+12	; 0x0c
    3a3a:	23 ff       	sbrs	r18, 3
    3a3c:	2a c0       	rjmp	.+84     	; 0x3a92 <vfprintf+0x6ee>
    3a3e:	0c ec       	ldi	r16, 0xCC	; 204
    3a40:	11 e0       	ldi	r17, 0x01	; 1
    3a42:	39 2d       	mov	r19, r9
    3a44:	30 71       	andi	r19, 0x10	; 16
    3a46:	93 2e       	mov	r9, r19
    3a48:	f8 01       	movw	r30, r16
    3a4a:	84 91       	lpm	r24, Z
    3a4c:	81 11       	cpse	r24, r1
    3a4e:	24 c0       	rjmp	.+72     	; 0x3a98 <vfprintf+0x6f4>
    3a50:	55 20       	and	r5, r5
    3a52:	09 f4       	brne	.+2      	; 0x3a56 <vfprintf+0x6b2>
    3a54:	e4 cc       	rjmp	.-1592   	; 0x341e <vfprintf+0x7a>
    3a56:	b7 01       	movw	r22, r14
    3a58:	80 e2       	ldi	r24, 0x20	; 32
    3a5a:	90 e0       	ldi	r25, 0x00	; 0
    3a5c:	0e 94 d2 1e 	call	0x3da4	; 0x3da4 <fputc>
    3a60:	5a 94       	dec	r5
    3a62:	f6 cf       	rjmp	.-20     	; 0x3a50 <vfprintf+0x6ac>
    3a64:	f7 01       	movw	r30, r14
    3a66:	86 81       	ldd	r24, Z+6	; 0x06
    3a68:	97 81       	ldd	r25, Z+7	; 0x07
    3a6a:	26 c0       	rjmp	.+76     	; 0x3ab8 <vfprintf+0x714>
    3a6c:	8f ef       	ldi	r24, 0xFF	; 255
    3a6e:	9f ef       	ldi	r25, 0xFF	; 255
    3a70:	23 c0       	rjmp	.+70     	; 0x3ab8 <vfprintf+0x714>
    3a72:	b7 01       	movw	r22, r14
    3a74:	80 e2       	ldi	r24, 0x20	; 32
    3a76:	90 e0       	ldi	r25, 0x00	; 0
    3a78:	0e 94 d2 1e 	call	0x3da4	; 0x3da4 <fputc>
    3a7c:	5a 94       	dec	r5
    3a7e:	51 10       	cpse	r5, r1
    3a80:	f8 cf       	rjmp	.-16     	; 0x3a72 <vfprintf+0x6ce>
    3a82:	d8 cf       	rjmp	.-80     	; 0x3a34 <vfprintf+0x690>
    3a84:	51 2c       	mov	r5, r1
    3a86:	b7 01       	movw	r22, r14
    3a88:	80 2f       	mov	r24, r16
    3a8a:	90 e0       	ldi	r25, 0x00	; 0
    3a8c:	0e 94 d2 1e 	call	0x3da4	; 0x3da4 <fputc>
    3a90:	d3 cf       	rjmp	.-90     	; 0x3a38 <vfprintf+0x694>
    3a92:	00 ed       	ldi	r16, 0xD0	; 208
    3a94:	11 e0       	ldi	r17, 0x01	; 1
    3a96:	d5 cf       	rjmp	.-86     	; 0x3a42 <vfprintf+0x69e>
    3a98:	91 10       	cpse	r9, r1
    3a9a:	80 52       	subi	r24, 0x20	; 32
    3a9c:	b7 01       	movw	r22, r14
    3a9e:	90 e0       	ldi	r25, 0x00	; 0
    3aa0:	0e 94 d2 1e 	call	0x3da4	; 0x3da4 <fputc>
    3aa4:	0f 5f       	subi	r16, 0xFF	; 255
    3aa6:	1f 4f       	sbci	r17, 0xFF	; 255
    3aa8:	cf cf       	rjmp	.-98     	; 0x3a48 <vfprintf+0x6a4>
    3aaa:	23 e0       	ldi	r18, 0x03	; 3
    3aac:	25 15       	cp	r18, r5
    3aae:	10 f4       	brcc	.+4      	; 0x3ab4 <vfprintf+0x710>
    3ab0:	83 e0       	ldi	r24, 0x03	; 3
    3ab2:	bd cf       	rjmp	.-134    	; 0x3a2e <vfprintf+0x68a>
    3ab4:	51 2c       	mov	r5, r1
    3ab6:	c0 cf       	rjmp	.-128    	; 0x3a38 <vfprintf+0x694>
    3ab8:	60 96       	adiw	r28, 0x10	; 16
    3aba:	cd bf       	out	0x3d, r28	; 61
    3abc:	de bf       	out	0x3e, r29	; 62
    3abe:	df 91       	pop	r29
    3ac0:	cf 91       	pop	r28
    3ac2:	1f 91       	pop	r17
    3ac4:	0f 91       	pop	r16
    3ac6:	ff 90       	pop	r15
    3ac8:	ef 90       	pop	r14
    3aca:	df 90       	pop	r13
    3acc:	cf 90       	pop	r12
    3ace:	bf 90       	pop	r11
    3ad0:	af 90       	pop	r10
    3ad2:	9f 90       	pop	r9
    3ad4:	8f 90       	pop	r8
    3ad6:	7f 90       	pop	r7
    3ad8:	6f 90       	pop	r6
    3ada:	5f 90       	pop	r5
    3adc:	4f 90       	pop	r4
    3ade:	3f 90       	pop	r3
    3ae0:	2f 90       	pop	r2
    3ae2:	08 95       	ret

00003ae4 <__divmodhi4>:
    3ae4:	97 fb       	bst	r25, 7
    3ae6:	07 2e       	mov	r0, r23
    3ae8:	16 f4       	brtc	.+4      	; 0x3aee <__divmodhi4+0xa>
    3aea:	00 94       	com	r0
    3aec:	07 d0       	rcall	.+14     	; 0x3afc <__divmodhi4_neg1>
    3aee:	77 fd       	sbrc	r23, 7
    3af0:	09 d0       	rcall	.+18     	; 0x3b04 <__divmodhi4_neg2>
    3af2:	0e 94 d0 1d 	call	0x3ba0	; 0x3ba0 <__udivmodhi4>
    3af6:	07 fc       	sbrc	r0, 7
    3af8:	05 d0       	rcall	.+10     	; 0x3b04 <__divmodhi4_neg2>
    3afa:	3e f4       	brtc	.+14     	; 0x3b0a <__divmodhi4_exit>

00003afc <__divmodhi4_neg1>:
    3afc:	90 95       	com	r25
    3afe:	81 95       	neg	r24
    3b00:	9f 4f       	sbci	r25, 0xFF	; 255
    3b02:	08 95       	ret

00003b04 <__divmodhi4_neg2>:
    3b04:	70 95       	com	r23
    3b06:	61 95       	neg	r22
    3b08:	7f 4f       	sbci	r23, 0xFF	; 255

00003b0a <__divmodhi4_exit>:
    3b0a:	08 95       	ret

00003b0c <__udivmodsi4>:
    3b0c:	a1 e2       	ldi	r26, 0x21	; 33
    3b0e:	1a 2e       	mov	r1, r26
    3b10:	aa 1b       	sub	r26, r26
    3b12:	bb 1b       	sub	r27, r27
    3b14:	fd 01       	movw	r30, r26
    3b16:	0d c0       	rjmp	.+26     	; 0x3b32 <__udivmodsi4_ep>

00003b18 <__udivmodsi4_loop>:
    3b18:	aa 1f       	adc	r26, r26
    3b1a:	bb 1f       	adc	r27, r27
    3b1c:	ee 1f       	adc	r30, r30
    3b1e:	ff 1f       	adc	r31, r31
    3b20:	a2 17       	cp	r26, r18
    3b22:	b3 07       	cpc	r27, r19
    3b24:	e4 07       	cpc	r30, r20
    3b26:	f5 07       	cpc	r31, r21
    3b28:	20 f0       	brcs	.+8      	; 0x3b32 <__udivmodsi4_ep>
    3b2a:	a2 1b       	sub	r26, r18
    3b2c:	b3 0b       	sbc	r27, r19
    3b2e:	e4 0b       	sbc	r30, r20
    3b30:	f5 0b       	sbc	r31, r21

00003b32 <__udivmodsi4_ep>:
    3b32:	66 1f       	adc	r22, r22
    3b34:	77 1f       	adc	r23, r23
    3b36:	88 1f       	adc	r24, r24
    3b38:	99 1f       	adc	r25, r25
    3b3a:	1a 94       	dec	r1
    3b3c:	69 f7       	brne	.-38     	; 0x3b18 <__udivmodsi4_loop>
    3b3e:	60 95       	com	r22
    3b40:	70 95       	com	r23
    3b42:	80 95       	com	r24
    3b44:	90 95       	com	r25
    3b46:	9b 01       	movw	r18, r22
    3b48:	ac 01       	movw	r20, r24
    3b4a:	bd 01       	movw	r22, r26
    3b4c:	cf 01       	movw	r24, r30
    3b4e:	08 95       	ret

00003b50 <__divmodsi4>:
    3b50:	05 2e       	mov	r0, r21
    3b52:	97 fb       	bst	r25, 7
    3b54:	1e f4       	brtc	.+6      	; 0x3b5c <__divmodsi4+0xc>
    3b56:	00 94       	com	r0
    3b58:	0e 94 bf 1d 	call	0x3b7e	; 0x3b7e <__negsi2>
    3b5c:	57 fd       	sbrc	r21, 7
    3b5e:	07 d0       	rcall	.+14     	; 0x3b6e <__divmodsi4_neg2>
    3b60:	0e 94 86 1d 	call	0x3b0c	; 0x3b0c <__udivmodsi4>
    3b64:	07 fc       	sbrc	r0, 7
    3b66:	03 d0       	rcall	.+6      	; 0x3b6e <__divmodsi4_neg2>
    3b68:	4e f4       	brtc	.+18     	; 0x3b7c <__divmodsi4_exit>
    3b6a:	0c 94 bf 1d 	jmp	0x3b7e	; 0x3b7e <__negsi2>

00003b6e <__divmodsi4_neg2>:
    3b6e:	50 95       	com	r21
    3b70:	40 95       	com	r20
    3b72:	30 95       	com	r19
    3b74:	21 95       	neg	r18
    3b76:	3f 4f       	sbci	r19, 0xFF	; 255
    3b78:	4f 4f       	sbci	r20, 0xFF	; 255
    3b7a:	5f 4f       	sbci	r21, 0xFF	; 255

00003b7c <__divmodsi4_exit>:
    3b7c:	08 95       	ret

00003b7e <__negsi2>:
    3b7e:	90 95       	com	r25
    3b80:	80 95       	com	r24
    3b82:	70 95       	com	r23
    3b84:	61 95       	neg	r22
    3b86:	7f 4f       	sbci	r23, 0xFF	; 255
    3b88:	8f 4f       	sbci	r24, 0xFF	; 255
    3b8a:	9f 4f       	sbci	r25, 0xFF	; 255
    3b8c:	08 95       	ret

00003b8e <__tablejump2__>:
    3b8e:	ee 0f       	add	r30, r30
    3b90:	ff 1f       	adc	r31, r31
    3b92:	00 24       	eor	r0, r0
    3b94:	00 1c       	adc	r0, r0
    3b96:	0b be       	out	0x3b, r0	; 59
    3b98:	07 90       	elpm	r0, Z+
    3b9a:	f6 91       	elpm	r31, Z
    3b9c:	e0 2d       	mov	r30, r0
    3b9e:	09 94       	ijmp

00003ba0 <__udivmodhi4>:
    3ba0:	aa 1b       	sub	r26, r26
    3ba2:	bb 1b       	sub	r27, r27
    3ba4:	51 e1       	ldi	r21, 0x11	; 17
    3ba6:	07 c0       	rjmp	.+14     	; 0x3bb6 <__udivmodhi4_ep>

00003ba8 <__udivmodhi4_loop>:
    3ba8:	aa 1f       	adc	r26, r26
    3baa:	bb 1f       	adc	r27, r27
    3bac:	a6 17       	cp	r26, r22
    3bae:	b7 07       	cpc	r27, r23
    3bb0:	10 f0       	brcs	.+4      	; 0x3bb6 <__udivmodhi4_ep>
    3bb2:	a6 1b       	sub	r26, r22
    3bb4:	b7 0b       	sbc	r27, r23

00003bb6 <__udivmodhi4_ep>:
    3bb6:	88 1f       	adc	r24, r24
    3bb8:	99 1f       	adc	r25, r25
    3bba:	5a 95       	dec	r21
    3bbc:	a9 f7       	brne	.-22     	; 0x3ba8 <__udivmodhi4_loop>
    3bbe:	80 95       	com	r24
    3bc0:	90 95       	com	r25
    3bc2:	bc 01       	movw	r22, r24
    3bc4:	cd 01       	movw	r24, r26
    3bc6:	08 95       	ret

00003bc8 <__ftoa_engine>:
    3bc8:	28 30       	cpi	r18, 0x08	; 8
    3bca:	08 f0       	brcs	.+2      	; 0x3bce <__ftoa_engine+0x6>
    3bcc:	27 e0       	ldi	r18, 0x07	; 7
    3bce:	33 27       	eor	r19, r19
    3bd0:	da 01       	movw	r26, r20
    3bd2:	99 0f       	add	r25, r25
    3bd4:	31 1d       	adc	r19, r1
    3bd6:	87 fd       	sbrc	r24, 7
    3bd8:	91 60       	ori	r25, 0x01	; 1
    3bda:	00 96       	adiw	r24, 0x00	; 0
    3bdc:	61 05       	cpc	r22, r1
    3bde:	71 05       	cpc	r23, r1
    3be0:	39 f4       	brne	.+14     	; 0x3bf0 <__ftoa_engine+0x28>
    3be2:	32 60       	ori	r19, 0x02	; 2
    3be4:	2e 5f       	subi	r18, 0xFE	; 254
    3be6:	3d 93       	st	X+, r19
    3be8:	30 e3       	ldi	r19, 0x30	; 48
    3bea:	2a 95       	dec	r18
    3bec:	e1 f7       	brne	.-8      	; 0x3be6 <__ftoa_engine+0x1e>
    3bee:	08 95       	ret
    3bf0:	9f 3f       	cpi	r25, 0xFF	; 255
    3bf2:	30 f0       	brcs	.+12     	; 0x3c00 <__ftoa_engine+0x38>
    3bf4:	80 38       	cpi	r24, 0x80	; 128
    3bf6:	71 05       	cpc	r23, r1
    3bf8:	61 05       	cpc	r22, r1
    3bfa:	09 f0       	breq	.+2      	; 0x3bfe <__ftoa_engine+0x36>
    3bfc:	3c 5f       	subi	r19, 0xFC	; 252
    3bfe:	3c 5f       	subi	r19, 0xFC	; 252
    3c00:	3d 93       	st	X+, r19
    3c02:	91 30       	cpi	r25, 0x01	; 1
    3c04:	08 f0       	brcs	.+2      	; 0x3c08 <__ftoa_engine+0x40>
    3c06:	80 68       	ori	r24, 0x80	; 128
    3c08:	91 1d       	adc	r25, r1
    3c0a:	df 93       	push	r29
    3c0c:	cf 93       	push	r28
    3c0e:	1f 93       	push	r17
    3c10:	0f 93       	push	r16
    3c12:	ff 92       	push	r15
    3c14:	ef 92       	push	r14
    3c16:	19 2f       	mov	r17, r25
    3c18:	98 7f       	andi	r25, 0xF8	; 248
    3c1a:	96 95       	lsr	r25
    3c1c:	e9 2f       	mov	r30, r25
    3c1e:	96 95       	lsr	r25
    3c20:	96 95       	lsr	r25
    3c22:	e9 0f       	add	r30, r25
    3c24:	ff 27       	eor	r31, r31
    3c26:	e2 5d       	subi	r30, 0xD2	; 210
    3c28:	fd 4f       	sbci	r31, 0xFD	; 253
    3c2a:	99 27       	eor	r25, r25
    3c2c:	33 27       	eor	r19, r19
    3c2e:	ee 24       	eor	r14, r14
    3c30:	ff 24       	eor	r15, r15
    3c32:	a7 01       	movw	r20, r14
    3c34:	e7 01       	movw	r28, r14
    3c36:	05 90       	lpm	r0, Z+
    3c38:	08 94       	sec
    3c3a:	07 94       	ror	r0
    3c3c:	28 f4       	brcc	.+10     	; 0x3c48 <__ftoa_engine+0x80>
    3c3e:	36 0f       	add	r19, r22
    3c40:	e7 1e       	adc	r14, r23
    3c42:	f8 1e       	adc	r15, r24
    3c44:	49 1f       	adc	r20, r25
    3c46:	51 1d       	adc	r21, r1
    3c48:	66 0f       	add	r22, r22
    3c4a:	77 1f       	adc	r23, r23
    3c4c:	88 1f       	adc	r24, r24
    3c4e:	99 1f       	adc	r25, r25
    3c50:	06 94       	lsr	r0
    3c52:	a1 f7       	brne	.-24     	; 0x3c3c <__ftoa_engine+0x74>
    3c54:	05 90       	lpm	r0, Z+
    3c56:	07 94       	ror	r0
    3c58:	28 f4       	brcc	.+10     	; 0x3c64 <__ftoa_engine+0x9c>
    3c5a:	e7 0e       	add	r14, r23
    3c5c:	f8 1e       	adc	r15, r24
    3c5e:	49 1f       	adc	r20, r25
    3c60:	56 1f       	adc	r21, r22
    3c62:	c1 1d       	adc	r28, r1
    3c64:	77 0f       	add	r23, r23
    3c66:	88 1f       	adc	r24, r24
    3c68:	99 1f       	adc	r25, r25
    3c6a:	66 1f       	adc	r22, r22
    3c6c:	06 94       	lsr	r0
    3c6e:	a1 f7       	brne	.-24     	; 0x3c58 <__ftoa_engine+0x90>
    3c70:	05 90       	lpm	r0, Z+
    3c72:	07 94       	ror	r0
    3c74:	28 f4       	brcc	.+10     	; 0x3c80 <__ftoa_engine+0xb8>
    3c76:	f8 0e       	add	r15, r24
    3c78:	49 1f       	adc	r20, r25
    3c7a:	56 1f       	adc	r21, r22
    3c7c:	c7 1f       	adc	r28, r23
    3c7e:	d1 1d       	adc	r29, r1
    3c80:	88 0f       	add	r24, r24
    3c82:	99 1f       	adc	r25, r25
    3c84:	66 1f       	adc	r22, r22
    3c86:	77 1f       	adc	r23, r23
    3c88:	06 94       	lsr	r0
    3c8a:	a1 f7       	brne	.-24     	; 0x3c74 <__ftoa_engine+0xac>
    3c8c:	05 90       	lpm	r0, Z+
    3c8e:	07 94       	ror	r0
    3c90:	20 f4       	brcc	.+8      	; 0x3c9a <__ftoa_engine+0xd2>
    3c92:	49 0f       	add	r20, r25
    3c94:	56 1f       	adc	r21, r22
    3c96:	c7 1f       	adc	r28, r23
    3c98:	d8 1f       	adc	r29, r24
    3c9a:	99 0f       	add	r25, r25
    3c9c:	66 1f       	adc	r22, r22
    3c9e:	77 1f       	adc	r23, r23
    3ca0:	88 1f       	adc	r24, r24
    3ca2:	06 94       	lsr	r0
    3ca4:	a9 f7       	brne	.-22     	; 0x3c90 <__ftoa_engine+0xc8>
    3ca6:	84 91       	lpm	r24, Z
    3ca8:	10 95       	com	r17
    3caa:	17 70       	andi	r17, 0x07	; 7
    3cac:	41 f0       	breq	.+16     	; 0x3cbe <__ftoa_engine+0xf6>
    3cae:	d6 95       	lsr	r29
    3cb0:	c7 95       	ror	r28
    3cb2:	57 95       	ror	r21
    3cb4:	47 95       	ror	r20
    3cb6:	f7 94       	ror	r15
    3cb8:	e7 94       	ror	r14
    3cba:	1a 95       	dec	r17
    3cbc:	c1 f7       	brne	.-16     	; 0x3cae <__ftoa_engine+0xe6>
    3cbe:	e4 ed       	ldi	r30, 0xD4	; 212
    3cc0:	f1 e0       	ldi	r31, 0x01	; 1
    3cc2:	68 94       	set
    3cc4:	15 90       	lpm	r1, Z+
    3cc6:	15 91       	lpm	r17, Z+
    3cc8:	35 91       	lpm	r19, Z+
    3cca:	65 91       	lpm	r22, Z+
    3ccc:	95 91       	lpm	r25, Z+
    3cce:	05 90       	lpm	r0, Z+
    3cd0:	7f e2       	ldi	r23, 0x2F	; 47
    3cd2:	73 95       	inc	r23
    3cd4:	e1 18       	sub	r14, r1
    3cd6:	f1 0a       	sbc	r15, r17
    3cd8:	43 0b       	sbc	r20, r19
    3cda:	56 0b       	sbc	r21, r22
    3cdc:	c9 0b       	sbc	r28, r25
    3cde:	d0 09       	sbc	r29, r0
    3ce0:	c0 f7       	brcc	.-16     	; 0x3cd2 <__ftoa_engine+0x10a>
    3ce2:	e1 0c       	add	r14, r1
    3ce4:	f1 1e       	adc	r15, r17
    3ce6:	43 1f       	adc	r20, r19
    3ce8:	56 1f       	adc	r21, r22
    3cea:	c9 1f       	adc	r28, r25
    3cec:	d0 1d       	adc	r29, r0
    3cee:	7e f4       	brtc	.+30     	; 0x3d0e <__ftoa_engine+0x146>
    3cf0:	70 33       	cpi	r23, 0x30	; 48
    3cf2:	11 f4       	brne	.+4      	; 0x3cf8 <__ftoa_engine+0x130>
    3cf4:	8a 95       	dec	r24
    3cf6:	e6 cf       	rjmp	.-52     	; 0x3cc4 <__ftoa_engine+0xfc>
    3cf8:	e8 94       	clt
    3cfa:	01 50       	subi	r16, 0x01	; 1
    3cfc:	30 f0       	brcs	.+12     	; 0x3d0a <__ftoa_engine+0x142>
    3cfe:	08 0f       	add	r16, r24
    3d00:	0a f4       	brpl	.+2      	; 0x3d04 <__ftoa_engine+0x13c>
    3d02:	00 27       	eor	r16, r16
    3d04:	02 17       	cp	r16, r18
    3d06:	08 f4       	brcc	.+2      	; 0x3d0a <__ftoa_engine+0x142>
    3d08:	20 2f       	mov	r18, r16
    3d0a:	23 95       	inc	r18
    3d0c:	02 2f       	mov	r16, r18
    3d0e:	7a 33       	cpi	r23, 0x3A	; 58
    3d10:	28 f0       	brcs	.+10     	; 0x3d1c <__ftoa_engine+0x154>
    3d12:	79 e3       	ldi	r23, 0x39	; 57
    3d14:	7d 93       	st	X+, r23
    3d16:	2a 95       	dec	r18
    3d18:	e9 f7       	brne	.-6      	; 0x3d14 <__ftoa_engine+0x14c>
    3d1a:	10 c0       	rjmp	.+32     	; 0x3d3c <__ftoa_engine+0x174>
    3d1c:	7d 93       	st	X+, r23
    3d1e:	2a 95       	dec	r18
    3d20:	89 f6       	brne	.-94     	; 0x3cc4 <__ftoa_engine+0xfc>
    3d22:	06 94       	lsr	r0
    3d24:	97 95       	ror	r25
    3d26:	67 95       	ror	r22
    3d28:	37 95       	ror	r19
    3d2a:	17 95       	ror	r17
    3d2c:	17 94       	ror	r1
    3d2e:	e1 18       	sub	r14, r1
    3d30:	f1 0a       	sbc	r15, r17
    3d32:	43 0b       	sbc	r20, r19
    3d34:	56 0b       	sbc	r21, r22
    3d36:	c9 0b       	sbc	r28, r25
    3d38:	d0 09       	sbc	r29, r0
    3d3a:	98 f0       	brcs	.+38     	; 0x3d62 <__ftoa_engine+0x19a>
    3d3c:	23 95       	inc	r18
    3d3e:	7e 91       	ld	r23, -X
    3d40:	73 95       	inc	r23
    3d42:	7a 33       	cpi	r23, 0x3A	; 58
    3d44:	08 f0       	brcs	.+2      	; 0x3d48 <__ftoa_engine+0x180>
    3d46:	70 e3       	ldi	r23, 0x30	; 48
    3d48:	7c 93       	st	X, r23
    3d4a:	20 13       	cpse	r18, r16
    3d4c:	b8 f7       	brcc	.-18     	; 0x3d3c <__ftoa_engine+0x174>
    3d4e:	7e 91       	ld	r23, -X
    3d50:	70 61       	ori	r23, 0x10	; 16
    3d52:	7d 93       	st	X+, r23
    3d54:	30 f0       	brcs	.+12     	; 0x3d62 <__ftoa_engine+0x19a>
    3d56:	83 95       	inc	r24
    3d58:	71 e3       	ldi	r23, 0x31	; 49
    3d5a:	7d 93       	st	X+, r23
    3d5c:	70 e3       	ldi	r23, 0x30	; 48
    3d5e:	2a 95       	dec	r18
    3d60:	e1 f7       	brne	.-8      	; 0x3d5a <__ftoa_engine+0x192>
    3d62:	11 24       	eor	r1, r1
    3d64:	ef 90       	pop	r14
    3d66:	ff 90       	pop	r15
    3d68:	0f 91       	pop	r16
    3d6a:	1f 91       	pop	r17
    3d6c:	cf 91       	pop	r28
    3d6e:	df 91       	pop	r29
    3d70:	99 27       	eor	r25, r25
    3d72:	87 fd       	sbrc	r24, 7
    3d74:	90 95       	com	r25
    3d76:	08 95       	ret

00003d78 <strnlen_P>:
    3d78:	fc 01       	movw	r30, r24
    3d7a:	05 90       	lpm	r0, Z+
    3d7c:	61 50       	subi	r22, 0x01	; 1
    3d7e:	70 40       	sbci	r23, 0x00	; 0
    3d80:	01 10       	cpse	r0, r1
    3d82:	d8 f7       	brcc	.-10     	; 0x3d7a <strnlen_P+0x2>
    3d84:	80 95       	com	r24
    3d86:	90 95       	com	r25
    3d88:	8e 0f       	add	r24, r30
    3d8a:	9f 1f       	adc	r25, r31
    3d8c:	08 95       	ret

00003d8e <strnlen>:
    3d8e:	fc 01       	movw	r30, r24
    3d90:	61 50       	subi	r22, 0x01	; 1
    3d92:	70 40       	sbci	r23, 0x00	; 0
    3d94:	01 90       	ld	r0, Z+
    3d96:	01 10       	cpse	r0, r1
    3d98:	d8 f7       	brcc	.-10     	; 0x3d90 <strnlen+0x2>
    3d9a:	80 95       	com	r24
    3d9c:	90 95       	com	r25
    3d9e:	8e 0f       	add	r24, r30
    3da0:	9f 1f       	adc	r25, r31
    3da2:	08 95       	ret

00003da4 <fputc>:
    3da4:	0f 93       	push	r16
    3da6:	1f 93       	push	r17
    3da8:	cf 93       	push	r28
    3daa:	df 93       	push	r29
    3dac:	fb 01       	movw	r30, r22
    3dae:	23 81       	ldd	r18, Z+3	; 0x03
    3db0:	21 fd       	sbrc	r18, 1
    3db2:	03 c0       	rjmp	.+6      	; 0x3dba <fputc+0x16>
    3db4:	8f ef       	ldi	r24, 0xFF	; 255
    3db6:	9f ef       	ldi	r25, 0xFF	; 255
    3db8:	2c c0       	rjmp	.+88     	; 0x3e12 <fputc+0x6e>
    3dba:	22 ff       	sbrs	r18, 2
    3dbc:	16 c0       	rjmp	.+44     	; 0x3dea <fputc+0x46>
    3dbe:	46 81       	ldd	r20, Z+6	; 0x06
    3dc0:	57 81       	ldd	r21, Z+7	; 0x07
    3dc2:	24 81       	ldd	r18, Z+4	; 0x04
    3dc4:	35 81       	ldd	r19, Z+5	; 0x05
    3dc6:	42 17       	cp	r20, r18
    3dc8:	53 07       	cpc	r21, r19
    3dca:	44 f4       	brge	.+16     	; 0x3ddc <fputc+0x38>
    3dcc:	a0 81       	ld	r26, Z
    3dce:	b1 81       	ldd	r27, Z+1	; 0x01
    3dd0:	9d 01       	movw	r18, r26
    3dd2:	2f 5f       	subi	r18, 0xFF	; 255
    3dd4:	3f 4f       	sbci	r19, 0xFF	; 255
    3dd6:	20 83       	st	Z, r18
    3dd8:	31 83       	std	Z+1, r19	; 0x01
    3dda:	8c 93       	st	X, r24
    3ddc:	26 81       	ldd	r18, Z+6	; 0x06
    3dde:	37 81       	ldd	r19, Z+7	; 0x07
    3de0:	2f 5f       	subi	r18, 0xFF	; 255
    3de2:	3f 4f       	sbci	r19, 0xFF	; 255
    3de4:	26 83       	std	Z+6, r18	; 0x06
    3de6:	37 83       	std	Z+7, r19	; 0x07
    3de8:	14 c0       	rjmp	.+40     	; 0x3e12 <fputc+0x6e>
    3dea:	8b 01       	movw	r16, r22
    3dec:	ec 01       	movw	r28, r24
    3dee:	fb 01       	movw	r30, r22
    3df0:	00 84       	ldd	r0, Z+8	; 0x08
    3df2:	f1 85       	ldd	r31, Z+9	; 0x09
    3df4:	e0 2d       	mov	r30, r0
    3df6:	09 95       	icall
    3df8:	89 2b       	or	r24, r25
    3dfa:	e1 f6       	brne	.-72     	; 0x3db4 <fputc+0x10>
    3dfc:	d8 01       	movw	r26, r16
    3dfe:	16 96       	adiw	r26, 0x06	; 6
    3e00:	8d 91       	ld	r24, X+
    3e02:	9c 91       	ld	r25, X
    3e04:	17 97       	sbiw	r26, 0x07	; 7
    3e06:	01 96       	adiw	r24, 0x01	; 1
    3e08:	16 96       	adiw	r26, 0x06	; 6
    3e0a:	8d 93       	st	X+, r24
    3e0c:	9c 93       	st	X, r25
    3e0e:	17 97       	sbiw	r26, 0x07	; 7
    3e10:	ce 01       	movw	r24, r28
    3e12:	df 91       	pop	r29
    3e14:	cf 91       	pop	r28
    3e16:	1f 91       	pop	r17
    3e18:	0f 91       	pop	r16
    3e1a:	08 95       	ret

00003e1c <printf>:
    3e1c:	cf 93       	push	r28
    3e1e:	df 93       	push	r29
    3e20:	cd b7       	in	r28, 0x3d	; 61
    3e22:	de b7       	in	r29, 0x3e	; 62
    3e24:	ae 01       	movw	r20, r28
    3e26:	4b 5f       	subi	r20, 0xFB	; 251
    3e28:	5f 4f       	sbci	r21, 0xFF	; 255
    3e2a:	fa 01       	movw	r30, r20
    3e2c:	61 91       	ld	r22, Z+
    3e2e:	71 91       	ld	r23, Z+
    3e30:	af 01       	movw	r20, r30
    3e32:	80 91 8a 45 	lds	r24, 0x458A	; 0x80458a <__iob+0x2>
    3e36:	90 91 8b 45 	lds	r25, 0x458B	; 0x80458b <__iob+0x3>
    3e3a:	0e 94 d2 19 	call	0x33a4	; 0x33a4 <vfprintf>
    3e3e:	df 91       	pop	r29
    3e40:	cf 91       	pop	r28
    3e42:	08 95       	ret

00003e44 <puts>:
    3e44:	0f 93       	push	r16
    3e46:	1f 93       	push	r17
    3e48:	cf 93       	push	r28
    3e4a:	df 93       	push	r29
    3e4c:	e0 91 8a 45 	lds	r30, 0x458A	; 0x80458a <__iob+0x2>
    3e50:	f0 91 8b 45 	lds	r31, 0x458B	; 0x80458b <__iob+0x3>
    3e54:	23 81       	ldd	r18, Z+3	; 0x03
    3e56:	21 ff       	sbrs	r18, 1
    3e58:	1b c0       	rjmp	.+54     	; 0x3e90 <puts+0x4c>
    3e5a:	8c 01       	movw	r16, r24
    3e5c:	d0 e0       	ldi	r29, 0x00	; 0
    3e5e:	c0 e0       	ldi	r28, 0x00	; 0
    3e60:	f8 01       	movw	r30, r16
    3e62:	81 91       	ld	r24, Z+
    3e64:	8f 01       	movw	r16, r30
    3e66:	60 91 8a 45 	lds	r22, 0x458A	; 0x80458a <__iob+0x2>
    3e6a:	70 91 8b 45 	lds	r23, 0x458B	; 0x80458b <__iob+0x3>
    3e6e:	db 01       	movw	r26, r22
    3e70:	18 96       	adiw	r26, 0x08	; 8
    3e72:	ed 91       	ld	r30, X+
    3e74:	fc 91       	ld	r31, X
    3e76:	19 97       	sbiw	r26, 0x09	; 9
    3e78:	88 23       	and	r24, r24
    3e7a:	31 f0       	breq	.+12     	; 0x3e88 <puts+0x44>
    3e7c:	09 95       	icall
    3e7e:	89 2b       	or	r24, r25
    3e80:	79 f3       	breq	.-34     	; 0x3e60 <puts+0x1c>
    3e82:	df ef       	ldi	r29, 0xFF	; 255
    3e84:	cf ef       	ldi	r28, 0xFF	; 255
    3e86:	ec cf       	rjmp	.-40     	; 0x3e60 <puts+0x1c>
    3e88:	8a e0       	ldi	r24, 0x0A	; 10
    3e8a:	09 95       	icall
    3e8c:	89 2b       	or	r24, r25
    3e8e:	19 f0       	breq	.+6      	; 0x3e96 <puts+0x52>
    3e90:	8f ef       	ldi	r24, 0xFF	; 255
    3e92:	9f ef       	ldi	r25, 0xFF	; 255
    3e94:	02 c0       	rjmp	.+4      	; 0x3e9a <puts+0x56>
    3e96:	8d 2f       	mov	r24, r29
    3e98:	9c 2f       	mov	r25, r28
    3e9a:	df 91       	pop	r29
    3e9c:	cf 91       	pop	r28
    3e9e:	1f 91       	pop	r17
    3ea0:	0f 91       	pop	r16
    3ea2:	08 95       	ret

00003ea4 <__ultoa_invert>:
    3ea4:	fa 01       	movw	r30, r20
    3ea6:	aa 27       	eor	r26, r26
    3ea8:	28 30       	cpi	r18, 0x08	; 8
    3eaa:	51 f1       	breq	.+84     	; 0x3f00 <__ultoa_invert+0x5c>
    3eac:	20 31       	cpi	r18, 0x10	; 16
    3eae:	81 f1       	breq	.+96     	; 0x3f10 <__ultoa_invert+0x6c>
    3eb0:	e8 94       	clt
    3eb2:	6f 93       	push	r22
    3eb4:	6e 7f       	andi	r22, 0xFE	; 254
    3eb6:	6e 5f       	subi	r22, 0xFE	; 254
    3eb8:	7f 4f       	sbci	r23, 0xFF	; 255
    3eba:	8f 4f       	sbci	r24, 0xFF	; 255
    3ebc:	9f 4f       	sbci	r25, 0xFF	; 255
    3ebe:	af 4f       	sbci	r26, 0xFF	; 255
    3ec0:	b1 e0       	ldi	r27, 0x01	; 1
    3ec2:	3e d0       	rcall	.+124    	; 0x3f40 <__ultoa_invert+0x9c>
    3ec4:	b4 e0       	ldi	r27, 0x04	; 4
    3ec6:	3c d0       	rcall	.+120    	; 0x3f40 <__ultoa_invert+0x9c>
    3ec8:	67 0f       	add	r22, r23
    3eca:	78 1f       	adc	r23, r24
    3ecc:	89 1f       	adc	r24, r25
    3ece:	9a 1f       	adc	r25, r26
    3ed0:	a1 1d       	adc	r26, r1
    3ed2:	68 0f       	add	r22, r24
    3ed4:	79 1f       	adc	r23, r25
    3ed6:	8a 1f       	adc	r24, r26
    3ed8:	91 1d       	adc	r25, r1
    3eda:	a1 1d       	adc	r26, r1
    3edc:	6a 0f       	add	r22, r26
    3ede:	71 1d       	adc	r23, r1
    3ee0:	81 1d       	adc	r24, r1
    3ee2:	91 1d       	adc	r25, r1
    3ee4:	a1 1d       	adc	r26, r1
    3ee6:	20 d0       	rcall	.+64     	; 0x3f28 <__ultoa_invert+0x84>
    3ee8:	09 f4       	brne	.+2      	; 0x3eec <__ultoa_invert+0x48>
    3eea:	68 94       	set
    3eec:	3f 91       	pop	r19
    3eee:	2a e0       	ldi	r18, 0x0A	; 10
    3ef0:	26 9f       	mul	r18, r22
    3ef2:	11 24       	eor	r1, r1
    3ef4:	30 19       	sub	r19, r0
    3ef6:	30 5d       	subi	r19, 0xD0	; 208
    3ef8:	31 93       	st	Z+, r19
    3efa:	de f6       	brtc	.-74     	; 0x3eb2 <__ultoa_invert+0xe>
    3efc:	cf 01       	movw	r24, r30
    3efe:	08 95       	ret
    3f00:	46 2f       	mov	r20, r22
    3f02:	47 70       	andi	r20, 0x07	; 7
    3f04:	40 5d       	subi	r20, 0xD0	; 208
    3f06:	41 93       	st	Z+, r20
    3f08:	b3 e0       	ldi	r27, 0x03	; 3
    3f0a:	0f d0       	rcall	.+30     	; 0x3f2a <__ultoa_invert+0x86>
    3f0c:	c9 f7       	brne	.-14     	; 0x3f00 <__ultoa_invert+0x5c>
    3f0e:	f6 cf       	rjmp	.-20     	; 0x3efc <__ultoa_invert+0x58>
    3f10:	46 2f       	mov	r20, r22
    3f12:	4f 70       	andi	r20, 0x0F	; 15
    3f14:	40 5d       	subi	r20, 0xD0	; 208
    3f16:	4a 33       	cpi	r20, 0x3A	; 58
    3f18:	18 f0       	brcs	.+6      	; 0x3f20 <__ultoa_invert+0x7c>
    3f1a:	49 5d       	subi	r20, 0xD9	; 217
    3f1c:	31 fd       	sbrc	r19, 1
    3f1e:	40 52       	subi	r20, 0x20	; 32
    3f20:	41 93       	st	Z+, r20
    3f22:	02 d0       	rcall	.+4      	; 0x3f28 <__ultoa_invert+0x84>
    3f24:	a9 f7       	brne	.-22     	; 0x3f10 <__ultoa_invert+0x6c>
    3f26:	ea cf       	rjmp	.-44     	; 0x3efc <__ultoa_invert+0x58>
    3f28:	b4 e0       	ldi	r27, 0x04	; 4
    3f2a:	a6 95       	lsr	r26
    3f2c:	97 95       	ror	r25
    3f2e:	87 95       	ror	r24
    3f30:	77 95       	ror	r23
    3f32:	67 95       	ror	r22
    3f34:	ba 95       	dec	r27
    3f36:	c9 f7       	brne	.-14     	; 0x3f2a <__ultoa_invert+0x86>
    3f38:	00 97       	sbiw	r24, 0x00	; 0
    3f3a:	61 05       	cpc	r22, r1
    3f3c:	71 05       	cpc	r23, r1
    3f3e:	08 95       	ret
    3f40:	9b 01       	movw	r18, r22
    3f42:	ac 01       	movw	r20, r24
    3f44:	0a 2e       	mov	r0, r26
    3f46:	06 94       	lsr	r0
    3f48:	57 95       	ror	r21
    3f4a:	47 95       	ror	r20
    3f4c:	37 95       	ror	r19
    3f4e:	27 95       	ror	r18
    3f50:	ba 95       	dec	r27
    3f52:	c9 f7       	brne	.-14     	; 0x3f46 <__ultoa_invert+0xa2>
    3f54:	62 0f       	add	r22, r18
    3f56:	73 1f       	adc	r23, r19
    3f58:	84 1f       	adc	r24, r20
    3f5a:	95 1f       	adc	r25, r21
    3f5c:	a0 1d       	adc	r26, r0
    3f5e:	08 95       	ret

00003f60 <__do_global_dtors>:
    3f60:	11 e0       	ldi	r17, 0x01	; 1
    3f62:	cb e6       	ldi	r28, 0x6B	; 107
    3f64:	d1 e0       	ldi	r29, 0x01	; 1
    3f66:	04 c0       	rjmp	.+8      	; 0x3f70 <__do_global_dtors+0x10>
    3f68:	fe 01       	movw	r30, r28
    3f6a:	0e 94 c7 1d 	call	0x3b8e	; 0x3b8e <__tablejump2__>
    3f6e:	21 96       	adiw	r28, 0x01	; 1
    3f70:	cf 36       	cpi	r28, 0x6F	; 111
    3f72:	d1 07       	cpc	r29, r17
    3f74:	c9 f7       	brne	.-14     	; 0x3f68 <__do_global_dtors+0x8>
    3f76:	f8 94       	cli

00003f78 <__stop_program>:
    3f78:	ff cf       	rjmp	.-2      	; 0x3f78 <__stop_program>
