Archive member included to satisfy reference by file (symbol)

C:\Salukat\Purificador\SoftwareDevelopment\Atmel_Microchip\SAMD21_BSP\SAMD21_BSP\Release\libSAMD21_BSP.a(atmel_start.o)
                              main.o (atmel_start_init)
C:\Salukat\Purificador\SoftwareDevelopment\Atmel_Microchip\SAMD21_BSP\SAMD21_BSP\Release\libSAMD21_BSP.a(driver_init.o)
                              SPI_Syn_Class_ADF.o (SPI_ADF)
C:\Salukat\Purificador\SoftwareDevelopment\Atmel_Microchip\SAMD21_BSP\SAMD21_BSP\Release\libSAMD21_BSP.a(hal_atomic.o)
                              ADF5610Driver.o (atomic_enter_critical)
C:\Salukat\Purificador\SoftwareDevelopment\Atmel_Microchip\SAMD21_BSP\SAMD21_BSP\Release\libSAMD21_BSP.a(hal_dac_sync.o)
                              C:\Salukat\Purificador\SoftwareDevelopment\Atmel_Microchip\SAMD21_BSP\SAMD21_BSP\Release\libSAMD21_BSP.a(driver_init.o) (dac_sync_init)
C:\Salukat\Purificador\SoftwareDevelopment\Atmel_Microchip\SAMD21_BSP\SAMD21_BSP\Release\libSAMD21_BSP.a(hal_delay.o)
                              C:\Salukat\Purificador\SoftwareDevelopment\Atmel_Microchip\SAMD21_BSP\SAMD21_BSP\Release\libSAMD21_BSP.a(driver_init.o) (delay_init)
C:\Salukat\Purificador\SoftwareDevelopment\Atmel_Microchip\SAMD21_BSP\SAMD21_BSP\Release\libSAMD21_BSP.a(hal_ext_irq.o)
                              C:\Salukat\Purificador\SoftwareDevelopment\Atmel_Microchip\SAMD21_BSP\SAMD21_BSP\Release\libSAMD21_BSP.a(driver_init.o) (ext_irq_init)
C:\Salukat\Purificador\SoftwareDevelopment\Atmel_Microchip\SAMD21_BSP\SAMD21_BSP\Release\libSAMD21_BSP.a(hal_io.o)
                              SPI_Syn_Class_ADF.o (io_write)
C:\Salukat\Purificador\SoftwareDevelopment\Atmel_Microchip\SAMD21_BSP\SAMD21_BSP\Release\libSAMD21_BSP.a(hal_spi_m_sync.o)
                              C:\Salukat\Purificador\SoftwareDevelopment\Atmel_Microchip\SAMD21_BSP\SAMD21_BSP\Release\libSAMD21_BSP.a(driver_init.o) (spi_m_sync_init)
C:\Salukat\Purificador\SoftwareDevelopment\Atmel_Microchip\SAMD21_BSP\SAMD21_BSP\Release\libSAMD21_BSP.a(hal_timer.o)
                              C:\Salukat\Purificador\SoftwareDevelopment\Atmel_Microchip\SAMD21_BSP\SAMD21_BSP\Release\libSAMD21_BSP.a(driver_init.o) (timer_init)
C:\Salukat\Purificador\SoftwareDevelopment\Atmel_Microchip\SAMD21_BSP\SAMD21_BSP\Release\libSAMD21_BSP.a(hal_usart_async.o)
                              C:\Salukat\Purificador\SoftwareDevelopment\Atmel_Microchip\SAMD21_BSP\SAMD21_BSP\Release\libSAMD21_BSP.a(driver_init.o) (usart_async_init)
C:\Salukat\Purificador\SoftwareDevelopment\Atmel_Microchip\SAMD21_BSP\SAMD21_BSP\Release\libSAMD21_BSP.a(hal_usb_device.o)
                              C:\Salukat\Purificador\SoftwareDevelopment\Atmel_Microchip\SAMD21_BSP\SAMD21_BSP\Release\libSAMD21_BSP.a(driver_init.o) (usb_d_init)
C:\Salukat\Purificador\SoftwareDevelopment\Atmel_Microchip\SAMD21_BSP\SAMD21_BSP\Release\libSAMD21_BSP.a(utils_list.o)
                              C:\Salukat\Purificador\SoftwareDevelopment\Atmel_Microchip\SAMD21_BSP\SAMD21_BSP\Release\libSAMD21_BSP.a(hal_timer.o) (is_list_element)
C:\Salukat\Purificador\SoftwareDevelopment\Atmel_Microchip\SAMD21_BSP\SAMD21_BSP\Release\libSAMD21_BSP.a(utils_ringbuffer.o)
                              C:\Salukat\Purificador\SoftwareDevelopment\Atmel_Microchip\SAMD21_BSP\SAMD21_BSP\Release\libSAMD21_BSP.a(hal_usart_async.o) (ringbuffer_init)
C:\Salukat\Purificador\SoftwareDevelopment\Atmel_Microchip\SAMD21_BSP\SAMD21_BSP\Release\libSAMD21_BSP.a(hpl_core_m0plus_base.o)
                              C:\Salukat\Purificador\SoftwareDevelopment\Atmel_Microchip\SAMD21_BSP\SAMD21_BSP\Release\libSAMD21_BSP.a(hal_delay.o) (_get_cycles_for_us)
C:\Salukat\Purificador\SoftwareDevelopment\Atmel_Microchip\SAMD21_BSP\SAMD21_BSP\Release\libSAMD21_BSP.a(hpl_init.o)
                              C:\Salukat\Purificador\SoftwareDevelopment\Atmel_Microchip\SAMD21_BSP\SAMD21_BSP\Release\libSAMD21_BSP.a(driver_init.o) (_init_chip)
C:\Salukat\Purificador\SoftwareDevelopment\Atmel_Microchip\SAMD21_BSP\SAMD21_BSP\Release\libSAMD21_BSP.a(hpl_dac.o)
                              C:\Salukat\Purificador\SoftwareDevelopment\Atmel_Microchip\SAMD21_BSP\SAMD21_BSP\Release\libSAMD21_BSP.a(hal_dac_sync.o) (_dac_sync_init)
C:\Salukat\Purificador\SoftwareDevelopment\Atmel_Microchip\SAMD21_BSP\SAMD21_BSP\Release\libSAMD21_BSP.a(hpl_eic.o)
                              C:\Salukat\Purificador\SoftwareDevelopment\Atmel_Microchip\SAMD21_BSP\SAMD21_BSP\Release\libSAMD21_BSP.a(hal_ext_irq.o) (_ext_irq_init)
C:\Salukat\Purificador\SoftwareDevelopment\Atmel_Microchip\SAMD21_BSP\SAMD21_BSP\Release\libSAMD21_BSP.a(hpl_gclk.o)
                              C:\Salukat\Purificador\SoftwareDevelopment\Atmel_Microchip\SAMD21_BSP\SAMD21_BSP\Release\libSAMD21_BSP.a(hpl_init.o) (_gclk_init_generators_by_fref)
C:\Salukat\Purificador\SoftwareDevelopment\Atmel_Microchip\SAMD21_BSP\SAMD21_BSP\Release\libSAMD21_BSP.a(hpl_pm.o)
                              C:\Salukat\Purificador\SoftwareDevelopment\Atmel_Microchip\SAMD21_BSP\SAMD21_BSP\Release\libSAMD21_BSP.a(hpl_init.o) (_pm_init)
C:\Salukat\Purificador\SoftwareDevelopment\Atmel_Microchip\SAMD21_BSP\SAMD21_BSP\Release\libSAMD21_BSP.a(hpl_sercom.o)
                              C:\Salukat\Purificador\SoftwareDevelopment\Atmel_Microchip\SAMD21_BSP\SAMD21_BSP\Release\libSAMD21_BSP.a(hal_usart_async.o) (_usart_async_init)
C:\Salukat\Purificador\SoftwareDevelopment\Atmel_Microchip\SAMD21_BSP\SAMD21_BSP\Release\libSAMD21_BSP.a(hpl_sysctrl.o)
                              C:\Salukat\Purificador\SoftwareDevelopment\Atmel_Microchip\SAMD21_BSP\SAMD21_BSP\Release\libSAMD21_BSP.a(hpl_init.o) (_sysctrl_init_sources)
C:\Salukat\Purificador\SoftwareDevelopment\Atmel_Microchip\SAMD21_BSP\SAMD21_BSP\Release\libSAMD21_BSP.a(hpl_systick.o)
                              C:\Salukat\Purificador\SoftwareDevelopment\Atmel_Microchip\SAMD21_BSP\SAMD21_BSP\Release\libSAMD21_BSP.a(hal_delay.o) (_delay_init)
C:\Salukat\Purificador\SoftwareDevelopment\Atmel_Microchip\SAMD21_BSP\SAMD21_BSP\Release\libSAMD21_BSP.a(hpl_tc.o)
                              C:\Salukat\Purificador\SoftwareDevelopment\Atmel_Microchip\SAMD21_BSP\SAMD21_BSP\Release\libSAMD21_BSP.a(hal_timer.o) (_timer_init)
C:\Salukat\Purificador\SoftwareDevelopment\Atmel_Microchip\SAMD21_BSP\SAMD21_BSP\Release\libSAMD21_BSP.a(hpl_usb.o)
                              C:\Salukat\Purificador\SoftwareDevelopment\Atmel_Microchip\SAMD21_BSP\SAMD21_BSP\Release\libSAMD21_BSP.a(hal_usb_device.o) (_usb_d_dev_init)
C:\Salukat\Purificador\SoftwareDevelopment\Atmel_Microchip\SAMD21_BSP\SAMD21_BSP\Release\libSAMD21_BSP.a(usb_start.o)
                              C:\Salukat\Purificador\SoftwareDevelopment\Atmel_Microchip\SAMD21_BSP\SAMD21_BSP\Release\libSAMD21_BSP.a(atmel_start.o) (usb_init)
C:\Salukat\Purificador\SoftwareDevelopment\Atmel_Microchip\SAMD21_BSP\SAMD21_BSP\Release\libSAMD21_BSP.a(cdcdf_acm.o)
                              C:\Salukat\Purificador\SoftwareDevelopment\Atmel_Microchip\SAMD21_BSP\SAMD21_BSP\Release\libSAMD21_BSP.a(usb_start.o) (cdcdf_acm_init)
C:\Salukat\Purificador\SoftwareDevelopment\Atmel_Microchip\SAMD21_BSP\SAMD21_BSP\Release\libSAMD21_BSP.a(usbdc.o)
                              C:\Salukat\Purificador\SoftwareDevelopment\Atmel_Microchip\SAMD21_BSP\SAMD21_BSP\Release\libSAMD21_BSP.a(cdcdf_acm.o) (usbdc_xfer)
C:\Salukat\Purificador\SoftwareDevelopment\Atmel_Microchip\SAMD21_BSP\SAMD21_BSP\Release\libSAMD21_BSP.a(usb_protocol.o)
                              C:\Salukat\Purificador\SoftwareDevelopment\Atmel_Microchip\SAMD21_BSP\SAMD21_BSP\Release\libSAMD21_BSP.a(cdcdf_acm.o) (usb_find_desc)
c:/program files (x86)/atmel/studio/7.0/toolchain/arm/arm-gnu-toolchain/bin/../lib/gcc/arm-none-eabi/6.3.1/../../../../arm-none-eabi/lib/thumb/v6-m\libstdc++.a(atexit_arm.o)
                              ADF5610Driver.o (__aeabi_atexit)
c:/program files (x86)/atmel/studio/7.0/toolchain/arm/arm-gnu-toolchain/bin/../lib/gcc/arm-none-eabi/6.3.1/../../../../arm-none-eabi/lib/thumb/v6-m\libm.a(lib_a-s_floor.o)
                              ADF5610Driver.o (floor)
c:/program files (x86)/atmel/studio/7.0/toolchain/arm/arm-gnu-toolchain/bin/../lib/gcc/arm-none-eabi/6.3.1/../../../../arm-none-eabi/lib/thumb/v6-m\libm.a(lib_a-w_log.o)
                              ADF5610Driver.o (log)
c:/program files (x86)/atmel/studio/7.0/toolchain/arm/arm-gnu-toolchain/bin/../lib/gcc/arm-none-eabi/6.3.1/../../../../arm-none-eabi/lib/thumb/v6-m\libm.a(lib_a-w_pow.o)
                              ADF5610Driver.o (pow)
c:/program files (x86)/atmel/studio/7.0/toolchain/arm/arm-gnu-toolchain/bin/../lib/gcc/arm-none-eabi/6.3.1/../../../../arm-none-eabi/lib/thumb/v6-m\libm.a(lib_a-e_log.o)
                              c:/program files (x86)/atmel/studio/7.0/toolchain/arm/arm-gnu-toolchain/bin/../lib/gcc/arm-none-eabi/6.3.1/../../../../arm-none-eabi/lib/thumb/v6-m\libm.a(lib_a-w_log.o) (__ieee754_log)
c:/program files (x86)/atmel/studio/7.0/toolchain/arm/arm-gnu-toolchain/bin/../lib/gcc/arm-none-eabi/6.3.1/../../../../arm-none-eabi/lib/thumb/v6-m\libm.a(lib_a-e_pow.o)
                              c:/program files (x86)/atmel/studio/7.0/toolchain/arm/arm-gnu-toolchain/bin/../lib/gcc/arm-none-eabi/6.3.1/../../../../arm-none-eabi/lib/thumb/v6-m\libm.a(lib_a-w_pow.o) (__ieee754_pow)
c:/program files (x86)/atmel/studio/7.0/toolchain/arm/arm-gnu-toolchain/bin/../lib/gcc/arm-none-eabi/6.3.1/../../../../arm-none-eabi/lib/thumb/v6-m\libm.a(lib_a-e_sqrt.o)
                              c:/program files (x86)/atmel/studio/7.0/toolchain/arm/arm-gnu-toolchain/bin/../lib/gcc/arm-none-eabi/6.3.1/../../../../arm-none-eabi/lib/thumb/v6-m\libm.a(lib_a-e_pow.o) (__ieee754_sqrt)
c:/program files (x86)/atmel/studio/7.0/toolchain/arm/arm-gnu-toolchain/bin/../lib/gcc/arm-none-eabi/6.3.1/../../../../arm-none-eabi/lib/thumb/v6-m\libm.a(lib_a-s_fabs.o)
                              c:/program files (x86)/atmel/studio/7.0/toolchain/arm/arm-gnu-toolchain/bin/../lib/gcc/arm-none-eabi/6.3.1/../../../../arm-none-eabi/lib/thumb/v6-m\libm.a(lib_a-e_pow.o) (fabs)
c:/program files (x86)/atmel/studio/7.0/toolchain/arm/arm-gnu-toolchain/bin/../lib/gcc/arm-none-eabi/6.3.1/../../../../arm-none-eabi/lib/thumb/v6-m\libm.a(lib_a-s_finite.o)
                              c:/program files (x86)/atmel/studio/7.0/toolchain/arm/arm-gnu-toolchain/bin/../lib/gcc/arm-none-eabi/6.3.1/../../../../arm-none-eabi/lib/thumb/v6-m\libm.a(lib_a-w_pow.o) (finite)
c:/program files (x86)/atmel/studio/7.0/toolchain/arm/arm-gnu-toolchain/bin/../lib/gcc/arm-none-eabi/6.3.1/../../../../arm-none-eabi/lib/thumb/v6-m\libm.a(lib_a-s_lib_ver.o)
                              c:/program files (x86)/atmel/studio/7.0/toolchain/arm/arm-gnu-toolchain/bin/../lib/gcc/arm-none-eabi/6.3.1/../../../../arm-none-eabi/lib/thumb/v6-m\libm.a(lib_a-w_log.o) (__fdlib_version)
c:/program files (x86)/atmel/studio/7.0/toolchain/arm/arm-gnu-toolchain/bin/../lib/gcc/arm-none-eabi/6.3.1/../../../../arm-none-eabi/lib/thumb/v6-m\libm.a(lib_a-s_matherr.o)
                              c:/program files (x86)/atmel/studio/7.0/toolchain/arm/arm-gnu-toolchain/bin/../lib/gcc/arm-none-eabi/6.3.1/../../../../arm-none-eabi/lib/thumb/v6-m\libm.a(lib_a-w_log.o) (matherr)
c:/program files (x86)/atmel/studio/7.0/toolchain/arm/arm-gnu-toolchain/bin/../lib/gcc/arm-none-eabi/6.3.1/../../../../arm-none-eabi/lib/thumb/v6-m\libm.a(lib_a-s_nan.o)
                              c:/program files (x86)/atmel/studio/7.0/toolchain/arm/arm-gnu-toolchain/bin/../lib/gcc/arm-none-eabi/6.3.1/../../../../arm-none-eabi/lib/thumb/v6-m\libm.a(lib_a-w_log.o) (nan)
c:/program files (x86)/atmel/studio/7.0/toolchain/arm/arm-gnu-toolchain/bin/../lib/gcc/arm-none-eabi/6.3.1/../../../../arm-none-eabi/lib/thumb/v6-m\libm.a(lib_a-s_rint.o)
                              c:/program files (x86)/atmel/studio/7.0/toolchain/arm/arm-gnu-toolchain/bin/../lib/gcc/arm-none-eabi/6.3.1/../../../../arm-none-eabi/lib/thumb/v6-m\libm.a(lib_a-w_pow.o) (rint)
c:/program files (x86)/atmel/studio/7.0/toolchain/arm/arm-gnu-toolchain/bin/../lib/gcc/arm-none-eabi/6.3.1/../../../../arm-none-eabi/lib/thumb/v6-m\libm.a(lib_a-s_scalbn.o)
                              c:/program files (x86)/atmel/studio/7.0/toolchain/arm/arm-gnu-toolchain/bin/../lib/gcc/arm-none-eabi/6.3.1/../../../../arm-none-eabi/lib/thumb/v6-m\libm.a(lib_a-e_pow.o) (scalbn)
c:/program files (x86)/atmel/studio/7.0/toolchain/arm/arm-gnu-toolchain/bin/../lib/gcc/arm-none-eabi/6.3.1/../../../../arm-none-eabi/lib/thumb/v6-m\libm.a(lib_a-s_copysign.o)
                              c:/program files (x86)/atmel/studio/7.0/toolchain/arm/arm-gnu-toolchain/bin/../lib/gcc/arm-none-eabi/6.3.1/../../../../arm-none-eabi/lib/thumb/v6-m\libm.a(lib_a-s_scalbn.o) (copysign)
c:/program files (x86)/atmel/studio/7.0/toolchain/arm/arm-gnu-toolchain/bin/../lib/gcc/arm-none-eabi/6.3.1/thumb/v6-m\libgcc.a(_thumb1_case_sqi.o)
                              C:\Salukat\Purificador\SoftwareDevelopment\Atmel_Microchip\SAMD21_BSP\SAMD21_BSP\Release\libSAMD21_BSP.a(usbdc.o) (__gnu_thumb1_case_sqi)
c:/program files (x86)/atmel/studio/7.0/toolchain/arm/arm-gnu-toolchain/bin/../lib/gcc/arm-none-eabi/6.3.1/thumb/v6-m\libgcc.a(_thumb1_case_uqi.o)
                              C:\Salukat\Purificador\SoftwareDevelopment\Atmel_Microchip\SAMD21_BSP\SAMD21_BSP\Release\libSAMD21_BSP.a(hal_usb_device.o) (__gnu_thumb1_case_uqi)
c:/program files (x86)/atmel/studio/7.0/toolchain/arm/arm-gnu-toolchain/bin/../lib/gcc/arm-none-eabi/6.3.1/thumb/v6-m\libgcc.a(_thumb1_case_shi.o)
                              C:\Salukat\Purificador\SoftwareDevelopment\Atmel_Microchip\SAMD21_BSP\SAMD21_BSP\Release\libSAMD21_BSP.a(usbdc.o) (__gnu_thumb1_case_shi)
c:/program files (x86)/atmel/studio/7.0/toolchain/arm/arm-gnu-toolchain/bin/../lib/gcc/arm-none-eabi/6.3.1/thumb/v6-m\libgcc.a(_udivsi3.o)
                              C:\Salukat\Purificador\SoftwareDevelopment\Atmel_Microchip\SAMD21_BSP\SAMD21_BSP\Release\libSAMD21_BSP.a(hpl_core_m0plus_base.o) (__aeabi_uidiv)
c:/program files (x86)/atmel/studio/7.0/toolchain/arm/arm-gnu-toolchain/bin/../lib/gcc/arm-none-eabi/6.3.1/thumb/v6-m\libgcc.a(_divsi3.o)
                              ADF5610Driver.o (__aeabi_idiv)
c:/program files (x86)/atmel/studio/7.0/toolchain/arm/arm-gnu-toolchain/bin/../lib/gcc/arm-none-eabi/6.3.1/thumb/v6-m\libgcc.a(_dvmd_tls.o)
                              c:/program files (x86)/atmel/studio/7.0/toolchain/arm/arm-gnu-toolchain/bin/../lib/gcc/arm-none-eabi/6.3.1/thumb/v6-m\libgcc.a(_udivsi3.o) (__aeabi_idiv0)
c:/program files (x86)/atmel/studio/7.0/toolchain/arm/arm-gnu-toolchain/bin/../lib/gcc/arm-none-eabi/6.3.1/thumb/v6-m\libgcc.a(_arm_cmpdf2.o)
                              c:/program files (x86)/atmel/studio/7.0/toolchain/arm/arm-gnu-toolchain/bin/../lib/gcc/arm-none-eabi/6.3.1/../../../../arm-none-eabi/lib/thumb/v6-m\libm.a(lib_a-w_log.o) (__aeabi_dcmpeq)
c:/program files (x86)/atmel/studio/7.0/toolchain/arm/arm-gnu-toolchain/bin/../lib/gcc/arm-none-eabi/6.3.1/thumb/v6-m\libgcc.a(_arm_cmpsf2.o)
                              ADF5610Driver.o (__aeabi_fcmplt)
c:/program files (x86)/atmel/studio/7.0/toolchain/arm/arm-gnu-toolchain/bin/../lib/gcc/arm-none-eabi/6.3.1/thumb/v6-m\libgcc.a(_aeabi_uldivmod.o)
                              C:\Salukat\Purificador\SoftwareDevelopment\Atmel_Microchip\SAMD21_BSP\SAMD21_BSP\Release\libSAMD21_BSP.a(hpl_sercom.o) (__aeabi_uldivmod)
c:/program files (x86)/atmel/studio/7.0/toolchain/arm/arm-gnu-toolchain/bin/../lib/gcc/arm-none-eabi/6.3.1/thumb/v6-m\libgcc.a(_muldi3.o)
                              C:\Salukat\Purificador\SoftwareDevelopment\Atmel_Microchip\SAMD21_BSP\SAMD21_BSP\Release\libSAMD21_BSP.a(hpl_sercom.o) (__aeabi_lmul)
c:/program files (x86)/atmel/studio/7.0/toolchain/arm/arm-gnu-toolchain/bin/../lib/gcc/arm-none-eabi/6.3.1/thumb/v6-m\libgcc.a(_ffssi2.o)
                              C:\Salukat\Purificador\SoftwareDevelopment\Atmel_Microchip\SAMD21_BSP\SAMD21_BSP\Release\libSAMD21_BSP.a(hpl_eic.o) (__ffssi2)
c:/program files (x86)/atmel/studio/7.0/toolchain/arm/arm-gnu-toolchain/bin/../lib/gcc/arm-none-eabi/6.3.1/thumb/v6-m\libgcc.a(_fixunsdfsi.o)
                              ADF5610Driver.o (__aeabi_d2uiz)
c:/program files (x86)/atmel/studio/7.0/toolchain/arm/arm-gnu-toolchain/bin/../lib/gcc/arm-none-eabi/6.3.1/thumb/v6-m\libgcc.a(_udivmoddi4.o)
                              c:/program files (x86)/atmel/studio/7.0/toolchain/arm/arm-gnu-toolchain/bin/../lib/gcc/arm-none-eabi/6.3.1/thumb/v6-m\libgcc.a(_aeabi_uldivmod.o) (__udivmoddi4)
c:/program files (x86)/atmel/studio/7.0/toolchain/arm/arm-gnu-toolchain/bin/../lib/gcc/arm-none-eabi/6.3.1/thumb/v6-m\libgcc.a(addsf3.o)
                              ADF5610Driver.o (__aeabi_fadd)
c:/program files (x86)/atmel/studio/7.0/toolchain/arm/arm-gnu-toolchain/bin/../lib/gcc/arm-none-eabi/6.3.1/thumb/v6-m\libgcc.a(eqsf2.o)
                              c:/program files (x86)/atmel/studio/7.0/toolchain/arm/arm-gnu-toolchain/bin/../lib/gcc/arm-none-eabi/6.3.1/thumb/v6-m\libgcc.a(_arm_cmpsf2.o) (__eqsf2)
c:/program files (x86)/atmel/studio/7.0/toolchain/arm/arm-gnu-toolchain/bin/../lib/gcc/arm-none-eabi/6.3.1/thumb/v6-m\libgcc.a(gesf2.o)
                              c:/program files (x86)/atmel/studio/7.0/toolchain/arm/arm-gnu-toolchain/bin/../lib/gcc/arm-none-eabi/6.3.1/thumb/v6-m\libgcc.a(_arm_cmpsf2.o) (__gesf2)
c:/program files (x86)/atmel/studio/7.0/toolchain/arm/arm-gnu-toolchain/bin/../lib/gcc/arm-none-eabi/6.3.1/thumb/v6-m\libgcc.a(lesf2.o)
                              c:/program files (x86)/atmel/studio/7.0/toolchain/arm/arm-gnu-toolchain/bin/../lib/gcc/arm-none-eabi/6.3.1/thumb/v6-m\libgcc.a(_arm_cmpsf2.o) (__lesf2)
c:/program files (x86)/atmel/studio/7.0/toolchain/arm/arm-gnu-toolchain/bin/../lib/gcc/arm-none-eabi/6.3.1/thumb/v6-m\libgcc.a(mulsf3.o)
                              ADF5610Driver.o (__aeabi_fmul)
c:/program files (x86)/atmel/studio/7.0/toolchain/arm/arm-gnu-toolchain/bin/../lib/gcc/arm-none-eabi/6.3.1/thumb/v6-m\libgcc.a(subsf3.o)
                              ADF5610Driver.o (__aeabi_fsub)
c:/program files (x86)/atmel/studio/7.0/toolchain/arm/arm-gnu-toolchain/bin/../lib/gcc/arm-none-eabi/6.3.1/thumb/v6-m\libgcc.a(floatsisf.o)
                              ADF5610Driver.o (__aeabi_i2f)
c:/program files (x86)/atmel/studio/7.0/toolchain/arm/arm-gnu-toolchain/bin/../lib/gcc/arm-none-eabi/6.3.1/thumb/v6-m\libgcc.a(adddf3.o)
                              c:/program files (x86)/atmel/studio/7.0/toolchain/arm/arm-gnu-toolchain/bin/../lib/gcc/arm-none-eabi/6.3.1/../../../../arm-none-eabi/lib/thumb/v6-m\libm.a(lib_a-s_floor.o) (__aeabi_dadd)
c:/program files (x86)/atmel/studio/7.0/toolchain/arm/arm-gnu-toolchain/bin/../lib/gcc/arm-none-eabi/6.3.1/thumb/v6-m\libgcc.a(divdf3.o)
                              ADF5610Driver.o (__aeabi_ddiv)
c:/program files (x86)/atmel/studio/7.0/toolchain/arm/arm-gnu-toolchain/bin/../lib/gcc/arm-none-eabi/6.3.1/thumb/v6-m\libgcc.a(eqdf2.o)
                              c:/program files (x86)/atmel/studio/7.0/toolchain/arm/arm-gnu-toolchain/bin/../lib/gcc/arm-none-eabi/6.3.1/thumb/v6-m\libgcc.a(_arm_cmpdf2.o) (__eqdf2)
c:/program files (x86)/atmel/studio/7.0/toolchain/arm/arm-gnu-toolchain/bin/../lib/gcc/arm-none-eabi/6.3.1/thumb/v6-m\libgcc.a(gedf2.o)
                              c:/program files (x86)/atmel/studio/7.0/toolchain/arm/arm-gnu-toolchain/bin/../lib/gcc/arm-none-eabi/6.3.1/thumb/v6-m\libgcc.a(_arm_cmpdf2.o) (__gedf2)
c:/program files (x86)/atmel/studio/7.0/toolchain/arm/arm-gnu-toolchain/bin/../lib/gcc/arm-none-eabi/6.3.1/thumb/v6-m\libgcc.a(ledf2.o)
                              c:/program files (x86)/atmel/studio/7.0/toolchain/arm/arm-gnu-toolchain/bin/../lib/gcc/arm-none-eabi/6.3.1/thumb/v6-m\libgcc.a(_arm_cmpdf2.o) (__ledf2)
c:/program files (x86)/atmel/studio/7.0/toolchain/arm/arm-gnu-toolchain/bin/../lib/gcc/arm-none-eabi/6.3.1/thumb/v6-m\libgcc.a(muldf3.o)
                              ADF5610Driver.o (__aeabi_dmul)
c:/program files (x86)/atmel/studio/7.0/toolchain/arm/arm-gnu-toolchain/bin/../lib/gcc/arm-none-eabi/6.3.1/thumb/v6-m\libgcc.a(subdf3.o)
                              ADF5610Driver.o (__aeabi_dsub)
c:/program files (x86)/atmel/studio/7.0/toolchain/arm/arm-gnu-toolchain/bin/../lib/gcc/arm-none-eabi/6.3.1/thumb/v6-m\libgcc.a(unorddf2.o)
                              c:/program files (x86)/atmel/studio/7.0/toolchain/arm/arm-gnu-toolchain/bin/../lib/gcc/arm-none-eabi/6.3.1/../../../../arm-none-eabi/lib/thumb/v6-m\libm.a(lib_a-w_log.o) (__aeabi_dcmpun)
c:/program files (x86)/atmel/studio/7.0/toolchain/arm/arm-gnu-toolchain/bin/../lib/gcc/arm-none-eabi/6.3.1/thumb/v6-m\libgcc.a(fixdfsi.o)
                              ADF5610Driver.o (__aeabi_d2iz)
c:/program files (x86)/atmel/studio/7.0/toolchain/arm/arm-gnu-toolchain/bin/../lib/gcc/arm-none-eabi/6.3.1/thumb/v6-m\libgcc.a(floatsidf.o)
                              ADF5610Driver.o (__aeabi_i2d)
c:/program files (x86)/atmel/studio/7.0/toolchain/arm/arm-gnu-toolchain/bin/../lib/gcc/arm-none-eabi/6.3.1/thumb/v6-m\libgcc.a(floatunsidf.o)
                              C:\Salukat\Purificador\SoftwareDevelopment\Atmel_Microchip\SAMD21_BSP\SAMD21_BSP\Release\libSAMD21_BSP.a(hpl_sercom.o) (__aeabi_ui2d)
c:/program files (x86)/atmel/studio/7.0/toolchain/arm/arm-gnu-toolchain/bin/../lib/gcc/arm-none-eabi/6.3.1/thumb/v6-m\libgcc.a(extendsfdf2.o)
                              ADF5610Driver.o (__aeabi_f2d)
c:/program files (x86)/atmel/studio/7.0/toolchain/arm/arm-gnu-toolchain/bin/../lib/gcc/arm-none-eabi/6.3.1/thumb/v6-m\libgcc.a(_clzsi2.o)
                              c:/program files (x86)/atmel/studio/7.0/toolchain/arm/arm-gnu-toolchain/bin/../lib/gcc/arm-none-eabi/6.3.1/thumb/v6-m\libgcc.a(addsf3.o) (__clzsi2)
c:/program files (x86)/atmel/studio/7.0/toolchain/arm/arm-gnu-toolchain/bin/../lib/gcc/arm-none-eabi/6.3.1/thumb/v6-m\libgcc.a(_clzdi2.o)
                              c:/program files (x86)/atmel/studio/7.0/toolchain/arm/arm-gnu-toolchain/bin/../lib/gcc/arm-none-eabi/6.3.1/thumb/v6-m\libgcc.a(_udivmoddi4.o) (__clzdi2)
c:/program files (x86)/atmel/studio/7.0/toolchain/arm/arm-gnu-toolchain/bin/../lib/gcc/arm-none-eabi/6.3.1/thumb/v6-m\libgcc.a(_ctzsi2.o)
                              c:/program files (x86)/atmel/studio/7.0/toolchain/arm/arm-gnu-toolchain/bin/../lib/gcc/arm-none-eabi/6.3.1/thumb/v6-m\libgcc.a(_ffssi2.o) (__ctzsi2)
c:/program files (x86)/atmel/studio/7.0/toolchain/arm/arm-gnu-toolchain/bin/../lib/gcc/arm-none-eabi/6.3.1/../../../../arm-none-eabi/lib/thumb/v6-m\libc.a(lib_a-cxa_atexit.o)
                              c:/program files (x86)/atmel/studio/7.0/toolchain/arm/arm-gnu-toolchain/bin/../lib/gcc/arm-none-eabi/6.3.1/../../../../arm-none-eabi/lib/thumb/v6-m\libstdc++.a(atexit_arm.o) (__cxa_atexit)
c:/program files (x86)/atmel/studio/7.0/toolchain/arm/arm-gnu-toolchain/bin/../lib/gcc/arm-none-eabi/6.3.1/../../../../arm-none-eabi/lib/thumb/v6-m\libc.a(lib_a-errno.o)
                              c:/program files (x86)/atmel/studio/7.0/toolchain/arm/arm-gnu-toolchain/bin/../lib/gcc/arm-none-eabi/6.3.1/../../../../arm-none-eabi/lib/thumb/v6-m\libm.a(lib_a-w_log.o) (__errno)
c:/program files (x86)/atmel/studio/7.0/toolchain/arm/arm-gnu-toolchain/bin/../lib/gcc/arm-none-eabi/6.3.1/../../../../arm-none-eabi/lib/thumb/v6-m\libc.a(lib_a-exit.o)
                              c:/program files (x86)/atmel/studio/7.0/toolchain/arm/arm-gnu-toolchain/bin/../lib/gcc/arm-none-eabi/6.3.1/../../../../arm-none-eabi/lib/thumb/v6-m/crt0.o (exit)
c:/program files (x86)/atmel/studio/7.0/toolchain/arm/arm-gnu-toolchain/bin/../lib/gcc/arm-none-eabi/6.3.1/../../../../arm-none-eabi/lib/thumb/v6-m\libc.a(lib_a-impure.o)
                              c:/program files (x86)/atmel/studio/7.0/toolchain/arm/arm-gnu-toolchain/bin/../lib/gcc/arm-none-eabi/6.3.1/../../../../arm-none-eabi/lib/thumb/v6-m\libc.a(lib_a-exit.o) (_global_impure_ptr)
c:/program files (x86)/atmel/studio/7.0/toolchain/arm/arm-gnu-toolchain/bin/../lib/gcc/arm-none-eabi/6.3.1/../../../../arm-none-eabi/lib/thumb/v6-m\libc.a(lib_a-init.o)
                              c:/program files (x86)/atmel/studio/7.0/toolchain/arm/arm-gnu-toolchain/bin/../lib/gcc/arm-none-eabi/6.3.1/../../../../arm-none-eabi/lib/thumb/v6-m/crt0.o (__libc_init_array)
c:/program files (x86)/atmel/studio/7.0/toolchain/arm/arm-gnu-toolchain/bin/../lib/gcc/arm-none-eabi/6.3.1/../../../../arm-none-eabi/lib/thumb/v6-m\libc.a(lib_a-memcpy-stub.o)
                              C:\Salukat\Purificador\SoftwareDevelopment\Atmel_Microchip\SAMD21_BSP\SAMD21_BSP\Release\libSAMD21_BSP.a(hpl_usb.o) (memcpy)
c:/program files (x86)/atmel/studio/7.0/toolchain/arm/arm-gnu-toolchain/bin/../lib/gcc/arm-none-eabi/6.3.1/../../../../arm-none-eabi/lib/thumb/v6-m\libc.a(lib_a-memset.o)
                              c:/program files (x86)/atmel/studio/7.0/toolchain/arm/arm-gnu-toolchain/bin/../lib/gcc/arm-none-eabi/6.3.1/../../../../arm-none-eabi/lib/thumb/v6-m/crt0.o (memset)
c:/program files (x86)/atmel/studio/7.0/toolchain/arm/arm-gnu-toolchain/bin/../lib/gcc/arm-none-eabi/6.3.1/../../../../arm-none-eabi/lib/thumb/v6-m\libc.a(lib_a-printf.o)
                              ADF5610Driver.o (printf)
c:/program files (x86)/atmel/studio/7.0/toolchain/arm/arm-gnu-toolchain/bin/../lib/gcc/arm-none-eabi/6.3.1/../../../../arm-none-eabi/lib/thumb/v6-m\libc.a(lib_a-puts.o)
                              ADF5610Driver.o (puts)
c:/program files (x86)/atmel/studio/7.0/toolchain/arm/arm-gnu-toolchain/bin/../lib/gcc/arm-none-eabi/6.3.1/../../../../arm-none-eabi/lib/thumb/v6-m\libc.a(lib_a-strlen-stub.o)
                              c:/program files (x86)/atmel/studio/7.0/toolchain/arm/arm-gnu-toolchain/bin/../lib/gcc/arm-none-eabi/6.3.1/../../../../arm-none-eabi/lib/thumb/v6-m\libc.a(lib_a-puts.o) (strlen)
c:/program files (x86)/atmel/studio/7.0/toolchain/arm/arm-gnu-toolchain/bin/../lib/gcc/arm-none-eabi/6.3.1/../../../../arm-none-eabi/lib/thumb/v6-m\libc.a(lib_a-vfprintf.o)
                              c:/program files (x86)/atmel/studio/7.0/toolchain/arm/arm-gnu-toolchain/bin/../lib/gcc/arm-none-eabi/6.3.1/../../../../arm-none-eabi/lib/thumb/v6-m\libc.a(lib_a-printf.o) (_vfprintf_r)
c:/program files (x86)/atmel/studio/7.0/toolchain/arm/arm-gnu-toolchain/bin/../lib/gcc/arm-none-eabi/6.3.1/../../../../arm-none-eabi/lib/thumb/v6-m\libc.a(lib_a-wsetup.o)
                              c:/program files (x86)/atmel/studio/7.0/toolchain/arm/arm-gnu-toolchain/bin/../lib/gcc/arm-none-eabi/6.3.1/../../../../arm-none-eabi/lib/thumb/v6-m\libc.a(lib_a-vfprintf.o) (__swsetup_r)
c:/program files (x86)/atmel/studio/7.0/toolchain/arm/arm-gnu-toolchain/bin/../lib/gcc/arm-none-eabi/6.3.1/../../../../arm-none-eabi/lib/thumb/v6-m\libc.a(lib_a-__atexit.o)
                              c:/program files (x86)/atmel/studio/7.0/toolchain/arm/arm-gnu-toolchain/bin/../lib/gcc/arm-none-eabi/6.3.1/../../../../arm-none-eabi/lib/thumb/v6-m\libc.a(lib_a-cxa_atexit.o) (__register_exitproc)
c:/program files (x86)/atmel/studio/7.0/toolchain/arm/arm-gnu-toolchain/bin/../lib/gcc/arm-none-eabi/6.3.1/../../../../arm-none-eabi/lib/thumb/v6-m\libc.a(lib_a-__call_atexit.o)
                              c:/program files (x86)/atmel/studio/7.0/toolchain/arm/arm-gnu-toolchain/bin/../lib/gcc/arm-none-eabi/6.3.1/../../../../arm-none-eabi/lib/thumb/v6-m\libc.a(lib_a-exit.o) (__call_exitprocs)
c:/program files (x86)/atmel/studio/7.0/toolchain/arm/arm-gnu-toolchain/bin/../lib/gcc/arm-none-eabi/6.3.1/../../../../arm-none-eabi/lib/thumb/v6-m\libc.a(lib_a-atexit.o)
                              c:/program files (x86)/atmel/studio/7.0/toolchain/arm/arm-gnu-toolchain/bin/../lib/gcc/arm-none-eabi/6.3.1/../../../../arm-none-eabi/lib/thumb/v6-m\libc.a(lib_a-__call_atexit.o) (atexit)
c:/program files (x86)/atmel/studio/7.0/toolchain/arm/arm-gnu-toolchain/bin/../lib/gcc/arm-none-eabi/6.3.1/../../../../arm-none-eabi/lib/thumb/v6-m\libc.a(lib_a-dtoa.o)
                              c:/program files (x86)/atmel/studio/7.0/toolchain/arm/arm-gnu-toolchain/bin/../lib/gcc/arm-none-eabi/6.3.1/../../../../arm-none-eabi/lib/thumb/v6-m\libc.a(lib_a-vfprintf.o) (_dtoa_r)
c:/program files (x86)/atmel/studio/7.0/toolchain/arm/arm-gnu-toolchain/bin/../lib/gcc/arm-none-eabi/6.3.1/../../../../arm-none-eabi/lib/thumb/v6-m\libc.a(lib_a-fflush.o)
                              c:/program files (x86)/atmel/studio/7.0/toolchain/arm/arm-gnu-toolchain/bin/../lib/gcc/arm-none-eabi/6.3.1/../../../../arm-none-eabi/lib/thumb/v6-m\libc.a(lib_a-vfprintf.o) (_fflush_r)
c:/program files (x86)/atmel/studio/7.0/toolchain/arm/arm-gnu-toolchain/bin/../lib/gcc/arm-none-eabi/6.3.1/../../../../arm-none-eabi/lib/thumb/v6-m\libc.a(lib_a-findfp.o)
                              c:/program files (x86)/atmel/studio/7.0/toolchain/arm/arm-gnu-toolchain/bin/../lib/gcc/arm-none-eabi/6.3.1/../../../../arm-none-eabi/lib/thumb/v6-m\libc.a(lib_a-puts.o) (__sinit)
c:/program files (x86)/atmel/studio/7.0/toolchain/arm/arm-gnu-toolchain/bin/../lib/gcc/arm-none-eabi/6.3.1/../../../../arm-none-eabi/lib/thumb/v6-m\libc.a(lib_a-fini.o)
                              c:/program files (x86)/atmel/studio/7.0/toolchain/arm/arm-gnu-toolchain/bin/../lib/gcc/arm-none-eabi/6.3.1/../../../../arm-none-eabi/lib/thumb/v6-m\libc.a(lib_a-__call_atexit.o) (__libc_fini_array)
c:/program files (x86)/atmel/studio/7.0/toolchain/arm/arm-gnu-toolchain/bin/../lib/gcc/arm-none-eabi/6.3.1/../../../../arm-none-eabi/lib/thumb/v6-m\libc.a(lib_a-freer.o)
                              c:/program files (x86)/atmel/studio/7.0/toolchain/arm/arm-gnu-toolchain/bin/../lib/gcc/arm-none-eabi/6.3.1/../../../../arm-none-eabi/lib/thumb/v6-m\libc.a(lib_a-wsetup.o) (_free_r)
c:/program files (x86)/atmel/studio/7.0/toolchain/arm/arm-gnu-toolchain/bin/../lib/gcc/arm-none-eabi/6.3.1/../../../../arm-none-eabi/lib/thumb/v6-m\libc.a(lib_a-fvwrite.o)
                              c:/program files (x86)/atmel/studio/7.0/toolchain/arm/arm-gnu-toolchain/bin/../lib/gcc/arm-none-eabi/6.3.1/../../../../arm-none-eabi/lib/thumb/v6-m\libc.a(lib_a-puts.o) (__sfvwrite_r)
c:/program files (x86)/atmel/studio/7.0/toolchain/arm/arm-gnu-toolchain/bin/../lib/gcc/arm-none-eabi/6.3.1/../../../../arm-none-eabi/lib/thumb/v6-m\libc.a(lib_a-fwalk.o)
                              c:/program files (x86)/atmel/studio/7.0/toolchain/arm/arm-gnu-toolchain/bin/../lib/gcc/arm-none-eabi/6.3.1/../../../../arm-none-eabi/lib/thumb/v6-m\libc.a(lib_a-findfp.o) (_fwalk)
c:/program files (x86)/atmel/studio/7.0/toolchain/arm/arm-gnu-toolchain/bin/../lib/gcc/arm-none-eabi/6.3.1/../../../../arm-none-eabi/lib/thumb/v6-m\libc.a(lib_a-localeconv.o)
                              c:/program files (x86)/atmel/studio/7.0/toolchain/arm/arm-gnu-toolchain/bin/../lib/gcc/arm-none-eabi/6.3.1/../../../../arm-none-eabi/lib/thumb/v6-m\libc.a(lib_a-vfprintf.o) (_localeconv_r)
c:/program files (x86)/atmel/studio/7.0/toolchain/arm/arm-gnu-toolchain/bin/../lib/gcc/arm-none-eabi/6.3.1/../../../../arm-none-eabi/lib/thumb/v6-m\libc.a(lib_a-lock.o)
                              c:/program files (x86)/atmel/studio/7.0/toolchain/arm/arm-gnu-toolchain/bin/../lib/gcc/arm-none-eabi/6.3.1/../../../../arm-none-eabi/lib/thumb/v6-m\libc.a(lib_a-vfprintf.o) (__retarget_lock_init_recursive)
c:/program files (x86)/atmel/studio/7.0/toolchain/arm/arm-gnu-toolchain/bin/../lib/gcc/arm-none-eabi/6.3.1/../../../../arm-none-eabi/lib/thumb/v6-m\libc.a(lib_a-makebuf.o)
                              c:/program files (x86)/atmel/studio/7.0/toolchain/arm/arm-gnu-toolchain/bin/../lib/gcc/arm-none-eabi/6.3.1/../../../../arm-none-eabi/lib/thumb/v6-m\libc.a(lib_a-wsetup.o) (__smakebuf_r)
c:/program files (x86)/atmel/studio/7.0/toolchain/arm/arm-gnu-toolchain/bin/../lib/gcc/arm-none-eabi/6.3.1/../../../../arm-none-eabi/lib/thumb/v6-m\libc.a(lib_a-mallocr.o)
                              c:/program files (x86)/atmel/studio/7.0/toolchain/arm/arm-gnu-toolchain/bin/../lib/gcc/arm-none-eabi/6.3.1/../../../../arm-none-eabi/lib/thumb/v6-m\libc.a(lib_a-findfp.o) (_malloc_r)
c:/program files (x86)/atmel/studio/7.0/toolchain/arm/arm-gnu-toolchain/bin/../lib/gcc/arm-none-eabi/6.3.1/../../../../arm-none-eabi/lib/thumb/v6-m\libc.a(lib_a-memchr-stub.o)
                              c:/program files (x86)/atmel/studio/7.0/toolchain/arm/arm-gnu-toolchain/bin/../lib/gcc/arm-none-eabi/6.3.1/../../../../arm-none-eabi/lib/thumb/v6-m\libc.a(lib_a-vfprintf.o) (memchr)
c:/program files (x86)/atmel/studio/7.0/toolchain/arm/arm-gnu-toolchain/bin/../lib/gcc/arm-none-eabi/6.3.1/../../../../arm-none-eabi/lib/thumb/v6-m\libc.a(lib_a-memmove.o)
                              c:/program files (x86)/atmel/studio/7.0/toolchain/arm/arm-gnu-toolchain/bin/../lib/gcc/arm-none-eabi/6.3.1/../../../../arm-none-eabi/lib/thumb/v6-m\libc.a(lib_a-fvwrite.o) (memmove)
c:/program files (x86)/atmel/studio/7.0/toolchain/arm/arm-gnu-toolchain/bin/../lib/gcc/arm-none-eabi/6.3.1/../../../../arm-none-eabi/lib/thumb/v6-m\libc.a(lib_a-mlock.o)
                              c:/program files (x86)/atmel/studio/7.0/toolchain/arm/arm-gnu-toolchain/bin/../lib/gcc/arm-none-eabi/6.3.1/../../../../arm-none-eabi/lib/thumb/v6-m\libc.a(lib_a-freer.o) (__malloc_lock)
c:/program files (x86)/atmel/studio/7.0/toolchain/arm/arm-gnu-toolchain/bin/../lib/gcc/arm-none-eabi/6.3.1/../../../../arm-none-eabi/lib/thumb/v6-m\libc.a(lib_a-mprec.o)
                              c:/program files (x86)/atmel/studio/7.0/toolchain/arm/arm-gnu-toolchain/bin/../lib/gcc/arm-none-eabi/6.3.1/../../../../arm-none-eabi/lib/thumb/v6-m\libc.a(lib_a-dtoa.o) (_Balloc)
c:/program files (x86)/atmel/studio/7.0/toolchain/arm/arm-gnu-toolchain/bin/../lib/gcc/arm-none-eabi/6.3.1/../../../../arm-none-eabi/lib/thumb/v6-m\libc.a(lib_a-reallocr.o)
                              c:/program files (x86)/atmel/studio/7.0/toolchain/arm/arm-gnu-toolchain/bin/../lib/gcc/arm-none-eabi/6.3.1/../../../../arm-none-eabi/lib/thumb/v6-m\libc.a(lib_a-fvwrite.o) (_realloc_r)
c:/program files (x86)/atmel/studio/7.0/toolchain/arm/arm-gnu-toolchain/bin/../lib/gcc/arm-none-eabi/6.3.1/../../../../arm-none-eabi/lib/thumb/v6-m\libc.a(lib_a-sbrkr.o)
                              c:/program files (x86)/atmel/studio/7.0/toolchain/arm/arm-gnu-toolchain/bin/../lib/gcc/arm-none-eabi/6.3.1/../../../../arm-none-eabi/lib/thumb/v6-m\libc.a(lib_a-freer.o) (_sbrk_r)
c:/program files (x86)/atmel/studio/7.0/toolchain/arm/arm-gnu-toolchain/bin/../lib/gcc/arm-none-eabi/6.3.1/../../../../arm-none-eabi/lib/thumb/v6-m\libc.a(lib_a-stdio.o)
                              c:/program files (x86)/atmel/studio/7.0/toolchain/arm/arm-gnu-toolchain/bin/../lib/gcc/arm-none-eabi/6.3.1/../../../../arm-none-eabi/lib/thumb/v6-m\libc.a(lib_a-findfp.o) (__sread)
c:/program files (x86)/atmel/studio/7.0/toolchain/arm/arm-gnu-toolchain/bin/../lib/gcc/arm-none-eabi/6.3.1/../../../../arm-none-eabi/lib/thumb/v6-m\libc.a(lib_a-vfiprintf.o)
                              c:/program files (x86)/atmel/studio/7.0/toolchain/arm/arm-gnu-toolchain/bin/../lib/gcc/arm-none-eabi/6.3.1/../../../../arm-none-eabi/lib/thumb/v6-m\libc.a(lib_a-vfprintf.o) (__sprint_r)
c:/program files (x86)/atmel/studio/7.0/toolchain/arm/arm-gnu-toolchain/bin/../lib/gcc/arm-none-eabi/6.3.1/../../../../arm-none-eabi/lib/thumb/v6-m\libc.a(lib_a-writer.o)
                              c:/program files (x86)/atmel/studio/7.0/toolchain/arm/arm-gnu-toolchain/bin/../lib/gcc/arm-none-eabi/6.3.1/../../../../arm-none-eabi/lib/thumb/v6-m\libc.a(lib_a-stdio.o) (_write_r)
c:/program files (x86)/atmel/studio/7.0/toolchain/arm/arm-gnu-toolchain/bin/../lib/gcc/arm-none-eabi/6.3.1/../../../../arm-none-eabi/lib/thumb/v6-m\libc.a(lib_a-callocr.o)
                              c:/program files (x86)/atmel/studio/7.0/toolchain/arm/arm-gnu-toolchain/bin/../lib/gcc/arm-none-eabi/6.3.1/../../../../arm-none-eabi/lib/thumb/v6-m\libc.a(lib_a-mprec.o) (_calloc_r)
c:/program files (x86)/atmel/studio/7.0/toolchain/arm/arm-gnu-toolchain/bin/../lib/gcc/arm-none-eabi/6.3.1/../../../../arm-none-eabi/lib/thumb/v6-m\libc.a(lib_a-closer.o)
                              c:/program files (x86)/atmel/studio/7.0/toolchain/arm/arm-gnu-toolchain/bin/../lib/gcc/arm-none-eabi/6.3.1/../../../../arm-none-eabi/lib/thumb/v6-m\libc.a(lib_a-stdio.o) (_close_r)
c:/program files (x86)/atmel/studio/7.0/toolchain/arm/arm-gnu-toolchain/bin/../lib/gcc/arm-none-eabi/6.3.1/../../../../arm-none-eabi/lib/thumb/v6-m\libc.a(lib_a-fclose.o)
                              c:/program files (x86)/atmel/studio/7.0/toolchain/arm/arm-gnu-toolchain/bin/../lib/gcc/arm-none-eabi/6.3.1/../../../../arm-none-eabi/lib/thumb/v6-m\libc.a(lib_a-findfp.o) (_fclose_r)
c:/program files (x86)/atmel/studio/7.0/toolchain/arm/arm-gnu-toolchain/bin/../lib/gcc/arm-none-eabi/6.3.1/../../../../arm-none-eabi/lib/thumb/v6-m\libc.a(lib_a-fputwc.o)
                              c:/program files (x86)/atmel/studio/7.0/toolchain/arm/arm-gnu-toolchain/bin/../lib/gcc/arm-none-eabi/6.3.1/../../../../arm-none-eabi/lib/thumb/v6-m\libc.a(lib_a-vfiprintf.o) (_fputwc_r)
c:/program files (x86)/atmel/studio/7.0/toolchain/arm/arm-gnu-toolchain/bin/../lib/gcc/arm-none-eabi/6.3.1/../../../../arm-none-eabi/lib/thumb/v6-m\libc.a(lib_a-fstatr.o)
                              c:/program files (x86)/atmel/studio/7.0/toolchain/arm/arm-gnu-toolchain/bin/../lib/gcc/arm-none-eabi/6.3.1/../../../../arm-none-eabi/lib/thumb/v6-m\libc.a(lib_a-makebuf.o) (_fstat_r)
c:/program files (x86)/atmel/studio/7.0/toolchain/arm/arm-gnu-toolchain/bin/../lib/gcc/arm-none-eabi/6.3.1/../../../../arm-none-eabi/lib/thumb/v6-m\libc.a(lib_a-isattyr.o)
                              c:/program files (x86)/atmel/studio/7.0/toolchain/arm/arm-gnu-toolchain/bin/../lib/gcc/arm-none-eabi/6.3.1/../../../../arm-none-eabi/lib/thumb/v6-m\libc.a(lib_a-makebuf.o) (_isatty_r)
c:/program files (x86)/atmel/studio/7.0/toolchain/arm/arm-gnu-toolchain/bin/../lib/gcc/arm-none-eabi/6.3.1/../../../../arm-none-eabi/lib/thumb/v6-m\libc.a(lib_a-locale.o)
                              c:/program files (x86)/atmel/studio/7.0/toolchain/arm/arm-gnu-toolchain/bin/../lib/gcc/arm-none-eabi/6.3.1/../../../../arm-none-eabi/lib/thumb/v6-m\libc.a(lib_a-fputwc.o) (__locale_mb_cur_max)
c:/program files (x86)/atmel/studio/7.0/toolchain/arm/arm-gnu-toolchain/bin/../lib/gcc/arm-none-eabi/6.3.1/../../../../arm-none-eabi/lib/thumb/v6-m\libc.a(lib_a-lseekr.o)
                              c:/program files (x86)/atmel/studio/7.0/toolchain/arm/arm-gnu-toolchain/bin/../lib/gcc/arm-none-eabi/6.3.1/../../../../arm-none-eabi/lib/thumb/v6-m\libc.a(lib_a-stdio.o) (_lseek_r)
c:/program files (x86)/atmel/studio/7.0/toolchain/arm/arm-gnu-toolchain/bin/../lib/gcc/arm-none-eabi/6.3.1/../../../../arm-none-eabi/lib/thumb/v6-m\libc.a(lib_a-mbtowc_r.o)
                              c:/program files (x86)/atmel/studio/7.0/toolchain/arm/arm-gnu-toolchain/bin/../lib/gcc/arm-none-eabi/6.3.1/../../../../arm-none-eabi/lib/thumb/v6-m\libc.a(lib_a-locale.o) (__ascii_mbtowc)
c:/program files (x86)/atmel/studio/7.0/toolchain/arm/arm-gnu-toolchain/bin/../lib/gcc/arm-none-eabi/6.3.1/../../../../arm-none-eabi/lib/thumb/v6-m\libc.a(lib_a-readr.o)
                              c:/program files (x86)/atmel/studio/7.0/toolchain/arm/arm-gnu-toolchain/bin/../lib/gcc/arm-none-eabi/6.3.1/../../../../arm-none-eabi/lib/thumb/v6-m\libc.a(lib_a-stdio.o) (_read_r)
c:/program files (x86)/atmel/studio/7.0/toolchain/arm/arm-gnu-toolchain/bin/../lib/gcc/arm-none-eabi/6.3.1/../../../../arm-none-eabi/lib/thumb/v6-m\libc.a(lib_a-reent.o)
                              c:/program files (x86)/atmel/studio/7.0/toolchain/arm/arm-gnu-toolchain/bin/../lib/gcc/arm-none-eabi/6.3.1/../../../../arm-none-eabi/lib/thumb/v6-m\libc.a(lib_a-sbrkr.o) (errno)
c:/program files (x86)/atmel/studio/7.0/toolchain/arm/arm-gnu-toolchain/bin/../lib/gcc/arm-none-eabi/6.3.1/../../../../arm-none-eabi/lib/thumb/v6-m\libc.a(lib_a-strcmp.o)
                              c:/program files (x86)/atmel/studio/7.0/toolchain/arm/arm-gnu-toolchain/bin/../lib/gcc/arm-none-eabi/6.3.1/../../../../arm-none-eabi/lib/thumb/v6-m\libc.a(lib_a-locale.o) (strcmp)
c:/program files (x86)/atmel/studio/7.0/toolchain/arm/arm-gnu-toolchain/bin/../lib/gcc/arm-none-eabi/6.3.1/../../../../arm-none-eabi/lib/thumb/v6-m\libc.a(lib_a-wbuf.o)
                              c:/program files (x86)/atmel/studio/7.0/toolchain/arm/arm-gnu-toolchain/bin/../lib/gcc/arm-none-eabi/6.3.1/../../../../arm-none-eabi/lib/thumb/v6-m\libc.a(lib_a-fputwc.o) (__swbuf_r)
c:/program files (x86)/atmel/studio/7.0/toolchain/arm/arm-gnu-toolchain/bin/../lib/gcc/arm-none-eabi/6.3.1/../../../../arm-none-eabi/lib/thumb/v6-m\libc.a(lib_a-wcrtomb.o)
                              c:/program files (x86)/atmel/studio/7.0/toolchain/arm/arm-gnu-toolchain/bin/../lib/gcc/arm-none-eabi/6.3.1/../../../../arm-none-eabi/lib/thumb/v6-m\libc.a(lib_a-fputwc.o) (_wcrtomb_r)
c:/program files (x86)/atmel/studio/7.0/toolchain/arm/arm-gnu-toolchain/bin/../lib/gcc/arm-none-eabi/6.3.1/../../../../arm-none-eabi/lib/thumb/v6-m\libc.a(lib_a-wctomb_r.o)
                              c:/program files (x86)/atmel/studio/7.0/toolchain/arm/arm-gnu-toolchain/bin/../lib/gcc/arm-none-eabi/6.3.1/../../../../arm-none-eabi/lib/thumb/v6-m\libc.a(lib_a-locale.o) (__ascii_wctomb)
c:/program files (x86)/atmel/studio/7.0/toolchain/arm/arm-gnu-toolchain/bin/../lib/gcc/arm-none-eabi/6.3.1/../../../../arm-none-eabi/lib/thumb/v6-m\libc.a(lib_a-ctype_.o)
                              c:/program files (x86)/atmel/studio/7.0/toolchain/arm/arm-gnu-toolchain/bin/../lib/gcc/arm-none-eabi/6.3.1/../../../../arm-none-eabi/lib/thumb/v6-m\libc.a(lib_a-locale.o) (_ctype_)
c:/program files (x86)/atmel/studio/7.0/toolchain/arm/arm-gnu-toolchain/bin/../lib/gcc/arm-none-eabi/6.3.1/../../../../arm-none-eabi/lib/thumb/v6-m\libnosys.a(close.o)
                              c:/program files (x86)/atmel/studio/7.0/toolchain/arm/arm-gnu-toolchain/bin/../lib/gcc/arm-none-eabi/6.3.1/../../../../arm-none-eabi/lib/thumb/v6-m\libc.a(lib_a-closer.o) (_close)
c:/program files (x86)/atmel/studio/7.0/toolchain/arm/arm-gnu-toolchain/bin/../lib/gcc/arm-none-eabi/6.3.1/../../../../arm-none-eabi/lib/thumb/v6-m\libnosys.a(fstat.o)
                              c:/program files (x86)/atmel/studio/7.0/toolchain/arm/arm-gnu-toolchain/bin/../lib/gcc/arm-none-eabi/6.3.1/../../../../arm-none-eabi/lib/thumb/v6-m\libc.a(lib_a-fstatr.o) (_fstat)
c:/program files (x86)/atmel/studio/7.0/toolchain/arm/arm-gnu-toolchain/bin/../lib/gcc/arm-none-eabi/6.3.1/../../../../arm-none-eabi/lib/thumb/v6-m\libnosys.a(isatty.o)
                              c:/program files (x86)/atmel/studio/7.0/toolchain/arm/arm-gnu-toolchain/bin/../lib/gcc/arm-none-eabi/6.3.1/../../../../arm-none-eabi/lib/thumb/v6-m\libc.a(lib_a-isattyr.o) (_isatty)
c:/program files (x86)/atmel/studio/7.0/toolchain/arm/arm-gnu-toolchain/bin/../lib/gcc/arm-none-eabi/6.3.1/../../../../arm-none-eabi/lib/thumb/v6-m\libnosys.a(lseek.o)
                              c:/program files (x86)/atmel/studio/7.0/toolchain/arm/arm-gnu-toolchain/bin/../lib/gcc/arm-none-eabi/6.3.1/../../../../arm-none-eabi/lib/thumb/v6-m\libc.a(lib_a-lseekr.o) (_lseek)
c:/program files (x86)/atmel/studio/7.0/toolchain/arm/arm-gnu-toolchain/bin/../lib/gcc/arm-none-eabi/6.3.1/../../../../arm-none-eabi/lib/thumb/v6-m\libnosys.a(read.o)
                              c:/program files (x86)/atmel/studio/7.0/toolchain/arm/arm-gnu-toolchain/bin/../lib/gcc/arm-none-eabi/6.3.1/../../../../arm-none-eabi/lib/thumb/v6-m\libc.a(lib_a-readr.o) (_read)
c:/program files (x86)/atmel/studio/7.0/toolchain/arm/arm-gnu-toolchain/bin/../lib/gcc/arm-none-eabi/6.3.1/../../../../arm-none-eabi/lib/thumb/v6-m\libnosys.a(sbrk.o)
                              c:/program files (x86)/atmel/studio/7.0/toolchain/arm/arm-gnu-toolchain/bin/../lib/gcc/arm-none-eabi/6.3.1/../../../../arm-none-eabi/lib/thumb/v6-m\libc.a(lib_a-sbrkr.o) (_sbrk)
c:/program files (x86)/atmel/studio/7.0/toolchain/arm/arm-gnu-toolchain/bin/../lib/gcc/arm-none-eabi/6.3.1/../../../../arm-none-eabi/lib/thumb/v6-m\libnosys.a(write.o)
                              c:/program files (x86)/atmel/studio/7.0/toolchain/arm/arm-gnu-toolchain/bin/../lib/gcc/arm-none-eabi/6.3.1/../../../../arm-none-eabi/lib/thumb/v6-m\libc.a(lib_a-writer.o) (_write)
c:/program files (x86)/atmel/studio/7.0/toolchain/arm/arm-gnu-toolchain/bin/../lib/gcc/arm-none-eabi/6.3.1/../../../../arm-none-eabi/lib/thumb/v6-m\libnosys.a(_exit.o)
                              c:/program files (x86)/atmel/studio/7.0/toolchain/arm/arm-gnu-toolchain/bin/../lib/gcc/arm-none-eabi/6.3.1/../../../../arm-none-eabi/lib/thumb/v6-m\libc.a(lib_a-exit.o) (_exit)

Allocating common symbols
Common symbol       size              file

__lock___atexit_recursive_mutex
                    0x1               c:/program files (x86)/atmel/studio/7.0/toolchain/arm/arm-gnu-toolchain/bin/../lib/gcc/arm-none-eabi/6.3.1/../../../../arm-none-eabi/lib/thumb/v6-m\libc.a(lib_a-lock.o)
TIMER_ZCD           0x1c              C:\Salukat\Purificador\SoftwareDevelopment\Atmel_Microchip\SAMD21_BSP\SAMD21_BSP\Release\libSAMD21_BSP.a(driver_init.o)
SPI_LMX             0x18              C:\Salukat\Purificador\SoftwareDevelopment\Atmel_Microchip\SAMD21_BSP\SAMD21_BSP\Release\libSAMD21_BSP.a(driver_init.o)
__lock___arc4random_mutex
                    0x1               c:/program files (x86)/atmel/studio/7.0/toolchain/arm/arm-gnu-toolchain/bin/../lib/gcc/arm-none-eabi/6.3.1/../../../../arm-none-eabi/lib/thumb/v6-m\libc.a(lib_a-lock.o)
errno               0x4               c:/program files (x86)/atmel/studio/7.0/toolchain/arm/arm-gnu-toolchain/bin/../lib/gcc/arm-none-eabi/6.3.1/../../../../arm-none-eabi/lib/thumb/v6-m\libc.a(lib_a-reent.o)
__lock___env_recursive_mutex
                    0x1               c:/program files (x86)/atmel/studio/7.0/toolchain/arm/arm-gnu-toolchain/bin/../lib/gcc/arm-none-eabi/6.3.1/../../../../arm-none-eabi/lib/thumb/v6-m\libc.a(lib_a-lock.o)
__lock___sinit_recursive_mutex
                    0x1               c:/program files (x86)/atmel/studio/7.0/toolchain/arm/arm-gnu-toolchain/bin/../lib/gcc/arm-none-eabi/6.3.1/../../../../arm-none-eabi/lib/thumb/v6-m\libc.a(lib_a-lock.o)
__lock___malloc_recursive_mutex
                    0x1               c:/program files (x86)/atmel/studio/7.0/toolchain/arm/arm-gnu-toolchain/bin/../lib/gcc/arm-none-eabi/6.3.1/../../../../arm-none-eabi/lib/thumb/v6-m\libc.a(lib_a-lock.o)
DAC_0               0xc               C:\Salukat\Purificador\SoftwareDevelopment\Atmel_Microchip\SAMD21_BSP\SAMD21_BSP\Release\libSAMD21_BSP.a(driver_init.o)
_irq_table          0x70              C:\Salukat\Purificador\SoftwareDevelopment\Atmel_Microchip\SAMD21_BSP\SAMD21_BSP\Release\libSAMD21_BSP.a(hpl_core_m0plus_base.o)
USART_0             0x50              C:\Salukat\Purificador\SoftwareDevelopment\Atmel_Microchip\SAMD21_BSP\SAMD21_BSP\Release\libSAMD21_BSP.a(driver_init.o)
SPI_ADF             0x18              C:\Salukat\Purificador\SoftwareDevelopment\Atmel_Microchip\SAMD21_BSP\SAMD21_BSP\Release\libSAMD21_BSP.a(driver_init.o)
SPI_ZCD             0x18              C:\Salukat\Purificador\SoftwareDevelopment\Atmel_Microchip\SAMD21_BSP\SAMD21_BSP\Release\libSAMD21_BSP.a(driver_init.o)
TIMER_USB           0x1c              C:\Salukat\Purificador\SoftwareDevelopment\Atmel_Microchip\SAMD21_BSP\SAMD21_BSP\Release\libSAMD21_BSP.a(driver_init.o)
__lock___at_quick_exit_mutex
                    0x1               c:/program files (x86)/atmel/studio/7.0/toolchain/arm/arm-gnu-toolchain/bin/../lib/gcc/arm-none-eabi/6.3.1/../../../../arm-none-eabi/lib/thumb/v6-m\libc.a(lib_a-lock.o)
__lock___dd_hash_mutex
                    0x1               c:/program files (x86)/atmel/studio/7.0/toolchain/arm/arm-gnu-toolchain/bin/../lib/gcc/arm-none-eabi/6.3.1/../../../../arm-none-eabi/lib/thumb/v6-m\libc.a(lib_a-lock.o)
__lock___tz_mutex   0x1               c:/program files (x86)/atmel/studio/7.0/toolchain/arm/arm-gnu-toolchain/bin/../lib/gcc/arm-none-eabi/6.3.1/../../../../arm-none-eabi/lib/thumb/v6-m\libc.a(lib_a-lock.o)
__lock___sfp_recursive_mutex
                    0x1               c:/program files (x86)/atmel/studio/7.0/toolchain/arm/arm-gnu-toolchain/bin/../lib/gcc/arm-none-eabi/6.3.1/../../../../arm-none-eabi/lib/thumb/v6-m\libc.a(lib_a-lock.o)

Discarded input sections

 .text          0x00000000        0x0 c:/program files (x86)/atmel/studio/7.0/toolchain/arm/arm-gnu-toolchain/bin/../lib/gcc/arm-none-eabi/6.3.1/thumb/v6-m/crti.o
 .data          0x00000000        0x0 c:/program files (x86)/atmel/studio/7.0/toolchain/arm/arm-gnu-toolchain/bin/../lib/gcc/arm-none-eabi/6.3.1/thumb/v6-m/crti.o
 .bss           0x00000000        0x0 c:/program files (x86)/atmel/studio/7.0/toolchain/arm/arm-gnu-toolchain/bin/../lib/gcc/arm-none-eabi/6.3.1/thumb/v6-m/crti.o
 .text          0x00000000       0x78 c:/program files (x86)/atmel/studio/7.0/toolchain/arm/arm-gnu-toolchain/bin/../lib/gcc/arm-none-eabi/6.3.1/../../../../arm-none-eabi/lib/thumb/v6-m/crt0.o
 .data          0x00000000        0x0 c:/program files (x86)/atmel/studio/7.0/toolchain/arm/arm-gnu-toolchain/bin/../lib/gcc/arm-none-eabi/6.3.1/../../../../arm-none-eabi/lib/thumb/v6-m/crt0.o
 .bss           0x00000000        0x0 c:/program files (x86)/atmel/studio/7.0/toolchain/arm/arm-gnu-toolchain/bin/../lib/gcc/arm-none-eabi/6.3.1/../../../../arm-none-eabi/lib/thumb/v6-m/crt0.o
 .ARM.extab     0x00000000        0x0 c:/program files (x86)/atmel/studio/7.0/toolchain/arm/arm-gnu-toolchain/bin/../lib/gcc/arm-none-eabi/6.3.1/../../../../arm-none-eabi/lib/thumb/v6-m/crt0.o
 .ARM.exidx     0x00000000        0x8 c:/program files (x86)/atmel/studio/7.0/toolchain/arm/arm-gnu-toolchain/bin/../lib/gcc/arm-none-eabi/6.3.1/../../../../arm-none-eabi/lib/thumb/v6-m/crt0.o
 .ARM.attributes
                0x00000000       0x1b c:/program files (x86)/atmel/studio/7.0/toolchain/arm/arm-gnu-toolchain/bin/../lib/gcc/arm-none-eabi/6.3.1/../../../../arm-none-eabi/lib/thumb/v6-m/crt0.o
 .group         0x00000000        0x8 ADF5610Driver.o
 .group         0x00000000        0x8 ADF5610Driver.o
 .group         0x00000000        0x8 ADF5610Driver.o
 .group         0x00000000        0x8 ADF5610Driver.o
 .group         0x00000000        0x8 ADF5610Driver.o
 .group         0x00000000        0x8 ADF5610Driver.o
 .group         0x00000000        0x8 ADF5610Driver.o
 .group         0x00000000        0x8 ADF5610Driver.o
 .group         0x00000000        0x8 ADF5610Driver.o
 .group         0x00000000        0x8 ADF5610Driver.o
 .group         0x00000000        0x8 ADF5610Driver.o
 .group         0x00000000        0x8 ADF5610Driver.o
 .group         0x00000000        0x8 ADF5610Driver.o
 .group         0x00000000        0x8 ADF5610Driver.o
 .group         0x00000000        0x8 ADF5610Driver.o
 .group         0x00000000        0x8 ADF5610Driver.o
 .group         0x00000000        0x8 ADF5610Driver.o
 .group         0x00000000        0x8 ADF5610Driver.o
 .group         0x00000000        0x8 ADF5610Driver.o
 .group         0x00000000        0x8 ADF5610Driver.o
 .group         0x00000000        0x8 ADF5610Driver.o
 .group         0x00000000        0x8 ADF5610Driver.o
 .group         0x00000000        0x8 ADF5610Driver.o
 .group         0x00000000        0x8 ADF5610Driver.o
 .group         0x00000000        0x8 ADF5610Driver.o
 .group         0x00000000        0x8 ADF5610Driver.o
 .group         0x00000000        0x8 ADF5610Driver.o
 .group         0x00000000        0x8 ADF5610Driver.o
 .group         0x00000000        0x8 ADF5610Driver.o
 .group         0x00000000        0x8 ADF5610Driver.o
 .group         0x00000000        0x8 ADF5610Driver.o
 .group         0x00000000        0x8 ADF5610Driver.o
 .group         0x00000000        0x8 ADF5610Driver.o
 .group         0x00000000        0x8 ADF5610Driver.o
 .group         0x00000000        0x8 ADF5610Driver.o
 .group         0x00000000        0x8 ADF5610Driver.o
 .group         0x00000000        0x8 ADF5610Driver.o
 .group         0x00000000        0x8 ADF5610Driver.o
 .group         0x00000000        0x8 ADF5610Driver.o
 .group         0x00000000        0x8 ADF5610Driver.o
 .group         0x00000000        0x8 ADF5610Driver.o
 .group         0x00000000        0x8 ADF5610Driver.o
 .group         0x00000000        0x8 ADF5610Driver.o
 .group         0x00000000        0x8 ADF5610Driver.o
 .group         0x00000000        0x8 ADF5610Driver.o
 .group         0x00000000        0x8 ADF5610Driver.o
 .group         0x00000000        0x8 ADF5610Driver.o
 .group         0x00000000        0x8 ADF5610Driver.o
 .group         0x00000000        0x8 ADF5610Driver.o
 .group         0x00000000        0x8 ADF5610Driver.o
 .group         0x00000000        0x8 ADF5610Driver.o
 .group         0x00000000        0x8 ADF5610Driver.o
 .group         0x00000000        0x8 ADF5610Driver.o
 .group         0x00000000        0x8 ADF5610Driver.o
 .group         0x00000000        0x8 ADF5610Driver.o
 .group         0x00000000        0x8 ADF5610Driver.o
 .group         0x00000000        0x8 ADF5610Driver.o
 .group         0x00000000        0x8 ADF5610Driver.o
 .group         0x00000000        0x8 ADF5610Driver.o
 .group         0x00000000        0x8 ADF5610Driver.o
 .group         0x00000000        0x8 ADF5610Driver.o
 .group         0x00000000        0x8 ADF5610Driver.o
 .group         0x00000000        0x8 ADF5610Driver.o
 .group         0x00000000        0x8 ADF5610Driver.o
 .group         0x00000000        0x8 ADF5610Driver.o
 .group         0x00000000        0x8 ADF5610Driver.o
 .group         0x00000000        0x8 ADF5610Driver.o
 .group         0x00000000        0x8 ADF5610Driver.o
 .group         0x00000000        0x8 ADF5610Driver.o
 .group         0x00000000        0x8 ADF5610Driver.o
 .group         0x00000000        0x8 ADF5610Driver.o
 .group         0x00000000        0x8 ADF5610Driver.o
 .group         0x00000000        0x8 ADF5610Driver.o
 .group         0x00000000        0x8 ADF5610Driver.o
 .group         0x00000000        0x8 ADF5610Driver.o
 .group         0x00000000        0x8 ADF5610Driver.o
 .group         0x00000000        0x8 ADF5610Driver.o
 .group         0x00000000        0x8 ADF5610Driver.o
 .group         0x00000000        0x8 ADF5610Driver.o
 .group         0x00000000        0x8 ADF5610Driver.o
 .group         0x00000000        0x8 ADF5610Driver.o
 .group         0x00000000        0x8 ADF5610Driver.o
 .group         0x00000000        0x8 ADF5610Driver.o
 .group         0x00000000        0x8 ADF5610Driver.o
 .group         0x00000000        0x8 ADF5610Driver.o
 .group         0x00000000        0x8 ADF5610Driver.o
 .group         0x00000000        0x8 ADF5610Driver.o
 .group         0x00000000        0x8 ADF5610Driver.o
 .group         0x00000000        0x8 ADF5610Driver.o
 .group         0x00000000        0x8 ADF5610Driver.o
 .group         0x00000000        0x8 ADF5610Driver.o
 .group         0x00000000        0x8 ADF5610Driver.o
 .group         0x00000000        0x8 ADF5610Driver.o
 .group         0x00000000        0x8 ADF5610Driver.o
 .group         0x00000000        0x8 ADF5610Driver.o
 .group         0x00000000        0x8 ADF5610Driver.o
 .group         0x00000000        0x8 ADF5610Driver.o
 .group         0x00000000        0x8 ADF5610Driver.o
 .group         0x00000000        0x8 ADF5610Driver.o
 .group         0x00000000        0x8 ADF5610Driver.o
 .group         0x00000000        0x8 ADF5610Driver.o
 .group         0x00000000        0x8 ADF5610Driver.o
 .group         0x00000000        0x8 ADF5610Driver.o
 .group         0x00000000        0x8 ADF5610Driver.o
 .group         0x00000000        0x8 ADF5610Driver.o
 .group         0x00000000        0x8 ADF5610Driver.o
 .group         0x00000000        0x8 ADF5610Driver.o
 .group         0x00000000        0x8 ADF5610Driver.o
 .group         0x00000000        0x8 ADF5610Driver.o
 .group         0x00000000        0x8 ADF5610Driver.o
 .group         0x00000000        0x8 ADF5610Driver.o
 .group         0x00000000        0x8 ADF5610Driver.o
 .group         0x00000000        0x8 ADF5610Driver.o
 .group         0x00000000        0x8 ADF5610Driver.o
 .group         0x00000000        0x8 ADF5610Driver.o
 .group         0x00000000        0x8 ADF5610Driver.o
 .group         0x00000000        0x8 ADF5610Driver.o
 .group         0x00000000        0x8 ADF5610Driver.o
 .group         0x00000000        0x8 ADF5610Driver.o
 .group         0x00000000        0x8 ADF5610Driver.o
 .group         0x00000000        0x8 ADF5610Driver.o
 .group         0x00000000        0x8 ADF5610Driver.o
 .group         0x00000000        0x8 ADF5610Driver.o
 .group         0x00000000        0x8 ADF5610Driver.o
 .group         0x00000000        0x8 ADF5610Driver.o
 .group         0x00000000        0x8 ADF5610Driver.o
 .group         0x00000000        0x8 ADF5610Driver.o
 .group         0x00000000        0x8 ADF5610Driver.o
 .group         0x00000000        0x8 ADF5610Driver.o
 .group         0x00000000        0x8 ADF5610Driver.o
 .group         0x00000000        0x8 ADF5610Driver.o
 .group         0x00000000        0x8 ADF5610Driver.o
 .group         0x00000000        0x8 ADF5610Driver.o
 .group         0x00000000        0x8 ADF5610Driver.o
 .group         0x00000000        0x8 ADF5610Driver.o
 .group         0x00000000        0x8 ADF5610Driver.o
 .group         0x00000000        0x8 ADF5610Driver.o
 .text          0x00000000        0x0 ADF5610Driver.o
 .data          0x00000000        0x0 ADF5610Driver.o
 .text._ZN14ADF5610_Driver10LockDetectEv
                0x00000000       0x20 ADF5610Driver.o
 .text._ZN14ADF5610_Driver3GCDEll
                0x00000000       0x48 ADF5610Driver.o
 .text._ZN14ADF5610_Driver7FlipperEm
                0x00000000       0x4c ADF5610Driver.o
 .text._ZN14ADF5610_Driver12CalculateGCDEll
                0x00000000       0x2c ADF5610Driver.o
 .text._ZN14ADF5610_Driver20Set_Target_FrequencyEf
                0x00000000       0x20 ADF5610Driver.o
 .text._ZN14ADF5610_Driver13Keep_WooblingEv
                0x00000000      0x15c ADF5610Driver.o
 .text._ZN14ADF5610_Driver14Start_WooblingEff
                0x00000000       0x70 ADF5610Driver.o
 .group         0x00000000        0x8 Device_Startup/startup_samd21.o
 .group         0x00000000        0x8 Device_Startup/startup_samd21.o
 .group         0x00000000        0x8 Device_Startup/startup_samd21.o
 .group         0x00000000        0x8 Device_Startup/startup_samd21.o
 .group         0x00000000        0x8 Device_Startup/startup_samd21.o
 .group         0x00000000        0x8 Device_Startup/startup_samd21.o
 .group         0x00000000        0x8 Device_Startup/startup_samd21.o
 .group         0x00000000        0x8 Device_Startup/startup_samd21.o
 .group         0x00000000        0x8 Device_Startup/startup_samd21.o
 .group         0x00000000        0x8 Device_Startup/startup_samd21.o
 .group         0x00000000        0x8 Device_Startup/startup_samd21.o
 .group         0x00000000        0x8 Device_Startup/startup_samd21.o
 .group         0x00000000        0x8 Device_Startup/startup_samd21.o
 .group         0x00000000        0x8 Device_Startup/startup_samd21.o
 .group         0x00000000        0x8 Device_Startup/startup_samd21.o
 .group         0x00000000        0x8 Device_Startup/startup_samd21.o
 .group         0x00000000        0x8 Device_Startup/startup_samd21.o
 .group         0x00000000        0x8 Device_Startup/startup_samd21.o
 .group         0x00000000        0x8 Device_Startup/startup_samd21.o
 .group         0x00000000        0x8 Device_Startup/startup_samd21.o
 .group         0x00000000        0x8 Device_Startup/startup_samd21.o
 .group         0x00000000        0x8 Device_Startup/startup_samd21.o
 .group         0x00000000        0x8 Device_Startup/startup_samd21.o
 .group         0x00000000        0x8 Device_Startup/startup_samd21.o
 .group         0x00000000        0x8 Device_Startup/startup_samd21.o
 .group         0x00000000        0x8 Device_Startup/startup_samd21.o
 .group         0x00000000        0x8 Device_Startup/startup_samd21.o
 .group         0x00000000        0x8 Device_Startup/startup_samd21.o
 .group         0x00000000        0x8 Device_Startup/startup_samd21.o
 .group         0x00000000        0x8 Device_Startup/startup_samd21.o
 .group         0x00000000        0x8 Device_Startup/startup_samd21.o
 .group         0x00000000        0x8 Device_Startup/startup_samd21.o
 .group         0x00000000        0x8 Device_Startup/startup_samd21.o
 .group         0x00000000        0x8 Device_Startup/startup_samd21.o
 .group         0x00000000        0x8 Device_Startup/startup_samd21.o
 .group         0x00000000        0x8 Device_Startup/startup_samd21.o
 .group         0x00000000        0x8 Device_Startup/startup_samd21.o
 .group         0x00000000        0x8 Device_Startup/startup_samd21.o
 .group         0x00000000        0x8 Device_Startup/startup_samd21.o
 .group         0x00000000        0x8 Device_Startup/startup_samd21.o
 .group         0x00000000        0x8 Device_Startup/startup_samd21.o
 .group         0x00000000        0x8 Device_Startup/startup_samd21.o
 .group         0x00000000        0x8 Device_Startup/startup_samd21.o
 .group         0x00000000        0x8 Device_Startup/startup_samd21.o
 .group         0x00000000        0x8 Device_Startup/startup_samd21.o
 .group         0x00000000        0x8 Device_Startup/startup_samd21.o
 .group         0x00000000        0x8 Device_Startup/startup_samd21.o
 .group         0x00000000        0x8 Device_Startup/startup_samd21.o
 .group         0x00000000        0x8 Device_Startup/startup_samd21.o
 .group         0x00000000        0x8 Device_Startup/startup_samd21.o
 .group         0x00000000        0x8 Device_Startup/startup_samd21.o
 .group         0x00000000        0x8 Device_Startup/startup_samd21.o
 .group         0x00000000        0x8 Device_Startup/startup_samd21.o
 .group         0x00000000        0x8 Device_Startup/startup_samd21.o
 .group         0x00000000        0x8 Device_Startup/startup_samd21.o
 .group         0x00000000        0x8 Device_Startup/startup_samd21.o
 .group         0x00000000        0x8 Device_Startup/startup_samd21.o
 .group         0x00000000        0x8 Device_Startup/startup_samd21.o
 .group         0x00000000        0x8 Device_Startup/startup_samd21.o
 .group         0x00000000        0x8 Device_Startup/startup_samd21.o
 .group         0x00000000        0x8 Device_Startup/startup_samd21.o
 .group         0x00000000        0x8 Device_Startup/startup_samd21.o
 .group         0x00000000        0x8 Device_Startup/startup_samd21.o
 .group         0x00000000        0x8 Device_Startup/startup_samd21.o
 .group         0x00000000        0x8 Device_Startup/startup_samd21.o
 .group         0x00000000        0x8 Device_Startup/startup_samd21.o
 .group         0x00000000        0x8 Device_Startup/startup_samd21.o
 .group         0x00000000        0x8 Device_Startup/startup_samd21.o
 .group         0x00000000        0x8 Device_Startup/startup_samd21.o
 .group         0x00000000        0x8 Device_Startup/startup_samd21.o
 .group         0x00000000        0x8 Device_Startup/startup_samd21.o
 .group         0x00000000        0x8 Device_Startup/startup_samd21.o
 .group         0x00000000        0x8 Device_Startup/startup_samd21.o
 .text          0x00000000        0x0 Device_Startup/startup_samd21.o
 .data          0x00000000        0x0 Device_Startup/startup_samd21.o
 .bss           0x00000000        0x0 Device_Startup/startup_samd21.o
 .debug_macro   0x00000000       0x22 Device_Startup/startup_samd21.o
 .debug_macro   0x00000000       0x51 Device_Startup/startup_samd21.o
 .debug_macro   0x00000000       0xef Device_Startup/startup_samd21.o
 .debug_macro   0x00000000       0x6a Device_Startup/startup_samd21.o
 .debug_macro   0x00000000      0x1df Device_Startup/startup_samd21.o
 .debug_macro   0x00000000       0x1c Device_Startup/startup_samd21.o
 .debug_macro   0x00000000       0x22 Device_Startup/startup_samd21.o
 .debug_macro   0x00000000       0xb5 Device_Startup/startup_samd21.o
 .debug_macro   0x00000000      0x67e Device_Startup/startup_samd21.o
 .debug_macro   0x00000000      0x8b1 Device_Startup/startup_samd21.o
 .debug_macro   0x00000000      0x22e Device_Startup/startup_samd21.o
 .debug_macro   0x00000000      0xd5c Device_Startup/startup_samd21.o
 .debug_macro   0x00000000      0x4dc Device_Startup/startup_samd21.o
 .debug_macro   0x00000000      0x9f6 Device_Startup/startup_samd21.o
 .debug_macro   0x00000000      0x82b Device_Startup/startup_samd21.o
 .debug_macro   0x00000000      0x45f Device_Startup/startup_samd21.o
 .debug_macro   0x00000000       0x5e Device_Startup/startup_samd21.o
 .debug_macro   0x00000000      0x8f9 Device_Startup/startup_samd21.o
 .debug_macro   0x00000000      0x21c Device_Startup/startup_samd21.o
 .debug_macro   0x00000000      0x735 Device_Startup/startup_samd21.o
 .debug_macro   0x00000000       0x5e Device_Startup/startup_samd21.o
 .debug_macro   0x00000000      0x632 Device_Startup/startup_samd21.o
 .debug_macro   0x00000000      0x3ac Device_Startup/startup_samd21.o
 .debug_macro   0x00000000      0xc76 Device_Startup/startup_samd21.o
 .debug_macro   0x00000000     0x1092 Device_Startup/startup_samd21.o
 .debug_macro   0x00000000      0xc4a Device_Startup/startup_samd21.o
 .debug_macro   0x00000000      0x6ba Device_Startup/startup_samd21.o
 .debug_macro   0x00000000     0x1b3d Device_Startup/startup_samd21.o
 .debug_macro   0x00000000     0x143c Device_Startup/startup_samd21.o
 .debug_macro   0x00000000      0x340 Device_Startup/startup_samd21.o
 .debug_macro   0x00000000       0x7c Device_Startup/startup_samd21.o
 .debug_macro   0x00000000       0xa0 Device_Startup/startup_samd21.o
 .debug_macro   0x00000000       0x4c Device_Startup/startup_samd21.o
 .debug_macro   0x00000000       0xca Device_Startup/startup_samd21.o
 .debug_macro   0x00000000       0x94 Device_Startup/startup_samd21.o
 .debug_macro   0x00000000       0x58 Device_Startup/startup_samd21.o
 .debug_macro   0x00000000      0x341 Device_Startup/startup_samd21.o
 .debug_macro   0x00000000       0x82 Device_Startup/startup_samd21.o
 .debug_macro   0x00000000      0x189 Device_Startup/startup_samd21.o
 .debug_macro   0x00000000       0xb8 Device_Startup/startup_samd21.o
 .debug_macro   0x00000000       0xa0 Device_Startup/startup_samd21.o
 .debug_macro   0x00000000       0xb2 Device_Startup/startup_samd21.o
 .debug_macro   0x00000000       0x1c Device_Startup/startup_samd21.o
 .debug_macro   0x00000000       0x1c Device_Startup/startup_samd21.o
 .debug_macro   0x00000000       0x1c Device_Startup/startup_samd21.o
 .debug_macro   0x00000000       0x7c Device_Startup/startup_samd21.o
 .debug_macro   0x00000000      0x15a Device_Startup/startup_samd21.o
 .debug_macro   0x00000000       0x10 Device_Startup/startup_samd21.o
 .debug_macro   0x00000000       0xdc Device_Startup/startup_samd21.o
 .debug_macro   0x00000000      0x124 Device_Startup/startup_samd21.o
 .debug_macro   0x00000000      0x124 Device_Startup/startup_samd21.o
 .debug_macro   0x00000000      0x124 Device_Startup/startup_samd21.o
 .debug_macro   0x00000000      0x124 Device_Startup/startup_samd21.o
 .debug_macro   0x00000000      0x124 Device_Startup/startup_samd21.o
 .debug_macro   0x00000000      0x124 Device_Startup/startup_samd21.o
 .debug_macro   0x00000000      0x124 Device_Startup/startup_samd21.o
 .debug_macro   0x00000000       0xe2 Device_Startup/startup_samd21.o
 .debug_macro   0x00000000       0xe2 Device_Startup/startup_samd21.o
 .debug_macro   0x00000000       0xe2 Device_Startup/startup_samd21.o
 .debug_macro   0x00000000       0xe2 Device_Startup/startup_samd21.o
 .debug_macro   0x00000000       0xe2 Device_Startup/startup_samd21.o
 .debug_macro   0x00000000      0x12a Device_Startup/startup_samd21.o
 .debug_macro   0x00000000      0x100 Device_Startup/startup_samd21.o
 .debug_macro   0x00000000       0xf4 Device_Startup/startup_samd21.o
 .debug_macro   0x00000000      0x40f Device_Startup/startup_samd21.o
 .debug_macro   0x00000000       0x40 Device_Startup/startup_samd21.o
 .debug_macro   0x00000000      0x392 Device_Startup/startup_samd21.o
 .debug_macro   0x00000000     0x1fb0 Device_Startup/startup_samd21.o
 .debug_macro   0x00000000       0x6d Device_Startup/startup_samd21.o
 .group         0x00000000        0x8 Device_Startup/system_samd21.o
 .group         0x00000000        0x8 Device_Startup/system_samd21.o
 .group         0x00000000        0x8 Device_Startup/system_samd21.o
 .group         0x00000000        0x8 Device_Startup/system_samd21.o
 .group         0x00000000        0x8 Device_Startup/system_samd21.o
 .group         0x00000000        0x8 Device_Startup/system_samd21.o
 .group         0x00000000        0x8 Device_Startup/system_samd21.o
 .group         0x00000000        0x8 Device_Startup/system_samd21.o
 .group         0x00000000        0x8 Device_Startup/system_samd21.o
 .group         0x00000000        0x8 Device_Startup/system_samd21.o
 .group         0x00000000        0x8 Device_Startup/system_samd21.o
 .group         0x00000000        0x8 Device_Startup/system_samd21.o
 .group         0x00000000        0x8 Device_Startup/system_samd21.o
 .group         0x00000000        0x8 Device_Startup/system_samd21.o
 .group         0x00000000        0x8 Device_Startup/system_samd21.o
 .group         0x00000000        0x8 Device_Startup/system_samd21.o
 .group         0x00000000        0x8 Device_Startup/system_samd21.o
 .group         0x00000000        0x8 Device_Startup/system_samd21.o
 .group         0x00000000        0x8 Device_Startup/system_samd21.o
 .group         0x00000000        0x8 Device_Startup/system_samd21.o
 .group         0x00000000        0x8 Device_Startup/system_samd21.o
 .group         0x00000000        0x8 Device_Startup/system_samd21.o
 .group         0x00000000        0x8 Device_Startup/system_samd21.o
 .group         0x00000000        0x8 Device_Startup/system_samd21.o
 .group         0x00000000        0x8 Device_Startup/system_samd21.o
 .group         0x00000000        0x8 Device_Startup/system_samd21.o
 .group         0x00000000        0x8 Device_Startup/system_samd21.o
 .group         0x00000000        0x8 Device_Startup/system_samd21.o
 .group         0x00000000        0x8 Device_Startup/system_samd21.o
 .group         0x00000000        0x8 Device_Startup/system_samd21.o
 .group         0x00000000        0x8 Device_Startup/system_samd21.o
 .group         0x00000000        0x8 Device_Startup/system_samd21.o
 .group         0x00000000        0x8 Device_Startup/system_samd21.o
 .group         0x00000000        0x8 Device_Startup/system_samd21.o
 .group         0x00000000        0x8 Device_Startup/system_samd21.o
 .group         0x00000000        0x8 Device_Startup/system_samd21.o
 .group         0x00000000        0x8 Device_Startup/system_samd21.o
 .group         0x00000000        0x8 Device_Startup/system_samd21.o
 .group         0x00000000        0x8 Device_Startup/system_samd21.o
 .group         0x00000000        0x8 Device_Startup/system_samd21.o
 .group         0x00000000        0x8 Device_Startup/system_samd21.o
 .group         0x00000000        0x8 Device_Startup/system_samd21.o
 .group         0x00000000        0x8 Device_Startup/system_samd21.o
 .group         0x00000000        0x8 Device_Startup/system_samd21.o
 .group         0x00000000        0x8 Device_Startup/system_samd21.o
 .group         0x00000000        0x8 Device_Startup/system_samd21.o
 .group         0x00000000        0x8 Device_Startup/system_samd21.o
 .group         0x00000000        0x8 Device_Startup/system_samd21.o
 .group         0x00000000        0x8 Device_Startup/system_samd21.o
 .group         0x00000000        0x8 Device_Startup/system_samd21.o
 .group         0x00000000        0x8 Device_Startup/system_samd21.o
 .group         0x00000000        0x8 Device_Startup/system_samd21.o
 .group         0x00000000        0x8 Device_Startup/system_samd21.o
 .group         0x00000000        0x8 Device_Startup/system_samd21.o
 .group         0x00000000        0x8 Device_Startup/system_samd21.o
 .group         0x00000000        0x8 Device_Startup/system_samd21.o
 .group         0x00000000        0x8 Device_Startup/system_samd21.o
 .group         0x00000000        0x8 Device_Startup/system_samd21.o
 .group         0x00000000        0x8 Device_Startup/system_samd21.o
 .group         0x00000000        0x8 Device_Startup/system_samd21.o
 .group         0x00000000        0x8 Device_Startup/system_samd21.o
 .group         0x00000000        0x8 Device_Startup/system_samd21.o
 .group         0x00000000        0x8 Device_Startup/system_samd21.o
 .group         0x00000000        0x8 Device_Startup/system_samd21.o
 .group         0x00000000        0x8 Device_Startup/system_samd21.o
 .group         0x00000000        0x8 Device_Startup/system_samd21.o
 .group         0x00000000        0x8 Device_Startup/system_samd21.o
 .group         0x00000000        0x8 Device_Startup/system_samd21.o
 .group         0x00000000        0x8 Device_Startup/system_samd21.o
 .group         0x00000000        0x8 Device_Startup/system_samd21.o
 .group         0x00000000        0x8 Device_Startup/system_samd21.o
 .group         0x00000000        0x8 Device_Startup/system_samd21.o
 .group         0x00000000        0x8 Device_Startup/system_samd21.o
 .text          0x00000000        0x0 Device_Startup/system_samd21.o
 .data          0x00000000        0x4 Device_Startup/system_samd21.o
 .bss           0x00000000        0x0 Device_Startup/system_samd21.o
 .text.SystemInit
                0x00000000       0x10 Device_Startup/system_samd21.o
 .text.SystemCoreClockUpdate
                0x00000000       0x10 Device_Startup/system_samd21.o
 .debug_info    0x00000000       0xd5 Device_Startup/system_samd21.o
 .debug_abbrev  0x00000000       0x72 Device_Startup/system_samd21.o
 .debug_aranges
                0x00000000       0x28 Device_Startup/system_samd21.o
 .debug_ranges  0x00000000       0x18 Device_Startup/system_samd21.o
 .debug_macro   0x00000000      0x316 Device_Startup/system_samd21.o
 .debug_macro   0x00000000      0x89e Device_Startup/system_samd21.o
 .debug_macro   0x00000000       0x22 Device_Startup/system_samd21.o
 .debug_macro   0x00000000       0x87 Device_Startup/system_samd21.o
 .debug_macro   0x00000000       0x51 Device_Startup/system_samd21.o
 .debug_macro   0x00000000       0xef Device_Startup/system_samd21.o
 .debug_macro   0x00000000       0x6a Device_Startup/system_samd21.o
 .debug_macro   0x00000000      0x1df Device_Startup/system_samd21.o
 .debug_macro   0x00000000       0x39 Device_Startup/system_samd21.o
 .debug_macro   0x00000000       0x1c Device_Startup/system_samd21.o
 .debug_macro   0x00000000       0x22 Device_Startup/system_samd21.o
 .debug_macro   0x00000000       0xb5 Device_Startup/system_samd21.o
 .debug_macro   0x00000000      0x3ad Device_Startup/system_samd21.o
 .debug_macro   0x00000000      0x67e Device_Startup/system_samd21.o
 .debug_macro   0x00000000      0x8b1 Device_Startup/system_samd21.o
 .debug_macro   0x00000000      0x22e Device_Startup/system_samd21.o
 .debug_macro   0x00000000      0xd5c Device_Startup/system_samd21.o
 .debug_macro   0x00000000      0x4dc Device_Startup/system_samd21.o
 .debug_macro   0x00000000      0x9f6 Device_Startup/system_samd21.o
 .debug_macro   0x00000000      0x82b Device_Startup/system_samd21.o
 .debug_macro   0x00000000      0x45f Device_Startup/system_samd21.o
 .debug_macro   0x00000000       0x5e Device_Startup/system_samd21.o
 .debug_macro   0x00000000      0x8f9 Device_Startup/system_samd21.o
 .debug_macro   0x00000000      0x21c Device_Startup/system_samd21.o
 .debug_macro   0x00000000      0x735 Device_Startup/system_samd21.o
 .debug_macro   0x00000000       0x5e Device_Startup/system_samd21.o
 .debug_macro   0x00000000      0x632 Device_Startup/system_samd21.o
 .debug_macro   0x00000000      0x3ac Device_Startup/system_samd21.o
 .debug_macro   0x00000000      0xc76 Device_Startup/system_samd21.o
 .debug_macro   0x00000000     0x1092 Device_Startup/system_samd21.o
 .debug_macro   0x00000000      0xc4a Device_Startup/system_samd21.o
 .debug_macro   0x00000000      0x6ba Device_Startup/system_samd21.o
 .debug_macro   0x00000000     0x1b3d Device_Startup/system_samd21.o
 .debug_macro   0x00000000     0x143c Device_Startup/system_samd21.o
 .debug_macro   0x00000000      0x340 Device_Startup/system_samd21.o
 .debug_macro   0x00000000       0x7c Device_Startup/system_samd21.o
 .debug_macro   0x00000000       0xa0 Device_Startup/system_samd21.o
 .debug_macro   0x00000000       0x4c Device_Startup/system_samd21.o
 .debug_macro   0x00000000       0xca Device_Startup/system_samd21.o
 .debug_macro   0x00000000       0x94 Device_Startup/system_samd21.o
 .debug_macro   0x00000000       0x58 Device_Startup/system_samd21.o
 .debug_macro   0x00000000      0x341 Device_Startup/system_samd21.o
 .debug_macro   0x00000000       0x82 Device_Startup/system_samd21.o
 .debug_macro   0x00000000      0x189 Device_Startup/system_samd21.o
 .debug_macro   0x00000000       0xb8 Device_Startup/system_samd21.o
 .debug_macro   0x00000000       0xa0 Device_Startup/system_samd21.o
 .debug_macro   0x00000000       0xb2 Device_Startup/system_samd21.o
 .debug_macro   0x00000000       0x1c Device_Startup/system_samd21.o
 .debug_macro   0x00000000       0x1c Device_Startup/system_samd21.o
 .debug_macro   0x00000000       0x1c Device_Startup/system_samd21.o
 .debug_macro   0x00000000       0x7c Device_Startup/system_samd21.o
 .debug_macro   0x00000000      0x15a Device_Startup/system_samd21.o
 .debug_macro   0x00000000       0x10 Device_Startup/system_samd21.o
 .debug_macro   0x00000000       0xdc Device_Startup/system_samd21.o
 .debug_macro   0x00000000      0x124 Device_Startup/system_samd21.o
 .debug_macro   0x00000000      0x124 Device_Startup/system_samd21.o
 .debug_macro   0x00000000      0x124 Device_Startup/system_samd21.o
 .debug_macro   0x00000000      0x124 Device_Startup/system_samd21.o
 .debug_macro   0x00000000      0x124 Device_Startup/system_samd21.o
 .debug_macro   0x00000000      0x124 Device_Startup/system_samd21.o
 .debug_macro   0x00000000      0x124 Device_Startup/system_samd21.o
 .debug_macro   0x00000000       0xe2 Device_Startup/system_samd21.o
 .debug_macro   0x00000000       0xe2 Device_Startup/system_samd21.o
 .debug_macro   0x00000000       0xe2 Device_Startup/system_samd21.o
 .debug_macro   0x00000000       0xe2 Device_Startup/system_samd21.o
 .debug_macro   0x00000000       0xe2 Device_Startup/system_samd21.o
 .debug_macro   0x00000000      0x12a Device_Startup/system_samd21.o
 .debug_macro   0x00000000      0x100 Device_Startup/system_samd21.o
 .debug_macro   0x00000000       0xf4 Device_Startup/system_samd21.o
 .debug_macro   0x00000000      0x40f Device_Startup/system_samd21.o
 .debug_macro   0x00000000       0x40 Device_Startup/system_samd21.o
 .debug_macro   0x00000000      0x392 Device_Startup/system_samd21.o
 .debug_macro   0x00000000     0x1fb0 Device_Startup/system_samd21.o
 .debug_macro   0x00000000       0x6d Device_Startup/system_samd21.o
 .debug_line    0x00000000      0x6f4 Device_Startup/system_samd21.o
 .debug_str     0x00000000    0x7062c Device_Startup/system_samd21.o
 .comment       0x00000000       0x5a Device_Startup/system_samd21.o
 .debug_frame   0x00000000       0x30 Device_Startup/system_samd21.o
 .ARM.attributes
                0x00000000       0x32 Device_Startup/system_samd21.o
 .group         0x00000000        0x8 main.o
 .group         0x00000000        0x8 main.o
 .group         0x00000000        0x8 main.o
 .group         0x00000000        0x8 main.o
 .group         0x00000000        0x8 main.o
 .group         0x00000000        0x8 main.o
 .group         0x00000000        0x8 main.o
 .group         0x00000000        0x8 main.o
 .group         0x00000000        0x8 main.o
 .group         0x00000000        0x8 main.o
 .group         0x00000000        0x8 main.o
 .group         0x00000000        0x8 main.o
 .group         0x00000000        0x8 main.o
 .group         0x00000000        0x8 main.o
 .group         0x00000000        0x8 main.o
 .group         0x00000000        0x8 main.o
 .group         0x00000000        0x8 main.o
 .group         0x00000000        0x8 main.o
 .group         0x00000000        0x8 main.o
 .group         0x00000000        0x8 main.o
 .group         0x00000000        0x8 main.o
 .group         0x00000000        0x8 main.o
 .group         0x00000000        0x8 main.o
 .group         0x00000000        0x8 main.o
 .group         0x00000000        0x8 main.o
 .group         0x00000000        0x8 main.o
 .group         0x00000000        0x8 main.o
 .group         0x00000000        0x8 main.o
 .group         0x00000000        0x8 main.o
 .group         0x00000000        0x8 main.o
 .group         0x00000000        0x8 main.o
 .group         0x00000000        0x8 main.o
 .group         0x00000000        0x8 main.o
 .group         0x00000000        0x8 main.o
 .group         0x00000000        0x8 main.o
 .group         0x00000000        0x8 main.o
 .group         0x00000000        0x8 main.o
 .group         0x00000000        0x8 main.o
 .group         0x00000000        0x8 main.o
 .group         0x00000000        0x8 main.o
 .group         0x00000000        0x8 main.o
 .group         0x00000000        0x8 main.o
 .group         0x00000000        0x8 main.o
 .group         0x00000000        0x8 main.o
 .group         0x00000000        0x8 main.o
 .group         0x00000000        0x8 main.o
 .group         0x00000000        0x8 main.o
 .group         0x00000000        0x8 main.o
 .group         0x00000000        0x8 main.o
 .group         0x00000000        0x8 main.o
 .group         0x00000000        0x8 main.o
 .group         0x00000000        0x8 main.o
 .group         0x00000000        0x8 main.o
 .group         0x00000000        0x8 main.o
 .group         0x00000000        0x8 main.o
 .group         0x00000000        0x8 main.o
 .group         0x00000000        0x8 main.o
 .group         0x00000000        0x8 main.o
 .group         0x00000000        0x8 main.o
 .group         0x00000000        0x8 main.o
 .group         0x00000000        0x8 main.o
 .group         0x00000000        0x8 main.o
 .group         0x00000000        0x8 main.o
 .group         0x00000000        0x8 main.o
 .group         0x00000000        0x8 main.o
 .group         0x00000000        0x8 main.o
 .group         0x00000000        0x8 main.o
 .group         0x00000000        0x8 main.o
 .group         0x00000000        0x8 main.o
 .group         0x00000000        0x8 main.o
 .group         0x00000000        0x8 main.o
 .group         0x00000000        0x8 main.o
 .group         0x00000000        0x8 main.o
 .group         0x00000000        0x8 main.o
 .group         0x00000000        0x8 main.o
 .group         0x00000000        0x8 main.o
 .group         0x00000000        0x8 main.o
 .group         0x00000000        0x8 main.o
 .group         0x00000000        0x8 main.o
 .group         0x00000000        0x8 main.o
 .group         0x00000000        0x8 main.o
 .group         0x00000000        0x8 main.o
 .group         0x00000000        0x8 main.o
 .group         0x00000000        0x8 main.o
 .group         0x00000000        0x8 main.o
 .group         0x00000000        0x8 main.o
 .group         0x00000000        0x8 main.o
 .group         0x00000000        0x8 main.o
 .group         0x00000000        0x8 main.o
 .group         0x00000000        0x8 main.o
 .group         0x00000000        0x8 main.o
 .group         0x00000000        0x8 main.o
 .group         0x00000000        0x8 main.o
 .group         0x00000000        0x8 main.o
 .group         0x00000000        0x8 main.o
 .group         0x00000000        0x8 main.o
 .group         0x00000000        0x8 main.o
 .group         0x00000000        0x8 main.o
 .group         0x00000000        0x8 main.o
 .group         0x00000000        0x8 main.o
 .group         0x00000000        0x8 main.o
 .group         0x00000000        0x8 main.o
 .group         0x00000000        0x8 main.o
 .group         0x00000000        0x8 main.o
 .group         0x00000000        0x8 main.o
 .group         0x00000000        0x8 main.o
 .group         0x00000000        0x8 main.o
 .group         0x00000000        0x8 main.o
 .group         0x00000000        0x8 main.o
 .group         0x00000000        0x8 main.o
 .group         0x00000000        0x8 main.o
 .group         0x00000000        0x8 main.o
 .group         0x00000000        0x8 main.o
 .group         0x00000000        0x8 main.o
 .group         0x00000000        0x8 main.o
 .group         0x00000000        0x8 main.o
 .group         0x00000000        0x8 main.o
 .group         0x00000000        0x8 main.o
 .group         0x00000000        0x8 main.o
 .group         0x00000000        0x8 main.o
 .group         0x00000000        0x8 main.o
 .group         0x00000000        0x8 main.o
 .group         0x00000000        0x8 main.o
 .text          0x00000000        0x0 main.o
 .data          0x00000000        0x0 main.o
 .debug_macro   0x00000000      0x970 main.o
 .debug_macro   0x00000000      0x17b main.o
 .debug_macro   0x00000000       0x1c main.o
 .debug_macro   0x00000000       0x22 main.o
 .debug_macro   0x00000000       0x87 main.o
 .debug_macro   0x00000000       0x51 main.o
 .debug_macro   0x00000000       0xef main.o
 .debug_macro   0x00000000       0x6a main.o
 .debug_macro   0x00000000      0x1df main.o
 .debug_macro   0x00000000       0x16 main.o
 .debug_macro   0x00000000       0x3f main.o
 .debug_macro   0x00000000       0x1c main.o
 .debug_macro   0x00000000       0x22 main.o
 .debug_macro   0x00000000       0xb5 main.o
 .debug_macro   0x00000000      0x3ad main.o
 .debug_macro   0x00000000      0x67e main.o
 .debug_macro   0x00000000      0x8b1 main.o
 .debug_macro   0x00000000      0x22e main.o
 .debug_macro   0x00000000      0xd5c main.o
 .debug_macro   0x00000000      0x4dc main.o
 .debug_macro   0x00000000      0x9f6 main.o
 .debug_macro   0x00000000      0x82b main.o
 .debug_macro   0x00000000      0x45f main.o
 .debug_macro   0x00000000       0x5e main.o
 .debug_macro   0x00000000      0x8f9 main.o
 .debug_macro   0x00000000      0x21c main.o
 .debug_macro   0x00000000      0x735 main.o
 .debug_macro   0x00000000       0x5e main.o
 .debug_macro   0x00000000      0x632 main.o
 .debug_macro   0x00000000      0x3ac main.o
 .debug_macro   0x00000000      0xc76 main.o
 .debug_macro   0x00000000     0x1092 main.o
 .debug_macro   0x00000000      0xc4a main.o
 .debug_macro   0x00000000      0x6ba main.o
 .debug_macro   0x00000000     0x1b3d main.o
 .debug_macro   0x00000000     0x143c main.o
 .debug_macro   0x00000000      0x340 main.o
 .debug_macro   0x00000000       0x7c main.o
 .debug_macro   0x00000000       0xa0 main.o
 .debug_macro   0x00000000       0x4c main.o
 .debug_macro   0x00000000       0xca main.o
 .debug_macro   0x00000000       0x94 main.o
 .debug_macro   0x00000000       0x58 main.o
 .debug_macro   0x00000000      0x341 main.o
 .debug_macro   0x00000000       0x82 main.o
 .debug_macro   0x00000000      0x189 main.o
 .debug_macro   0x00000000       0xb8 main.o
 .debug_macro   0x00000000       0xa0 main.o
 .debug_macro   0x00000000       0xb2 main.o
 .debug_macro   0x00000000       0x1c main.o
 .debug_macro   0x00000000       0x1c main.o
 .debug_macro   0x00000000       0x1c main.o
 .debug_macro   0x00000000       0x7c main.o
 .debug_macro   0x00000000      0x15a main.o
 .debug_macro   0x00000000       0x10 main.o
 .debug_macro   0x00000000       0xdc main.o
 .debug_macro   0x00000000      0x124 main.o
 .debug_macro   0x00000000      0x124 main.o
 .debug_macro   0x00000000      0x124 main.o
 .debug_macro   0x00000000      0x124 main.o
 .debug_macro   0x00000000      0x124 main.o
 .debug_macro   0x00000000      0x124 main.o
 .debug_macro   0x00000000      0x124 main.o
 .debug_macro   0x00000000       0xe2 main.o
 .debug_macro   0x00000000       0xe2 main.o
 .debug_macro   0x00000000       0xe2 main.o
 .debug_macro   0x00000000       0xe2 main.o
 .debug_macro   0x00000000       0xe2 main.o
 .debug_macro   0x00000000      0x12a main.o
 .debug_macro   0x00000000      0x100 main.o
 .debug_macro   0x00000000       0xf4 main.o
 .debug_macro   0x00000000      0x40f main.o
 .debug_macro   0x00000000       0x40 main.o
 .debug_macro   0x00000000      0x392 main.o
 .debug_macro   0x00000000     0x1fb0 main.o
 .debug_macro   0x00000000       0x6d main.o
 .debug_macro   0x00000000       0x10 main.o
 .debug_macro   0x00000000       0x10 main.o
 .debug_macro   0x00000000       0x16 main.o
 .debug_macro   0x00000000       0x16 main.o
 .debug_macro   0x00000000       0x16 main.o
 .debug_macro   0x00000000       0x16 main.o
 .debug_macro   0x00000000       0x16 main.o
 .debug_macro   0x00000000       0x16 main.o
 .debug_macro   0x00000000       0x16 main.o
 .debug_macro   0x00000000       0x16 main.o
 .debug_macro   0x00000000       0x16 main.o
 .debug_macro   0x00000000       0x16 main.o
 .debug_macro   0x00000000       0x16 main.o
 .debug_macro   0x00000000       0x16 main.o
 .debug_macro   0x00000000       0x16 main.o
 .debug_macro   0x00000000       0x16 main.o
 .debug_macro   0x00000000      0x4c3 main.o
 .debug_macro   0x00000000       0x94 main.o
 .debug_macro   0x00000000       0x16 main.o
 .debug_macro   0x00000000       0x6a main.o
 .debug_macro   0x00000000      0x28c main.o
 .debug_macro   0x00000000      0x4d8 main.o
 .debug_macro   0x00000000       0x16 main.o
 .debug_macro   0x00000000       0xca main.o
 .debug_macro   0x00000000       0x1c main.o
 .debug_macro   0x00000000       0x16 main.o
 .debug_macro   0x00000000       0xb2 main.o
 .debug_macro   0x00000000       0xc9 main.o
 .debug_macro   0x00000000       0x10 main.o
 .debug_macro   0x00000000       0xd1 main.o
 .debug_macro   0x00000000       0xee main.o
 .debug_macro   0x00000000       0x58 main.o
 .debug_macro   0x00000000       0x35 main.o
 .debug_macro   0x00000000       0x9c main.o
 .debug_macro   0x00000000       0x58 main.o
 .debug_macro   0x00000000       0x1f main.o
 .debug_macro   0x00000000       0x43 main.o
 .debug_macro   0x00000000       0x20 main.o
 .debug_macro   0x00000000      0x187 main.o
 .debug_macro   0x00000000      0x34d main.o
 .debug_macro   0x00000000       0x35 main.o
 .group         0x00000000        0x8 SPI_Syn_Class_ADF.o
 .group         0x00000000        0x8 SPI_Syn_Class_ADF.o
 .group         0x00000000        0x8 SPI_Syn_Class_ADF.o
 .group         0x00000000        0x8 SPI_Syn_Class_ADF.o
 .group         0x00000000        0x8 SPI_Syn_Class_ADF.o
 .group         0x00000000        0x8 SPI_Syn_Class_ADF.o
 .group         0x00000000        0x8 SPI_Syn_Class_ADF.o
 .group         0x00000000        0x8 SPI_Syn_Class_ADF.o
 .group         0x00000000        0x8 SPI_Syn_Class_ADF.o
 .group         0x00000000        0x8 SPI_Syn_Class_ADF.o
 .group         0x00000000        0x8 SPI_Syn_Class_ADF.o
 .group         0x00000000        0x8 SPI_Syn_Class_ADF.o
 .group         0x00000000        0x8 SPI_Syn_Class_ADF.o
 .group         0x00000000        0x8 SPI_Syn_Class_ADF.o
 .group         0x00000000        0x8 SPI_Syn_Class_ADF.o
 .group         0x00000000        0x8 SPI_Syn_Class_ADF.o
 .group         0x00000000        0x8 SPI_Syn_Class_ADF.o
 .group         0x00000000        0x8 SPI_Syn_Class_ADF.o
 .group         0x00000000        0x8 SPI_Syn_Class_ADF.o
 .group         0x00000000        0x8 SPI_Syn_Class_ADF.o
 .group         0x00000000        0x8 SPI_Syn_Class_ADF.o
 .group         0x00000000        0x8 SPI_Syn_Class_ADF.o
 .group         0x00000000        0x8 SPI_Syn_Class_ADF.o
 .group         0x00000000        0x8 SPI_Syn_Class_ADF.o
 .group         0x00000000        0x8 SPI_Syn_Class_ADF.o
 .group         0x00000000        0x8 SPI_Syn_Class_ADF.o
 .group         0x00000000        0x8 SPI_Syn_Class_ADF.o
 .group         0x00000000        0x8 SPI_Syn_Class_ADF.o
 .group         0x00000000        0x8 SPI_Syn_Class_ADF.o
 .group         0x00000000        0x8 SPI_Syn_Class_ADF.o
 .group         0x00000000        0x8 SPI_Syn_Class_ADF.o
 .group         0x00000000        0x8 SPI_Syn_Class_ADF.o
 .group         0x00000000        0x8 SPI_Syn_Class_ADF.o
 .group         0x00000000        0x8 SPI_Syn_Class_ADF.o
 .group         0x00000000        0x8 SPI_Syn_Class_ADF.o
 .group         0x00000000        0x8 SPI_Syn_Class_ADF.o
 .group         0x00000000        0x8 SPI_Syn_Class_ADF.o
 .group         0x00000000        0x8 SPI_Syn_Class_ADF.o
 .group         0x00000000        0x8 SPI_Syn_Class_ADF.o
 .group         0x00000000        0x8 SPI_Syn_Class_ADF.o
 .group         0x00000000        0x8 SPI_Syn_Class_ADF.o
 .group         0x00000000        0x8 SPI_Syn_Class_ADF.o
 .group         0x00000000        0x8 SPI_Syn_Class_ADF.o
 .group         0x00000000        0x8 SPI_Syn_Class_ADF.o
 .group         0x00000000        0x8 SPI_Syn_Class_ADF.o
 .group         0x00000000        0x8 SPI_Syn_Class_ADF.o
 .group         0x00000000        0x8 SPI_Syn_Class_ADF.o
 .group         0x00000000        0x8 SPI_Syn_Class_ADF.o
 .group         0x00000000        0x8 SPI_Syn_Class_ADF.o
 .group         0x00000000        0x8 SPI_Syn_Class_ADF.o
 .group         0x00000000        0x8 SPI_Syn_Class_ADF.o
 .group         0x00000000        0x8 SPI_Syn_Class_ADF.o
 .group         0x00000000        0x8 SPI_Syn_Class_ADF.o
 .group         0x00000000        0x8 SPI_Syn_Class_ADF.o
 .group         0x00000000        0x8 SPI_Syn_Class_ADF.o
 .group         0x00000000        0x8 SPI_Syn_Class_ADF.o
 .group         0x00000000        0x8 SPI_Syn_Class_ADF.o
 .group         0x00000000        0x8 SPI_Syn_Class_ADF.o
 .group         0x00000000        0x8 SPI_Syn_Class_ADF.o
 .group         0x00000000        0x8 SPI_Syn_Class_ADF.o
 .group         0x00000000        0x8 SPI_Syn_Class_ADF.o
 .group         0x00000000        0x8 SPI_Syn_Class_ADF.o
 .group         0x00000000        0x8 SPI_Syn_Class_ADF.o
 .group         0x00000000        0x8 SPI_Syn_Class_ADF.o
 .group         0x00000000        0x8 SPI_Syn_Class_ADF.o
 .group         0x00000000        0x8 SPI_Syn_Class_ADF.o
 .group         0x00000000        0x8 SPI_Syn_Class_ADF.o
 .group         0x00000000        0x8 SPI_Syn_Class_ADF.o
 .group         0x00000000        0x8 SPI_Syn_Class_ADF.o
 .group         0x00000000        0x8 SPI_Syn_Class_ADF.o
 .group         0x00000000        0x8 SPI_Syn_Class_ADF.o
 .group         0x00000000        0x8 SPI_Syn_Class_ADF.o
 .group         0x00000000        0x8 SPI_Syn_Class_ADF.o
 .group         0x00000000        0x8 SPI_Syn_Class_ADF.o
 .group         0x00000000        0x8 SPI_Syn_Class_ADF.o
 .group         0x00000000        0x8 SPI_Syn_Class_ADF.o
 .group         0x00000000        0x8 SPI_Syn_Class_ADF.o
 .group         0x00000000        0x8 SPI_Syn_Class_ADF.o
 .group         0x00000000        0x8 SPI_Syn_Class_ADF.o
 .group         0x00000000        0x8 SPI_Syn_Class_ADF.o
 .group         0x00000000        0x8 SPI_Syn_Class_ADF.o
 .group         0x00000000        0x8 SPI_Syn_Class_ADF.o
 .group         0x00000000        0x8 SPI_Syn_Class_ADF.o
 .group         0x00000000        0x8 SPI_Syn_Class_ADF.o
 .group         0x00000000        0x8 SPI_Syn_Class_ADF.o
 .group         0x00000000        0x8 SPI_Syn_Class_ADF.o
 .group         0x00000000        0x8 SPI_Syn_Class_ADF.o
 .group         0x00000000        0x8 SPI_Syn_Class_ADF.o
 .group         0x00000000        0x8 SPI_Syn_Class_ADF.o
 .group         0x00000000        0x8 SPI_Syn_Class_ADF.o
 .group         0x00000000        0x8 SPI_Syn_Class_ADF.o
 .group         0x00000000        0x8 SPI_Syn_Class_ADF.o
 .group         0x00000000        0x8 SPI_Syn_Class_ADF.o
 .group         0x00000000        0x8 SPI_Syn_Class_ADF.o
 .group         0x00000000        0x8 SPI_Syn_Class_ADF.o
 .group         0x00000000        0x8 SPI_Syn_Class_ADF.o
 .group         0x00000000        0x8 SPI_Syn_Class_ADF.o
 .group         0x00000000        0x8 SPI_Syn_Class_ADF.o
 .group         0x00000000        0x8 SPI_Syn_Class_ADF.o
 .group         0x00000000        0x8 SPI_Syn_Class_ADF.o
 .group         0x00000000        0x8 SPI_Syn_Class_ADF.o
 .group         0x00000000        0x8 SPI_Syn_Class_ADF.o
 .group         0x00000000        0x8 SPI_Syn_Class_ADF.o
 .group         0x00000000        0x8 SPI_Syn_Class_ADF.o
 .group         0x00000000        0x8 SPI_Syn_Class_ADF.o
 .group         0x00000000        0x8 SPI_Syn_Class_ADF.o
 .group         0x00000000        0x8 SPI_Syn_Class_ADF.o
 .text          0x00000000        0x0 SPI_Syn_Class_ADF.o
 .data          0x00000000        0x0 SPI_Syn_Class_ADF.o
 .text._ZN17SPI_Syn_Class_ADF7DisableEv
                0x00000000       0x14 SPI_Syn_Class_ADF.o
 .text._ZN17SPI_Syn_Class_ADF10IsSPIReadyEv
                0x00000000        0x4 SPI_Syn_Class_ADF.o
 .debug_macro   0x00000000      0x970 SPI_Syn_Class_ADF.o
 .debug_macro   0x00000000      0x17b SPI_Syn_Class_ADF.o
 .debug_macro   0x00000000       0x1c SPI_Syn_Class_ADF.o
 .debug_macro   0x00000000       0x22 SPI_Syn_Class_ADF.o
 .debug_macro   0x00000000       0x87 SPI_Syn_Class_ADF.o
 .debug_macro   0x00000000       0x51 SPI_Syn_Class_ADF.o
 .debug_macro   0x00000000       0xef SPI_Syn_Class_ADF.o
 .debug_macro   0x00000000       0x6a SPI_Syn_Class_ADF.o
 .debug_macro   0x00000000      0x1df SPI_Syn_Class_ADF.o
 .debug_macro   0x00000000       0x16 SPI_Syn_Class_ADF.o
 .debug_macro   0x00000000       0x3f SPI_Syn_Class_ADF.o
 .debug_macro   0x00000000       0x1c SPI_Syn_Class_ADF.o
 .debug_macro   0x00000000       0x22 SPI_Syn_Class_ADF.o
 .debug_macro   0x00000000       0xb5 SPI_Syn_Class_ADF.o
 .debug_macro   0x00000000      0x3ad SPI_Syn_Class_ADF.o
 .debug_macro   0x00000000      0x67e SPI_Syn_Class_ADF.o
 .debug_macro   0x00000000      0x8b1 SPI_Syn_Class_ADF.o
 .debug_macro   0x00000000      0x22e SPI_Syn_Class_ADF.o
 .debug_macro   0x00000000      0xd5c SPI_Syn_Class_ADF.o
 .debug_macro   0x00000000      0x4dc SPI_Syn_Class_ADF.o
 .debug_macro   0x00000000      0x9f6 SPI_Syn_Class_ADF.o
 .debug_macro   0x00000000      0x82b SPI_Syn_Class_ADF.o
 .debug_macro   0x00000000      0x45f SPI_Syn_Class_ADF.o
 .debug_macro   0x00000000       0x5e SPI_Syn_Class_ADF.o
 .debug_macro   0x00000000      0x8f9 SPI_Syn_Class_ADF.o
 .debug_macro   0x00000000      0x21c SPI_Syn_Class_ADF.o
 .debug_macro   0x00000000      0x735 SPI_Syn_Class_ADF.o
 .debug_macro   0x00000000       0x5e SPI_Syn_Class_ADF.o
 .debug_macro   0x00000000      0x632 SPI_Syn_Class_ADF.o
 .debug_macro   0x00000000      0x3ac SPI_Syn_Class_ADF.o
 .debug_macro   0x00000000      0xc76 SPI_Syn_Class_ADF.o
 .debug_macro   0x00000000     0x1092 SPI_Syn_Class_ADF.o
 .debug_macro   0x00000000      0xc4a SPI_Syn_Class_ADF.o
 .debug_macro   0x00000000      0x6ba SPI_Syn_Class_ADF.o
 .debug_macro   0x00000000     0x1b3d SPI_Syn_Class_ADF.o
 .debug_macro   0x00000000     0x143c SPI_Syn_Class_ADF.o
 .debug_macro   0x00000000      0x340 SPI_Syn_Class_ADF.o
 .debug_macro   0x00000000       0x7c SPI_Syn_Class_ADF.o
 .debug_macro   0x00000000       0xa0 SPI_Syn_Class_ADF.o
 .debug_macro   0x00000000       0x4c SPI_Syn_Class_ADF.o
 .debug_macro   0x00000000       0xca SPI_Syn_Class_ADF.o
 .debug_macro   0x00000000       0x94 SPI_Syn_Class_ADF.o
 .debug_macro   0x00000000       0x58 SPI_Syn_Class_ADF.o
 .debug_macro   0x00000000      0x341 SPI_Syn_Class_ADF.o
 .debug_macro   0x00000000       0x82 SPI_Syn_Class_ADF.o
 .debug_macro   0x00000000      0x189 SPI_Syn_Class_ADF.o
 .debug_macro   0x00000000       0xb8 SPI_Syn_Class_ADF.o
 .debug_macro   0x00000000       0xa0 SPI_Syn_Class_ADF.o
 .debug_macro   0x00000000       0xb2 SPI_Syn_Class_ADF.o
 .debug_macro   0x00000000       0x1c SPI_Syn_Class_ADF.o
 .debug_macro   0x00000000       0x1c SPI_Syn_Class_ADF.o
 .debug_macro   0x00000000       0x1c SPI_Syn_Class_ADF.o
 .debug_macro   0x00000000       0x7c SPI_Syn_Class_ADF.o
 .debug_macro   0x00000000      0x15a SPI_Syn_Class_ADF.o
 .debug_macro   0x00000000       0x10 SPI_Syn_Class_ADF.o
 .debug_macro   0x00000000       0xdc SPI_Syn_Class_ADF.o
 .debug_macro   0x00000000      0x124 SPI_Syn_Class_ADF.o
 .debug_macro   0x00000000      0x124 SPI_Syn_Class_ADF.o
 .debug_macro   0x00000000      0x124 SPI_Syn_Class_ADF.o
 .debug_macro   0x00000000      0x124 SPI_Syn_Class_ADF.o
 .debug_macro   0x00000000      0x124 SPI_Syn_Class_ADF.o
 .debug_macro   0x00000000      0x124 SPI_Syn_Class_ADF.o
 .debug_macro   0x00000000      0x124 SPI_Syn_Class_ADF.o
 .debug_macro   0x00000000       0xe2 SPI_Syn_Class_ADF.o
 .debug_macro   0x00000000       0xe2 SPI_Syn_Class_ADF.o
 .debug_macro   0x00000000       0xe2 SPI_Syn_Class_ADF.o
 .debug_macro   0x00000000       0xe2 SPI_Syn_Class_ADF.o
 .debug_macro   0x00000000       0xe2 SPI_Syn_Class_ADF.o
 .debug_macro   0x00000000      0x12a SPI_Syn_Class_ADF.o
 .debug_macro   0x00000000      0x100 SPI_Syn_Class_ADF.o
 .debug_macro   0x00000000       0xf4 SPI_Syn_Class_ADF.o
 .debug_macro   0x00000000      0x40f SPI_Syn_Class_ADF.o
 .debug_macro   0x00000000       0x40 SPI_Syn_Class_ADF.o
 .debug_macro   0x00000000      0x392 SPI_Syn_Class_ADF.o
 .debug_macro   0x00000000     0x1fb0 SPI_Syn_Class_ADF.o
 .debug_macro   0x00000000       0x6d SPI_Syn_Class_ADF.o
 .debug_macro   0x00000000       0x10 SPI_Syn_Class_ADF.o
 .debug_macro   0x00000000       0x10 SPI_Syn_Class_ADF.o
 .debug_macro   0x00000000       0x16 SPI_Syn_Class_ADF.o
 .debug_macro   0x00000000       0x16 SPI_Syn_Class_ADF.o
 .debug_macro   0x00000000       0x16 SPI_Syn_Class_ADF.o
 .debug_macro   0x00000000       0x16 SPI_Syn_Class_ADF.o
 .debug_macro   0x00000000       0x16 SPI_Syn_Class_ADF.o
 .debug_macro   0x00000000       0x16 SPI_Syn_Class_ADF.o
 .debug_macro   0x00000000       0x16 SPI_Syn_Class_ADF.o
 .debug_macro   0x00000000       0x16 SPI_Syn_Class_ADF.o
 .debug_macro   0x00000000       0x16 SPI_Syn_Class_ADF.o
 .debug_macro   0x00000000       0x16 SPI_Syn_Class_ADF.o
 .debug_macro   0x00000000       0x16 SPI_Syn_Class_ADF.o
 .debug_macro   0x00000000       0x16 SPI_Syn_Class_ADF.o
 .debug_macro   0x00000000       0x16 SPI_Syn_Class_ADF.o
 .debug_macro   0x00000000       0x16 SPI_Syn_Class_ADF.o
 .debug_macro   0x00000000      0x4c3 SPI_Syn_Class_ADF.o
 .debug_macro   0x00000000       0x94 SPI_Syn_Class_ADF.o
 .debug_macro   0x00000000       0x16 SPI_Syn_Class_ADF.o
 .debug_macro   0x00000000       0x6a SPI_Syn_Class_ADF.o
 .debug_macro   0x00000000      0x28c SPI_Syn_Class_ADF.o
 .debug_macro   0x00000000      0x4d8 SPI_Syn_Class_ADF.o
 .debug_macro   0x00000000       0x16 SPI_Syn_Class_ADF.o
 .debug_macro   0x00000000       0xca SPI_Syn_Class_ADF.o
 .debug_macro   0x00000000       0x1c SPI_Syn_Class_ADF.o
 .debug_macro   0x00000000       0x16 SPI_Syn_Class_ADF.o
 .debug_macro   0x00000000       0xb2 SPI_Syn_Class_ADF.o
 .debug_macro   0x00000000       0xc9 SPI_Syn_Class_ADF.o
 .debug_macro   0x00000000       0x10 SPI_Syn_Class_ADF.o
 .debug_macro   0x00000000       0xd1 SPI_Syn_Class_ADF.o
 .debug_macro   0x00000000       0xee SPI_Syn_Class_ADF.o
 .text          0x00000000        0x0 C:\Salukat\Purificador\SoftwareDevelopment\Atmel_Microchip\SAMD21_BSP\SAMD21_BSP\Release\libSAMD21_BSP.a(atmel_start.o)
 .data          0x00000000        0x0 C:\Salukat\Purificador\SoftwareDevelopment\Atmel_Microchip\SAMD21_BSP\SAMD21_BSP\Release\libSAMD21_BSP.a(atmel_start.o)
 .bss           0x00000000        0x0 C:\Salukat\Purificador\SoftwareDevelopment\Atmel_Microchip\SAMD21_BSP\SAMD21_BSP\Release\libSAMD21_BSP.a(atmel_start.o)
 .text          0x00000000        0x0 C:\Salukat\Purificador\SoftwareDevelopment\Atmel_Microchip\SAMD21_BSP\SAMD21_BSP\Release\libSAMD21_BSP.a(driver_init.o)
 .data          0x00000000        0x0 C:\Salukat\Purificador\SoftwareDevelopment\Atmel_Microchip\SAMD21_BSP\SAMD21_BSP\Release\libSAMD21_BSP.a(driver_init.o)
 .text          0x00000000        0x0 C:\Salukat\Purificador\SoftwareDevelopment\Atmel_Microchip\SAMD21_BSP\SAMD21_BSP\Release\libSAMD21_BSP.a(hal_atomic.o)
 .data          0x00000000        0x0 C:\Salukat\Purificador\SoftwareDevelopment\Atmel_Microchip\SAMD21_BSP\SAMD21_BSP\Release\libSAMD21_BSP.a(hal_atomic.o)
 .bss           0x00000000        0x0 C:\Salukat\Purificador\SoftwareDevelopment\Atmel_Microchip\SAMD21_BSP\SAMD21_BSP\Release\libSAMD21_BSP.a(hal_atomic.o)
 .text.atomic_get_version
                0x00000000        0x4 C:\Salukat\Purificador\SoftwareDevelopment\Atmel_Microchip\SAMD21_BSP\SAMD21_BSP\Release\libSAMD21_BSP.a(hal_atomic.o)
 .text          0x00000000        0x0 C:\Salukat\Purificador\SoftwareDevelopment\Atmel_Microchip\SAMD21_BSP\SAMD21_BSP\Release\libSAMD21_BSP.a(hal_dac_sync.o)
 .data          0x00000000        0x0 C:\Salukat\Purificador\SoftwareDevelopment\Atmel_Microchip\SAMD21_BSP\SAMD21_BSP\Release\libSAMD21_BSP.a(hal_dac_sync.o)
 .bss           0x00000000        0x0 C:\Salukat\Purificador\SoftwareDevelopment\Atmel_Microchip\SAMD21_BSP\SAMD21_BSP\Release\libSAMD21_BSP.a(hal_dac_sync.o)
 .text.dac_sync_deinit
                0x00000000       0x10 C:\Salukat\Purificador\SoftwareDevelopment\Atmel_Microchip\SAMD21_BSP\SAMD21_BSP\Release\libSAMD21_BSP.a(hal_dac_sync.o)
 .text.dac_sync_enable_channel
                0x00000000       0x10 C:\Salukat\Purificador\SoftwareDevelopment\Atmel_Microchip\SAMD21_BSP\SAMD21_BSP\Release\libSAMD21_BSP.a(hal_dac_sync.o)
 .text.dac_sync_disable_channel
                0x00000000       0x10 C:\Salukat\Purificador\SoftwareDevelopment\Atmel_Microchip\SAMD21_BSP\SAMD21_BSP\Release\libSAMD21_BSP.a(hal_dac_sync.o)
 .text.dac_sync_write
                0x00000000       0x4c C:\Salukat\Purificador\SoftwareDevelopment\Atmel_Microchip\SAMD21_BSP\SAMD21_BSP\Release\libSAMD21_BSP.a(hal_dac_sync.o)
 .text.dac_sync_get_version
                0x00000000        0x4 C:\Salukat\Purificador\SoftwareDevelopment\Atmel_Microchip\SAMD21_BSP\SAMD21_BSP\Release\libSAMD21_BSP.a(hal_dac_sync.o)
 .text          0x00000000        0x0 C:\Salukat\Purificador\SoftwareDevelopment\Atmel_Microchip\SAMD21_BSP\SAMD21_BSP\Release\libSAMD21_BSP.a(hal_delay.o)
 .data          0x00000000        0x0 C:\Salukat\Purificador\SoftwareDevelopment\Atmel_Microchip\SAMD21_BSP\SAMD21_BSP\Release\libSAMD21_BSP.a(hal_delay.o)
 .text.delay_us
                0x00000000       0x20 C:\Salukat\Purificador\SoftwareDevelopment\Atmel_Microchip\SAMD21_BSP\SAMD21_BSP\Release\libSAMD21_BSP.a(hal_delay.o)
 .text.delay_get_version
                0x00000000        0x4 C:\Salukat\Purificador\SoftwareDevelopment\Atmel_Microchip\SAMD21_BSP\SAMD21_BSP\Release\libSAMD21_BSP.a(hal_delay.o)
 .text          0x00000000        0x0 C:\Salukat\Purificador\SoftwareDevelopment\Atmel_Microchip\SAMD21_BSP\SAMD21_BSP\Release\libSAMD21_BSP.a(hal_ext_irq.o)
 .data          0x00000000        0x0 C:\Salukat\Purificador\SoftwareDevelopment\Atmel_Microchip\SAMD21_BSP\SAMD21_BSP\Release\libSAMD21_BSP.a(hal_ext_irq.o)
 .text.ext_irq_deinit
                0x00000000        0xc C:\Salukat\Purificador\SoftwareDevelopment\Atmel_Microchip\SAMD21_BSP\SAMD21_BSP\Release\libSAMD21_BSP.a(hal_ext_irq.o)
 .text.ext_irq_register
                0x00000000       0x3c C:\Salukat\Purificador\SoftwareDevelopment\Atmel_Microchip\SAMD21_BSP\SAMD21_BSP\Release\libSAMD21_BSP.a(hal_ext_irq.o)
 .text.ext_irq_enable
                0x00000000       0x10 C:\Salukat\Purificador\SoftwareDevelopment\Atmel_Microchip\SAMD21_BSP\SAMD21_BSP\Release\libSAMD21_BSP.a(hal_ext_irq.o)
 .text.ext_irq_disable
                0x00000000       0x10 C:\Salukat\Purificador\SoftwareDevelopment\Atmel_Microchip\SAMD21_BSP\SAMD21_BSP\Release\libSAMD21_BSP.a(hal_ext_irq.o)
 .text.ext_irq_get_version
                0x00000000        0x4 C:\Salukat\Purificador\SoftwareDevelopment\Atmel_Microchip\SAMD21_BSP\SAMD21_BSP\Release\libSAMD21_BSP.a(hal_ext_irq.o)
 .text          0x00000000        0x0 C:\Salukat\Purificador\SoftwareDevelopment\Atmel_Microchip\SAMD21_BSP\SAMD21_BSP\Release\libSAMD21_BSP.a(hal_io.o)
 .data          0x00000000        0x0 C:\Salukat\Purificador\SoftwareDevelopment\Atmel_Microchip\SAMD21_BSP\SAMD21_BSP\Release\libSAMD21_BSP.a(hal_io.o)
 .bss           0x00000000        0x0 C:\Salukat\Purificador\SoftwareDevelopment\Atmel_Microchip\SAMD21_BSP\SAMD21_BSP\Release\libSAMD21_BSP.a(hal_io.o)
 .text.io_get_version
                0x00000000        0x4 C:\Salukat\Purificador\SoftwareDevelopment\Atmel_Microchip\SAMD21_BSP\SAMD21_BSP\Release\libSAMD21_BSP.a(hal_io.o)
 .text          0x00000000        0x0 C:\Salukat\Purificador\SoftwareDevelopment\Atmel_Microchip\SAMD21_BSP\SAMD21_BSP\Release\libSAMD21_BSP.a(hal_spi_m_sync.o)
 .data          0x00000000        0x0 C:\Salukat\Purificador\SoftwareDevelopment\Atmel_Microchip\SAMD21_BSP\SAMD21_BSP\Release\libSAMD21_BSP.a(hal_spi_m_sync.o)
 .bss           0x00000000        0x0 C:\Salukat\Purificador\SoftwareDevelopment\Atmel_Microchip\SAMD21_BSP\SAMD21_BSP\Release\libSAMD21_BSP.a(hal_spi_m_sync.o)
 .text.spi_m_sync_set_func_ptr
                0x00000000        0x4 C:\Salukat\Purificador\SoftwareDevelopment\Atmel_Microchip\SAMD21_BSP\SAMD21_BSP\Release\libSAMD21_BSP.a(hal_spi_m_sync.o)
 .text.spi_m_sync_deinit
                0x00000000       0x10 C:\Salukat\Purificador\SoftwareDevelopment\Atmel_Microchip\SAMD21_BSP\SAMD21_BSP\Release\libSAMD21_BSP.a(hal_spi_m_sync.o)
 .text.spi_m_sync_disable
                0x00000000       0x10 C:\Salukat\Purificador\SoftwareDevelopment\Atmel_Microchip\SAMD21_BSP\SAMD21_BSP\Release\libSAMD21_BSP.a(hal_spi_m_sync.o)
 .text.spi_m_sync_set_baudrate
                0x00000000       0x10 C:\Salukat\Purificador\SoftwareDevelopment\Atmel_Microchip\SAMD21_BSP\SAMD21_BSP\Release\libSAMD21_BSP.a(hal_spi_m_sync.o)
 .text.spi_m_sync_set_mode
                0x00000000       0x10 C:\Salukat\Purificador\SoftwareDevelopment\Atmel_Microchip\SAMD21_BSP\SAMD21_BSP\Release\libSAMD21_BSP.a(hal_spi_m_sync.o)
 .text.spi_m_sync_set_char_size
                0x00000000       0x10 C:\Salukat\Purificador\SoftwareDevelopment\Atmel_Microchip\SAMD21_BSP\SAMD21_BSP\Release\libSAMD21_BSP.a(hal_spi_m_sync.o)
 .text.spi_m_sync_set_data_order
                0x00000000       0x10 C:\Salukat\Purificador\SoftwareDevelopment\Atmel_Microchip\SAMD21_BSP\SAMD21_BSP\Release\libSAMD21_BSP.a(hal_spi_m_sync.o)
 .text.spi_m_sync_get_version
                0x00000000        0x4 C:\Salukat\Purificador\SoftwareDevelopment\Atmel_Microchip\SAMD21_BSP\SAMD21_BSP\Release\libSAMD21_BSP.a(hal_spi_m_sync.o)
 .text          0x00000000        0x0 C:\Salukat\Purificador\SoftwareDevelopment\Atmel_Microchip\SAMD21_BSP\SAMD21_BSP\Release\libSAMD21_BSP.a(hal_timer.o)
 .data          0x00000000        0x0 C:\Salukat\Purificador\SoftwareDevelopment\Atmel_Microchip\SAMD21_BSP\SAMD21_BSP\Release\libSAMD21_BSP.a(hal_timer.o)
 .bss           0x00000000        0x0 C:\Salukat\Purificador\SoftwareDevelopment\Atmel_Microchip\SAMD21_BSP\SAMD21_BSP\Release\libSAMD21_BSP.a(hal_timer.o)
 .text.timer_deinit
                0x00000000       0x10 C:\Salukat\Purificador\SoftwareDevelopment\Atmel_Microchip\SAMD21_BSP\SAMD21_BSP\Release\libSAMD21_BSP.a(hal_timer.o)
 .text.timer_start
                0x00000000       0x24 C:\Salukat\Purificador\SoftwareDevelopment\Atmel_Microchip\SAMD21_BSP\SAMD21_BSP\Release\libSAMD21_BSP.a(hal_timer.o)
 .text.timer_stop
                0x00000000       0x24 C:\Salukat\Purificador\SoftwareDevelopment\Atmel_Microchip\SAMD21_BSP\SAMD21_BSP\Release\libSAMD21_BSP.a(hal_timer.o)
 .text.timer_set_clock_cycles_per_tick
                0x00000000       0x10 C:\Salukat\Purificador\SoftwareDevelopment\Atmel_Microchip\SAMD21_BSP\SAMD21_BSP\Release\libSAMD21_BSP.a(hal_timer.o)
 .text.timer_add_task
                0x00000000       0x78 C:\Salukat\Purificador\SoftwareDevelopment\Atmel_Microchip\SAMD21_BSP\SAMD21_BSP\Release\libSAMD21_BSP.a(hal_timer.o)
 .text.timer_remove_task
                0x00000000       0x70 C:\Salukat\Purificador\SoftwareDevelopment\Atmel_Microchip\SAMD21_BSP\SAMD21_BSP\Release\libSAMD21_BSP.a(hal_timer.o)
 .text.timer_get_clock_cycles_in_tick
                0x00000000       0x14 C:\Salukat\Purificador\SoftwareDevelopment\Atmel_Microchip\SAMD21_BSP\SAMD21_BSP\Release\libSAMD21_BSP.a(hal_timer.o)
 .text.timer_get_version
                0x00000000        0x4 C:\Salukat\Purificador\SoftwareDevelopment\Atmel_Microchip\SAMD21_BSP\SAMD21_BSP\Release\libSAMD21_BSP.a(hal_timer.o)
 .text          0x00000000        0x0 C:\Salukat\Purificador\SoftwareDevelopment\Atmel_Microchip\SAMD21_BSP\SAMD21_BSP\Release\libSAMD21_BSP.a(hal_usart_async.o)
 .data          0x00000000        0x0 C:\Salukat\Purificador\SoftwareDevelopment\Atmel_Microchip\SAMD21_BSP\SAMD21_BSP\Release\libSAMD21_BSP.a(hal_usart_async.o)
 .bss           0x00000000        0x0 C:\Salukat\Purificador\SoftwareDevelopment\Atmel_Microchip\SAMD21_BSP\SAMD21_BSP\Release\libSAMD21_BSP.a(hal_usart_async.o)
 .text.usart_async_deinit
                0x00000000       0x18 C:\Salukat\Purificador\SoftwareDevelopment\Atmel_Microchip\SAMD21_BSP\SAMD21_BSP\Release\libSAMD21_BSP.a(hal_usart_async.o)
 .text.usart_async_enable
                0x00000000       0x10 C:\Salukat\Purificador\SoftwareDevelopment\Atmel_Microchip\SAMD21_BSP\SAMD21_BSP\Release\libSAMD21_BSP.a(hal_usart_async.o)
 .text.usart_async_disable
                0x00000000       0x10 C:\Salukat\Purificador\SoftwareDevelopment\Atmel_Microchip\SAMD21_BSP\SAMD21_BSP\Release\libSAMD21_BSP.a(hal_usart_async.o)
 .text.usart_async_get_io_descriptor
                0x00000000        0x6 C:\Salukat\Purificador\SoftwareDevelopment\Atmel_Microchip\SAMD21_BSP\SAMD21_BSP\Release\libSAMD21_BSP.a(hal_usart_async.o)
 .text.usart_async_register_callback
                0x00000000       0x48 C:\Salukat\Purificador\SoftwareDevelopment\Atmel_Microchip\SAMD21_BSP\SAMD21_BSP\Release\libSAMD21_BSP.a(hal_usart_async.o)
 .text.usart_async_set_flow_control
                0x00000000       0x10 C:\Salukat\Purificador\SoftwareDevelopment\Atmel_Microchip\SAMD21_BSP\SAMD21_BSP\Release\libSAMD21_BSP.a(hal_usart_async.o)
 .text.usart_async_set_baud_rate
                0x00000000       0x10 C:\Salukat\Purificador\SoftwareDevelopment\Atmel_Microchip\SAMD21_BSP\SAMD21_BSP\Release\libSAMD21_BSP.a(hal_usart_async.o)
 .text.usart_async_set_data_order
                0x00000000       0x10 C:\Salukat\Purificador\SoftwareDevelopment\Atmel_Microchip\SAMD21_BSP\SAMD21_BSP\Release\libSAMD21_BSP.a(hal_usart_async.o)
 .text.usart_async_set_mode
                0x00000000       0x10 C:\Salukat\Purificador\SoftwareDevelopment\Atmel_Microchip\SAMD21_BSP\SAMD21_BSP\Release\libSAMD21_BSP.a(hal_usart_async.o)
 .text.usart_async_set_parity
                0x00000000       0x10 C:\Salukat\Purificador\SoftwareDevelopment\Atmel_Microchip\SAMD21_BSP\SAMD21_BSP\Release\libSAMD21_BSP.a(hal_usart_async.o)
 .text.usart_async_set_stopbits
                0x00000000       0x10 C:\Salukat\Purificador\SoftwareDevelopment\Atmel_Microchip\SAMD21_BSP\SAMD21_BSP\Release\libSAMD21_BSP.a(hal_usart_async.o)
 .text.usart_async_set_character_size
                0x00000000       0x10 C:\Salukat\Purificador\SoftwareDevelopment\Atmel_Microchip\SAMD21_BSP\SAMD21_BSP\Release\libSAMD21_BSP.a(hal_usart_async.o)
 .text.usart_async_flow_control_status
                0x00000000       0x14 C:\Salukat\Purificador\SoftwareDevelopment\Atmel_Microchip\SAMD21_BSP\SAMD21_BSP\Release\libSAMD21_BSP.a(hal_usart_async.o)
 .text.usart_async_is_tx_empty
                0x00000000       0x10 C:\Salukat\Purificador\SoftwareDevelopment\Atmel_Microchip\SAMD21_BSP\SAMD21_BSP\Release\libSAMD21_BSP.a(hal_usart_async.o)
 .text.usart_async_is_rx_not_empty
                0x00000000       0x14 C:\Salukat\Purificador\SoftwareDevelopment\Atmel_Microchip\SAMD21_BSP\SAMD21_BSP\Release\libSAMD21_BSP.a(hal_usart_async.o)
 .text.usart_async_get_status
                0x00000000       0x2c C:\Salukat\Purificador\SoftwareDevelopment\Atmel_Microchip\SAMD21_BSP\SAMD21_BSP\Release\libSAMD21_BSP.a(hal_usart_async.o)
 .text.usart_async_flush_rx_buffer
                0x00000000       0x10 C:\Salukat\Purificador\SoftwareDevelopment\Atmel_Microchip\SAMD21_BSP\SAMD21_BSP\Release\libSAMD21_BSP.a(hal_usart_async.o)
 .text.usart_async_get_version
                0x00000000        0x4 C:\Salukat\Purificador\SoftwareDevelopment\Atmel_Microchip\SAMD21_BSP\SAMD21_BSP\Release\libSAMD21_BSP.a(hal_usart_async.o)
 .text          0x00000000        0x0 C:\Salukat\Purificador\SoftwareDevelopment\Atmel_Microchip\SAMD21_BSP\SAMD21_BSP\Release\libSAMD21_BSP.a(hal_usb_device.o)
 .data          0x00000000        0x0 C:\Salukat\Purificador\SoftwareDevelopment\Atmel_Microchip\SAMD21_BSP\SAMD21_BSP\Release\libSAMD21_BSP.a(hal_usb_device.o)
 .text.usb_d_deinit
                0x00000000        0xc C:\Salukat\Purificador\SoftwareDevelopment\Atmel_Microchip\SAMD21_BSP\SAMD21_BSP\Release\libSAMD21_BSP.a(hal_usb_device.o)
 .text.usb_d_disable
                0x00000000        0xc C:\Salukat\Purificador\SoftwareDevelopment\Atmel_Microchip\SAMD21_BSP\SAMD21_BSP\Release\libSAMD21_BSP.a(hal_usb_device.o)
 .text.usb_d_detach
                0x00000000        0xc C:\Salukat\Purificador\SoftwareDevelopment\Atmel_Microchip\SAMD21_BSP\SAMD21_BSP\Release\libSAMD21_BSP.a(hal_usb_device.o)
 .text.usb_d_get_speed
                0x00000000        0xc C:\Salukat\Purificador\SoftwareDevelopment\Atmel_Microchip\SAMD21_BSP\SAMD21_BSP\Release\libSAMD21_BSP.a(hal_usb_device.o)
 .text.usb_d_get_frame_num
                0x00000000        0xc C:\Salukat\Purificador\SoftwareDevelopment\Atmel_Microchip\SAMD21_BSP\SAMD21_BSP\Release\libSAMD21_BSP.a(hal_usb_device.o)
 .text.usb_d_get_uframe_num
                0x00000000        0xc C:\Salukat\Purificador\SoftwareDevelopment\Atmel_Microchip\SAMD21_BSP\SAMD21_BSP\Release\libSAMD21_BSP.a(hal_usb_device.o)
 .text.usb_d_send_remotewakeup
                0x00000000        0xc C:\Salukat\Purificador\SoftwareDevelopment\Atmel_Microchip\SAMD21_BSP\SAMD21_BSP\Release\libSAMD21_BSP.a(hal_usb_device.o)
 .text.usb_d_ep_disable
                0x00000000       0x2c C:\Salukat\Purificador\SoftwareDevelopment\Atmel_Microchip\SAMD21_BSP\SAMD21_BSP\Release\libSAMD21_BSP.a(hal_usb_device.o)
 .text.usb_d_ep_get_req
                0x00000000       0x20 C:\Salukat\Purificador\SoftwareDevelopment\Atmel_Microchip\SAMD21_BSP\SAMD21_BSP\Release\libSAMD21_BSP.a(hal_usb_device.o)
 .text.usb_d_ep_abort
                0x00000000       0x30 C:\Salukat\Purificador\SoftwareDevelopment\Atmel_Microchip\SAMD21_BSP\SAMD21_BSP\Release\libSAMD21_BSP.a(hal_usb_device.o)
 .text.usb_d_ep_get_status
                0x00000000       0x70 C:\Salukat\Purificador\SoftwareDevelopment\Atmel_Microchip\SAMD21_BSP\SAMD21_BSP\Release\libSAMD21_BSP.a(hal_usb_device.o)
 .text.usb_d_get_version
                0x00000000        0x4 C:\Salukat\Purificador\SoftwareDevelopment\Atmel_Microchip\SAMD21_BSP\SAMD21_BSP\Release\libSAMD21_BSP.a(hal_usb_device.o)
 .text          0x00000000        0x0 C:\Salukat\Purificador\SoftwareDevelopment\Atmel_Microchip\SAMD21_BSP\SAMD21_BSP\Release\libSAMD21_BSP.a(utils_list.o)
 .data          0x00000000        0x0 C:\Salukat\Purificador\SoftwareDevelopment\Atmel_Microchip\SAMD21_BSP\SAMD21_BSP\Release\libSAMD21_BSP.a(utils_list.o)
 .bss           0x00000000        0x0 C:\Salukat\Purificador\SoftwareDevelopment\Atmel_Microchip\SAMD21_BSP\SAMD21_BSP\Release\libSAMD21_BSP.a(utils_list.o)
 .text.is_list_element
                0x00000000       0x10 C:\Salukat\Purificador\SoftwareDevelopment\Atmel_Microchip\SAMD21_BSP\SAMD21_BSP\Release\libSAMD21_BSP.a(utils_list.o)
 .text.list_delete_element
                0x00000000       0x26 C:\Salukat\Purificador\SoftwareDevelopment\Atmel_Microchip\SAMD21_BSP\SAMD21_BSP\Release\libSAMD21_BSP.a(utils_list.o)
 .text          0x00000000        0x0 C:\Salukat\Purificador\SoftwareDevelopment\Atmel_Microchip\SAMD21_BSP\SAMD21_BSP\Release\libSAMD21_BSP.a(utils_ringbuffer.o)
 .data          0x00000000        0x0 C:\Salukat\Purificador\SoftwareDevelopment\Atmel_Microchip\SAMD21_BSP\SAMD21_BSP\Release\libSAMD21_BSP.a(utils_ringbuffer.o)
 .bss           0x00000000        0x0 C:\Salukat\Purificador\SoftwareDevelopment\Atmel_Microchip\SAMD21_BSP\SAMD21_BSP\Release\libSAMD21_BSP.a(utils_ringbuffer.o)
 .text.ringbuffer_flush
                0x00000000        0x8 C:\Salukat\Purificador\SoftwareDevelopment\Atmel_Microchip\SAMD21_BSP\SAMD21_BSP\Release\libSAMD21_BSP.a(utils_ringbuffer.o)
 .text          0x00000000        0x0 C:\Salukat\Purificador\SoftwareDevelopment\Atmel_Microchip\SAMD21_BSP\SAMD21_BSP\Release\libSAMD21_BSP.a(hpl_core_m0plus_base.o)
 .data          0x00000000        0x0 C:\Salukat\Purificador\SoftwareDevelopment\Atmel_Microchip\SAMD21_BSP\SAMD21_BSP\Release\libSAMD21_BSP.a(hpl_core_m0plus_base.o)
 .bss           0x00000000        0x0 C:\Salukat\Purificador\SoftwareDevelopment\Atmel_Microchip\SAMD21_BSP\SAMD21_BSP\Release\libSAMD21_BSP.a(hpl_core_m0plus_base.o)
 .text._reset_mcu
                0x00000000       0x1c C:\Salukat\Purificador\SoftwareDevelopment\Atmel_Microchip\SAMD21_BSP\SAMD21_BSP\Release\libSAMD21_BSP.a(hpl_core_m0plus_base.o)
 .text._go_to_sleep
                0x00000000        0x8 C:\Salukat\Purificador\SoftwareDevelopment\Atmel_Microchip\SAMD21_BSP\SAMD21_BSP\Release\libSAMD21_BSP.a(hpl_core_m0plus_base.o)
 .text._irq_get_current
                0x00000000        0xa C:\Salukat\Purificador\SoftwareDevelopment\Atmel_Microchip\SAMD21_BSP\SAMD21_BSP\Release\libSAMD21_BSP.a(hpl_core_m0plus_base.o)
 .text._irq_disable
                0x00000000       0x20 C:\Salukat\Purificador\SoftwareDevelopment\Atmel_Microchip\SAMD21_BSP\SAMD21_BSP\Release\libSAMD21_BSP.a(hpl_core_m0plus_base.o)
 .text._irq_set
                0x00000000       0x18 C:\Salukat\Purificador\SoftwareDevelopment\Atmel_Microchip\SAMD21_BSP\SAMD21_BSP\Release\libSAMD21_BSP.a(hpl_core_m0plus_base.o)
 .text._irq_clear
                0x00000000       0x1c C:\Salukat\Purificador\SoftwareDevelopment\Atmel_Microchip\SAMD21_BSP\SAMD21_BSP\Release\libSAMD21_BSP.a(hpl_core_m0plus_base.o)
 .text._irq_enable
                0x00000000       0x18 C:\Salukat\Purificador\SoftwareDevelopment\Atmel_Microchip\SAMD21_BSP\SAMD21_BSP\Release\libSAMD21_BSP.a(hpl_core_m0plus_base.o)
 .text._irq_register
                0x00000000        0xc C:\Salukat\Purificador\SoftwareDevelopment\Atmel_Microchip\SAMD21_BSP\SAMD21_BSP\Release\libSAMD21_BSP.a(hpl_core_m0plus_base.o)
 .text.Default_Handler
                0x00000000        0x2 C:\Salukat\Purificador\SoftwareDevelopment\Atmel_Microchip\SAMD21_BSP\SAMD21_BSP\Release\libSAMD21_BSP.a(hpl_core_m0plus_base.o)
 .text._get_cycles_for_us
                0x00000000       0x1c C:\Salukat\Purificador\SoftwareDevelopment\Atmel_Microchip\SAMD21_BSP\SAMD21_BSP\Release\libSAMD21_BSP.a(hpl_core_m0plus_base.o)
 COMMON         0x00000000       0x70 C:\Salukat\Purificador\SoftwareDevelopment\Atmel_Microchip\SAMD21_BSP\SAMD21_BSP\Release\libSAMD21_BSP.a(hpl_core_m0plus_base.o)
 .text          0x00000000        0x0 C:\Salukat\Purificador\SoftwareDevelopment\Atmel_Microchip\SAMD21_BSP\SAMD21_BSP\Release\libSAMD21_BSP.a(hpl_init.o)
 .data          0x00000000        0x0 C:\Salukat\Purificador\SoftwareDevelopment\Atmel_Microchip\SAMD21_BSP\SAMD21_BSP\Release\libSAMD21_BSP.a(hpl_init.o)
 .bss           0x00000000        0x0 C:\Salukat\Purificador\SoftwareDevelopment\Atmel_Microchip\SAMD21_BSP\SAMD21_BSP\Release\libSAMD21_BSP.a(hpl_init.o)
 .text          0x00000000        0x0 C:\Salukat\Purificador\SoftwareDevelopment\Atmel_Microchip\SAMD21_BSP\SAMD21_BSP\Release\libSAMD21_BSP.a(hpl_dac.o)
 .data          0x00000000        0x0 C:\Salukat\Purificador\SoftwareDevelopment\Atmel_Microchip\SAMD21_BSP\SAMD21_BSP\Release\libSAMD21_BSP.a(hpl_dac.o)
 .bss           0x00000000        0x0 C:\Salukat\Purificador\SoftwareDevelopment\Atmel_Microchip\SAMD21_BSP\SAMD21_BSP\Release\libSAMD21_BSP.a(hpl_dac.o)
 .text._dac_async_init
                0x00000000       0x3c C:\Salukat\Purificador\SoftwareDevelopment\Atmel_Microchip\SAMD21_BSP\SAMD21_BSP\Release\libSAMD21_BSP.a(hpl_dac.o)
 .text._dac_sync_deinit
                0x00000000       0x24 C:\Salukat\Purificador\SoftwareDevelopment\Atmel_Microchip\SAMD21_BSP\SAMD21_BSP\Release\libSAMD21_BSP.a(hpl_dac.o)
 .text._dac_async_deinit
                0x00000000       0x38 C:\Salukat\Purificador\SoftwareDevelopment\Atmel_Microchip\SAMD21_BSP\SAMD21_BSP\Release\libSAMD21_BSP.a(hpl_dac.o)
 .text._dac_sync_enable_channel
                0x00000000       0x18 C:\Salukat\Purificador\SoftwareDevelopment\Atmel_Microchip\SAMD21_BSP\SAMD21_BSP\Release\libSAMD21_BSP.a(hpl_dac.o)
 .text._dac_async_enable_channel
                0x00000000       0x18 C:\Salukat\Purificador\SoftwareDevelopment\Atmel_Microchip\SAMD21_BSP\SAMD21_BSP\Release\libSAMD21_BSP.a(hpl_dac.o)
 .text._dac_sync_disable_channel
                0x00000000       0x18 C:\Salukat\Purificador\SoftwareDevelopment\Atmel_Microchip\SAMD21_BSP\SAMD21_BSP\Release\libSAMD21_BSP.a(hpl_dac.o)
 .text._dac_async_disable_channel
                0x00000000       0x18 C:\Salukat\Purificador\SoftwareDevelopment\Atmel_Microchip\SAMD21_BSP\SAMD21_BSP\Release\libSAMD21_BSP.a(hpl_dac.o)
 .text._dac_sync_is_channel_enable
                0x00000000       0x18 C:\Salukat\Purificador\SoftwareDevelopment\Atmel_Microchip\SAMD21_BSP\SAMD21_BSP\Release\libSAMD21_BSP.a(hpl_dac.o)
 .text._dac_async_is_channel_enable
                0x00000000       0x18 C:\Salukat\Purificador\SoftwareDevelopment\Atmel_Microchip\SAMD21_BSP\SAMD21_BSP\Release\libSAMD21_BSP.a(hpl_dac.o)
 .text._dac_sync_write_data
                0x00000000       0x10 C:\Salukat\Purificador\SoftwareDevelopment\Atmel_Microchip\SAMD21_BSP\SAMD21_BSP\Release\libSAMD21_BSP.a(hpl_dac.o)
 .text._dac_async_write_data
                0x00000000       0x10 C:\Salukat\Purificador\SoftwareDevelopment\Atmel_Microchip\SAMD21_BSP\SAMD21_BSP\Release\libSAMD21_BSP.a(hpl_dac.o)
 .text._dac_async_set_irq_state
                0x00000000       0x1a C:\Salukat\Purificador\SoftwareDevelopment\Atmel_Microchip\SAMD21_BSP\SAMD21_BSP\Release\libSAMD21_BSP.a(hpl_dac.o)
 .text          0x00000000        0x0 C:\Salukat\Purificador\SoftwareDevelopment\Atmel_Microchip\SAMD21_BSP\SAMD21_BSP\Release\libSAMD21_BSP.a(hpl_eic.o)
 .data          0x00000000        0x0 C:\Salukat\Purificador\SoftwareDevelopment\Atmel_Microchip\SAMD21_BSP\SAMD21_BSP\Release\libSAMD21_BSP.a(hpl_eic.o)
 .text._ext_irq_deinit
                0x00000000       0x44 C:\Salukat\Purificador\SoftwareDevelopment\Atmel_Microchip\SAMD21_BSP\SAMD21_BSP\Release\libSAMD21_BSP.a(hpl_eic.o)
 .text._ext_irq_enable
                0x00000000       0x28 C:\Salukat\Purificador\SoftwareDevelopment\Atmel_Microchip\SAMD21_BSP\SAMD21_BSP\Release\libSAMD21_BSP.a(hpl_eic.o)
 .text          0x00000000        0x0 C:\Salukat\Purificador\SoftwareDevelopment\Atmel_Microchip\SAMD21_BSP\SAMD21_BSP\Release\libSAMD21_BSP.a(hpl_gclk.o)
 .data          0x00000000        0x0 C:\Salukat\Purificador\SoftwareDevelopment\Atmel_Microchip\SAMD21_BSP\SAMD21_BSP\Release\libSAMD21_BSP.a(hpl_gclk.o)
 .bss           0x00000000        0x0 C:\Salukat\Purificador\SoftwareDevelopment\Atmel_Microchip\SAMD21_BSP\SAMD21_BSP\Release\libSAMD21_BSP.a(hpl_gclk.o)
 .text._gclk_init_generators
                0x00000000       0x88 C:\Salukat\Purificador\SoftwareDevelopment\Atmel_Microchip\SAMD21_BSP\SAMD21_BSP\Release\libSAMD21_BSP.a(hpl_gclk.o)
 .text          0x00000000        0x0 C:\Salukat\Purificador\SoftwareDevelopment\Atmel_Microchip\SAMD21_BSP\SAMD21_BSP\Release\libSAMD21_BSP.a(hpl_pm.o)
 .data          0x00000000        0x0 C:\Salukat\Purificador\SoftwareDevelopment\Atmel_Microchip\SAMD21_BSP\SAMD21_BSP\Release\libSAMD21_BSP.a(hpl_pm.o)
 .bss           0x00000000        0x0 C:\Salukat\Purificador\SoftwareDevelopment\Atmel_Microchip\SAMD21_BSP\SAMD21_BSP\Release\libSAMD21_BSP.a(hpl_pm.o)
 .text._get_reset_reason
                0x00000000        0xc C:\Salukat\Purificador\SoftwareDevelopment\Atmel_Microchip\SAMD21_BSP\SAMD21_BSP\Release\libSAMD21_BSP.a(hpl_pm.o)
 .text._set_sleep_mode
                0x00000000       0x34 C:\Salukat\Purificador\SoftwareDevelopment\Atmel_Microchip\SAMD21_BSP\SAMD21_BSP\Release\libSAMD21_BSP.a(hpl_pm.o)
 .text          0x00000000        0x0 C:\Salukat\Purificador\SoftwareDevelopment\Atmel_Microchip\SAMD21_BSP\SAMD21_BSP\Release\libSAMD21_BSP.a(hpl_sercom.o)
 .data          0x00000000        0x0 C:\Salukat\Purificador\SoftwareDevelopment\Atmel_Microchip\SAMD21_BSP\SAMD21_BSP\Release\libSAMD21_BSP.a(hpl_sercom.o)
 .text.hri_sercomi2cm_wait_for_sync
                0x00000000        0x8 C:\Salukat\Purificador\SoftwareDevelopment\Atmel_Microchip\SAMD21_BSP\SAMD21_BSP\Release\libSAMD21_BSP.a(hpl_sercom.o)
 .text.hri_sercomi2cs_wait_for_sync
                0x00000000        0x8 C:\Salukat\Purificador\SoftwareDevelopment\Atmel_Microchip\SAMD21_BSP\SAMD21_BSP\Release\libSAMD21_BSP.a(hpl_sercom.o)
 .text.hri_sercomi2cm_clear_CTRLA_ENABLE_bit
                0x00000000       0x18 C:\Salukat\Purificador\SoftwareDevelopment\Atmel_Microchip\SAMD21_BSP\SAMD21_BSP\Release\libSAMD21_BSP.a(hpl_sercom.o)
 .text.hri_sercomi2cs_clear_CTRLA_ENABLE_bit
                0x00000000       0x18 C:\Salukat\Purificador\SoftwareDevelopment\Atmel_Microchip\SAMD21_BSP\SAMD21_BSP\Release\libSAMD21_BSP.a(hpl_sercom.o)
 .text.hri_sercomusart_get_CTRLA_ENABLE_bit
                0x00000000       0x18 C:\Salukat\Purificador\SoftwareDevelopment\Atmel_Microchip\SAMD21_BSP\SAMD21_BSP\Release\libSAMD21_BSP.a(hpl_sercom.o)
 .text.hri_sercomusart_write_CTRLA_ENABLE_bit
                0x00000000       0x1c C:\Salukat\Purificador\SoftwareDevelopment\Atmel_Microchip\SAMD21_BSP\SAMD21_BSP\Release\libSAMD21_BSP.a(hpl_sercom.o)
 .text._get_i2cm_index
                0x00000000       0x14 C:\Salukat\Purificador\SoftwareDevelopment\Atmel_Microchip\SAMD21_BSP\SAMD21_BSP\Release\libSAMD21_BSP.a(hpl_sercom.o)
 .text._spi_set_char_size
                0x00000000       0x3c C:\Salukat\Purificador\SoftwareDevelopment\Atmel_Microchip\SAMD21_BSP\SAMD21_BSP\Release\libSAMD21_BSP.a(hpl_sercom.o)
 .text._usart_set_baud_rate
                0x00000000       0x4c C:\Salukat\Purificador\SoftwareDevelopment\Atmel_Microchip\SAMD21_BSP\SAMD21_BSP\Release\libSAMD21_BSP.a(hpl_sercom.o)
 .text._usart_set_data_order
                0x00000000       0x64 C:\Salukat\Purificador\SoftwareDevelopment\Atmel_Microchip\SAMD21_BSP\SAMD21_BSP\Release\libSAMD21_BSP.a(hpl_sercom.o)
 .text._usart_set_mode
                0x00000000       0x64 C:\Salukat\Purificador\SoftwareDevelopment\Atmel_Microchip\SAMD21_BSP\SAMD21_BSP\Release\libSAMD21_BSP.a(hpl_sercom.o)
 .text._usart_set_stop_bits
                0x00000000       0x60 C:\Salukat\Purificador\SoftwareDevelopment\Atmel_Microchip\SAMD21_BSP\SAMD21_BSP\Release\libSAMD21_BSP.a(hpl_sercom.o)
 .text._usart_set_character_size
                0x00000000       0x60 C:\Salukat\Purificador\SoftwareDevelopment\Atmel_Microchip\SAMD21_BSP\SAMD21_BSP\Release\libSAMD21_BSP.a(hpl_sercom.o)
 .text._i2c_s_set_address
                0x00000000       0x60 C:\Salukat\Purificador\SoftwareDevelopment\Atmel_Microchip\SAMD21_BSP\SAMD21_BSP\Release\libSAMD21_BSP.a(hpl_sercom.o)
 .text._i2c_m_enable_implementation
                0x00000000       0x54 C:\Salukat\Purificador\SoftwareDevelopment\Atmel_Microchip\SAMD21_BSP\SAMD21_BSP\Release\libSAMD21_BSP.a(hpl_sercom.o)
 .text._usart_set_parity
                0x00000000       0x84 C:\Salukat\Purificador\SoftwareDevelopment\Atmel_Microchip\SAMD21_BSP\SAMD21_BSP\Release\libSAMD21_BSP.a(hpl_sercom.o)
 .text._sercom_i2c_send_stop
                0x00000000       0x18 C:\Salukat\Purificador\SoftwareDevelopment\Atmel_Microchip\SAMD21_BSP\SAMD21_BSP\Release\libSAMD21_BSP.a(hpl_sercom.o)
 .text._sercom_i2c_sync_analyse_flags
                0x00000000      0x188 C:\Salukat\Purificador\SoftwareDevelopment\Atmel_Microchip\SAMD21_BSP\SAMD21_BSP\Release\libSAMD21_BSP.a(hpl_sercom.o)
 .text._spi_set_mode
                0x00000000       0x44 C:\Salukat\Purificador\SoftwareDevelopment\Atmel_Microchip\SAMD21_BSP\SAMD21_BSP\Release\libSAMD21_BSP.a(hpl_sercom.o)
 .text._spi_set_data_order
                0x00000000       0x40 C:\Salukat\Purificador\SoftwareDevelopment\Atmel_Microchip\SAMD21_BSP\SAMD21_BSP\Release\libSAMD21_BSP.a(hpl_sercom.o)
 .text._spi_deinit
                0x00000000       0x28 C:\Salukat\Purificador\SoftwareDevelopment\Atmel_Microchip\SAMD21_BSP\SAMD21_BSP\Release\libSAMD21_BSP.a(hpl_sercom.o)
 .text._spi_sync_disable
                0x00000000       0x28 C:\Salukat\Purificador\SoftwareDevelopment\Atmel_Microchip\SAMD21_BSP\SAMD21_BSP\Release\libSAMD21_BSP.a(hpl_sercom.o)
 .text._i2c_s_init
                0x00000000       0x68 C:\Salukat\Purificador\SoftwareDevelopment\Atmel_Microchip\SAMD21_BSP\SAMD21_BSP\Release\libSAMD21_BSP.a(hpl_sercom.o)
 .text._i2c_m_sync_init_impl
                0x00000000       0xb4 C:\Salukat\Purificador\SoftwareDevelopment\Atmel_Microchip\SAMD21_BSP\SAMD21_BSP\Release\libSAMD21_BSP.a(hpl_sercom.o)
 .text._usart_sync_init
                0x00000000       0x10 C:\Salukat\Purificador\SoftwareDevelopment\Atmel_Microchip\SAMD21_BSP\SAMD21_BSP\Release\libSAMD21_BSP.a(hpl_sercom.o)
 .text._usart_sync_deinit
                0x00000000       0x24 C:\Salukat\Purificador\SoftwareDevelopment\Atmel_Microchip\SAMD21_BSP\SAMD21_BSP\Release\libSAMD21_BSP.a(hpl_sercom.o)
 .text._usart_async_deinit
                0x00000000       0x3c C:\Salukat\Purificador\SoftwareDevelopment\Atmel_Microchip\SAMD21_BSP\SAMD21_BSP\Release\libSAMD21_BSP.a(hpl_sercom.o)
 .text._usart_sync_calculate_baud_rate
                0x00000000       0x64 C:\Salukat\Purificador\SoftwareDevelopment\Atmel_Microchip\SAMD21_BSP\SAMD21_BSP\Release\libSAMD21_BSP.a(hpl_sercom.o)
 .text._usart_async_calculate_baud_rate
                0x00000000       0x64 C:\Salukat\Purificador\SoftwareDevelopment\Atmel_Microchip\SAMD21_BSP\SAMD21_BSP\Release\libSAMD21_BSP.a(hpl_sercom.o)
 .text._usart_sync_enable
                0x00000000       0x18 C:\Salukat\Purificador\SoftwareDevelopment\Atmel_Microchip\SAMD21_BSP\SAMD21_BSP\Release\libSAMD21_BSP.a(hpl_sercom.o)
 .text._usart_async_enable
                0x00000000       0x18 C:\Salukat\Purificador\SoftwareDevelopment\Atmel_Microchip\SAMD21_BSP\SAMD21_BSP\Release\libSAMD21_BSP.a(hpl_sercom.o)
 .text._usart_sync_disable
                0x00000000       0x10 C:\Salukat\Purificador\SoftwareDevelopment\Atmel_Microchip\SAMD21_BSP\SAMD21_BSP\Release\libSAMD21_BSP.a(hpl_sercom.o)
 .text._usart_async_disable
                0x00000000       0x10 C:\Salukat\Purificador\SoftwareDevelopment\Atmel_Microchip\SAMD21_BSP\SAMD21_BSP\Release\libSAMD21_BSP.a(hpl_sercom.o)
 .text._usart_sync_set_baud_rate
                0x00000000       0x10 C:\Salukat\Purificador\SoftwareDevelopment\Atmel_Microchip\SAMD21_BSP\SAMD21_BSP\Release\libSAMD21_BSP.a(hpl_sercom.o)
 .text._usart_async_set_baud_rate
                0x00000000       0x10 C:\Salukat\Purificador\SoftwareDevelopment\Atmel_Microchip\SAMD21_BSP\SAMD21_BSP\Release\libSAMD21_BSP.a(hpl_sercom.o)
 .text._usart_sync_set_data_order
                0x00000000       0x10 C:\Salukat\Purificador\SoftwareDevelopment\Atmel_Microchip\SAMD21_BSP\SAMD21_BSP\Release\libSAMD21_BSP.a(hpl_sercom.o)
 .text._usart_async_set_data_order
                0x00000000       0x10 C:\Salukat\Purificador\SoftwareDevelopment\Atmel_Microchip\SAMD21_BSP\SAMD21_BSP\Release\libSAMD21_BSP.a(hpl_sercom.o)
 .text._usart_sync_set_mode
                0x00000000       0x10 C:\Salukat\Purificador\SoftwareDevelopment\Atmel_Microchip\SAMD21_BSP\SAMD21_BSP\Release\libSAMD21_BSP.a(hpl_sercom.o)
 .text._usart_async_set_mode
                0x00000000       0x10 C:\Salukat\Purificador\SoftwareDevelopment\Atmel_Microchip\SAMD21_BSP\SAMD21_BSP\Release\libSAMD21_BSP.a(hpl_sercom.o)
 .text._usart_sync_set_parity
                0x00000000       0x10 C:\Salukat\Purificador\SoftwareDevelopment\Atmel_Microchip\SAMD21_BSP\SAMD21_BSP\Release\libSAMD21_BSP.a(hpl_sercom.o)
 .text._usart_async_set_parity
                0x00000000       0x10 C:\Salukat\Purificador\SoftwareDevelopment\Atmel_Microchip\SAMD21_BSP\SAMD21_BSP\Release\libSAMD21_BSP.a(hpl_sercom.o)
 .text._usart_sync_set_stop_bits
                0x00000000       0x10 C:\Salukat\Purificador\SoftwareDevelopment\Atmel_Microchip\SAMD21_BSP\SAMD21_BSP\Release\libSAMD21_BSP.a(hpl_sercom.o)
 .text._usart_async_set_stop_bits
                0x00000000       0x10 C:\Salukat\Purificador\SoftwareDevelopment\Atmel_Microchip\SAMD21_BSP\SAMD21_BSP\Release\libSAMD21_BSP.a(hpl_sercom.o)
 .text._usart_sync_set_character_size
                0x00000000       0x10 C:\Salukat\Purificador\SoftwareDevelopment\Atmel_Microchip\SAMD21_BSP\SAMD21_BSP\Release\libSAMD21_BSP.a(hpl_sercom.o)
 .text._usart_async_set_character_size
                0x00000000       0x10 C:\Salukat\Purificador\SoftwareDevelopment\Atmel_Microchip\SAMD21_BSP\SAMD21_BSP\Release\libSAMD21_BSP.a(hpl_sercom.o)
 .text._usart_sync_get_status
                0x00000000        0x8 C:\Salukat\Purificador\SoftwareDevelopment\Atmel_Microchip\SAMD21_BSP\SAMD21_BSP\Release\libSAMD21_BSP.a(hpl_sercom.o)
 .text._usart_async_get_status
                0x00000000        0x8 C:\Salukat\Purificador\SoftwareDevelopment\Atmel_Microchip\SAMD21_BSP\SAMD21_BSP\Release\libSAMD21_BSP.a(hpl_sercom.o)
 .text._usart_sync_write_byte
                0x00000000        0x8 C:\Salukat\Purificador\SoftwareDevelopment\Atmel_Microchip\SAMD21_BSP\SAMD21_BSP\Release\libSAMD21_BSP.a(hpl_sercom.o)
 .text._usart_sync_read_byte
                0x00000000        0x8 C:\Salukat\Purificador\SoftwareDevelopment\Atmel_Microchip\SAMD21_BSP\SAMD21_BSP\Release\libSAMD21_BSP.a(hpl_sercom.o)
 .text._usart_sync_is_ready_to_send
                0x00000000        0xa C:\Salukat\Purificador\SoftwareDevelopment\Atmel_Microchip\SAMD21_BSP\SAMD21_BSP\Release\libSAMD21_BSP.a(hpl_sercom.o)
 .text._usart_sync_is_transmit_done
                0x00000000        0xa C:\Salukat\Purificador\SoftwareDevelopment\Atmel_Microchip\SAMD21_BSP\SAMD21_BSP\Release\libSAMD21_BSP.a(hpl_sercom.o)
 .text._usart_async_is_byte_sent
                0x00000000        0xa C:\Salukat\Purificador\SoftwareDevelopment\Atmel_Microchip\SAMD21_BSP\SAMD21_BSP\Release\libSAMD21_BSP.a(hpl_sercom.o)
 .text._usart_sync_is_byte_received
                0x00000000        0xa C:\Salukat\Purificador\SoftwareDevelopment\Atmel_Microchip\SAMD21_BSP\SAMD21_BSP\Release\libSAMD21_BSP.a(hpl_sercom.o)
 .text._usart_sync_set_flow_control_state
                0x00000000        0x2 C:\Salukat\Purificador\SoftwareDevelopment\Atmel_Microchip\SAMD21_BSP\SAMD21_BSP\Release\libSAMD21_BSP.a(hpl_sercom.o)
 .text._usart_async_set_flow_control_state
                0x00000000        0x2 C:\Salukat\Purificador\SoftwareDevelopment\Atmel_Microchip\SAMD21_BSP\SAMD21_BSP\Release\libSAMD21_BSP.a(hpl_sercom.o)
 .text._usart_async_get_flow_control_state
                0x00000000        0x4 C:\Salukat\Purificador\SoftwareDevelopment\Atmel_Microchip\SAMD21_BSP\SAMD21_BSP\Release\libSAMD21_BSP.a(hpl_sercom.o)
 .text._usart_sync_get_flow_control_state
                0x00000000        0xc C:\Salukat\Purificador\SoftwareDevelopment\Atmel_Microchip\SAMD21_BSP\SAMD21_BSP\Release\libSAMD21_BSP.a(hpl_sercom.o)
 .text._usart_sync_get_hardware_index
                0x00000000       0x10 C:\Salukat\Purificador\SoftwareDevelopment\Atmel_Microchip\SAMD21_BSP\SAMD21_BSP\Release\libSAMD21_BSP.a(hpl_sercom.o)
 .text._usart_async_get_hardware_index
                0x00000000       0x10 C:\Salukat\Purificador\SoftwareDevelopment\Atmel_Microchip\SAMD21_BSP\SAMD21_BSP\Release\libSAMD21_BSP.a(hpl_sercom.o)
 .text._usart_async_set_irq_state
                0x00000000       0x3c C:\Salukat\Purificador\SoftwareDevelopment\Atmel_Microchip\SAMD21_BSP\SAMD21_BSP\Release\libSAMD21_BSP.a(hpl_sercom.o)
 .text._i2c_m_async_enable
                0x00000000       0x10 C:\Salukat\Purificador\SoftwareDevelopment\Atmel_Microchip\SAMD21_BSP\SAMD21_BSP\Release\libSAMD21_BSP.a(hpl_sercom.o)
 .text._i2c_m_async_disable
                0x00000000       0x28 C:\Salukat\Purificador\SoftwareDevelopment\Atmel_Microchip\SAMD21_BSP\SAMD21_BSP\Release\libSAMD21_BSP.a(hpl_sercom.o)
 .text._i2c_m_async_set_baudrate
                0x00000000      0x144 C:\Salukat\Purificador\SoftwareDevelopment\Atmel_Microchip\SAMD21_BSP\SAMD21_BSP\Release\libSAMD21_BSP.a(hpl_sercom.o)
 .text._i2c_m_async_init
                0x00000000       0x58 C:\Salukat\Purificador\SoftwareDevelopment\Atmel_Microchip\SAMD21_BSP\SAMD21_BSP\Release\libSAMD21_BSP.a(hpl_sercom.o)
 .text._i2c_m_async_deinit
                0x00000000       0x24 C:\Salukat\Purificador\SoftwareDevelopment\Atmel_Microchip\SAMD21_BSP\SAMD21_BSP\Release\libSAMD21_BSP.a(hpl_sercom.o)
 .text._i2c_m_async_transfer
                0x00000000       0xcc C:\Salukat\Purificador\SoftwareDevelopment\Atmel_Microchip\SAMD21_BSP\SAMD21_BSP\Release\libSAMD21_BSP.a(hpl_sercom.o)
 .text._i2c_m_async_register_callback
                0x00000000       0x1c C:\Salukat\Purificador\SoftwareDevelopment\Atmel_Microchip\SAMD21_BSP\SAMD21_BSP\Release\libSAMD21_BSP.a(hpl_sercom.o)
 .text._i2c_m_async_send_stop
                0x00000000       0x1c C:\Salukat\Purificador\SoftwareDevelopment\Atmel_Microchip\SAMD21_BSP\SAMD21_BSP\Release\libSAMD21_BSP.a(hpl_sercom.o)
 .text._i2c_m_async_get_bytes_left
                0x00000000        0xe C:\Salukat\Purificador\SoftwareDevelopment\Atmel_Microchip\SAMD21_BSP\SAMD21_BSP\Release\libSAMD21_BSP.a(hpl_sercom.o)
 .text._i2c_m_sync_init
                0x00000000       0x10 C:\Salukat\Purificador\SoftwareDevelopment\Atmel_Microchip\SAMD21_BSP\SAMD21_BSP\Release\libSAMD21_BSP.a(hpl_sercom.o)
 .text._i2c_m_sync_deinit
                0x00000000       0x24 C:\Salukat\Purificador\SoftwareDevelopment\Atmel_Microchip\SAMD21_BSP\SAMD21_BSP\Release\libSAMD21_BSP.a(hpl_sercom.o)
 .text._i2c_m_sync_enable
                0x00000000       0x10 C:\Salukat\Purificador\SoftwareDevelopment\Atmel_Microchip\SAMD21_BSP\SAMD21_BSP\Release\libSAMD21_BSP.a(hpl_sercom.o)
 .text._i2c_m_sync_disable
                0x00000000       0x10 C:\Salukat\Purificador\SoftwareDevelopment\Atmel_Microchip\SAMD21_BSP\SAMD21_BSP\Release\libSAMD21_BSP.a(hpl_sercom.o)
 .text._i2c_m_sync_set_baudrate
                0x00000000      0x144 C:\Salukat\Purificador\SoftwareDevelopment\Atmel_Microchip\SAMD21_BSP\SAMD21_BSP\Release\libSAMD21_BSP.a(hpl_sercom.o)
 .text._i2c_m_async_set_irq_state
                0x00000000       0x2a C:\Salukat\Purificador\SoftwareDevelopment\Atmel_Microchip\SAMD21_BSP\SAMD21_BSP\Release\libSAMD21_BSP.a(hpl_sercom.o)
 .text._i2c_m_sync_transfer
                0x00000000      0x154 C:\Salukat\Purificador\SoftwareDevelopment\Atmel_Microchip\SAMD21_BSP\SAMD21_BSP\Release\libSAMD21_BSP.a(hpl_sercom.o)
 .text._i2c_m_sync_send_stop
                0x00000000       0x1c C:\Salukat\Purificador\SoftwareDevelopment\Atmel_Microchip\SAMD21_BSP\SAMD21_BSP\Release\libSAMD21_BSP.a(hpl_sercom.o)
 .text._i2c_s_sync_init
                0x00000000       0x18 C:\Salukat\Purificador\SoftwareDevelopment\Atmel_Microchip\SAMD21_BSP\SAMD21_BSP\Release\libSAMD21_BSP.a(hpl_sercom.o)
 .text._i2c_s_async_init
                0x00000000       0x60 C:\Salukat\Purificador\SoftwareDevelopment\Atmel_Microchip\SAMD21_BSP\SAMD21_BSP\Release\libSAMD21_BSP.a(hpl_sercom.o)
 .text._i2c_s_sync_deinit
                0x00000000       0x24 C:\Salukat\Purificador\SoftwareDevelopment\Atmel_Microchip\SAMD21_BSP\SAMD21_BSP\Release\libSAMD21_BSP.a(hpl_sercom.o)
 .text._i2c_s_async_deinit
                0x00000000       0x40 C:\Salukat\Purificador\SoftwareDevelopment\Atmel_Microchip\SAMD21_BSP\SAMD21_BSP\Release\libSAMD21_BSP.a(hpl_sercom.o)
 .text._i2c_s_sync_enable
                0x00000000       0x1c C:\Salukat\Purificador\SoftwareDevelopment\Atmel_Microchip\SAMD21_BSP\SAMD21_BSP\Release\libSAMD21_BSP.a(hpl_sercom.o)
 .text._i2c_s_async_enable
                0x00000000       0x1c C:\Salukat\Purificador\SoftwareDevelopment\Atmel_Microchip\SAMD21_BSP\SAMD21_BSP\Release\libSAMD21_BSP.a(hpl_sercom.o)
 .text._i2c_s_sync_disable
                0x00000000       0x10 C:\Salukat\Purificador\SoftwareDevelopment\Atmel_Microchip\SAMD21_BSP\SAMD21_BSP\Release\libSAMD21_BSP.a(hpl_sercom.o)
 .text._i2c_s_async_disable
                0x00000000       0x10 C:\Salukat\Purificador\SoftwareDevelopment\Atmel_Microchip\SAMD21_BSP\SAMD21_BSP\Release\libSAMD21_BSP.a(hpl_sercom.o)
 .text._i2c_s_sync_is_10bit_addressing_on
                0x00000000        0xa C:\Salukat\Purificador\SoftwareDevelopment\Atmel_Microchip\SAMD21_BSP\SAMD21_BSP\Release\libSAMD21_BSP.a(hpl_sercom.o)
 .text._i2c_s_async_is_10bit_addressing_on
                0x00000000        0xa C:\Salukat\Purificador\SoftwareDevelopment\Atmel_Microchip\SAMD21_BSP\SAMD21_BSP\Release\libSAMD21_BSP.a(hpl_sercom.o)
 .text._i2c_s_sync_set_address
                0x00000000       0x10 C:\Salukat\Purificador\SoftwareDevelopment\Atmel_Microchip\SAMD21_BSP\SAMD21_BSP\Release\libSAMD21_BSP.a(hpl_sercom.o)
 .text._i2c_s_async_set_address
                0x00000000       0x10 C:\Salukat\Purificador\SoftwareDevelopment\Atmel_Microchip\SAMD21_BSP\SAMD21_BSP\Release\libSAMD21_BSP.a(hpl_sercom.o)
 .text._i2c_s_sync_write_byte
                0x00000000        0x8 C:\Salukat\Purificador\SoftwareDevelopment\Atmel_Microchip\SAMD21_BSP\SAMD21_BSP\Release\libSAMD21_BSP.a(hpl_sercom.o)
 .text._i2c_s_async_write_byte
                0x00000000        0x8 C:\Salukat\Purificador\SoftwareDevelopment\Atmel_Microchip\SAMD21_BSP\SAMD21_BSP\Release\libSAMD21_BSP.a(hpl_sercom.o)
 .text._i2c_s_sync_read_byte
                0x00000000        0xa C:\Salukat\Purificador\SoftwareDevelopment\Atmel_Microchip\SAMD21_BSP\SAMD21_BSP\Release\libSAMD21_BSP.a(hpl_sercom.o)
 .text._i2c_s_sync_is_byte_received
                0x00000000        0xa C:\Salukat\Purificador\SoftwareDevelopment\Atmel_Microchip\SAMD21_BSP\SAMD21_BSP\Release\libSAMD21_BSP.a(hpl_sercom.o)
 .text._i2c_s_sync_is_byte_sent
                0x00000000        0xc C:\Salukat\Purificador\SoftwareDevelopment\Atmel_Microchip\SAMD21_BSP\SAMD21_BSP\Release\libSAMD21_BSP.a(hpl_sercom.o)
 .text._i2c_s_sync_get_status
                0x00000000        0x8 C:\Salukat\Purificador\SoftwareDevelopment\Atmel_Microchip\SAMD21_BSP\SAMD21_BSP\Release\libSAMD21_BSP.a(hpl_sercom.o)
 .text._i2c_s_sync_clear_data_ready_flag
                0x00000000        0xa C:\Salukat\Purificador\SoftwareDevelopment\Atmel_Microchip\SAMD21_BSP\SAMD21_BSP\Release\libSAMD21_BSP.a(hpl_sercom.o)
 .text._i2c_s_async_get_status
                0x00000000        0x8 C:\Salukat\Purificador\SoftwareDevelopment\Atmel_Microchip\SAMD21_BSP\SAMD21_BSP\Release\libSAMD21_BSP.a(hpl_sercom.o)
 .text._i2c_s_async_abort_transmission
                0x00000000        0xa C:\Salukat\Purificador\SoftwareDevelopment\Atmel_Microchip\SAMD21_BSP\SAMD21_BSP\Release\libSAMD21_BSP.a(hpl_sercom.o)
 .text._i2c_s_async_set_irq_state
                0x00000000       0x22 C:\Salukat\Purificador\SoftwareDevelopment\Atmel_Microchip\SAMD21_BSP\SAMD21_BSP\Release\libSAMD21_BSP.a(hpl_sercom.o)
 .text._spi_s_sync_init
                0x00000000        0xc C:\Salukat\Purificador\SoftwareDevelopment\Atmel_Microchip\SAMD21_BSP\SAMD21_BSP\Release\libSAMD21_BSP.a(hpl_sercom.o)
 .text._spi_m_async_init
                0x00000000       0x54 C:\Salukat\Purificador\SoftwareDevelopment\Atmel_Microchip\SAMD21_BSP\SAMD21_BSP\Release\libSAMD21_BSP.a(hpl_sercom.o)
 .text._spi_s_async_init
                0x00000000        0xc C:\Salukat\Purificador\SoftwareDevelopment\Atmel_Microchip\SAMD21_BSP\SAMD21_BSP\Release\libSAMD21_BSP.a(hpl_sercom.o)
 .text._spi_s_async_deinit
                0x00000000       0x3c C:\Salukat\Purificador\SoftwareDevelopment\Atmel_Microchip\SAMD21_BSP\SAMD21_BSP\Release\libSAMD21_BSP.a(hpl_sercom.o)
 .text._spi_m_async_deinit
                0x00000000        0xc C:\Salukat\Purificador\SoftwareDevelopment\Atmel_Microchip\SAMD21_BSP\SAMD21_BSP\Release\libSAMD21_BSP.a(hpl_sercom.o)
 .text._spi_s_sync_deinit
                0x00000000       0x10 C:\Salukat\Purificador\SoftwareDevelopment\Atmel_Microchip\SAMD21_BSP\SAMD21_BSP\Release\libSAMD21_BSP.a(hpl_sercom.o)
 .text._spi_m_sync_deinit
                0x00000000        0xc C:\Salukat\Purificador\SoftwareDevelopment\Atmel_Microchip\SAMD21_BSP\SAMD21_BSP\Release\libSAMD21_BSP.a(hpl_sercom.o)
 .text._spi_s_async_enable
                0x00000000       0x28 C:\Salukat\Purificador\SoftwareDevelopment\Atmel_Microchip\SAMD21_BSP\SAMD21_BSP\Release\libSAMD21_BSP.a(hpl_sercom.o)
 .text._spi_m_async_enable
                0x00000000        0xc C:\Salukat\Purificador\SoftwareDevelopment\Atmel_Microchip\SAMD21_BSP\SAMD21_BSP\Release\libSAMD21_BSP.a(hpl_sercom.o)
 .text._spi_s_sync_disable
                0x00000000       0x10 C:\Salukat\Purificador\SoftwareDevelopment\Atmel_Microchip\SAMD21_BSP\SAMD21_BSP\Release\libSAMD21_BSP.a(hpl_sercom.o)
 .text._spi_m_sync_disable
                0x00000000        0xc C:\Salukat\Purificador\SoftwareDevelopment\Atmel_Microchip\SAMD21_BSP\SAMD21_BSP\Release\libSAMD21_BSP.a(hpl_sercom.o)
 .text._spi_s_async_disable
                0x00000000       0x2c C:\Salukat\Purificador\SoftwareDevelopment\Atmel_Microchip\SAMD21_BSP\SAMD21_BSP\Release\libSAMD21_BSP.a(hpl_sercom.o)
 .text._spi_m_async_disable
                0x00000000        0xc C:\Salukat\Purificador\SoftwareDevelopment\Atmel_Microchip\SAMD21_BSP\SAMD21_BSP\Release\libSAMD21_BSP.a(hpl_sercom.o)
 .text._spi_s_async_set_mode
                0x00000000       0x10 C:\Salukat\Purificador\SoftwareDevelopment\Atmel_Microchip\SAMD21_BSP\SAMD21_BSP\Release\libSAMD21_BSP.a(hpl_sercom.o)
 .text._spi_m_async_set_mode
                0x00000000        0xc C:\Salukat\Purificador\SoftwareDevelopment\Atmel_Microchip\SAMD21_BSP\SAMD21_BSP\Release\libSAMD21_BSP.a(hpl_sercom.o)
 .text._spi_s_sync_set_mode
                0x00000000       0x10 C:\Salukat\Purificador\SoftwareDevelopment\Atmel_Microchip\SAMD21_BSP\SAMD21_BSP\Release\libSAMD21_BSP.a(hpl_sercom.o)
 .text._spi_m_sync_set_mode
                0x00000000        0xc C:\Salukat\Purificador\SoftwareDevelopment\Atmel_Microchip\SAMD21_BSP\SAMD21_BSP\Release\libSAMD21_BSP.a(hpl_sercom.o)
 .text._spi_calc_baud_val
                0x00000000       0x2c C:\Salukat\Purificador\SoftwareDevelopment\Atmel_Microchip\SAMD21_BSP\SAMD21_BSP\Release\libSAMD21_BSP.a(hpl_sercom.o)
 .text._spi_m_sync_set_baudrate
                0x00000000       0x16 C:\Salukat\Purificador\SoftwareDevelopment\Atmel_Microchip\SAMD21_BSP\SAMD21_BSP\Release\libSAMD21_BSP.a(hpl_sercom.o)
 .text._spi_m_async_set_baudrate
                0x00000000       0x16 C:\Salukat\Purificador\SoftwareDevelopment\Atmel_Microchip\SAMD21_BSP\SAMD21_BSP\Release\libSAMD21_BSP.a(hpl_sercom.o)
 .text._spi_s_async_set_char_size
                0x00000000       0x10 C:\Salukat\Purificador\SoftwareDevelopment\Atmel_Microchip\SAMD21_BSP\SAMD21_BSP\Release\libSAMD21_BSP.a(hpl_sercom.o)
 .text._spi_m_async_set_char_size
                0x00000000        0xc C:\Salukat\Purificador\SoftwareDevelopment\Atmel_Microchip\SAMD21_BSP\SAMD21_BSP\Release\libSAMD21_BSP.a(hpl_sercom.o)
 .text._spi_s_sync_set_char_size
                0x00000000       0x10 C:\Salukat\Purificador\SoftwareDevelopment\Atmel_Microchip\SAMD21_BSP\SAMD21_BSP\Release\libSAMD21_BSP.a(hpl_sercom.o)
 .text._spi_m_sync_set_char_size
                0x00000000        0xc C:\Salukat\Purificador\SoftwareDevelopment\Atmel_Microchip\SAMD21_BSP\SAMD21_BSP\Release\libSAMD21_BSP.a(hpl_sercom.o)
 .text._spi_s_async_set_data_order
                0x00000000       0x10 C:\Salukat\Purificador\SoftwareDevelopment\Atmel_Microchip\SAMD21_BSP\SAMD21_BSP\Release\libSAMD21_BSP.a(hpl_sercom.o)
 .text._spi_m_async_set_data_order
                0x00000000        0xc C:\Salukat\Purificador\SoftwareDevelopment\Atmel_Microchip\SAMD21_BSP\SAMD21_BSP\Release\libSAMD21_BSP.a(hpl_sercom.o)
 .text._spi_s_sync_set_data_order
                0x00000000       0x10 C:\Salukat\Purificador\SoftwareDevelopment\Atmel_Microchip\SAMD21_BSP\SAMD21_BSP\Release\libSAMD21_BSP.a(hpl_sercom.o)
 .text._spi_m_sync_set_data_order
                0x00000000        0xc C:\Salukat\Purificador\SoftwareDevelopment\Atmel_Microchip\SAMD21_BSP\SAMD21_BSP\Release\libSAMD21_BSP.a(hpl_sercom.o)
 .text._spi_m_async_enable_tx
                0x00000000       0x12 C:\Salukat\Purificador\SoftwareDevelopment\Atmel_Microchip\SAMD21_BSP\SAMD21_BSP\Release\libSAMD21_BSP.a(hpl_sercom.o)
 .text._spi_s_async_enable_tx
                0x00000000        0xc C:\Salukat\Purificador\SoftwareDevelopment\Atmel_Microchip\SAMD21_BSP\SAMD21_BSP\Release\libSAMD21_BSP.a(hpl_sercom.o)
 .text._spi_m_async_enable_rx
                0x00000000       0x12 C:\Salukat\Purificador\SoftwareDevelopment\Atmel_Microchip\SAMD21_BSP\SAMD21_BSP\Release\libSAMD21_BSP.a(hpl_sercom.o)
 .text._spi_s_async_enable_rx
                0x00000000        0xc C:\Salukat\Purificador\SoftwareDevelopment\Atmel_Microchip\SAMD21_BSP\SAMD21_BSP\Release\libSAMD21_BSP.a(hpl_sercom.o)
 .text._spi_m_async_enable_tx_complete
                0x00000000       0x12 C:\Salukat\Purificador\SoftwareDevelopment\Atmel_Microchip\SAMD21_BSP\SAMD21_BSP\Release\libSAMD21_BSP.a(hpl_sercom.o)
 .text._spi_s_async_enable_ss_detect
                0x00000000        0xc C:\Salukat\Purificador\SoftwareDevelopment\Atmel_Microchip\SAMD21_BSP\SAMD21_BSP\Release\libSAMD21_BSP.a(hpl_sercom.o)
 .text._spi_m_async_write_one
                0x00000000        0x8 C:\Salukat\Purificador\SoftwareDevelopment\Atmel_Microchip\SAMD21_BSP\SAMD21_BSP\Release\libSAMD21_BSP.a(hpl_sercom.o)
 .text._spi_s_async_write_one
                0x00000000        0x8 C:\Salukat\Purificador\SoftwareDevelopment\Atmel_Microchip\SAMD21_BSP\SAMD21_BSP\Release\libSAMD21_BSP.a(hpl_sercom.o)
 .text._spi_s_sync_write_one
                0x00000000        0x8 C:\Salukat\Purificador\SoftwareDevelopment\Atmel_Microchip\SAMD21_BSP\SAMD21_BSP\Release\libSAMD21_BSP.a(hpl_sercom.o)
 .text._spi_m_async_read_one
                0x00000000        0x8 C:\Salukat\Purificador\SoftwareDevelopment\Atmel_Microchip\SAMD21_BSP\SAMD21_BSP\Release\libSAMD21_BSP.a(hpl_sercom.o)
 .text._spi_s_async_read_one
                0x00000000        0x8 C:\Salukat\Purificador\SoftwareDevelopment\Atmel_Microchip\SAMD21_BSP\SAMD21_BSP\Release\libSAMD21_BSP.a(hpl_sercom.o)
 .text._spi_s_sync_read_one
                0x00000000        0x8 C:\Salukat\Purificador\SoftwareDevelopment\Atmel_Microchip\SAMD21_BSP\SAMD21_BSP\Release\libSAMD21_BSP.a(hpl_sercom.o)
 .text._spi_m_async_register_callback
                0x00000000        0xa C:\Salukat\Purificador\SoftwareDevelopment\Atmel_Microchip\SAMD21_BSP\SAMD21_BSP\Release\libSAMD21_BSP.a(hpl_sercom.o)
 .text._spi_s_async_register_callback
                0x00000000        0xa C:\Salukat\Purificador\SoftwareDevelopment\Atmel_Microchip\SAMD21_BSP\SAMD21_BSP\Release\libSAMD21_BSP.a(hpl_sercom.o)
 .text._spi_s_sync_is_tx_ready
                0x00000000        0xa C:\Salukat\Purificador\SoftwareDevelopment\Atmel_Microchip\SAMD21_BSP\SAMD21_BSP\Release\libSAMD21_BSP.a(hpl_sercom.o)
 .text._spi_s_sync_is_rx_ready
                0x00000000        0xa C:\Salukat\Purificador\SoftwareDevelopment\Atmel_Microchip\SAMD21_BSP\SAMD21_BSP\Release\libSAMD21_BSP.a(hpl_sercom.o)
 .text._spi_s_sync_is_ss_deactivated
                0x00000000       0x12 C:\Salukat\Purificador\SoftwareDevelopment\Atmel_Microchip\SAMD21_BSP\SAMD21_BSP\Release\libSAMD21_BSP.a(hpl_sercom.o)
 .text._spi_s_sync_is_error
                0x00000000       0x18 C:\Salukat\Purificador\SoftwareDevelopment\Atmel_Microchip\SAMD21_BSP\SAMD21_BSP\Release\libSAMD21_BSP.a(hpl_sercom.o)
 .text._spi_m_async_set_irq_state
                0x00000000       0x14 C:\Salukat\Purificador\SoftwareDevelopment\Atmel_Microchip\SAMD21_BSP\SAMD21_BSP\Release\libSAMD21_BSP.a(hpl_sercom.o)
 .text._spi_s_async_set_irq_state
                0x00000000        0xc C:\Salukat\Purificador\SoftwareDevelopment\Atmel_Microchip\SAMD21_BSP\SAMD21_BSP\Release\libSAMD21_BSP.a(hpl_sercom.o)
 .text          0x00000000        0x0 C:\Salukat\Purificador\SoftwareDevelopment\Atmel_Microchip\SAMD21_BSP\SAMD21_BSP\Release\libSAMD21_BSP.a(hpl_sysctrl.o)
 .data          0x00000000        0x0 C:\Salukat\Purificador\SoftwareDevelopment\Atmel_Microchip\SAMD21_BSP\SAMD21_BSP\Release\libSAMD21_BSP.a(hpl_sysctrl.o)
 .bss           0x00000000        0x0 C:\Salukat\Purificador\SoftwareDevelopment\Atmel_Microchip\SAMD21_BSP\SAMD21_BSP\Release\libSAMD21_BSP.a(hpl_sysctrl.o)
 .text          0x00000000        0x0 C:\Salukat\Purificador\SoftwareDevelopment\Atmel_Microchip\SAMD21_BSP\SAMD21_BSP\Release\libSAMD21_BSP.a(hpl_systick.o)
 .data          0x00000000        0x0 C:\Salukat\Purificador\SoftwareDevelopment\Atmel_Microchip\SAMD21_BSP\SAMD21_BSP\Release\libSAMD21_BSP.a(hpl_systick.o)
 .bss           0x00000000        0x0 C:\Salukat\Purificador\SoftwareDevelopment\Atmel_Microchip\SAMD21_BSP\SAMD21_BSP\Release\libSAMD21_BSP.a(hpl_systick.o)
 .text._system_time_init
                0x00000000       0x14 C:\Salukat\Purificador\SoftwareDevelopment\Atmel_Microchip\SAMD21_BSP\SAMD21_BSP\Release\libSAMD21_BSP.a(hpl_systick.o)
 .text._system_time_deinit
                0x00000000       0x10 C:\Salukat\Purificador\SoftwareDevelopment\Atmel_Microchip\SAMD21_BSP\SAMD21_BSP\Release\libSAMD21_BSP.a(hpl_systick.o)
 .text._system_time_get
                0x00000000        0xc C:\Salukat\Purificador\SoftwareDevelopment\Atmel_Microchip\SAMD21_BSP\SAMD21_BSP\Release\libSAMD21_BSP.a(hpl_systick.o)
 .text._system_time_get_max_time_value
                0x00000000        0x8 C:\Salukat\Purificador\SoftwareDevelopment\Atmel_Microchip\SAMD21_BSP\SAMD21_BSP\Release\libSAMD21_BSP.a(hpl_systick.o)
 .text          0x00000000        0x0 C:\Salukat\Purificador\SoftwareDevelopment\Atmel_Microchip\SAMD21_BSP\SAMD21_BSP\Release\libSAMD21_BSP.a(hpl_tc.o)
 .data          0x00000000        0x0 C:\Salukat\Purificador\SoftwareDevelopment\Atmel_Microchip\SAMD21_BSP\SAMD21_BSP\Release\libSAMD21_BSP.a(hpl_tc.o)
 .text._timer_deinit
                0x00000000       0x40 C:\Salukat\Purificador\SoftwareDevelopment\Atmel_Microchip\SAMD21_BSP\SAMD21_BSP\Release\libSAMD21_BSP.a(hpl_tc.o)
 .text._timer_start
                0x00000000        0xc C:\Salukat\Purificador\SoftwareDevelopment\Atmel_Microchip\SAMD21_BSP\SAMD21_BSP\Release\libSAMD21_BSP.a(hpl_tc.o)
 .text._timer_stop
                0x00000000        0xc C:\Salukat\Purificador\SoftwareDevelopment\Atmel_Microchip\SAMD21_BSP\SAMD21_BSP\Release\libSAMD21_BSP.a(hpl_tc.o)
 .text._timer_set_period
                0x00000000       0x32 C:\Salukat\Purificador\SoftwareDevelopment\Atmel_Microchip\SAMD21_BSP\SAMD21_BSP\Release\libSAMD21_BSP.a(hpl_tc.o)
 .text._timer_get_period
                0x00000000       0x32 C:\Salukat\Purificador\SoftwareDevelopment\Atmel_Microchip\SAMD21_BSP\SAMD21_BSP\Release\libSAMD21_BSP.a(hpl_tc.o)
 .text._timer_is_started
                0x00000000        0xa C:\Salukat\Purificador\SoftwareDevelopment\Atmel_Microchip\SAMD21_BSP\SAMD21_BSP\Release\libSAMD21_BSP.a(hpl_tc.o)
 .text._tc_get_pwm
                0x00000000        0x4 C:\Salukat\Purificador\SoftwareDevelopment\Atmel_Microchip\SAMD21_BSP\SAMD21_BSP\Release\libSAMD21_BSP.a(hpl_tc.o)
 .text._timer_set_irq
                0x00000000       0x1c C:\Salukat\Purificador\SoftwareDevelopment\Atmel_Microchip\SAMD21_BSP\SAMD21_BSP\Release\libSAMD21_BSP.a(hpl_tc.o)
 .text          0x00000000        0x0 C:\Salukat\Purificador\SoftwareDevelopment\Atmel_Microchip\SAMD21_BSP\SAMD21_BSP\Release\libSAMD21_BSP.a(hpl_usb.o)
 .data          0x00000000        0x0 C:\Salukat\Purificador\SoftwareDevelopment\Atmel_Microchip\SAMD21_BSP\SAMD21_BSP\Release\libSAMD21_BSP.a(hpl_usb.o)
 .text._usb_d_dev_disable
                0x00000000       0x50 C:\Salukat\Purificador\SoftwareDevelopment\Atmel_Microchip\SAMD21_BSP\SAMD21_BSP\Release\libSAMD21_BSP.a(hpl_usb.o)
 .text._usb_d_dev_deinit
                0x00000000       0x40 C:\Salukat\Purificador\SoftwareDevelopment\Atmel_Microchip\SAMD21_BSP\SAMD21_BSP\Release\libSAMD21_BSP.a(hpl_usb.o)
 .text._usb_d_dev_detach
                0x00000000       0x10 C:\Salukat\Purificador\SoftwareDevelopment\Atmel_Microchip\SAMD21_BSP\SAMD21_BSP\Release\libSAMD21_BSP.a(hpl_usb.o)
 .text._usb_d_dev_send_remotewakeup
                0x00000000       0x30 C:\Salukat\Purificador\SoftwareDevelopment\Atmel_Microchip\SAMD21_BSP\SAMD21_BSP\Release\libSAMD21_BSP.a(hpl_usb.o)
 .text._usb_d_dev_get_speed
                0x00000000       0x20 C:\Salukat\Purificador\SoftwareDevelopment\Atmel_Microchip\SAMD21_BSP\SAMD21_BSP\Release\libSAMD21_BSP.a(hpl_usb.o)
 .text._usb_d_dev_get_address
                0x00000000       0x10 C:\Salukat\Purificador\SoftwareDevelopment\Atmel_Microchip\SAMD21_BSP\SAMD21_BSP\Release\libSAMD21_BSP.a(hpl_usb.o)
 .text._usb_d_dev_get_frame_n
                0x00000000       0x10 C:\Salukat\Purificador\SoftwareDevelopment\Atmel_Microchip\SAMD21_BSP\SAMD21_BSP\Release\libSAMD21_BSP.a(hpl_usb.o)
 .text._usb_d_dev_get_uframe_n
                0x00000000       0x10 C:\Salukat\Purificador\SoftwareDevelopment\Atmel_Microchip\SAMD21_BSP\SAMD21_BSP\Release\libSAMD21_BSP.a(hpl_usb.o)
 .text._usb_d_dev_ep0_init
                0x00000000       0x14 C:\Salukat\Purificador\SoftwareDevelopment\Atmel_Microchip\SAMD21_BSP\SAMD21_BSP\Release\libSAMD21_BSP.a(hpl_usb.o)
 .text._usb_d_dev_ep_disable
                0x00000000       0x3c C:\Salukat\Purificador\SoftwareDevelopment\Atmel_Microchip\SAMD21_BSP\SAMD21_BSP\Release\libSAMD21_BSP.a(hpl_usb.o)
 .text._usb_d_dev_ep_abort
                0x00000000       0x28 C:\Salukat\Purificador\SoftwareDevelopment\Atmel_Microchip\SAMD21_BSP\SAMD21_BSP\Release\libSAMD21_BSP.a(hpl_usb.o)
 .text._usb_d_dev_ep_get_status
                0x00000000       0xa4 C:\Salukat\Purificador\SoftwareDevelopment\Atmel_Microchip\SAMD21_BSP\SAMD21_BSP\Release\libSAMD21_BSP.a(hpl_usb.o)
 .text          0x00000000        0x0 C:\Salukat\Purificador\SoftwareDevelopment\Atmel_Microchip\SAMD21_BSP\SAMD21_BSP\Release\libSAMD21_BSP.a(usb_start.o)
 .text.usb_device_cb_bulk_in
                0x00000000       0x18 C:\Salukat\Purificador\SoftwareDevelopment\Atmel_Microchip\SAMD21_BSP\SAMD21_BSP\Release\libSAMD21_BSP.a(usb_start.o)
 .text.usb_device_cb_bulk_out
                0x00000000       0x18 C:\Salukat\Purificador\SoftwareDevelopment\Atmel_Microchip\SAMD21_BSP\SAMD21_BSP\Release\libSAMD21_BSP.a(usb_start.o)
 .text.usb_device_cb_state_c
                0x00000000       0x3c C:\Salukat\Purificador\SoftwareDevelopment\Atmel_Microchip\SAMD21_BSP\SAMD21_BSP\Release\libSAMD21_BSP.a(usb_start.o)
 .text.cdcd_acm_example
                0x00000000       0x20 C:\Salukat\Purificador\SoftwareDevelopment\Atmel_Microchip\SAMD21_BSP\SAMD21_BSP\Release\libSAMD21_BSP.a(usb_start.o)
 .text          0x00000000        0x0 C:\Salukat\Purificador\SoftwareDevelopment\Atmel_Microchip\SAMD21_BSP\SAMD21_BSP\Release\libSAMD21_BSP.a(cdcdf_acm.o)
 .text.cdcdf_acm_deinit
                0x00000000       0x1c C:\Salukat\Purificador\SoftwareDevelopment\Atmel_Microchip\SAMD21_BSP\SAMD21_BSP\Release\libSAMD21_BSP.a(cdcdf_acm.o)
 .text.cdcdf_acm_read
                0x00000000       0x28 C:\Salukat\Purificador\SoftwareDevelopment\Atmel_Microchip\SAMD21_BSP\SAMD21_BSP\Release\libSAMD21_BSP.a(cdcdf_acm.o)
 .text.cdcdf_acm_write
                0x00000000       0x28 C:\Salukat\Purificador\SoftwareDevelopment\Atmel_Microchip\SAMD21_BSP\SAMD21_BSP\Release\libSAMD21_BSP.a(cdcdf_acm.o)
 .text.cdcdf_acm_stop_xfer
                0x00000000       0x18 C:\Salukat\Purificador\SoftwareDevelopment\Atmel_Microchip\SAMD21_BSP\SAMD21_BSP\Release\libSAMD21_BSP.a(cdcdf_acm.o)
 .text.cdcdf_acm_register_callback
                0x00000000       0x38 C:\Salukat\Purificador\SoftwareDevelopment\Atmel_Microchip\SAMD21_BSP\SAMD21_BSP\Release\libSAMD21_BSP.a(cdcdf_acm.o)
 .text.cdcdf_acm_is_enabled
                0x00000000        0xc C:\Salukat\Purificador\SoftwareDevelopment\Atmel_Microchip\SAMD21_BSP\SAMD21_BSP\Release\libSAMD21_BSP.a(cdcdf_acm.o)
 .text.cdcdf_acm_get_line_coding
                0x00000000        0xc C:\Salukat\Purificador\SoftwareDevelopment\Atmel_Microchip\SAMD21_BSP\SAMD21_BSP\Release\libSAMD21_BSP.a(cdcdf_acm.o)
 .text.cdcdf_acm_get_version
                0x00000000        0x4 C:\Salukat\Purificador\SoftwareDevelopment\Atmel_Microchip\SAMD21_BSP\SAMD21_BSP\Release\libSAMD21_BSP.a(cdcdf_acm.o)
 .text          0x00000000        0x0 C:\Salukat\Purificador\SoftwareDevelopment\Atmel_Microchip\SAMD21_BSP\SAMD21_BSP\Release\libSAMD21_BSP.a(usbdc.o)
 .data          0x00000000        0x0 C:\Salukat\Purificador\SoftwareDevelopment\Atmel_Microchip\SAMD21_BSP\SAMD21_BSP\Release\libSAMD21_BSP.a(usbdc.o)
 .text.usbdc_unregister_handler
                0x00000000       0x30 C:\Salukat\Purificador\SoftwareDevelopment\Atmel_Microchip\SAMD21_BSP\SAMD21_BSP\Release\libSAMD21_BSP.a(usbdc.o)
 .text.usbdc_deinit
                0x00000000       0x10 C:\Salukat\Purificador\SoftwareDevelopment\Atmel_Microchip\SAMD21_BSP\SAMD21_BSP\Release\libSAMD21_BSP.a(usbdc.o)
 .text.usbdc_unregister_function
                0x00000000       0x18 C:\Salukat\Purificador\SoftwareDevelopment\Atmel_Microchip\SAMD21_BSP\SAMD21_BSP\Release\libSAMD21_BSP.a(usbdc.o)
 .text.usbdc_validate_desces
                0x00000000       0x44 C:\Salukat\Purificador\SoftwareDevelopment\Atmel_Microchip\SAMD21_BSP\SAMD21_BSP\Release\libSAMD21_BSP.a(usbdc.o)
 .text.usbdc_check_desces
                0x00000000       0x10 C:\Salukat\Purificador\SoftwareDevelopment\Atmel_Microchip\SAMD21_BSP\SAMD21_BSP\Release\libSAMD21_BSP.a(usbdc.o)
 .text.usbdc_stop
                0x00000000       0x18 C:\Salukat\Purificador\SoftwareDevelopment\Atmel_Microchip\SAMD21_BSP\SAMD21_BSP\Release\libSAMD21_BSP.a(usbdc.o)
 .text.usbdc_detach
                0x00000000        0xc C:\Salukat\Purificador\SoftwareDevelopment\Atmel_Microchip\SAMD21_BSP\SAMD21_BSP\Release\libSAMD21_BSP.a(usbdc.o)
 .text.usbdc_remotewakeup
                0x00000000       0x18 C:\Salukat\Purificador\SoftwareDevelopment\Atmel_Microchip\SAMD21_BSP\SAMD21_BSP\Release\libSAMD21_BSP.a(usbdc.o)
 .text.usbdc_get_version
                0x00000000        0x4 C:\Salukat\Purificador\SoftwareDevelopment\Atmel_Microchip\SAMD21_BSP\SAMD21_BSP\Release\libSAMD21_BSP.a(usbdc.o)
 .text          0x00000000        0x0 C:\Salukat\Purificador\SoftwareDevelopment\Atmel_Microchip\SAMD21_BSP\SAMD21_BSP\Release\libSAMD21_BSP.a(usb_protocol.o)
 .data          0x00000000        0x0 C:\Salukat\Purificador\SoftwareDevelopment\Atmel_Microchip\SAMD21_BSP\SAMD21_BSP\Release\libSAMD21_BSP.a(usb_protocol.o)
 .bss           0x00000000        0x0 C:\Salukat\Purificador\SoftwareDevelopment\Atmel_Microchip\SAMD21_BSP\SAMD21_BSP\Release\libSAMD21_BSP.a(usb_protocol.o)
 .text.usb_find_iface_after
                0x00000000       0x24 C:\Salukat\Purificador\SoftwareDevelopment\Atmel_Microchip\SAMD21_BSP\SAMD21_BSP\Release\libSAMD21_BSP.a(usb_protocol.o)
 .text.usb_find_othspdcfg_desc
                0x00000000       0x3c C:\Salukat\Purificador\SoftwareDevelopment\Atmel_Microchip\SAMD21_BSP\SAMD21_BSP\Release\libSAMD21_BSP.a(usb_protocol.o)
 .text          0x00000000        0x0 c:/program files (x86)/atmel/studio/7.0/toolchain/arm/arm-gnu-toolchain/bin/../lib/gcc/arm-none-eabi/6.3.1/../../../../arm-none-eabi/lib/thumb/v6-m\libstdc++.a(atexit_arm.o)
 .data          0x00000000        0x0 c:/program files (x86)/atmel/studio/7.0/toolchain/arm/arm-gnu-toolchain/bin/../lib/gcc/arm-none-eabi/6.3.1/../../../../arm-none-eabi/lib/thumb/v6-m\libstdc++.a(atexit_arm.o)
 .bss           0x00000000        0x0 c:/program files (x86)/atmel/studio/7.0/toolchain/arm/arm-gnu-toolchain/bin/../lib/gcc/arm-none-eabi/6.3.1/../../../../arm-none-eabi/lib/thumb/v6-m\libstdc++.a(atexit_arm.o)
 .ARM.extab.text.__aeabi_atexit
                0x00000000        0x0 c:/program files (x86)/atmel/studio/7.0/toolchain/arm/arm-gnu-toolchain/bin/../lib/gcc/arm-none-eabi/6.3.1/../../../../arm-none-eabi/lib/thumb/v6-m\libstdc++.a(atexit_arm.o)
 .text          0x00000000        0x0 c:/program files (x86)/atmel/studio/7.0/toolchain/arm/arm-gnu-toolchain/bin/../lib/gcc/arm-none-eabi/6.3.1/../../../../arm-none-eabi/lib/thumb/v6-m\libm.a(lib_a-s_floor.o)
 .data          0x00000000        0x0 c:/program files (x86)/atmel/studio/7.0/toolchain/arm/arm-gnu-toolchain/bin/../lib/gcc/arm-none-eabi/6.3.1/../../../../arm-none-eabi/lib/thumb/v6-m\libm.a(lib_a-s_floor.o)
 .bss           0x00000000        0x0 c:/program files (x86)/atmel/studio/7.0/toolchain/arm/arm-gnu-toolchain/bin/../lib/gcc/arm-none-eabi/6.3.1/../../../../arm-none-eabi/lib/thumb/v6-m\libm.a(lib_a-s_floor.o)
 .text          0x00000000        0x0 c:/program files (x86)/atmel/studio/7.0/toolchain/arm/arm-gnu-toolchain/bin/../lib/gcc/arm-none-eabi/6.3.1/../../../../arm-none-eabi/lib/thumb/v6-m\libm.a(lib_a-w_log.o)
 .data          0x00000000        0x0 c:/program files (x86)/atmel/studio/7.0/toolchain/arm/arm-gnu-toolchain/bin/../lib/gcc/arm-none-eabi/6.3.1/../../../../arm-none-eabi/lib/thumb/v6-m\libm.a(lib_a-w_log.o)
 .bss           0x00000000        0x0 c:/program files (x86)/atmel/studio/7.0/toolchain/arm/arm-gnu-toolchain/bin/../lib/gcc/arm-none-eabi/6.3.1/../../../../arm-none-eabi/lib/thumb/v6-m\libm.a(lib_a-w_log.o)
 .text          0x00000000        0x0 c:/program files (x86)/atmel/studio/7.0/toolchain/arm/arm-gnu-toolchain/bin/../lib/gcc/arm-none-eabi/6.3.1/../../../../arm-none-eabi/lib/thumb/v6-m\libm.a(lib_a-w_pow.o)
 .data          0x00000000        0x0 c:/program files (x86)/atmel/studio/7.0/toolchain/arm/arm-gnu-toolchain/bin/../lib/gcc/arm-none-eabi/6.3.1/../../../../arm-none-eabi/lib/thumb/v6-m\libm.a(lib_a-w_pow.o)
 .bss           0x00000000        0x0 c:/program files (x86)/atmel/studio/7.0/toolchain/arm/arm-gnu-toolchain/bin/../lib/gcc/arm-none-eabi/6.3.1/../../../../arm-none-eabi/lib/thumb/v6-m\libm.a(lib_a-w_pow.o)
 .text          0x00000000        0x0 c:/program files (x86)/atmel/studio/7.0/toolchain/arm/arm-gnu-toolchain/bin/../lib/gcc/arm-none-eabi/6.3.1/../../../../arm-none-eabi/lib/thumb/v6-m\libm.a(lib_a-e_log.o)
 .data          0x00000000        0x0 c:/program files (x86)/atmel/studio/7.0/toolchain/arm/arm-gnu-toolchain/bin/../lib/gcc/arm-none-eabi/6.3.1/../../../../arm-none-eabi/lib/thumb/v6-m\libm.a(lib_a-e_log.o)
 .bss           0x00000000        0x0 c:/program files (x86)/atmel/studio/7.0/toolchain/arm/arm-gnu-toolchain/bin/../lib/gcc/arm-none-eabi/6.3.1/../../../../arm-none-eabi/lib/thumb/v6-m\libm.a(lib_a-e_log.o)
 .text          0x00000000        0x0 c:/program files (x86)/atmel/studio/7.0/toolchain/arm/arm-gnu-toolchain/bin/../lib/gcc/arm-none-eabi/6.3.1/../../../../arm-none-eabi/lib/thumb/v6-m\libm.a(lib_a-e_pow.o)
 .data          0x00000000        0x0 c:/program files (x86)/atmel/studio/7.0/toolchain/arm/arm-gnu-toolchain/bin/../lib/gcc/arm-none-eabi/6.3.1/../../../../arm-none-eabi/lib/thumb/v6-m\libm.a(lib_a-e_pow.o)
 .bss           0x00000000        0x0 c:/program files (x86)/atmel/studio/7.0/toolchain/arm/arm-gnu-toolchain/bin/../lib/gcc/arm-none-eabi/6.3.1/../../../../arm-none-eabi/lib/thumb/v6-m\libm.a(lib_a-e_pow.o)
 .text          0x00000000        0x0 c:/program files (x86)/atmel/studio/7.0/toolchain/arm/arm-gnu-toolchain/bin/../lib/gcc/arm-none-eabi/6.3.1/../../../../arm-none-eabi/lib/thumb/v6-m\libm.a(lib_a-e_sqrt.o)
 .data          0x00000000        0x0 c:/program files (x86)/atmel/studio/7.0/toolchain/arm/arm-gnu-toolchain/bin/../lib/gcc/arm-none-eabi/6.3.1/../../../../arm-none-eabi/lib/thumb/v6-m\libm.a(lib_a-e_sqrt.o)
 .bss           0x00000000        0x0 c:/program files (x86)/atmel/studio/7.0/toolchain/arm/arm-gnu-toolchain/bin/../lib/gcc/arm-none-eabi/6.3.1/../../../../arm-none-eabi/lib/thumb/v6-m\libm.a(lib_a-e_sqrt.o)
 .text          0x00000000        0x0 c:/program files (x86)/atmel/studio/7.0/toolchain/arm/arm-gnu-toolchain/bin/../lib/gcc/arm-none-eabi/6.3.1/../../../../arm-none-eabi/lib/thumb/v6-m\libm.a(lib_a-s_fabs.o)
 .data          0x00000000        0x0 c:/program files (x86)/atmel/studio/7.0/toolchain/arm/arm-gnu-toolchain/bin/../lib/gcc/arm-none-eabi/6.3.1/../../../../arm-none-eabi/lib/thumb/v6-m\libm.a(lib_a-s_fabs.o)
 .bss           0x00000000        0x0 c:/program files (x86)/atmel/studio/7.0/toolchain/arm/arm-gnu-toolchain/bin/../lib/gcc/arm-none-eabi/6.3.1/../../../../arm-none-eabi/lib/thumb/v6-m\libm.a(lib_a-s_fabs.o)
 .text          0x00000000        0x0 c:/program files (x86)/atmel/studio/7.0/toolchain/arm/arm-gnu-toolchain/bin/../lib/gcc/arm-none-eabi/6.3.1/../../../../arm-none-eabi/lib/thumb/v6-m\libm.a(lib_a-s_finite.o)
 .data          0x00000000        0x0 c:/program files (x86)/atmel/studio/7.0/toolchain/arm/arm-gnu-toolchain/bin/../lib/gcc/arm-none-eabi/6.3.1/../../../../arm-none-eabi/lib/thumb/v6-m\libm.a(lib_a-s_finite.o)
 .bss           0x00000000        0x0 c:/program files (x86)/atmel/studio/7.0/toolchain/arm/arm-gnu-toolchain/bin/../lib/gcc/arm-none-eabi/6.3.1/../../../../arm-none-eabi/lib/thumb/v6-m\libm.a(lib_a-s_finite.o)
 .text          0x00000000        0x0 c:/program files (x86)/atmel/studio/7.0/toolchain/arm/arm-gnu-toolchain/bin/../lib/gcc/arm-none-eabi/6.3.1/../../../../arm-none-eabi/lib/thumb/v6-m\libm.a(lib_a-s_lib_ver.o)
 .data          0x00000000        0x0 c:/program files (x86)/atmel/studio/7.0/toolchain/arm/arm-gnu-toolchain/bin/../lib/gcc/arm-none-eabi/6.3.1/../../../../arm-none-eabi/lib/thumb/v6-m\libm.a(lib_a-s_lib_ver.o)
 .bss           0x00000000        0x0 c:/program files (x86)/atmel/studio/7.0/toolchain/arm/arm-gnu-toolchain/bin/../lib/gcc/arm-none-eabi/6.3.1/../../../../arm-none-eabi/lib/thumb/v6-m\libm.a(lib_a-s_lib_ver.o)
 .text          0x00000000        0x0 c:/program files (x86)/atmel/studio/7.0/toolchain/arm/arm-gnu-toolchain/bin/../lib/gcc/arm-none-eabi/6.3.1/../../../../arm-none-eabi/lib/thumb/v6-m\libm.a(lib_a-s_matherr.o)
 .data          0x00000000        0x0 c:/program files (x86)/atmel/studio/7.0/toolchain/arm/arm-gnu-toolchain/bin/../lib/gcc/arm-none-eabi/6.3.1/../../../../arm-none-eabi/lib/thumb/v6-m\libm.a(lib_a-s_matherr.o)
 .bss           0x00000000        0x0 c:/program files (x86)/atmel/studio/7.0/toolchain/arm/arm-gnu-toolchain/bin/../lib/gcc/arm-none-eabi/6.3.1/../../../../arm-none-eabi/lib/thumb/v6-m\libm.a(lib_a-s_matherr.o)
 .text          0x00000000        0x0 c:/program files (x86)/atmel/studio/7.0/toolchain/arm/arm-gnu-toolchain/bin/../lib/gcc/arm-none-eabi/6.3.1/../../../../arm-none-eabi/lib/thumb/v6-m\libm.a(lib_a-s_nan.o)
 .data          0x00000000        0x0 c:/program files (x86)/atmel/studio/7.0/toolchain/arm/arm-gnu-toolchain/bin/../lib/gcc/arm-none-eabi/6.3.1/../../../../arm-none-eabi/lib/thumb/v6-m\libm.a(lib_a-s_nan.o)
 .bss           0x00000000        0x0 c:/program files (x86)/atmel/studio/7.0/toolchain/arm/arm-gnu-toolchain/bin/../lib/gcc/arm-none-eabi/6.3.1/../../../../arm-none-eabi/lib/thumb/v6-m\libm.a(lib_a-s_nan.o)
 .text          0x00000000        0x0 c:/program files (x86)/atmel/studio/7.0/toolchain/arm/arm-gnu-toolchain/bin/../lib/gcc/arm-none-eabi/6.3.1/../../../../arm-none-eabi/lib/thumb/v6-m\libm.a(lib_a-s_rint.o)
 .data          0x00000000        0x0 c:/program files (x86)/atmel/studio/7.0/toolchain/arm/arm-gnu-toolchain/bin/../lib/gcc/arm-none-eabi/6.3.1/../../../../arm-none-eabi/lib/thumb/v6-m\libm.a(lib_a-s_rint.o)
 .bss           0x00000000        0x0 c:/program files (x86)/atmel/studio/7.0/toolchain/arm/arm-gnu-toolchain/bin/../lib/gcc/arm-none-eabi/6.3.1/../../../../arm-none-eabi/lib/thumb/v6-m\libm.a(lib_a-s_rint.o)
 .text          0x00000000        0x0 c:/program files (x86)/atmel/studio/7.0/toolchain/arm/arm-gnu-toolchain/bin/../lib/gcc/arm-none-eabi/6.3.1/../../../../arm-none-eabi/lib/thumb/v6-m\libm.a(lib_a-s_scalbn.o)
 .data          0x00000000        0x0 c:/program files (x86)/atmel/studio/7.0/toolchain/arm/arm-gnu-toolchain/bin/../lib/gcc/arm-none-eabi/6.3.1/../../../../arm-none-eabi/lib/thumb/v6-m\libm.a(lib_a-s_scalbn.o)
 .bss           0x00000000        0x0 c:/program files (x86)/atmel/studio/7.0/toolchain/arm/arm-gnu-toolchain/bin/../lib/gcc/arm-none-eabi/6.3.1/../../../../arm-none-eabi/lib/thumb/v6-m\libm.a(lib_a-s_scalbn.o)
 .text          0x00000000        0x0 c:/program files (x86)/atmel/studio/7.0/toolchain/arm/arm-gnu-toolchain/bin/../lib/gcc/arm-none-eabi/6.3.1/../../../../arm-none-eabi/lib/thumb/v6-m\libm.a(lib_a-s_copysign.o)
 .data          0x00000000        0x0 c:/program files (x86)/atmel/studio/7.0/toolchain/arm/arm-gnu-toolchain/bin/../lib/gcc/arm-none-eabi/6.3.1/../../../../arm-none-eabi/lib/thumb/v6-m\libm.a(lib_a-s_copysign.o)
 .bss           0x00000000        0x0 c:/program files (x86)/atmel/studio/7.0/toolchain/arm/arm-gnu-toolchain/bin/../lib/gcc/arm-none-eabi/6.3.1/../../../../arm-none-eabi/lib/thumb/v6-m\libm.a(lib_a-s_copysign.o)
 .data          0x00000000        0x0 c:/program files (x86)/atmel/studio/7.0/toolchain/arm/arm-gnu-toolchain/bin/../lib/gcc/arm-none-eabi/6.3.1/thumb/v6-m\libgcc.a(_thumb1_case_sqi.o)
 .bss           0x00000000        0x0 c:/program files (x86)/atmel/studio/7.0/toolchain/arm/arm-gnu-toolchain/bin/../lib/gcc/arm-none-eabi/6.3.1/thumb/v6-m\libgcc.a(_thumb1_case_sqi.o)
 .text          0x00000000       0x14 c:/program files (x86)/atmel/studio/7.0/toolchain/arm/arm-gnu-toolchain/bin/../lib/gcc/arm-none-eabi/6.3.1/thumb/v6-m\libgcc.a(_thumb1_case_uqi.o)
 .data          0x00000000        0x0 c:/program files (x86)/atmel/studio/7.0/toolchain/arm/arm-gnu-toolchain/bin/../lib/gcc/arm-none-eabi/6.3.1/thumb/v6-m\libgcc.a(_thumb1_case_uqi.o)
 .bss           0x00000000        0x0 c:/program files (x86)/atmel/studio/7.0/toolchain/arm/arm-gnu-toolchain/bin/../lib/gcc/arm-none-eabi/6.3.1/thumb/v6-m\libgcc.a(_thumb1_case_uqi.o)
 .ARM.attributes
                0x00000000       0x1e c:/program files (x86)/atmel/studio/7.0/toolchain/arm/arm-gnu-toolchain/bin/../lib/gcc/arm-none-eabi/6.3.1/thumb/v6-m\libgcc.a(_thumb1_case_uqi.o)
 .data          0x00000000        0x0 c:/program files (x86)/atmel/studio/7.0/toolchain/arm/arm-gnu-toolchain/bin/../lib/gcc/arm-none-eabi/6.3.1/thumb/v6-m\libgcc.a(_thumb1_case_shi.o)
 .bss           0x00000000        0x0 c:/program files (x86)/atmel/studio/7.0/toolchain/arm/arm-gnu-toolchain/bin/../lib/gcc/arm-none-eabi/6.3.1/thumb/v6-m\libgcc.a(_thumb1_case_shi.o)
 .data          0x00000000        0x0 c:/program files (x86)/atmel/studio/7.0/toolchain/arm/arm-gnu-toolchain/bin/../lib/gcc/arm-none-eabi/6.3.1/thumb/v6-m\libgcc.a(_udivsi3.o)
 .bss           0x00000000        0x0 c:/program files (x86)/atmel/studio/7.0/toolchain/arm/arm-gnu-toolchain/bin/../lib/gcc/arm-none-eabi/6.3.1/thumb/v6-m\libgcc.a(_udivsi3.o)
 .data          0x00000000        0x0 c:/program files (x86)/atmel/studio/7.0/toolchain/arm/arm-gnu-toolchain/bin/../lib/gcc/arm-none-eabi/6.3.1/thumb/v6-m\libgcc.a(_divsi3.o)
 .bss           0x00000000        0x0 c:/program files (x86)/atmel/studio/7.0/toolchain/arm/arm-gnu-toolchain/bin/../lib/gcc/arm-none-eabi/6.3.1/thumb/v6-m\libgcc.a(_divsi3.o)
 .data          0x00000000        0x0 c:/program files (x86)/atmel/studio/7.0/toolchain/arm/arm-gnu-toolchain/bin/../lib/gcc/arm-none-eabi/6.3.1/thumb/v6-m\libgcc.a(_dvmd_tls.o)
 .bss           0x00000000        0x0 c:/program files (x86)/atmel/studio/7.0/toolchain/arm/arm-gnu-toolchain/bin/../lib/gcc/arm-none-eabi/6.3.1/thumb/v6-m\libgcc.a(_dvmd_tls.o)
 .data          0x00000000        0x0 c:/program files (x86)/atmel/studio/7.0/toolchain/arm/arm-gnu-toolchain/bin/../lib/gcc/arm-none-eabi/6.3.1/thumb/v6-m\libgcc.a(_arm_cmpdf2.o)
 .bss           0x00000000        0x0 c:/program files (x86)/atmel/studio/7.0/toolchain/arm/arm-gnu-toolchain/bin/../lib/gcc/arm-none-eabi/6.3.1/thumb/v6-m\libgcc.a(_arm_cmpdf2.o)
 .data          0x00000000        0x0 c:/program files (x86)/atmel/studio/7.0/toolchain/arm/arm-gnu-toolchain/bin/../lib/gcc/arm-none-eabi/6.3.1/thumb/v6-m\libgcc.a(_arm_cmpsf2.o)
 .bss           0x00000000        0x0 c:/program files (x86)/atmel/studio/7.0/toolchain/arm/arm-gnu-toolchain/bin/../lib/gcc/arm-none-eabi/6.3.1/thumb/v6-m\libgcc.a(_arm_cmpsf2.o)
 .data          0x00000000        0x0 c:/program files (x86)/atmel/studio/7.0/toolchain/arm/arm-gnu-toolchain/bin/../lib/gcc/arm-none-eabi/6.3.1/thumb/v6-m\libgcc.a(_aeabi_uldivmod.o)
 .bss           0x00000000        0x0 c:/program files (x86)/atmel/studio/7.0/toolchain/arm/arm-gnu-toolchain/bin/../lib/gcc/arm-none-eabi/6.3.1/thumb/v6-m\libgcc.a(_aeabi_uldivmod.o)
 .text          0x00000000       0x54 c:/program files (x86)/atmel/studio/7.0/toolchain/arm/arm-gnu-toolchain/bin/../lib/gcc/arm-none-eabi/6.3.1/thumb/v6-m\libgcc.a(_muldi3.o)
 .data          0x00000000        0x0 c:/program files (x86)/atmel/studio/7.0/toolchain/arm/arm-gnu-toolchain/bin/../lib/gcc/arm-none-eabi/6.3.1/thumb/v6-m\libgcc.a(_muldi3.o)
 .bss           0x00000000        0x0 c:/program files (x86)/atmel/studio/7.0/toolchain/arm/arm-gnu-toolchain/bin/../lib/gcc/arm-none-eabi/6.3.1/thumb/v6-m\libgcc.a(_muldi3.o)
 .debug_frame   0x00000000       0x34 c:/program files (x86)/atmel/studio/7.0/toolchain/arm/arm-gnu-toolchain/bin/../lib/gcc/arm-none-eabi/6.3.1/thumb/v6-m\libgcc.a(_muldi3.o)
 .ARM.attributes
                0x00000000       0x2c c:/program files (x86)/atmel/studio/7.0/toolchain/arm/arm-gnu-toolchain/bin/../lib/gcc/arm-none-eabi/6.3.1/thumb/v6-m\libgcc.a(_muldi3.o)
 .data          0x00000000        0x0 c:/program files (x86)/atmel/studio/7.0/toolchain/arm/arm-gnu-toolchain/bin/../lib/gcc/arm-none-eabi/6.3.1/thumb/v6-m\libgcc.a(_ffssi2.o)
 .bss           0x00000000        0x0 c:/program files (x86)/atmel/studio/7.0/toolchain/arm/arm-gnu-toolchain/bin/../lib/gcc/arm-none-eabi/6.3.1/thumb/v6-m\libgcc.a(_ffssi2.o)
 .data          0x00000000        0x0 c:/program files (x86)/atmel/studio/7.0/toolchain/arm/arm-gnu-toolchain/bin/../lib/gcc/arm-none-eabi/6.3.1/thumb/v6-m\libgcc.a(_fixunsdfsi.o)
 .bss           0x00000000        0x0 c:/program files (x86)/atmel/studio/7.0/toolchain/arm/arm-gnu-toolchain/bin/../lib/gcc/arm-none-eabi/6.3.1/thumb/v6-m\libgcc.a(_fixunsdfsi.o)
 .data          0x00000000        0x0 c:/program files (x86)/atmel/studio/7.0/toolchain/arm/arm-gnu-toolchain/bin/../lib/gcc/arm-none-eabi/6.3.1/thumb/v6-m\libgcc.a(_udivmoddi4.o)
 .bss           0x00000000        0x0 c:/program files (x86)/atmel/studio/7.0/toolchain/arm/arm-gnu-toolchain/bin/../lib/gcc/arm-none-eabi/6.3.1/thumb/v6-m\libgcc.a(_udivmoddi4.o)
 .ARM.extab     0x00000000        0x0 c:/program files (x86)/atmel/studio/7.0/toolchain/arm/arm-gnu-toolchain/bin/../lib/gcc/arm-none-eabi/6.3.1/thumb/v6-m\libgcc.a(_udivmoddi4.o)
 .data          0x00000000        0x0 c:/program files (x86)/atmel/studio/7.0/toolchain/arm/arm-gnu-toolchain/bin/../lib/gcc/arm-none-eabi/6.3.1/thumb/v6-m\libgcc.a(addsf3.o)
 .bss           0x00000000        0x0 c:/program files (x86)/atmel/studio/7.0/toolchain/arm/arm-gnu-toolchain/bin/../lib/gcc/arm-none-eabi/6.3.1/thumb/v6-m\libgcc.a(addsf3.o)
 .data          0x00000000        0x0 c:/program files (x86)/atmel/studio/7.0/toolchain/arm/arm-gnu-toolchain/bin/../lib/gcc/arm-none-eabi/6.3.1/thumb/v6-m\libgcc.a(eqsf2.o)
 .bss           0x00000000        0x0 c:/program files (x86)/atmel/studio/7.0/toolchain/arm/arm-gnu-toolchain/bin/../lib/gcc/arm-none-eabi/6.3.1/thumb/v6-m\libgcc.a(eqsf2.o)
 .data          0x00000000        0x0 c:/program files (x86)/atmel/studio/7.0/toolchain/arm/arm-gnu-toolchain/bin/../lib/gcc/arm-none-eabi/6.3.1/thumb/v6-m\libgcc.a(gesf2.o)
 .bss           0x00000000        0x0 c:/program files (x86)/atmel/studio/7.0/toolchain/arm/arm-gnu-toolchain/bin/../lib/gcc/arm-none-eabi/6.3.1/thumb/v6-m\libgcc.a(gesf2.o)
 .data          0x00000000        0x0 c:/program files (x86)/atmel/studio/7.0/toolchain/arm/arm-gnu-toolchain/bin/../lib/gcc/arm-none-eabi/6.3.1/thumb/v6-m\libgcc.a(lesf2.o)
 .bss           0x00000000        0x0 c:/program files (x86)/atmel/studio/7.0/toolchain/arm/arm-gnu-toolchain/bin/../lib/gcc/arm-none-eabi/6.3.1/thumb/v6-m\libgcc.a(lesf2.o)
 .data          0x00000000        0x0 c:/program files (x86)/atmel/studio/7.0/toolchain/arm/arm-gnu-toolchain/bin/../lib/gcc/arm-none-eabi/6.3.1/thumb/v6-m\libgcc.a(mulsf3.o)
 .bss           0x00000000        0x0 c:/program files (x86)/atmel/studio/7.0/toolchain/arm/arm-gnu-toolchain/bin/../lib/gcc/arm-none-eabi/6.3.1/thumb/v6-m\libgcc.a(mulsf3.o)
 .data          0x00000000        0x0 c:/program files (x86)/atmel/studio/7.0/toolchain/arm/arm-gnu-toolchain/bin/../lib/gcc/arm-none-eabi/6.3.1/thumb/v6-m\libgcc.a(subsf3.o)
 .bss           0x00000000        0x0 c:/program files (x86)/atmel/studio/7.0/toolchain/arm/arm-gnu-toolchain/bin/../lib/gcc/arm-none-eabi/6.3.1/thumb/v6-m\libgcc.a(subsf3.o)
 .data          0x00000000        0x0 c:/program files (x86)/atmel/studio/7.0/toolchain/arm/arm-gnu-toolchain/bin/../lib/gcc/arm-none-eabi/6.3.1/thumb/v6-m\libgcc.a(floatsisf.o)
 .bss           0x00000000        0x0 c:/program files (x86)/atmel/studio/7.0/toolchain/arm/arm-gnu-toolchain/bin/../lib/gcc/arm-none-eabi/6.3.1/thumb/v6-m\libgcc.a(floatsisf.o)
 .data          0x00000000        0x0 c:/program files (x86)/atmel/studio/7.0/toolchain/arm/arm-gnu-toolchain/bin/../lib/gcc/arm-none-eabi/6.3.1/thumb/v6-m\libgcc.a(adddf3.o)
 .bss           0x00000000        0x0 c:/program files (x86)/atmel/studio/7.0/toolchain/arm/arm-gnu-toolchain/bin/../lib/gcc/arm-none-eabi/6.3.1/thumb/v6-m\libgcc.a(adddf3.o)
 .data          0x00000000        0x0 c:/program files (x86)/atmel/studio/7.0/toolchain/arm/arm-gnu-toolchain/bin/../lib/gcc/arm-none-eabi/6.3.1/thumb/v6-m\libgcc.a(divdf3.o)
 .bss           0x00000000        0x0 c:/program files (x86)/atmel/studio/7.0/toolchain/arm/arm-gnu-toolchain/bin/../lib/gcc/arm-none-eabi/6.3.1/thumb/v6-m\libgcc.a(divdf3.o)
 .data          0x00000000        0x0 c:/program files (x86)/atmel/studio/7.0/toolchain/arm/arm-gnu-toolchain/bin/../lib/gcc/arm-none-eabi/6.3.1/thumb/v6-m\libgcc.a(eqdf2.o)
 .bss           0x00000000        0x0 c:/program files (x86)/atmel/studio/7.0/toolchain/arm/arm-gnu-toolchain/bin/../lib/gcc/arm-none-eabi/6.3.1/thumb/v6-m\libgcc.a(eqdf2.o)
 .data          0x00000000        0x0 c:/program files (x86)/atmel/studio/7.0/toolchain/arm/arm-gnu-toolchain/bin/../lib/gcc/arm-none-eabi/6.3.1/thumb/v6-m\libgcc.a(gedf2.o)
 .bss           0x00000000        0x0 c:/program files (x86)/atmel/studio/7.0/toolchain/arm/arm-gnu-toolchain/bin/../lib/gcc/arm-none-eabi/6.3.1/thumb/v6-m\libgcc.a(gedf2.o)
 .data          0x00000000        0x0 c:/program files (x86)/atmel/studio/7.0/toolchain/arm/arm-gnu-toolchain/bin/../lib/gcc/arm-none-eabi/6.3.1/thumb/v6-m\libgcc.a(ledf2.o)
 .bss           0x00000000        0x0 c:/program files (x86)/atmel/studio/7.0/toolchain/arm/arm-gnu-toolchain/bin/../lib/gcc/arm-none-eabi/6.3.1/thumb/v6-m\libgcc.a(ledf2.o)
 .data          0x00000000        0x0 c:/program files (x86)/atmel/studio/7.0/toolchain/arm/arm-gnu-toolchain/bin/../lib/gcc/arm-none-eabi/6.3.1/thumb/v6-m\libgcc.a(muldf3.o)
 .bss           0x00000000        0x0 c:/program files (x86)/atmel/studio/7.0/toolchain/arm/arm-gnu-toolchain/bin/../lib/gcc/arm-none-eabi/6.3.1/thumb/v6-m\libgcc.a(muldf3.o)
 .data          0x00000000        0x0 c:/program files (x86)/atmel/studio/7.0/toolchain/arm/arm-gnu-toolchain/bin/../lib/gcc/arm-none-eabi/6.3.1/thumb/v6-m\libgcc.a(subdf3.o)
 .bss           0x00000000        0x0 c:/program files (x86)/atmel/studio/7.0/toolchain/arm/arm-gnu-toolchain/bin/../lib/gcc/arm-none-eabi/6.3.1/thumb/v6-m\libgcc.a(subdf3.o)
 .data          0x00000000        0x0 c:/program files (x86)/atmel/studio/7.0/toolchain/arm/arm-gnu-toolchain/bin/../lib/gcc/arm-none-eabi/6.3.1/thumb/v6-m\libgcc.a(unorddf2.o)
 .bss           0x00000000        0x0 c:/program files (x86)/atmel/studio/7.0/toolchain/arm/arm-gnu-toolchain/bin/../lib/gcc/arm-none-eabi/6.3.1/thumb/v6-m\libgcc.a(unorddf2.o)
 .data          0x00000000        0x0 c:/program files (x86)/atmel/studio/7.0/toolchain/arm/arm-gnu-toolchain/bin/../lib/gcc/arm-none-eabi/6.3.1/thumb/v6-m\libgcc.a(fixdfsi.o)
 .bss           0x00000000        0x0 c:/program files (x86)/atmel/studio/7.0/toolchain/arm/arm-gnu-toolchain/bin/../lib/gcc/arm-none-eabi/6.3.1/thumb/v6-m\libgcc.a(fixdfsi.o)
 .data          0x00000000        0x0 c:/program files (x86)/atmel/studio/7.0/toolchain/arm/arm-gnu-toolchain/bin/../lib/gcc/arm-none-eabi/6.3.1/thumb/v6-m\libgcc.a(floatsidf.o)
 .bss           0x00000000        0x0 c:/program files (x86)/atmel/studio/7.0/toolchain/arm/arm-gnu-toolchain/bin/../lib/gcc/arm-none-eabi/6.3.1/thumb/v6-m\libgcc.a(floatsidf.o)
 .data          0x00000000        0x0 c:/program files (x86)/atmel/studio/7.0/toolchain/arm/arm-gnu-toolchain/bin/../lib/gcc/arm-none-eabi/6.3.1/thumb/v6-m\libgcc.a(floatunsidf.o)
 .bss           0x00000000        0x0 c:/program files (x86)/atmel/studio/7.0/toolchain/arm/arm-gnu-toolchain/bin/../lib/gcc/arm-none-eabi/6.3.1/thumb/v6-m\libgcc.a(floatunsidf.o)
 .data          0x00000000        0x0 c:/program files (x86)/atmel/studio/7.0/toolchain/arm/arm-gnu-toolchain/bin/../lib/gcc/arm-none-eabi/6.3.1/thumb/v6-m\libgcc.a(extendsfdf2.o)
 .bss           0x00000000        0x0 c:/program files (x86)/atmel/studio/7.0/toolchain/arm/arm-gnu-toolchain/bin/../lib/gcc/arm-none-eabi/6.3.1/thumb/v6-m\libgcc.a(extendsfdf2.o)
 .data          0x00000000        0x0 c:/program files (x86)/atmel/studio/7.0/toolchain/arm/arm-gnu-toolchain/bin/../lib/gcc/arm-none-eabi/6.3.1/thumb/v6-m\libgcc.a(_clzsi2.o)
 .bss           0x00000000        0x0 c:/program files (x86)/atmel/studio/7.0/toolchain/arm/arm-gnu-toolchain/bin/../lib/gcc/arm-none-eabi/6.3.1/thumb/v6-m\libgcc.a(_clzsi2.o)
 .data          0x00000000        0x0 c:/program files (x86)/atmel/studio/7.0/toolchain/arm/arm-gnu-toolchain/bin/../lib/gcc/arm-none-eabi/6.3.1/thumb/v6-m\libgcc.a(_clzdi2.o)
 .bss           0x00000000        0x0 c:/program files (x86)/atmel/studio/7.0/toolchain/arm/arm-gnu-toolchain/bin/../lib/gcc/arm-none-eabi/6.3.1/thumb/v6-m\libgcc.a(_clzdi2.o)
 .data          0x00000000        0x0 c:/program files (x86)/atmel/studio/7.0/toolchain/arm/arm-gnu-toolchain/bin/../lib/gcc/arm-none-eabi/6.3.1/thumb/v6-m\libgcc.a(_ctzsi2.o)
 .bss           0x00000000        0x0 c:/program files (x86)/atmel/studio/7.0/toolchain/arm/arm-gnu-toolchain/bin/../lib/gcc/arm-none-eabi/6.3.1/thumb/v6-m\libgcc.a(_ctzsi2.o)
 .text          0x00000000        0x0 c:/program files (x86)/atmel/studio/7.0/toolchain/arm/arm-gnu-toolchain/bin/../lib/gcc/arm-none-eabi/6.3.1/../../../../arm-none-eabi/lib/thumb/v6-m\libc.a(lib_a-cxa_atexit.o)
 .data          0x00000000        0x0 c:/program files (x86)/atmel/studio/7.0/toolchain/arm/arm-gnu-toolchain/bin/../lib/gcc/arm-none-eabi/6.3.1/../../../../arm-none-eabi/lib/thumb/v6-m\libc.a(lib_a-cxa_atexit.o)
 .bss           0x00000000        0x0 c:/program files (x86)/atmel/studio/7.0/toolchain/arm/arm-gnu-toolchain/bin/../lib/gcc/arm-none-eabi/6.3.1/../../../../arm-none-eabi/lib/thumb/v6-m\libc.a(lib_a-cxa_atexit.o)
 .text          0x00000000        0x0 c:/program files (x86)/atmel/studio/7.0/toolchain/arm/arm-gnu-toolchain/bin/../lib/gcc/arm-none-eabi/6.3.1/../../../../arm-none-eabi/lib/thumb/v6-m\libc.a(lib_a-errno.o)
 .data          0x00000000        0x0 c:/program files (x86)/atmel/studio/7.0/toolchain/arm/arm-gnu-toolchain/bin/../lib/gcc/arm-none-eabi/6.3.1/../../../../arm-none-eabi/lib/thumb/v6-m\libc.a(lib_a-errno.o)
 .bss           0x00000000        0x0 c:/program files (x86)/atmel/studio/7.0/toolchain/arm/arm-gnu-toolchain/bin/../lib/gcc/arm-none-eabi/6.3.1/../../../../arm-none-eabi/lib/thumb/v6-m\libc.a(lib_a-errno.o)
 .text          0x00000000        0x0 c:/program files (x86)/atmel/studio/7.0/toolchain/arm/arm-gnu-toolchain/bin/../lib/gcc/arm-none-eabi/6.3.1/../../../../arm-none-eabi/lib/thumb/v6-m\libc.a(lib_a-exit.o)
 .data          0x00000000        0x0 c:/program files (x86)/atmel/studio/7.0/toolchain/arm/arm-gnu-toolchain/bin/../lib/gcc/arm-none-eabi/6.3.1/../../../../arm-none-eabi/lib/thumb/v6-m\libc.a(lib_a-exit.o)
 .bss           0x00000000        0x0 c:/program files (x86)/atmel/studio/7.0/toolchain/arm/arm-gnu-toolchain/bin/../lib/gcc/arm-none-eabi/6.3.1/../../../../arm-none-eabi/lib/thumb/v6-m\libc.a(lib_a-exit.o)
 .text.exit     0x00000000       0x20 c:/program files (x86)/atmel/studio/7.0/toolchain/arm/arm-gnu-toolchain/bin/../lib/gcc/arm-none-eabi/6.3.1/../../../../arm-none-eabi/lib/thumb/v6-m\libc.a(lib_a-exit.o)
 .debug_frame   0x00000000       0x28 c:/program files (x86)/atmel/studio/7.0/toolchain/arm/arm-gnu-toolchain/bin/../lib/gcc/arm-none-eabi/6.3.1/../../../../arm-none-eabi/lib/thumb/v6-m\libc.a(lib_a-exit.o)
 .ARM.attributes
                0x00000000       0x2c c:/program files (x86)/atmel/studio/7.0/toolchain/arm/arm-gnu-toolchain/bin/../lib/gcc/arm-none-eabi/6.3.1/../../../../arm-none-eabi/lib/thumb/v6-m\libc.a(lib_a-exit.o)
 .text          0x00000000        0x0 c:/program files (x86)/atmel/studio/7.0/toolchain/arm/arm-gnu-toolchain/bin/../lib/gcc/arm-none-eabi/6.3.1/../../../../arm-none-eabi/lib/thumb/v6-m\libc.a(lib_a-impure.o)
 .data          0x00000000        0x0 c:/program files (x86)/atmel/studio/7.0/toolchain/arm/arm-gnu-toolchain/bin/../lib/gcc/arm-none-eabi/6.3.1/../../../../arm-none-eabi/lib/thumb/v6-m\libc.a(lib_a-impure.o)
 .bss           0x00000000        0x0 c:/program files (x86)/atmel/studio/7.0/toolchain/arm/arm-gnu-toolchain/bin/../lib/gcc/arm-none-eabi/6.3.1/../../../../arm-none-eabi/lib/thumb/v6-m\libc.a(lib_a-impure.o)
 .text          0x00000000        0x0 c:/program files (x86)/atmel/studio/7.0/toolchain/arm/arm-gnu-toolchain/bin/../lib/gcc/arm-none-eabi/6.3.1/../../../../arm-none-eabi/lib/thumb/v6-m\libc.a(lib_a-init.o)
 .data          0x00000000        0x0 c:/program files (x86)/atmel/studio/7.0/toolchain/arm/arm-gnu-toolchain/bin/../lib/gcc/arm-none-eabi/6.3.1/../../../../arm-none-eabi/lib/thumb/v6-m\libc.a(lib_a-init.o)
 .bss           0x00000000        0x0 c:/program files (x86)/atmel/studio/7.0/toolchain/arm/arm-gnu-toolchain/bin/../lib/gcc/arm-none-eabi/6.3.1/../../../../arm-none-eabi/lib/thumb/v6-m\libc.a(lib_a-init.o)
 .text          0x00000000        0x0 c:/program files (x86)/atmel/studio/7.0/toolchain/arm/arm-gnu-toolchain/bin/../lib/gcc/arm-none-eabi/6.3.1/../../../../arm-none-eabi/lib/thumb/v6-m\libc.a(lib_a-memcpy-stub.o)
 .data          0x00000000        0x0 c:/program files (x86)/atmel/studio/7.0/toolchain/arm/arm-gnu-toolchain/bin/../lib/gcc/arm-none-eabi/6.3.1/../../../../arm-none-eabi/lib/thumb/v6-m\libc.a(lib_a-memcpy-stub.o)
 .bss           0x00000000        0x0 c:/program files (x86)/atmel/studio/7.0/toolchain/arm/arm-gnu-toolchain/bin/../lib/gcc/arm-none-eabi/6.3.1/../../../../arm-none-eabi/lib/thumb/v6-m\libc.a(lib_a-memcpy-stub.o)
 .text          0x00000000        0x0 c:/program files (x86)/atmel/studio/7.0/toolchain/arm/arm-gnu-toolchain/bin/../lib/gcc/arm-none-eabi/6.3.1/../../../../arm-none-eabi/lib/thumb/v6-m\libc.a(lib_a-memset.o)
 .data          0x00000000        0x0 c:/program files (x86)/atmel/studio/7.0/toolchain/arm/arm-gnu-toolchain/bin/../lib/gcc/arm-none-eabi/6.3.1/../../../../arm-none-eabi/lib/thumb/v6-m\libc.a(lib_a-memset.o)
 .bss           0x00000000        0x0 c:/program files (x86)/atmel/studio/7.0/toolchain/arm/arm-gnu-toolchain/bin/../lib/gcc/arm-none-eabi/6.3.1/../../../../arm-none-eabi/lib/thumb/v6-m\libc.a(lib_a-memset.o)
 .text          0x00000000        0x0 c:/program files (x86)/atmel/studio/7.0/toolchain/arm/arm-gnu-toolchain/bin/../lib/gcc/arm-none-eabi/6.3.1/../../../../arm-none-eabi/lib/thumb/v6-m\libc.a(lib_a-printf.o)
 .data          0x00000000        0x0 c:/program files (x86)/atmel/studio/7.0/toolchain/arm/arm-gnu-toolchain/bin/../lib/gcc/arm-none-eabi/6.3.1/../../../../arm-none-eabi/lib/thumb/v6-m\libc.a(lib_a-printf.o)
 .bss           0x00000000        0x0 c:/program files (x86)/atmel/studio/7.0/toolchain/arm/arm-gnu-toolchain/bin/../lib/gcc/arm-none-eabi/6.3.1/../../../../arm-none-eabi/lib/thumb/v6-m\libc.a(lib_a-printf.o)
 .text._printf_r
                0x00000000       0x1c c:/program files (x86)/atmel/studio/7.0/toolchain/arm/arm-gnu-toolchain/bin/../lib/gcc/arm-none-eabi/6.3.1/../../../../arm-none-eabi/lib/thumb/v6-m\libc.a(lib_a-printf.o)
 .text          0x00000000        0x0 c:/program files (x86)/atmel/studio/7.0/toolchain/arm/arm-gnu-toolchain/bin/../lib/gcc/arm-none-eabi/6.3.1/../../../../arm-none-eabi/lib/thumb/v6-m\libc.a(lib_a-puts.o)
 .data          0x00000000        0x0 c:/program files (x86)/atmel/studio/7.0/toolchain/arm/arm-gnu-toolchain/bin/../lib/gcc/arm-none-eabi/6.3.1/../../../../arm-none-eabi/lib/thumb/v6-m\libc.a(lib_a-puts.o)
 .bss           0x00000000        0x0 c:/program files (x86)/atmel/studio/7.0/toolchain/arm/arm-gnu-toolchain/bin/../lib/gcc/arm-none-eabi/6.3.1/../../../../arm-none-eabi/lib/thumb/v6-m\libc.a(lib_a-puts.o)
 .text          0x00000000        0x0 c:/program files (x86)/atmel/studio/7.0/toolchain/arm/arm-gnu-toolchain/bin/../lib/gcc/arm-none-eabi/6.3.1/../../../../arm-none-eabi/lib/thumb/v6-m\libc.a(lib_a-strlen-stub.o)
 .data          0x00000000        0x0 c:/program files (x86)/atmel/studio/7.0/toolchain/arm/arm-gnu-toolchain/bin/../lib/gcc/arm-none-eabi/6.3.1/../../../../arm-none-eabi/lib/thumb/v6-m\libc.a(lib_a-strlen-stub.o)
 .bss           0x00000000        0x0 c:/program files (x86)/atmel/studio/7.0/toolchain/arm/arm-gnu-toolchain/bin/../lib/gcc/arm-none-eabi/6.3.1/../../../../arm-none-eabi/lib/thumb/v6-m\libc.a(lib_a-strlen-stub.o)
 .text          0x00000000        0x0 c:/program files (x86)/atmel/studio/7.0/toolchain/arm/arm-gnu-toolchain/bin/../lib/gcc/arm-none-eabi/6.3.1/../../../../arm-none-eabi/lib/thumb/v6-m\libc.a(lib_a-vfprintf.o)
 .data          0x00000000        0x0 c:/program files (x86)/atmel/studio/7.0/toolchain/arm/arm-gnu-toolchain/bin/../lib/gcc/arm-none-eabi/6.3.1/../../../../arm-none-eabi/lib/thumb/v6-m\libc.a(lib_a-vfprintf.o)
 .bss           0x00000000        0x0 c:/program files (x86)/atmel/studio/7.0/toolchain/arm/arm-gnu-toolchain/bin/../lib/gcc/arm-none-eabi/6.3.1/../../../../arm-none-eabi/lib/thumb/v6-m\libc.a(lib_a-vfprintf.o)
 .text.vfprintf
                0x00000000       0x18 c:/program files (x86)/atmel/studio/7.0/toolchain/arm/arm-gnu-toolchain/bin/../lib/gcc/arm-none-eabi/6.3.1/../../../../arm-none-eabi/lib/thumb/v6-m\libc.a(lib_a-vfprintf.o)
 .text          0x00000000        0x0 c:/program files (x86)/atmel/studio/7.0/toolchain/arm/arm-gnu-toolchain/bin/../lib/gcc/arm-none-eabi/6.3.1/../../../../arm-none-eabi/lib/thumb/v6-m\libc.a(lib_a-wsetup.o)
 .data          0x00000000        0x0 c:/program files (x86)/atmel/studio/7.0/toolchain/arm/arm-gnu-toolchain/bin/../lib/gcc/arm-none-eabi/6.3.1/../../../../arm-none-eabi/lib/thumb/v6-m\libc.a(lib_a-wsetup.o)
 .bss           0x00000000        0x0 c:/program files (x86)/atmel/studio/7.0/toolchain/arm/arm-gnu-toolchain/bin/../lib/gcc/arm-none-eabi/6.3.1/../../../../arm-none-eabi/lib/thumb/v6-m\libc.a(lib_a-wsetup.o)
 .text          0x00000000        0x0 c:/program files (x86)/atmel/studio/7.0/toolchain/arm/arm-gnu-toolchain/bin/../lib/gcc/arm-none-eabi/6.3.1/../../../../arm-none-eabi/lib/thumb/v6-m\libc.a(lib_a-__atexit.o)
 .data          0x00000000        0x0 c:/program files (x86)/atmel/studio/7.0/toolchain/arm/arm-gnu-toolchain/bin/../lib/gcc/arm-none-eabi/6.3.1/../../../../arm-none-eabi/lib/thumb/v6-m\libc.a(lib_a-__atexit.o)
 .bss           0x00000000        0x0 c:/program files (x86)/atmel/studio/7.0/toolchain/arm/arm-gnu-toolchain/bin/../lib/gcc/arm-none-eabi/6.3.1/../../../../arm-none-eabi/lib/thumb/v6-m\libc.a(lib_a-__atexit.o)
 .text          0x00000000        0x0 c:/program files (x86)/atmel/studio/7.0/toolchain/arm/arm-gnu-toolchain/bin/../lib/gcc/arm-none-eabi/6.3.1/../../../../arm-none-eabi/lib/thumb/v6-m\libc.a(lib_a-__call_atexit.o)
 .data          0x00000000        0x0 c:/program files (x86)/atmel/studio/7.0/toolchain/arm/arm-gnu-toolchain/bin/../lib/gcc/arm-none-eabi/6.3.1/../../../../arm-none-eabi/lib/thumb/v6-m\libc.a(lib_a-__call_atexit.o)
 .bss           0x00000000        0x0 c:/program files (x86)/atmel/studio/7.0/toolchain/arm/arm-gnu-toolchain/bin/../lib/gcc/arm-none-eabi/6.3.1/../../../../arm-none-eabi/lib/thumb/v6-m\libc.a(lib_a-__call_atexit.o)
 .text.__call_exitprocs
                0x00000000      0x110 c:/program files (x86)/atmel/studio/7.0/toolchain/arm/arm-gnu-toolchain/bin/../lib/gcc/arm-none-eabi/6.3.1/../../../../arm-none-eabi/lib/thumb/v6-m\libc.a(lib_a-__call_atexit.o)
 .text          0x00000000        0x0 c:/program files (x86)/atmel/studio/7.0/toolchain/arm/arm-gnu-toolchain/bin/../lib/gcc/arm-none-eabi/6.3.1/../../../../arm-none-eabi/lib/thumb/v6-m\libc.a(lib_a-atexit.o)
 .data          0x00000000        0x0 c:/program files (x86)/atmel/studio/7.0/toolchain/arm/arm-gnu-toolchain/bin/../lib/gcc/arm-none-eabi/6.3.1/../../../../arm-none-eabi/lib/thumb/v6-m\libc.a(lib_a-atexit.o)
 .bss           0x00000000        0x0 c:/program files (x86)/atmel/studio/7.0/toolchain/arm/arm-gnu-toolchain/bin/../lib/gcc/arm-none-eabi/6.3.1/../../../../arm-none-eabi/lib/thumb/v6-m\libc.a(lib_a-atexit.o)
 .text          0x00000000        0x0 c:/program files (x86)/atmel/studio/7.0/toolchain/arm/arm-gnu-toolchain/bin/../lib/gcc/arm-none-eabi/6.3.1/../../../../arm-none-eabi/lib/thumb/v6-m\libc.a(lib_a-dtoa.o)
 .data          0x00000000        0x0 c:/program files (x86)/atmel/studio/7.0/toolchain/arm/arm-gnu-toolchain/bin/../lib/gcc/arm-none-eabi/6.3.1/../../../../arm-none-eabi/lib/thumb/v6-m\libc.a(lib_a-dtoa.o)
 .bss           0x00000000        0x0 c:/program files (x86)/atmel/studio/7.0/toolchain/arm/arm-gnu-toolchain/bin/../lib/gcc/arm-none-eabi/6.3.1/../../../../arm-none-eabi/lib/thumb/v6-m\libc.a(lib_a-dtoa.o)
 .text          0x00000000        0x0 c:/program files (x86)/atmel/studio/7.0/toolchain/arm/arm-gnu-toolchain/bin/../lib/gcc/arm-none-eabi/6.3.1/../../../../arm-none-eabi/lib/thumb/v6-m\libc.a(lib_a-fflush.o)
 .data          0x00000000        0x0 c:/program files (x86)/atmel/studio/7.0/toolchain/arm/arm-gnu-toolchain/bin/../lib/gcc/arm-none-eabi/6.3.1/../../../../arm-none-eabi/lib/thumb/v6-m\libc.a(lib_a-fflush.o)
 .bss           0x00000000        0x0 c:/program files (x86)/atmel/studio/7.0/toolchain/arm/arm-gnu-toolchain/bin/../lib/gcc/arm-none-eabi/6.3.1/../../../../arm-none-eabi/lib/thumb/v6-m\libc.a(lib_a-fflush.o)
 .text.fflush   0x00000000       0x28 c:/program files (x86)/atmel/studio/7.0/toolchain/arm/arm-gnu-toolchain/bin/../lib/gcc/arm-none-eabi/6.3.1/../../../../arm-none-eabi/lib/thumb/v6-m\libc.a(lib_a-fflush.o)
 .text          0x00000000        0x0 c:/program files (x86)/atmel/studio/7.0/toolchain/arm/arm-gnu-toolchain/bin/../lib/gcc/arm-none-eabi/6.3.1/../../../../arm-none-eabi/lib/thumb/v6-m\libc.a(lib_a-findfp.o)
 .data          0x00000000        0x0 c:/program files (x86)/atmel/studio/7.0/toolchain/arm/arm-gnu-toolchain/bin/../lib/gcc/arm-none-eabi/6.3.1/../../../../arm-none-eabi/lib/thumb/v6-m\libc.a(lib_a-findfp.o)
 .bss           0x00000000        0x0 c:/program files (x86)/atmel/studio/7.0/toolchain/arm/arm-gnu-toolchain/bin/../lib/gcc/arm-none-eabi/6.3.1/../../../../arm-none-eabi/lib/thumb/v6-m\libc.a(lib_a-findfp.o)
 .text.__fp_lock
                0x00000000       0x1c c:/program files (x86)/atmel/studio/7.0/toolchain/arm/arm-gnu-toolchain/bin/../lib/gcc/arm-none-eabi/6.3.1/../../../../arm-none-eabi/lib/thumb/v6-m\libc.a(lib_a-findfp.o)
 .text.__fp_unlock
                0x00000000       0x1c c:/program files (x86)/atmel/studio/7.0/toolchain/arm/arm-gnu-toolchain/bin/../lib/gcc/arm-none-eabi/6.3.1/../../../../arm-none-eabi/lib/thumb/v6-m\libc.a(lib_a-findfp.o)
 .text.__sfmoreglue
                0x00000000       0x30 c:/program files (x86)/atmel/studio/7.0/toolchain/arm/arm-gnu-toolchain/bin/../lib/gcc/arm-none-eabi/6.3.1/../../../../arm-none-eabi/lib/thumb/v6-m\libc.a(lib_a-findfp.o)
 .text._cleanup
                0x00000000       0x18 c:/program files (x86)/atmel/studio/7.0/toolchain/arm/arm-gnu-toolchain/bin/../lib/gcc/arm-none-eabi/6.3.1/../../../../arm-none-eabi/lib/thumb/v6-m\libc.a(lib_a-findfp.o)
 .text.__sfp    0x00000000       0xac c:/program files (x86)/atmel/studio/7.0/toolchain/arm/arm-gnu-toolchain/bin/../lib/gcc/arm-none-eabi/6.3.1/../../../../arm-none-eabi/lib/thumb/v6-m\libc.a(lib_a-findfp.o)
 .text.__sinit_lock_acquire
                0x00000000       0x10 c:/program files (x86)/atmel/studio/7.0/toolchain/arm/arm-gnu-toolchain/bin/../lib/gcc/arm-none-eabi/6.3.1/../../../../arm-none-eabi/lib/thumb/v6-m\libc.a(lib_a-findfp.o)
 .text.__sinit_lock_release
                0x00000000       0x10 c:/program files (x86)/atmel/studio/7.0/toolchain/arm/arm-gnu-toolchain/bin/../lib/gcc/arm-none-eabi/6.3.1/../../../../arm-none-eabi/lib/thumb/v6-m\libc.a(lib_a-findfp.o)
 .text.__fp_lock_all
                0x00000000       0x20 c:/program files (x86)/atmel/studio/7.0/toolchain/arm/arm-gnu-toolchain/bin/../lib/gcc/arm-none-eabi/6.3.1/../../../../arm-none-eabi/lib/thumb/v6-m\libc.a(lib_a-findfp.o)
 .text.__fp_unlock_all
                0x00000000       0x20 c:/program files (x86)/atmel/studio/7.0/toolchain/arm/arm-gnu-toolchain/bin/../lib/gcc/arm-none-eabi/6.3.1/../../../../arm-none-eabi/lib/thumb/v6-m\libc.a(lib_a-findfp.o)
 .text          0x00000000        0x0 c:/program files (x86)/atmel/studio/7.0/toolchain/arm/arm-gnu-toolchain/bin/../lib/gcc/arm-none-eabi/6.3.1/../../../../arm-none-eabi/lib/thumb/v6-m\libc.a(lib_a-fini.o)
 .data          0x00000000        0x0 c:/program files (x86)/atmel/studio/7.0/toolchain/arm/arm-gnu-toolchain/bin/../lib/gcc/arm-none-eabi/6.3.1/../../../../arm-none-eabi/lib/thumb/v6-m\libc.a(lib_a-fini.o)
 .bss           0x00000000        0x0 c:/program files (x86)/atmel/studio/7.0/toolchain/arm/arm-gnu-toolchain/bin/../lib/gcc/arm-none-eabi/6.3.1/../../../../arm-none-eabi/lib/thumb/v6-m\libc.a(lib_a-fini.o)
 .text          0x00000000        0x0 c:/program files (x86)/atmel/studio/7.0/toolchain/arm/arm-gnu-toolchain/bin/../lib/gcc/arm-none-eabi/6.3.1/../../../../arm-none-eabi/lib/thumb/v6-m\libc.a(lib_a-freer.o)
 .data          0x00000000        0x0 c:/program files (x86)/atmel/studio/7.0/toolchain/arm/arm-gnu-toolchain/bin/../lib/gcc/arm-none-eabi/6.3.1/../../../../arm-none-eabi/lib/thumb/v6-m\libc.a(lib_a-freer.o)
 .bss           0x00000000        0x0 c:/program files (x86)/atmel/studio/7.0/toolchain/arm/arm-gnu-toolchain/bin/../lib/gcc/arm-none-eabi/6.3.1/../../../../arm-none-eabi/lib/thumb/v6-m\libc.a(lib_a-freer.o)
 .text          0x00000000        0x0 c:/program files (x86)/atmel/studio/7.0/toolchain/arm/arm-gnu-toolchain/bin/../lib/gcc/arm-none-eabi/6.3.1/../../../../arm-none-eabi/lib/thumb/v6-m\libc.a(lib_a-fvwrite.o)
 .data          0x00000000        0x0 c:/program files (x86)/atmel/studio/7.0/toolchain/arm/arm-gnu-toolchain/bin/../lib/gcc/arm-none-eabi/6.3.1/../../../../arm-none-eabi/lib/thumb/v6-m\libc.a(lib_a-fvwrite.o)
 .bss           0x00000000        0x0 c:/program files (x86)/atmel/studio/7.0/toolchain/arm/arm-gnu-toolchain/bin/../lib/gcc/arm-none-eabi/6.3.1/../../../../arm-none-eabi/lib/thumb/v6-m\libc.a(lib_a-fvwrite.o)
 .text          0x00000000        0x0 c:/program files (x86)/atmel/studio/7.0/toolchain/arm/arm-gnu-toolchain/bin/../lib/gcc/arm-none-eabi/6.3.1/../../../../arm-none-eabi/lib/thumb/v6-m\libc.a(lib_a-fwalk.o)
 .data          0x00000000        0x0 c:/program files (x86)/atmel/studio/7.0/toolchain/arm/arm-gnu-toolchain/bin/../lib/gcc/arm-none-eabi/6.3.1/../../../../arm-none-eabi/lib/thumb/v6-m\libc.a(lib_a-fwalk.o)
 .bss           0x00000000        0x0 c:/program files (x86)/atmel/studio/7.0/toolchain/arm/arm-gnu-toolchain/bin/../lib/gcc/arm-none-eabi/6.3.1/../../../../arm-none-eabi/lib/thumb/v6-m\libc.a(lib_a-fwalk.o)
 .text._fwalk   0x00000000       0x44 c:/program files (x86)/atmel/studio/7.0/toolchain/arm/arm-gnu-toolchain/bin/../lib/gcc/arm-none-eabi/6.3.1/../../../../arm-none-eabi/lib/thumb/v6-m\libc.a(lib_a-fwalk.o)
 .text          0x00000000        0x0 c:/program files (x86)/atmel/studio/7.0/toolchain/arm/arm-gnu-toolchain/bin/../lib/gcc/arm-none-eabi/6.3.1/../../../../arm-none-eabi/lib/thumb/v6-m\libc.a(lib_a-localeconv.o)
 .data          0x00000000        0x0 c:/program files (x86)/atmel/studio/7.0/toolchain/arm/arm-gnu-toolchain/bin/../lib/gcc/arm-none-eabi/6.3.1/../../../../arm-none-eabi/lib/thumb/v6-m\libc.a(lib_a-localeconv.o)
 .bss           0x00000000        0x0 c:/program files (x86)/atmel/studio/7.0/toolchain/arm/arm-gnu-toolchain/bin/../lib/gcc/arm-none-eabi/6.3.1/../../../../arm-none-eabi/lib/thumb/v6-m\libc.a(lib_a-localeconv.o)
 .text.__localeconv_l
                0x00000000        0x4 c:/program files (x86)/atmel/studio/7.0/toolchain/arm/arm-gnu-toolchain/bin/../lib/gcc/arm-none-eabi/6.3.1/../../../../arm-none-eabi/lib/thumb/v6-m\libc.a(lib_a-localeconv.o)
 .text.localeconv
                0x00000000       0x1c c:/program files (x86)/atmel/studio/7.0/toolchain/arm/arm-gnu-toolchain/bin/../lib/gcc/arm-none-eabi/6.3.1/../../../../arm-none-eabi/lib/thumb/v6-m\libc.a(lib_a-localeconv.o)
 .text          0x00000000        0x0 c:/program files (x86)/atmel/studio/7.0/toolchain/arm/arm-gnu-toolchain/bin/../lib/gcc/arm-none-eabi/6.3.1/../../../../arm-none-eabi/lib/thumb/v6-m\libc.a(lib_a-lock.o)
 .data          0x00000000        0x0 c:/program files (x86)/atmel/studio/7.0/toolchain/arm/arm-gnu-toolchain/bin/../lib/gcc/arm-none-eabi/6.3.1/../../../../arm-none-eabi/lib/thumb/v6-m\libc.a(lib_a-lock.o)
 .bss           0x00000000        0x0 c:/program files (x86)/atmel/studio/7.0/toolchain/arm/arm-gnu-toolchain/bin/../lib/gcc/arm-none-eabi/6.3.1/../../../../arm-none-eabi/lib/thumb/v6-m\libc.a(lib_a-lock.o)
 .text.__retarget_lock_init
                0x00000000        0x4 c:/program files (x86)/atmel/studio/7.0/toolchain/arm/arm-gnu-toolchain/bin/../lib/gcc/arm-none-eabi/6.3.1/../../../../arm-none-eabi/lib/thumb/v6-m\libc.a(lib_a-lock.o)
 .text.__retarget_lock_close
                0x00000000        0x4 c:/program files (x86)/atmel/studio/7.0/toolchain/arm/arm-gnu-toolchain/bin/../lib/gcc/arm-none-eabi/6.3.1/../../../../arm-none-eabi/lib/thumb/v6-m\libc.a(lib_a-lock.o)
 .text.__retarget_lock_acquire
                0x00000000        0x4 c:/program files (x86)/atmel/studio/7.0/toolchain/arm/arm-gnu-toolchain/bin/../lib/gcc/arm-none-eabi/6.3.1/../../../../arm-none-eabi/lib/thumb/v6-m\libc.a(lib_a-lock.o)
 .text.__retarget_lock_try_acquire
                0x00000000        0x4 c:/program files (x86)/atmel/studio/7.0/toolchain/arm/arm-gnu-toolchain/bin/../lib/gcc/arm-none-eabi/6.3.1/../../../../arm-none-eabi/lib/thumb/v6-m\libc.a(lib_a-lock.o)
 .text.__retarget_lock_try_acquire_recursive
                0x00000000        0x4 c:/program files (x86)/atmel/studio/7.0/toolchain/arm/arm-gnu-toolchain/bin/../lib/gcc/arm-none-eabi/6.3.1/../../../../arm-none-eabi/lib/thumb/v6-m\libc.a(lib_a-lock.o)
 .text.__retarget_lock_release
                0x00000000        0x4 c:/program files (x86)/atmel/studio/7.0/toolchain/arm/arm-gnu-toolchain/bin/../lib/gcc/arm-none-eabi/6.3.1/../../../../arm-none-eabi/lib/thumb/v6-m\libc.a(lib_a-lock.o)
 .text          0x00000000        0x0 c:/program files (x86)/atmel/studio/7.0/toolchain/arm/arm-gnu-toolchain/bin/../lib/gcc/arm-none-eabi/6.3.1/../../../../arm-none-eabi/lib/thumb/v6-m\libc.a(lib_a-makebuf.o)
 .data          0x00000000        0x0 c:/program files (x86)/atmel/studio/7.0/toolchain/arm/arm-gnu-toolchain/bin/../lib/gcc/arm-none-eabi/6.3.1/../../../../arm-none-eabi/lib/thumb/v6-m\libc.a(lib_a-makebuf.o)
 .bss           0x00000000        0x0 c:/program files (x86)/atmel/studio/7.0/toolchain/arm/arm-gnu-toolchain/bin/../lib/gcc/arm-none-eabi/6.3.1/../../../../arm-none-eabi/lib/thumb/v6-m\libc.a(lib_a-makebuf.o)
 .text          0x00000000        0x0 c:/program files (x86)/atmel/studio/7.0/toolchain/arm/arm-gnu-toolchain/bin/../lib/gcc/arm-none-eabi/6.3.1/../../../../arm-none-eabi/lib/thumb/v6-m\libc.a(lib_a-mallocr.o)
 .data          0x00000000        0x0 c:/program files (x86)/atmel/studio/7.0/toolchain/arm/arm-gnu-toolchain/bin/../lib/gcc/arm-none-eabi/6.3.1/../../../../arm-none-eabi/lib/thumb/v6-m\libc.a(lib_a-mallocr.o)
 .bss           0x00000000        0x0 c:/program files (x86)/atmel/studio/7.0/toolchain/arm/arm-gnu-toolchain/bin/../lib/gcc/arm-none-eabi/6.3.1/../../../../arm-none-eabi/lib/thumb/v6-m\libc.a(lib_a-mallocr.o)
 .text          0x00000000        0x0 c:/program files (x86)/atmel/studio/7.0/toolchain/arm/arm-gnu-toolchain/bin/../lib/gcc/arm-none-eabi/6.3.1/../../../../arm-none-eabi/lib/thumb/v6-m\libc.a(lib_a-memchr-stub.o)
 .data          0x00000000        0x0 c:/program files (x86)/atmel/studio/7.0/toolchain/arm/arm-gnu-toolchain/bin/../lib/gcc/arm-none-eabi/6.3.1/../../../../arm-none-eabi/lib/thumb/v6-m\libc.a(lib_a-memchr-stub.o)
 .bss           0x00000000        0x0 c:/program files (x86)/atmel/studio/7.0/toolchain/arm/arm-gnu-toolchain/bin/../lib/gcc/arm-none-eabi/6.3.1/../../../../arm-none-eabi/lib/thumb/v6-m\libc.a(lib_a-memchr-stub.o)
 .text          0x00000000        0x0 c:/program files (x86)/atmel/studio/7.0/toolchain/arm/arm-gnu-toolchain/bin/../lib/gcc/arm-none-eabi/6.3.1/../../../../arm-none-eabi/lib/thumb/v6-m\libc.a(lib_a-memmove.o)
 .data          0x00000000        0x0 c:/program files (x86)/atmel/studio/7.0/toolchain/arm/arm-gnu-toolchain/bin/../lib/gcc/arm-none-eabi/6.3.1/../../../../arm-none-eabi/lib/thumb/v6-m\libc.a(lib_a-memmove.o)
 .bss           0x00000000        0x0 c:/program files (x86)/atmel/studio/7.0/toolchain/arm/arm-gnu-toolchain/bin/../lib/gcc/arm-none-eabi/6.3.1/../../../../arm-none-eabi/lib/thumb/v6-m\libc.a(lib_a-memmove.o)
 .text          0x00000000        0x0 c:/program files (x86)/atmel/studio/7.0/toolchain/arm/arm-gnu-toolchain/bin/../lib/gcc/arm-none-eabi/6.3.1/../../../../arm-none-eabi/lib/thumb/v6-m\libc.a(lib_a-mlock.o)
 .data          0x00000000        0x0 c:/program files (x86)/atmel/studio/7.0/toolchain/arm/arm-gnu-toolchain/bin/../lib/gcc/arm-none-eabi/6.3.1/../../../../arm-none-eabi/lib/thumb/v6-m\libc.a(lib_a-mlock.o)
 .bss           0x00000000        0x0 c:/program files (x86)/atmel/studio/7.0/toolchain/arm/arm-gnu-toolchain/bin/../lib/gcc/arm-none-eabi/6.3.1/../../../../arm-none-eabi/lib/thumb/v6-m\libc.a(lib_a-mlock.o)
 .text          0x00000000        0x0 c:/program files (x86)/atmel/studio/7.0/toolchain/arm/arm-gnu-toolchain/bin/../lib/gcc/arm-none-eabi/6.3.1/../../../../arm-none-eabi/lib/thumb/v6-m\libc.a(lib_a-mprec.o)
 .data          0x00000000        0x0 c:/program files (x86)/atmel/studio/7.0/toolchain/arm/arm-gnu-toolchain/bin/../lib/gcc/arm-none-eabi/6.3.1/../../../../arm-none-eabi/lib/thumb/v6-m\libc.a(lib_a-mprec.o)
 .bss           0x00000000        0x0 c:/program files (x86)/atmel/studio/7.0/toolchain/arm/arm-gnu-toolchain/bin/../lib/gcc/arm-none-eabi/6.3.1/../../../../arm-none-eabi/lib/thumb/v6-m\libc.a(lib_a-mprec.o)
 .text.__s2b    0x00000000       0x94 c:/program files (x86)/atmel/studio/7.0/toolchain/arm/arm-gnu-toolchain/bin/../lib/gcc/arm-none-eabi/6.3.1/../../../../arm-none-eabi/lib/thumb/v6-m\libc.a(lib_a-mprec.o)
 .text.__ulp    0x00000000       0x4c c:/program files (x86)/atmel/studio/7.0/toolchain/arm/arm-gnu-toolchain/bin/../lib/gcc/arm-none-eabi/6.3.1/../../../../arm-none-eabi/lib/thumb/v6-m\libc.a(lib_a-mprec.o)
 .text.__b2d    0x00000000       0xd8 c:/program files (x86)/atmel/studio/7.0/toolchain/arm/arm-gnu-toolchain/bin/../lib/gcc/arm-none-eabi/6.3.1/../../../../arm-none-eabi/lib/thumb/v6-m\libc.a(lib_a-mprec.o)
 .text.__ratio  0x00000000       0x74 c:/program files (x86)/atmel/studio/7.0/toolchain/arm/arm-gnu-toolchain/bin/../lib/gcc/arm-none-eabi/6.3.1/../../../../arm-none-eabi/lib/thumb/v6-m\libc.a(lib_a-mprec.o)
 .text._mprec_log10
                0x00000000       0x34 c:/program files (x86)/atmel/studio/7.0/toolchain/arm/arm-gnu-toolchain/bin/../lib/gcc/arm-none-eabi/6.3.1/../../../../arm-none-eabi/lib/thumb/v6-m\libc.a(lib_a-mprec.o)
 .text.__copybits
                0x00000000       0x40 c:/program files (x86)/atmel/studio/7.0/toolchain/arm/arm-gnu-toolchain/bin/../lib/gcc/arm-none-eabi/6.3.1/../../../../arm-none-eabi/lib/thumb/v6-m\libc.a(lib_a-mprec.o)
 .text.__any_on
                0x00000000       0x60 c:/program files (x86)/atmel/studio/7.0/toolchain/arm/arm-gnu-toolchain/bin/../lib/gcc/arm-none-eabi/6.3.1/../../../../arm-none-eabi/lib/thumb/v6-m\libc.a(lib_a-mprec.o)
 .rodata.__mprec_tinytens
                0x00000000       0x28 c:/program files (x86)/atmel/studio/7.0/toolchain/arm/arm-gnu-toolchain/bin/../lib/gcc/arm-none-eabi/6.3.1/../../../../arm-none-eabi/lib/thumb/v6-m\libc.a(lib_a-mprec.o)
 .text          0x00000000        0x0 c:/program files (x86)/atmel/studio/7.0/toolchain/arm/arm-gnu-toolchain/bin/../lib/gcc/arm-none-eabi/6.3.1/../../../../arm-none-eabi/lib/thumb/v6-m\libc.a(lib_a-reallocr.o)
 .data          0x00000000        0x0 c:/program files (x86)/atmel/studio/7.0/toolchain/arm/arm-gnu-toolchain/bin/../lib/gcc/arm-none-eabi/6.3.1/../../../../arm-none-eabi/lib/thumb/v6-m\libc.a(lib_a-reallocr.o)
 .bss           0x00000000        0x0 c:/program files (x86)/atmel/studio/7.0/toolchain/arm/arm-gnu-toolchain/bin/../lib/gcc/arm-none-eabi/6.3.1/../../../../arm-none-eabi/lib/thumb/v6-m\libc.a(lib_a-reallocr.o)
 .text          0x00000000        0x0 c:/program files (x86)/atmel/studio/7.0/toolchain/arm/arm-gnu-toolchain/bin/../lib/gcc/arm-none-eabi/6.3.1/../../../../arm-none-eabi/lib/thumb/v6-m\libc.a(lib_a-sbrkr.o)
 .data          0x00000000        0x0 c:/program files (x86)/atmel/studio/7.0/toolchain/arm/arm-gnu-toolchain/bin/../lib/gcc/arm-none-eabi/6.3.1/../../../../arm-none-eabi/lib/thumb/v6-m\libc.a(lib_a-sbrkr.o)
 .bss           0x00000000        0x0 c:/program files (x86)/atmel/studio/7.0/toolchain/arm/arm-gnu-toolchain/bin/../lib/gcc/arm-none-eabi/6.3.1/../../../../arm-none-eabi/lib/thumb/v6-m\libc.a(lib_a-sbrkr.o)
 .text          0x00000000        0x0 c:/program files (x86)/atmel/studio/7.0/toolchain/arm/arm-gnu-toolchain/bin/../lib/gcc/arm-none-eabi/6.3.1/../../../../arm-none-eabi/lib/thumb/v6-m\libc.a(lib_a-stdio.o)
 .data          0x00000000        0x0 c:/program files (x86)/atmel/studio/7.0/toolchain/arm/arm-gnu-toolchain/bin/../lib/gcc/arm-none-eabi/6.3.1/../../../../arm-none-eabi/lib/thumb/v6-m\libc.a(lib_a-stdio.o)
 .bss           0x00000000        0x0 c:/program files (x86)/atmel/studio/7.0/toolchain/arm/arm-gnu-toolchain/bin/../lib/gcc/arm-none-eabi/6.3.1/../../../../arm-none-eabi/lib/thumb/v6-m\libc.a(lib_a-stdio.o)
 .text.__seofread
                0x00000000        0x4 c:/program files (x86)/atmel/studio/7.0/toolchain/arm/arm-gnu-toolchain/bin/../lib/gcc/arm-none-eabi/6.3.1/../../../../arm-none-eabi/lib/thumb/v6-m\libc.a(lib_a-stdio.o)
 .text          0x00000000        0x0 c:/program files (x86)/atmel/studio/7.0/toolchain/arm/arm-gnu-toolchain/bin/../lib/gcc/arm-none-eabi/6.3.1/../../../../arm-none-eabi/lib/thumb/v6-m\libc.a(lib_a-vfiprintf.o)
 .data          0x00000000        0x0 c:/program files (x86)/atmel/studio/7.0/toolchain/arm/arm-gnu-toolchain/bin/../lib/gcc/arm-none-eabi/6.3.1/../../../../arm-none-eabi/lib/thumb/v6-m\libc.a(lib_a-vfiprintf.o)
 .bss           0x00000000        0x0 c:/program files (x86)/atmel/studio/7.0/toolchain/arm/arm-gnu-toolchain/bin/../lib/gcc/arm-none-eabi/6.3.1/../../../../arm-none-eabi/lib/thumb/v6-m\libc.a(lib_a-vfiprintf.o)
 .text._vfiprintf_r
                0x00000000      0xca8 c:/program files (x86)/atmel/studio/7.0/toolchain/arm/arm-gnu-toolchain/bin/../lib/gcc/arm-none-eabi/6.3.1/../../../../arm-none-eabi/lib/thumb/v6-m\libc.a(lib_a-vfiprintf.o)
 .rodata._vfiprintf_r
                0x00000000      0x164 c:/program files (x86)/atmel/studio/7.0/toolchain/arm/arm-gnu-toolchain/bin/../lib/gcc/arm-none-eabi/6.3.1/../../../../arm-none-eabi/lib/thumb/v6-m\libc.a(lib_a-vfiprintf.o)
 .text.vfiprintf
                0x00000000       0x18 c:/program files (x86)/atmel/studio/7.0/toolchain/arm/arm-gnu-toolchain/bin/../lib/gcc/arm-none-eabi/6.3.1/../../../../arm-none-eabi/lib/thumb/v6-m\libc.a(lib_a-vfiprintf.o)
 .text.__sbprintf
                0x00000000       0x88 c:/program files (x86)/atmel/studio/7.0/toolchain/arm/arm-gnu-toolchain/bin/../lib/gcc/arm-none-eabi/6.3.1/../../../../arm-none-eabi/lib/thumb/v6-m\libc.a(lib_a-vfiprintf.o)
 .rodata._vfiprintf_r.str1.4
                0x00000000       0x2f c:/program files (x86)/atmel/studio/7.0/toolchain/arm/arm-gnu-toolchain/bin/../lib/gcc/arm-none-eabi/6.3.1/../../../../arm-none-eabi/lib/thumb/v6-m\libc.a(lib_a-vfiprintf.o)
 .rodata.blanks.7217
                0x00000000       0x10 c:/program files (x86)/atmel/studio/7.0/toolchain/arm/arm-gnu-toolchain/bin/../lib/gcc/arm-none-eabi/6.3.1/../../../../arm-none-eabi/lib/thumb/v6-m\libc.a(lib_a-vfiprintf.o)
 .rodata.zeroes.7218
                0x00000000       0x10 c:/program files (x86)/atmel/studio/7.0/toolchain/arm/arm-gnu-toolchain/bin/../lib/gcc/arm-none-eabi/6.3.1/../../../../arm-none-eabi/lib/thumb/v6-m\libc.a(lib_a-vfiprintf.o)
 .text          0x00000000        0x0 c:/program files (x86)/atmel/studio/7.0/toolchain/arm/arm-gnu-toolchain/bin/../lib/gcc/arm-none-eabi/6.3.1/../../../../arm-none-eabi/lib/thumb/v6-m\libc.a(lib_a-writer.o)
 .data          0x00000000        0x0 c:/program files (x86)/atmel/studio/7.0/toolchain/arm/arm-gnu-toolchain/bin/../lib/gcc/arm-none-eabi/6.3.1/../../../../arm-none-eabi/lib/thumb/v6-m\libc.a(lib_a-writer.o)
 .bss           0x00000000        0x0 c:/program files (x86)/atmel/studio/7.0/toolchain/arm/arm-gnu-toolchain/bin/../lib/gcc/arm-none-eabi/6.3.1/../../../../arm-none-eabi/lib/thumb/v6-m\libc.a(lib_a-writer.o)
 .text          0x00000000        0x0 c:/program files (x86)/atmel/studio/7.0/toolchain/arm/arm-gnu-toolchain/bin/../lib/gcc/arm-none-eabi/6.3.1/../../../../arm-none-eabi/lib/thumb/v6-m\libc.a(lib_a-callocr.o)
 .data          0x00000000        0x0 c:/program files (x86)/atmel/studio/7.0/toolchain/arm/arm-gnu-toolchain/bin/../lib/gcc/arm-none-eabi/6.3.1/../../../../arm-none-eabi/lib/thumb/v6-m\libc.a(lib_a-callocr.o)
 .bss           0x00000000        0x0 c:/program files (x86)/atmel/studio/7.0/toolchain/arm/arm-gnu-toolchain/bin/../lib/gcc/arm-none-eabi/6.3.1/../../../../arm-none-eabi/lib/thumb/v6-m\libc.a(lib_a-callocr.o)
 .text          0x00000000        0x0 c:/program files (x86)/atmel/studio/7.0/toolchain/arm/arm-gnu-toolchain/bin/../lib/gcc/arm-none-eabi/6.3.1/../../../../arm-none-eabi/lib/thumb/v6-m\libc.a(lib_a-closer.o)
 .data          0x00000000        0x0 c:/program files (x86)/atmel/studio/7.0/toolchain/arm/arm-gnu-toolchain/bin/../lib/gcc/arm-none-eabi/6.3.1/../../../../arm-none-eabi/lib/thumb/v6-m\libc.a(lib_a-closer.o)
 .bss           0x00000000        0x0 c:/program files (x86)/atmel/studio/7.0/toolchain/arm/arm-gnu-toolchain/bin/../lib/gcc/arm-none-eabi/6.3.1/../../../../arm-none-eabi/lib/thumb/v6-m\libc.a(lib_a-closer.o)
 .text          0x00000000        0x0 c:/program files (x86)/atmel/studio/7.0/toolchain/arm/arm-gnu-toolchain/bin/../lib/gcc/arm-none-eabi/6.3.1/../../../../arm-none-eabi/lib/thumb/v6-m\libc.a(lib_a-fclose.o)
 .data          0x00000000        0x0 c:/program files (x86)/atmel/studio/7.0/toolchain/arm/arm-gnu-toolchain/bin/../lib/gcc/arm-none-eabi/6.3.1/../../../../arm-none-eabi/lib/thumb/v6-m\libc.a(lib_a-fclose.o)
 .bss           0x00000000        0x0 c:/program files (x86)/atmel/studio/7.0/toolchain/arm/arm-gnu-toolchain/bin/../lib/gcc/arm-none-eabi/6.3.1/../../../../arm-none-eabi/lib/thumb/v6-m\libc.a(lib_a-fclose.o)
 .text.fclose   0x00000000       0x14 c:/program files (x86)/atmel/studio/7.0/toolchain/arm/arm-gnu-toolchain/bin/../lib/gcc/arm-none-eabi/6.3.1/../../../../arm-none-eabi/lib/thumb/v6-m\libc.a(lib_a-fclose.o)
 .text          0x00000000        0x0 c:/program files (x86)/atmel/studio/7.0/toolchain/arm/arm-gnu-toolchain/bin/../lib/gcc/arm-none-eabi/6.3.1/../../../../arm-none-eabi/lib/thumb/v6-m\libc.a(lib_a-fputwc.o)
 .data          0x00000000        0x0 c:/program files (x86)/atmel/studio/7.0/toolchain/arm/arm-gnu-toolchain/bin/../lib/gcc/arm-none-eabi/6.3.1/../../../../arm-none-eabi/lib/thumb/v6-m\libc.a(lib_a-fputwc.o)
 .bss           0x00000000        0x0 c:/program files (x86)/atmel/studio/7.0/toolchain/arm/arm-gnu-toolchain/bin/../lib/gcc/arm-none-eabi/6.3.1/../../../../arm-none-eabi/lib/thumb/v6-m\libc.a(lib_a-fputwc.o)
 .text.fputwc   0x00000000       0x2c c:/program files (x86)/atmel/studio/7.0/toolchain/arm/arm-gnu-toolchain/bin/../lib/gcc/arm-none-eabi/6.3.1/../../../../arm-none-eabi/lib/thumb/v6-m\libc.a(lib_a-fputwc.o)
 .text          0x00000000        0x0 c:/program files (x86)/atmel/studio/7.0/toolchain/arm/arm-gnu-toolchain/bin/../lib/gcc/arm-none-eabi/6.3.1/../../../../arm-none-eabi/lib/thumb/v6-m\libc.a(lib_a-fstatr.o)
 .data          0x00000000        0x0 c:/program files (x86)/atmel/studio/7.0/toolchain/arm/arm-gnu-toolchain/bin/../lib/gcc/arm-none-eabi/6.3.1/../../../../arm-none-eabi/lib/thumb/v6-m\libc.a(lib_a-fstatr.o)
 .bss           0x00000000        0x0 c:/program files (x86)/atmel/studio/7.0/toolchain/arm/arm-gnu-toolchain/bin/../lib/gcc/arm-none-eabi/6.3.1/../../../../arm-none-eabi/lib/thumb/v6-m\libc.a(lib_a-fstatr.o)
 .text          0x00000000        0x0 c:/program files (x86)/atmel/studio/7.0/toolchain/arm/arm-gnu-toolchain/bin/../lib/gcc/arm-none-eabi/6.3.1/../../../../arm-none-eabi/lib/thumb/v6-m\libc.a(lib_a-isattyr.o)
 .data          0x00000000        0x0 c:/program files (x86)/atmel/studio/7.0/toolchain/arm/arm-gnu-toolchain/bin/../lib/gcc/arm-none-eabi/6.3.1/../../../../arm-none-eabi/lib/thumb/v6-m\libc.a(lib_a-isattyr.o)
 .bss           0x00000000        0x0 c:/program files (x86)/atmel/studio/7.0/toolchain/arm/arm-gnu-toolchain/bin/../lib/gcc/arm-none-eabi/6.3.1/../../../../arm-none-eabi/lib/thumb/v6-m\libc.a(lib_a-isattyr.o)
 .text          0x00000000        0x0 c:/program files (x86)/atmel/studio/7.0/toolchain/arm/arm-gnu-toolchain/bin/../lib/gcc/arm-none-eabi/6.3.1/../../../../arm-none-eabi/lib/thumb/v6-m\libc.a(lib_a-locale.o)
 .data          0x00000000        0x0 c:/program files (x86)/atmel/studio/7.0/toolchain/arm/arm-gnu-toolchain/bin/../lib/gcc/arm-none-eabi/6.3.1/../../../../arm-none-eabi/lib/thumb/v6-m\libc.a(lib_a-locale.o)
 .bss           0x00000000        0x0 c:/program files (x86)/atmel/studio/7.0/toolchain/arm/arm-gnu-toolchain/bin/../lib/gcc/arm-none-eabi/6.3.1/../../../../arm-none-eabi/lib/thumb/v6-m\libc.a(lib_a-locale.o)
 .text._setlocale_r
                0x00000000       0x44 c:/program files (x86)/atmel/studio/7.0/toolchain/arm/arm-gnu-toolchain/bin/../lib/gcc/arm-none-eabi/6.3.1/../../../../arm-none-eabi/lib/thumb/v6-m\libc.a(lib_a-locale.o)
 .text.__locale_ctype_ptr_l
                0x00000000        0x8 c:/program files (x86)/atmel/studio/7.0/toolchain/arm/arm-gnu-toolchain/bin/../lib/gcc/arm-none-eabi/6.3.1/../../../../arm-none-eabi/lib/thumb/v6-m\libc.a(lib_a-locale.o)
 .text.__locale_ctype_ptr
                0x00000000       0x1c c:/program files (x86)/atmel/studio/7.0/toolchain/arm/arm-gnu-toolchain/bin/../lib/gcc/arm-none-eabi/6.3.1/../../../../arm-none-eabi/lib/thumb/v6-m\libc.a(lib_a-locale.o)
 .text.setlocale
                0x00000000       0x18 c:/program files (x86)/atmel/studio/7.0/toolchain/arm/arm-gnu-toolchain/bin/../lib/gcc/arm-none-eabi/6.3.1/../../../../arm-none-eabi/lib/thumb/v6-m\libc.a(lib_a-locale.o)
 .bss._PathLocale
                0x00000000        0x4 c:/program files (x86)/atmel/studio/7.0/toolchain/arm/arm-gnu-toolchain/bin/../lib/gcc/arm-none-eabi/6.3.1/../../../../arm-none-eabi/lib/thumb/v6-m\libc.a(lib_a-locale.o)
 .text          0x00000000        0x0 c:/program files (x86)/atmel/studio/7.0/toolchain/arm/arm-gnu-toolchain/bin/../lib/gcc/arm-none-eabi/6.3.1/../../../../arm-none-eabi/lib/thumb/v6-m\libc.a(lib_a-lseekr.o)
 .data          0x00000000        0x0 c:/program files (x86)/atmel/studio/7.0/toolchain/arm/arm-gnu-toolchain/bin/../lib/gcc/arm-none-eabi/6.3.1/../../../../arm-none-eabi/lib/thumb/v6-m\libc.a(lib_a-lseekr.o)
 .bss           0x00000000        0x0 c:/program files (x86)/atmel/studio/7.0/toolchain/arm/arm-gnu-toolchain/bin/../lib/gcc/arm-none-eabi/6.3.1/../../../../arm-none-eabi/lib/thumb/v6-m\libc.a(lib_a-lseekr.o)
 .text          0x00000000        0x0 c:/program files (x86)/atmel/studio/7.0/toolchain/arm/arm-gnu-toolchain/bin/../lib/gcc/arm-none-eabi/6.3.1/../../../../arm-none-eabi/lib/thumb/v6-m\libc.a(lib_a-mbtowc_r.o)
 .data          0x00000000        0x0 c:/program files (x86)/atmel/studio/7.0/toolchain/arm/arm-gnu-toolchain/bin/../lib/gcc/arm-none-eabi/6.3.1/../../../../arm-none-eabi/lib/thumb/v6-m\libc.a(lib_a-mbtowc_r.o)
 .bss           0x00000000        0x0 c:/program files (x86)/atmel/studio/7.0/toolchain/arm/arm-gnu-toolchain/bin/../lib/gcc/arm-none-eabi/6.3.1/../../../../arm-none-eabi/lib/thumb/v6-m\libc.a(lib_a-mbtowc_r.o)
 .text._mbtowc_r
                0x00000000       0x28 c:/program files (x86)/atmel/studio/7.0/toolchain/arm/arm-gnu-toolchain/bin/../lib/gcc/arm-none-eabi/6.3.1/../../../../arm-none-eabi/lib/thumb/v6-m\libc.a(lib_a-mbtowc_r.o)
 .text          0x00000000        0x0 c:/program files (x86)/atmel/studio/7.0/toolchain/arm/arm-gnu-toolchain/bin/../lib/gcc/arm-none-eabi/6.3.1/../../../../arm-none-eabi/lib/thumb/v6-m\libc.a(lib_a-readr.o)
 .data          0x00000000        0x0 c:/program files (x86)/atmel/studio/7.0/toolchain/arm/arm-gnu-toolchain/bin/../lib/gcc/arm-none-eabi/6.3.1/../../../../arm-none-eabi/lib/thumb/v6-m\libc.a(lib_a-readr.o)
 .bss           0x00000000        0x0 c:/program files (x86)/atmel/studio/7.0/toolchain/arm/arm-gnu-toolchain/bin/../lib/gcc/arm-none-eabi/6.3.1/../../../../arm-none-eabi/lib/thumb/v6-m\libc.a(lib_a-readr.o)
 .text          0x00000000        0x0 c:/program files (x86)/atmel/studio/7.0/toolchain/arm/arm-gnu-toolchain/bin/../lib/gcc/arm-none-eabi/6.3.1/../../../../arm-none-eabi/lib/thumb/v6-m\libc.a(lib_a-reent.o)
 .data          0x00000000        0x0 c:/program files (x86)/atmel/studio/7.0/toolchain/arm/arm-gnu-toolchain/bin/../lib/gcc/arm-none-eabi/6.3.1/../../../../arm-none-eabi/lib/thumb/v6-m\libc.a(lib_a-reent.o)
 .bss           0x00000000        0x0 c:/program files (x86)/atmel/studio/7.0/toolchain/arm/arm-gnu-toolchain/bin/../lib/gcc/arm-none-eabi/6.3.1/../../../../arm-none-eabi/lib/thumb/v6-m\libc.a(lib_a-reent.o)
 .text.cleanup_glue
                0x00000000       0x1c c:/program files (x86)/atmel/studio/7.0/toolchain/arm/arm-gnu-toolchain/bin/../lib/gcc/arm-none-eabi/6.3.1/../../../../arm-none-eabi/lib/thumb/v6-m\libc.a(lib_a-reent.o)
 .text._reclaim_reent
                0x00000000       0x94 c:/program files (x86)/atmel/studio/7.0/toolchain/arm/arm-gnu-toolchain/bin/../lib/gcc/arm-none-eabi/6.3.1/../../../../arm-none-eabi/lib/thumb/v6-m\libc.a(lib_a-reent.o)
 .text          0x00000000       0x88 c:/program files (x86)/atmel/studio/7.0/toolchain/arm/arm-gnu-toolchain/bin/../lib/gcc/arm-none-eabi/6.3.1/../../../../arm-none-eabi/lib/thumb/v6-m\libc.a(lib_a-strcmp.o)
 .data          0x00000000        0x0 c:/program files (x86)/atmel/studio/7.0/toolchain/arm/arm-gnu-toolchain/bin/../lib/gcc/arm-none-eabi/6.3.1/../../../../arm-none-eabi/lib/thumb/v6-m\libc.a(lib_a-strcmp.o)
 .bss           0x00000000        0x0 c:/program files (x86)/atmel/studio/7.0/toolchain/arm/arm-gnu-toolchain/bin/../lib/gcc/arm-none-eabi/6.3.1/../../../../arm-none-eabi/lib/thumb/v6-m\libc.a(lib_a-strcmp.o)
 .debug_frame   0x00000000       0x20 c:/program files (x86)/atmel/studio/7.0/toolchain/arm/arm-gnu-toolchain/bin/../lib/gcc/arm-none-eabi/6.3.1/../../../../arm-none-eabi/lib/thumb/v6-m\libc.a(lib_a-strcmp.o)
 .ARM.attributes
                0x00000000       0x1b c:/program files (x86)/atmel/studio/7.0/toolchain/arm/arm-gnu-toolchain/bin/../lib/gcc/arm-none-eabi/6.3.1/../../../../arm-none-eabi/lib/thumb/v6-m\libc.a(lib_a-strcmp.o)
 .text          0x00000000        0x0 c:/program files (x86)/atmel/studio/7.0/toolchain/arm/arm-gnu-toolchain/bin/../lib/gcc/arm-none-eabi/6.3.1/../../../../arm-none-eabi/lib/thumb/v6-m\libc.a(lib_a-wbuf.o)
 .data          0x00000000        0x0 c:/program files (x86)/atmel/studio/7.0/toolchain/arm/arm-gnu-toolchain/bin/../lib/gcc/arm-none-eabi/6.3.1/../../../../arm-none-eabi/lib/thumb/v6-m\libc.a(lib_a-wbuf.o)
 .bss           0x00000000        0x0 c:/program files (x86)/atmel/studio/7.0/toolchain/arm/arm-gnu-toolchain/bin/../lib/gcc/arm-none-eabi/6.3.1/../../../../arm-none-eabi/lib/thumb/v6-m\libc.a(lib_a-wbuf.o)
 .text.__swbuf  0x00000000       0x18 c:/program files (x86)/atmel/studio/7.0/toolchain/arm/arm-gnu-toolchain/bin/../lib/gcc/arm-none-eabi/6.3.1/../../../../arm-none-eabi/lib/thumb/v6-m\libc.a(lib_a-wbuf.o)
 .text          0x00000000        0x0 c:/program files (x86)/atmel/studio/7.0/toolchain/arm/arm-gnu-toolchain/bin/../lib/gcc/arm-none-eabi/6.3.1/../../../../arm-none-eabi/lib/thumb/v6-m\libc.a(lib_a-wcrtomb.o)
 .data          0x00000000        0x0 c:/program files (x86)/atmel/studio/7.0/toolchain/arm/arm-gnu-toolchain/bin/../lib/gcc/arm-none-eabi/6.3.1/../../../../arm-none-eabi/lib/thumb/v6-m\libc.a(lib_a-wcrtomb.o)
 .bss           0x00000000        0x0 c:/program files (x86)/atmel/studio/7.0/toolchain/arm/arm-gnu-toolchain/bin/../lib/gcc/arm-none-eabi/6.3.1/../../../../arm-none-eabi/lib/thumb/v6-m\libc.a(lib_a-wcrtomb.o)
 .text.wcrtomb  0x00000000       0x58 c:/program files (x86)/atmel/studio/7.0/toolchain/arm/arm-gnu-toolchain/bin/../lib/gcc/arm-none-eabi/6.3.1/../../../../arm-none-eabi/lib/thumb/v6-m\libc.a(lib_a-wcrtomb.o)
 .text          0x00000000        0x0 c:/program files (x86)/atmel/studio/7.0/toolchain/arm/arm-gnu-toolchain/bin/../lib/gcc/arm-none-eabi/6.3.1/../../../../arm-none-eabi/lib/thumb/v6-m\libc.a(lib_a-wctomb_r.o)
 .data          0x00000000        0x0 c:/program files (x86)/atmel/studio/7.0/toolchain/arm/arm-gnu-toolchain/bin/../lib/gcc/arm-none-eabi/6.3.1/../../../../arm-none-eabi/lib/thumb/v6-m\libc.a(lib_a-wctomb_r.o)
 .bss           0x00000000        0x0 c:/program files (x86)/atmel/studio/7.0/toolchain/arm/arm-gnu-toolchain/bin/../lib/gcc/arm-none-eabi/6.3.1/../../../../arm-none-eabi/lib/thumb/v6-m\libc.a(lib_a-wctomb_r.o)
 .text._wctomb_r
                0x00000000       0x20 c:/program files (x86)/atmel/studio/7.0/toolchain/arm/arm-gnu-toolchain/bin/../lib/gcc/arm-none-eabi/6.3.1/../../../../arm-none-eabi/lib/thumb/v6-m\libc.a(lib_a-wctomb_r.o)
 .text          0x00000000        0x0 c:/program files (x86)/atmel/studio/7.0/toolchain/arm/arm-gnu-toolchain/bin/../lib/gcc/arm-none-eabi/6.3.1/../../../../arm-none-eabi/lib/thumb/v6-m\libc.a(lib_a-ctype_.o)
 .data          0x00000000        0x0 c:/program files (x86)/atmel/studio/7.0/toolchain/arm/arm-gnu-toolchain/bin/../lib/gcc/arm-none-eabi/6.3.1/../../../../arm-none-eabi/lib/thumb/v6-m\libc.a(lib_a-ctype_.o)
 .bss           0x00000000        0x0 c:/program files (x86)/atmel/studio/7.0/toolchain/arm/arm-gnu-toolchain/bin/../lib/gcc/arm-none-eabi/6.3.1/../../../../arm-none-eabi/lib/thumb/v6-m\libc.a(lib_a-ctype_.o)
 .text          0x00000000        0x0 c:/program files (x86)/atmel/studio/7.0/toolchain/arm/arm-gnu-toolchain/bin/../lib/gcc/arm-none-eabi/6.3.1/../../../../arm-none-eabi/lib/thumb/v6-m\libnosys.a(close.o)
 .data          0x00000000        0x0 c:/program files (x86)/atmel/studio/7.0/toolchain/arm/arm-gnu-toolchain/bin/../lib/gcc/arm-none-eabi/6.3.1/../../../../arm-none-eabi/lib/thumb/v6-m\libnosys.a(close.o)
 .bss           0x00000000        0x0 c:/program files (x86)/atmel/studio/7.0/toolchain/arm/arm-gnu-toolchain/bin/../lib/gcc/arm-none-eabi/6.3.1/../../../../arm-none-eabi/lib/thumb/v6-m\libnosys.a(close.o)
 .text          0x00000000        0x0 c:/program files (x86)/atmel/studio/7.0/toolchain/arm/arm-gnu-toolchain/bin/../lib/gcc/arm-none-eabi/6.3.1/../../../../arm-none-eabi/lib/thumb/v6-m\libnosys.a(fstat.o)
 .data          0x00000000        0x0 c:/program files (x86)/atmel/studio/7.0/toolchain/arm/arm-gnu-toolchain/bin/../lib/gcc/arm-none-eabi/6.3.1/../../../../arm-none-eabi/lib/thumb/v6-m\libnosys.a(fstat.o)
 .bss           0x00000000        0x0 c:/program files (x86)/atmel/studio/7.0/toolchain/arm/arm-gnu-toolchain/bin/../lib/gcc/arm-none-eabi/6.3.1/../../../../arm-none-eabi/lib/thumb/v6-m\libnosys.a(fstat.o)
 .text          0x00000000        0x0 c:/program files (x86)/atmel/studio/7.0/toolchain/arm/arm-gnu-toolchain/bin/../lib/gcc/arm-none-eabi/6.3.1/../../../../arm-none-eabi/lib/thumb/v6-m\libnosys.a(isatty.o)
 .data          0x00000000        0x0 c:/program files (x86)/atmel/studio/7.0/toolchain/arm/arm-gnu-toolchain/bin/../lib/gcc/arm-none-eabi/6.3.1/../../../../arm-none-eabi/lib/thumb/v6-m\libnosys.a(isatty.o)
 .bss           0x00000000        0x0 c:/program files (x86)/atmel/studio/7.0/toolchain/arm/arm-gnu-toolchain/bin/../lib/gcc/arm-none-eabi/6.3.1/../../../../arm-none-eabi/lib/thumb/v6-m\libnosys.a(isatty.o)
 .text          0x00000000        0x0 c:/program files (x86)/atmel/studio/7.0/toolchain/arm/arm-gnu-toolchain/bin/../lib/gcc/arm-none-eabi/6.3.1/../../../../arm-none-eabi/lib/thumb/v6-m\libnosys.a(lseek.o)
 .data          0x00000000        0x0 c:/program files (x86)/atmel/studio/7.0/toolchain/arm/arm-gnu-toolchain/bin/../lib/gcc/arm-none-eabi/6.3.1/../../../../arm-none-eabi/lib/thumb/v6-m\libnosys.a(lseek.o)
 .bss           0x00000000        0x0 c:/program files (x86)/atmel/studio/7.0/toolchain/arm/arm-gnu-toolchain/bin/../lib/gcc/arm-none-eabi/6.3.1/../../../../arm-none-eabi/lib/thumb/v6-m\libnosys.a(lseek.o)
 .text          0x00000000        0x0 c:/program files (x86)/atmel/studio/7.0/toolchain/arm/arm-gnu-toolchain/bin/../lib/gcc/arm-none-eabi/6.3.1/../../../../arm-none-eabi/lib/thumb/v6-m\libnosys.a(read.o)
 .data          0x00000000        0x0 c:/program files (x86)/atmel/studio/7.0/toolchain/arm/arm-gnu-toolchain/bin/../lib/gcc/arm-none-eabi/6.3.1/../../../../arm-none-eabi/lib/thumb/v6-m\libnosys.a(read.o)
 .bss           0x00000000        0x0 c:/program files (x86)/atmel/studio/7.0/toolchain/arm/arm-gnu-toolchain/bin/../lib/gcc/arm-none-eabi/6.3.1/../../../../arm-none-eabi/lib/thumb/v6-m\libnosys.a(read.o)
 .text          0x00000000        0x0 c:/program files (x86)/atmel/studio/7.0/toolchain/arm/arm-gnu-toolchain/bin/../lib/gcc/arm-none-eabi/6.3.1/../../../../arm-none-eabi/lib/thumb/v6-m\libnosys.a(sbrk.o)
 .data          0x00000000        0x0 c:/program files (x86)/atmel/studio/7.0/toolchain/arm/arm-gnu-toolchain/bin/../lib/gcc/arm-none-eabi/6.3.1/../../../../arm-none-eabi/lib/thumb/v6-m\libnosys.a(sbrk.o)
 .bss           0x00000000        0x0 c:/program files (x86)/atmel/studio/7.0/toolchain/arm/arm-gnu-toolchain/bin/../lib/gcc/arm-none-eabi/6.3.1/../../../../arm-none-eabi/lib/thumb/v6-m\libnosys.a(sbrk.o)
 .text          0x00000000        0x0 c:/program files (x86)/atmel/studio/7.0/toolchain/arm/arm-gnu-toolchain/bin/../lib/gcc/arm-none-eabi/6.3.1/../../../../arm-none-eabi/lib/thumb/v6-m\libnosys.a(write.o)
 .data          0x00000000        0x0 c:/program files (x86)/atmel/studio/7.0/toolchain/arm/arm-gnu-toolchain/bin/../lib/gcc/arm-none-eabi/6.3.1/../../../../arm-none-eabi/lib/thumb/v6-m\libnosys.a(write.o)
 .bss           0x00000000        0x0 c:/program files (x86)/atmel/studio/7.0/toolchain/arm/arm-gnu-toolchain/bin/../lib/gcc/arm-none-eabi/6.3.1/../../../../arm-none-eabi/lib/thumb/v6-m\libnosys.a(write.o)
 .text          0x00000000        0x0 c:/program files (x86)/atmel/studio/7.0/toolchain/arm/arm-gnu-toolchain/bin/../lib/gcc/arm-none-eabi/6.3.1/../../../../arm-none-eabi/lib/thumb/v6-m\libnosys.a(_exit.o)
 .data          0x00000000        0x0 c:/program files (x86)/atmel/studio/7.0/toolchain/arm/arm-gnu-toolchain/bin/../lib/gcc/arm-none-eabi/6.3.1/../../../../arm-none-eabi/lib/thumb/v6-m\libnosys.a(_exit.o)
 .bss           0x00000000        0x0 c:/program files (x86)/atmel/studio/7.0/toolchain/arm/arm-gnu-toolchain/bin/../lib/gcc/arm-none-eabi/6.3.1/../../../../arm-none-eabi/lib/thumb/v6-m\libnosys.a(_exit.o)
 .text._exit    0x00000000        0x4 c:/program files (x86)/atmel/studio/7.0/toolchain/arm/arm-gnu-toolchain/bin/../lib/gcc/arm-none-eabi/6.3.1/../../../../arm-none-eabi/lib/thumb/v6-m\libnosys.a(_exit.o)
 .debug_frame   0x00000000       0x20 c:/program files (x86)/atmel/studio/7.0/toolchain/arm/arm-gnu-toolchain/bin/../lib/gcc/arm-none-eabi/6.3.1/../../../../arm-none-eabi/lib/thumb/v6-m\libnosys.a(_exit.o)
 .ARM.attributes
                0x00000000       0x2c c:/program files (x86)/atmel/studio/7.0/toolchain/arm/arm-gnu-toolchain/bin/../lib/gcc/arm-none-eabi/6.3.1/../../../../arm-none-eabi/lib/thumb/v6-m\libnosys.a(_exit.o)
 .text          0x00000000        0x0 c:/program files (x86)/atmel/studio/7.0/toolchain/arm/arm-gnu-toolchain/bin/../lib/gcc/arm-none-eabi/6.3.1/thumb/v6-m/crtend.o
 .data          0x00000000        0x0 c:/program files (x86)/atmel/studio/7.0/toolchain/arm/arm-gnu-toolchain/bin/../lib/gcc/arm-none-eabi/6.3.1/thumb/v6-m/crtend.o
 .bss           0x00000000        0x0 c:/program files (x86)/atmel/studio/7.0/toolchain/arm/arm-gnu-toolchain/bin/../lib/gcc/arm-none-eabi/6.3.1/thumb/v6-m/crtend.o
 .eh_frame      0x00000000        0x4 c:/program files (x86)/atmel/studio/7.0/toolchain/arm/arm-gnu-toolchain/bin/../lib/gcc/arm-none-eabi/6.3.1/thumb/v6-m/crtend.o
 .jcr           0x00000000        0x4 c:/program files (x86)/atmel/studio/7.0/toolchain/arm/arm-gnu-toolchain/bin/../lib/gcc/arm-none-eabi/6.3.1/thumb/v6-m/crtend.o
 .ARM.attributes
                0x00000000       0x2c c:/program files (x86)/atmel/studio/7.0/toolchain/arm/arm-gnu-toolchain/bin/../lib/gcc/arm-none-eabi/6.3.1/thumb/v6-m/crtend.o
 .text          0x00000000        0x0 c:/program files (x86)/atmel/studio/7.0/toolchain/arm/arm-gnu-toolchain/bin/../lib/gcc/arm-none-eabi/6.3.1/thumb/v6-m/crtn.o
 .data          0x00000000        0x0 c:/program files (x86)/atmel/studio/7.0/toolchain/arm/arm-gnu-toolchain/bin/../lib/gcc/arm-none-eabi/6.3.1/thumb/v6-m/crtn.o
 .bss           0x00000000        0x0 c:/program files (x86)/atmel/studio/7.0/toolchain/arm/arm-gnu-toolchain/bin/../lib/gcc/arm-none-eabi/6.3.1/thumb/v6-m/crtn.o

Memory Configuration

Name             Origin             Length             Attributes
rom              0x00000000         0x00040000         xr
ram              0x20000000         0x00008000         xrw
*default*        0x00000000         0xffffffff

Linker script and memory map

LOAD c:/program files (x86)/atmel/studio/7.0/toolchain/arm/arm-gnu-toolchain/bin/../lib/gcc/arm-none-eabi/6.3.1/thumb/v6-m/crti.o
LOAD c:/program files (x86)/atmel/studio/7.0/toolchain/arm/arm-gnu-toolchain/bin/../lib/gcc/arm-none-eabi/6.3.1/thumb/v6-m/crtbegin.o
LOAD c:/program files (x86)/atmel/studio/7.0/toolchain/arm/arm-gnu-toolchain/bin/../lib/gcc/arm-none-eabi/6.3.1/../../../../arm-none-eabi/lib/thumb/v6-m/crt0.o
LOAD ADF5610Driver.o
LOAD Device_Startup/startup_samd21.o
LOAD Device_Startup/system_samd21.o
LOAD main.o
LOAD SPI_Syn_Class_ADF.o
START GROUP
LOAD C:\Salukat\Purificador\SoftwareDevelopment\Atmel_Microchip\SAMD21_BSP\SAMD21_BSP\Release\libSAMD21_BSP.a
END GROUP
LOAD c:/program files (x86)/atmel/studio/7.0/toolchain/arm/arm-gnu-toolchain/bin/../lib/gcc/arm-none-eabi/6.3.1/../../../../arm-none-eabi/lib/thumb/v6-m\libstdc++.a
LOAD c:/program files (x86)/atmel/studio/7.0/toolchain/arm/arm-gnu-toolchain/bin/../lib/gcc/arm-none-eabi/6.3.1/../../../../arm-none-eabi/lib/thumb/v6-m\libm.a
START GROUP
LOAD c:/program files (x86)/atmel/studio/7.0/toolchain/arm/arm-gnu-toolchain/bin/../lib/gcc/arm-none-eabi/6.3.1/thumb/v6-m\libgcc.a
LOAD c:/program files (x86)/atmel/studio/7.0/toolchain/arm/arm-gnu-toolchain/bin/../lib/gcc/arm-none-eabi/6.3.1/../../../../arm-none-eabi/lib/thumb/v6-m\libc.a
END GROUP
START GROUP
LOAD c:/program files (x86)/atmel/studio/7.0/toolchain/arm/arm-gnu-toolchain/bin/../lib/gcc/arm-none-eabi/6.3.1/thumb/v6-m\libgcc.a
LOAD c:/program files (x86)/atmel/studio/7.0/toolchain/arm/arm-gnu-toolchain/bin/../lib/gcc/arm-none-eabi/6.3.1/../../../../arm-none-eabi/lib/thumb/v6-m\libc.a
LOAD c:/program files (x86)/atmel/studio/7.0/toolchain/arm/arm-gnu-toolchain/bin/../lib/gcc/arm-none-eabi/6.3.1/../../../../arm-none-eabi/lib/thumb/v6-m\libnosys.a
END GROUP
LOAD c:/program files (x86)/atmel/studio/7.0/toolchain/arm/arm-gnu-toolchain/bin/../lib/gcc/arm-none-eabi/6.3.1/thumb/v6-m/crtend.o
LOAD c:/program files (x86)/atmel/studio/7.0/toolchain/arm/arm-gnu-toolchain/bin/../lib/gcc/arm-none-eabi/6.3.1/thumb/v6-m/crtn.o
                0x00002000                STACK_SIZE = DEFINED (STACK_SIZE)?STACK_SIZE:DEFINED (__stack_size__)?__stack_size__:0x2000

.text           0x00000000     0xd5f4
                0x00000000                . = ALIGN (0x4)
                0x00000000                _sfixed = .
 *(.vectors .vectors.*)
 .vectors       0x00000000       0xb4 Device_Startup/startup_samd21.o
                0x00000000                exception_table
 *(.text .text.* .gnu.linkonce.t.*)
 .text          0x000000b4       0x60 c:/program files (x86)/atmel/studio/7.0/toolchain/arm/arm-gnu-toolchain/bin/../lib/gcc/arm-none-eabi/6.3.1/thumb/v6-m/crtbegin.o
 .text._Z41__static_initialization_and_destruction_0ii
                0x00000114       0x3c ADF5610Driver.o
 .text._ZN14ADF5610_DriverC2Ev
                0x00000150       0x50 ADF5610Driver.o
                0x00000150                ADF5610_Driver::ADF5610_Driver()
                0x00000150                ADF5610_Driver::ADF5610_Driver()
 .text._ZN14ADF5610_DriverD2Ev
                0x000001a0        0x2 ADF5610Driver.o
                0x000001a0                ADF5610_Driver::~ADF5610_Driver()
                0x000001a0                ADF5610_Driver::~ADF5610_Driver()
 *fill*         0x000001a2        0x2 
 .text._ZN14ADF5610_Driver13ShowRegistersEi
                0x000001a4       0x64 ADF5610Driver.o
                0x000001a4                ADF5610_Driver::ShowRegisters(int)
 .text._ZN14ADF5610_Driver23ConvertU32FourByteArrayEPhm
                0x00000208       0x1a ADF5610Driver.o
                0x00000208                ADF5610_Driver::ConvertU32FourByteArray(unsigned char*, unsigned long)
 *fill*         0x00000222        0x2 
 .text._ZN14ADF5610_Driver13ReadRegistersEh
                0x00000224       0xa0 ADF5610Driver.o
                0x00000224                ADF5610_Driver::ReadRegisters(unsigned char)
 .text._ZN14ADF5610_Driver9Is_LockedEv
                0x000002c4       0x70 ADF5610Driver.o
                0x000002c4                ADF5610_Driver::Is_Locked()
 .text._ZN14ADF5610_Driver17InitiateRegistersEv
                0x00000334      0x128 ADF5610Driver.o
                0x00000334                ADF5610_Driver::InitiateRegisters()
 .text._ZN14ADF5610_Driver16ReadAllRegistersEv
                0x0000045c       0x1c ADF5610Driver.o
                0x0000045c                ADF5610_Driver::ReadAllRegisters()
 .text._ZN14ADF5610_Driver18CalculateVCOValuesEv
                0x00000478      0x2d0 ADF5610Driver.o
                0x00000478                ADF5610_Driver::CalculateVCOValues()
 .text._ZN14ADF5610_Driver16SetNextFrequencyEv
                0x00000748        0xc ADF5610Driver.o
                0x00000748                ADF5610_Driver::SetNextFrequency()
 .text._ZN14ADF5610_Driver6usleepEl
                0x00000754       0x30 ADF5610Driver.o
                0x00000754                ADF5610_Driver::usleep(long)
 .text._ZN14ADF5610_Driver14WriteRegistersEh
                0x00000784      0x104 ADF5610Driver.o
                0x00000784                ADF5610_Driver::WriteRegisters(unsigned char)
 .text._ZN14ADF5610_Driver25CompleteConfigurationFlowEj
                0x00000888       0x4c ADF5610Driver.o
                0x00000888                ADF5610_Driver::CompleteConfigurationFlow(unsigned int)
 .text._ZN14ADF5610_Driver7InitPLLEv
                0x000008d4       0x50 ADF5610Driver.o
                0x000008d4                ADF5610_Driver::InitPLL()
 .text._ZN14ADF5610_Driver4InitEv
                0x00000924       0x58 ADF5610Driver.o
                0x00000924                ADF5610_Driver::Init()
 .text._ZN14ADF5610_Driver11WriteSubVCOEv
                0x0000097c       0x1c ADF5610Driver.o
                0x0000097c                ADF5610_Driver::WriteSubVCO()
 .text._ZN14ADF5610_Driver22ShortConfigurationFlowEv
                0x00000998       0x28 ADF5610Driver.o
                0x00000998                ADF5610_Driver::ShortConfigurationFlow()
 .text._ZN14ADF5610_Driver8SelfTestEh
                0x000009c0      0x1cc ADF5610Driver.o
                0x000009c0                ADF5610_Driver::SelfTest(unsigned char)
 .text._GLOBAL__sub_I__ZN14ADF5610_DriverC2Ev
                0x00000b8c       0x14 ADF5610Driver.o
 .text.Dummy_Handler
                0x00000ba0        0x2 Device_Startup/startup_samd21.o
                0x00000ba0                SVCall_Handler
                0x00000ba0                DMAC_Handler
                0x00000ba0                HardFault_Handler
                0x00000ba0                AC_Handler
                0x00000ba0                SysTick_Handler
                0x00000ba0                PendSV_Handler
                0x00000ba0                TC7_Handler
                0x00000ba0                SERCOM1_Handler
                0x00000ba0                ADC_Handler
                0x00000ba0                NonMaskableInt_Handler
                0x00000ba0                TCC1_Handler
                0x00000ba0                SERCOM2_Handler
                0x00000ba0                TCC0_Handler
                0x00000ba0                RTC_Handler
                0x00000ba0                TC6_Handler
                0x00000ba0                WDT_Handler
                0x00000ba0                Dummy_Handler
                0x00000ba0                PM_Handler
                0x00000ba0                SERCOM5_Handler
                0x00000ba0                TCC2_Handler
                0x00000ba0                EVSYS_Handler
                0x00000ba0                SERCOM4_Handler
                0x00000ba0                I2S_Handler
                0x00000ba0                NVMCTRL_Handler
                0x00000ba0                SERCOM0_Handler
                0x00000ba0                DAC_Handler
                0x00000ba0                PTC_Handler
                0x00000ba0                TC5_Handler
                0x00000ba0                SYSCTRL_Handler
 *fill*         0x00000ba2        0x2 
 .text.Reset_Handler
                0x00000ba4       0xc4 Device_Startup/startup_samd21.o
                0x00000ba4                Reset_Handler
 .text._Z41__static_initialization_and_destruction_0ii
                0x00000c68       0x3c main.o
 .text.main     0x00000ca4       0x3c main.o
                0x00000ca4                main
 .text._GLOBAL__sub_I_adf
                0x00000ce0       0x14 main.o
 .text._ZN17SPI_Syn_Class_ADFC2Ev
                0x00000cf4        0xc SPI_Syn_Class_ADF.o
                0x00000cf4                SPI_Syn_Class_ADF::SPI_Syn_Class_ADF()
                0x00000cf4                SPI_Syn_Class_ADF::SPI_Syn_Class_ADF()
 .text._ZN17SPI_Syn_Class_ADFD2Ev
                0x00000d00        0x2 SPI_Syn_Class_ADF.o
                0x00000d00                SPI_Syn_Class_ADF::~SPI_Syn_Class_ADF()
                0x00000d00                SPI_Syn_Class_ADF::~SPI_Syn_Class_ADF()
 *fill*         0x00000d02        0x2 
 .text._ZN17SPI_Syn_Class_ADF6EnableEv
                0x00000d04       0x14 SPI_Syn_Class_ADF.o
                0x00000d04                SPI_Syn_Class_ADF::Enable()
 .text._ZN17SPI_Syn_Class_ADF4InitEv
                0x00000d18       0x28 SPI_Syn_Class_ADF.o
                0x00000d18                SPI_Syn_Class_ADF::Init()
 .text._ZN17SPI_Syn_Class_ADF5WriteEPKhh
                0x00000d40       0x18 SPI_Syn_Class_ADF.o
                0x00000d40                SPI_Syn_Class_ADF::Write(unsigned char const*, unsigned char)
 .text._ZN17SPI_Syn_Class_ADF4ReadEPhh
                0x00000d58       0x18 SPI_Syn_Class_ADF.o
                0x00000d58                SPI_Syn_Class_ADF::Read(unsigned char*, unsigned char)
 .text._ZN17SPI_Syn_Class_ADF5SetCSEb
                0x00000d70       0x18 SPI_Syn_Class_ADF.o
                0x00000d70                SPI_Syn_Class_ADF::SetCS(bool)
 .text.atmel_start_init
                0x00000d88       0x14 C:\Salukat\Purificador\SoftwareDevelopment\Atmel_Microchip\SAMD21_BSP\SAMD21_BSP\Release\libSAMD21_BSP.a(atmel_start.o)
                0x00000d88                atmel_start_init
 .text._gpio_set_pin_function
                0x00000d9c       0x70 C:\Salukat\Purificador\SoftwareDevelopment\Atmel_Microchip\SAMD21_BSP\SAMD21_BSP\Release\libSAMD21_BSP.a(driver_init.o)
 .text.gpio_set_pin_direction
                0x00000e0c       0x84 C:\Salukat\Purificador\SoftwareDevelopment\Atmel_Microchip\SAMD21_BSP\SAMD21_BSP\Release\libSAMD21_BSP.a(driver_init.o)
 .text.EXTERNAL_IRQ_0_init
                0x00000e90       0x44 C:\Salukat\Purificador\SoftwareDevelopment\Atmel_Microchip\SAMD21_BSP\SAMD21_BSP\Release\libSAMD21_BSP.a(driver_init.o)
                0x00000e90                EXTERNAL_IRQ_0_init
 .text.SPI_ADF_PORT_init
                0x00000ed4       0x5c C:\Salukat\Purificador\SoftwareDevelopment\Atmel_Microchip\SAMD21_BSP\SAMD21_BSP\Release\libSAMD21_BSP.a(driver_init.o)
                0x00000ed4                SPI_ADF_PORT_init
 .text.SPI_ADF_CLOCK_init
                0x00000f30       0x20 C:\Salukat\Purificador\SoftwareDevelopment\Atmel_Microchip\SAMD21_BSP\SAMD21_BSP\Release\libSAMD21_BSP.a(driver_init.o)
                0x00000f30                SPI_ADF_CLOCK_init
 .text.SPI_ADF_init
                0x00000f50       0x28 C:\Salukat\Purificador\SoftwareDevelopment\Atmel_Microchip\SAMD21_BSP\SAMD21_BSP\Release\libSAMD21_BSP.a(driver_init.o)
                0x00000f50                SPI_ADF_init
 .text.SPI_LMX_PORT_init
                0x00000f78       0x60 C:\Salukat\Purificador\SoftwareDevelopment\Atmel_Microchip\SAMD21_BSP\SAMD21_BSP\Release\libSAMD21_BSP.a(driver_init.o)
                0x00000f78                SPI_LMX_PORT_init
 .text.SPI_LMX_CLOCK_init
                0x00000fd8       0x20 C:\Salukat\Purificador\SoftwareDevelopment\Atmel_Microchip\SAMD21_BSP\SAMD21_BSP\Release\libSAMD21_BSP.a(driver_init.o)
                0x00000fd8                SPI_LMX_CLOCK_init
 .text.SPI_LMX_init
                0x00000ff8       0x28 C:\Salukat\Purificador\SoftwareDevelopment\Atmel_Microchip\SAMD21_BSP\SAMD21_BSP\Release\libSAMD21_BSP.a(driver_init.o)
                0x00000ff8                SPI_LMX_init
 .text.SPI_ZCD_PORT_init
                0x00001020       0x60 C:\Salukat\Purificador\SoftwareDevelopment\Atmel_Microchip\SAMD21_BSP\SAMD21_BSP\Release\libSAMD21_BSP.a(driver_init.o)
                0x00001020                SPI_ZCD_PORT_init
 .text.SPI_ZCD_CLOCK_init
                0x00001080       0x20 C:\Salukat\Purificador\SoftwareDevelopment\Atmel_Microchip\SAMD21_BSP\SAMD21_BSP\Release\libSAMD21_BSP.a(driver_init.o)
                0x00001080                SPI_ZCD_CLOCK_init
 .text.SPI_ZCD_init
                0x000010a0       0x28 C:\Salukat\Purificador\SoftwareDevelopment\Atmel_Microchip\SAMD21_BSP\SAMD21_BSP\Release\libSAMD21_BSP.a(driver_init.o)
                0x000010a0                SPI_ZCD_init
 .text.USART_0_CLOCK_init
                0x000010c8       0x20 C:\Salukat\Purificador\SoftwareDevelopment\Atmel_Microchip\SAMD21_BSP\SAMD21_BSP\Release\libSAMD21_BSP.a(driver_init.o)
                0x000010c8                USART_0_CLOCK_init
 .text.USART_0_PORT_init
                0x000010e8       0x20 C:\Salukat\Purificador\SoftwareDevelopment\Atmel_Microchip\SAMD21_BSP\SAMD21_BSP\Release\libSAMD21_BSP.a(driver_init.o)
                0x000010e8                USART_0_PORT_init
 .text.USART_0_init
                0x00001108       0x34 C:\Salukat\Purificador\SoftwareDevelopment\Atmel_Microchip\SAMD21_BSP\SAMD21_BSP\Release\libSAMD21_BSP.a(driver_init.o)
                0x00001108                USART_0_init
 .text.delay_driver_init
                0x0000113c       0x14 C:\Salukat\Purificador\SoftwareDevelopment\Atmel_Microchip\SAMD21_BSP\SAMD21_BSP\Release\libSAMD21_BSP.a(driver_init.o)
                0x0000113c                delay_driver_init
 .text.DAC_0_PORT_init
                0x00001150       0x20 C:\Salukat\Purificador\SoftwareDevelopment\Atmel_Microchip\SAMD21_BSP\SAMD21_BSP\Release\libSAMD21_BSP.a(driver_init.o)
                0x00001150                DAC_0_PORT_init
 .text.DAC_0_CLOCK_init
                0x00001170       0x20 C:\Salukat\Purificador\SoftwareDevelopment\Atmel_Microchip\SAMD21_BSP\SAMD21_BSP\Release\libSAMD21_BSP.a(driver_init.o)
                0x00001170                DAC_0_CLOCK_init
 .text.DAC_0_init
                0x00001190       0x28 C:\Salukat\Purificador\SoftwareDevelopment\Atmel_Microchip\SAMD21_BSP\SAMD21_BSP\Release\libSAMD21_BSP.a(driver_init.o)
                0x00001190                DAC_0_init
 .text.USB_DEVICE_INSTANCE_PORT_init
                0x000011b8       0x5c C:\Salukat\Purificador\SoftwareDevelopment\Atmel_Microchip\SAMD21_BSP\SAMD21_BSP\Release\libSAMD21_BSP.a(driver_init.o)
                0x000011b8                USB_DEVICE_INSTANCE_PORT_init
 .text.USB_DEVICE_INSTANCE_CLOCK_init
                0x00001214       0x28 C:\Salukat\Purificador\SoftwareDevelopment\Atmel_Microchip\SAMD21_BSP\SAMD21_BSP\Release\libSAMD21_BSP.a(driver_init.o)
                0x00001214                USB_DEVICE_INSTANCE_CLOCK_init
 .text.USB_DEVICE_INSTANCE_init
                0x0000123c       0x1c C:\Salukat\Purificador\SoftwareDevelopment\Atmel_Microchip\SAMD21_BSP\SAMD21_BSP\Release\libSAMD21_BSP.a(driver_init.o)
                0x0000123c                USB_DEVICE_INSTANCE_init
 .text.system_init
                0x00001258      0x144 C:\Salukat\Purificador\SoftwareDevelopment\Atmel_Microchip\SAMD21_BSP\SAMD21_BSP\Release\libSAMD21_BSP.a(driver_init.o)
                0x00001258                system_init
 .text.atomic_enter_critical
                0x0000139c        0xe C:\Salukat\Purificador\SoftwareDevelopment\Atmel_Microchip\SAMD21_BSP\SAMD21_BSP\Release\libSAMD21_BSP.a(hal_atomic.o)
                0x0000139c                atomic_enter_critical
 .text.atomic_leave_critical
                0x000013aa        0xc C:\Salukat\Purificador\SoftwareDevelopment\Atmel_Microchip\SAMD21_BSP\SAMD21_BSP\Release\libSAMD21_BSP.a(hal_atomic.o)
                0x000013aa                atomic_leave_critical
 *fill*         0x000013b6        0x2 
 .text.dac_sync_init
                0x000013b8       0x18 C:\Salukat\Purificador\SoftwareDevelopment\Atmel_Microchip\SAMD21_BSP\SAMD21_BSP\Release\libSAMD21_BSP.a(hal_dac_sync.o)
                0x000013b8                dac_sync_init
 .text.delay_init
                0x000013d0       0x14 C:\Salukat\Purificador\SoftwareDevelopment\Atmel_Microchip\SAMD21_BSP\SAMD21_BSP\Release\libSAMD21_BSP.a(hal_delay.o)
                0x000013d0                delay_init
 .text.delay_ms
                0x000013e4       0x20 C:\Salukat\Purificador\SoftwareDevelopment\Atmel_Microchip\SAMD21_BSP\SAMD21_BSP\Release\libSAMD21_BSP.a(hal_delay.o)
                0x000013e4                delay_ms
 .text.process_ext_irq
                0x00001404       0x34 C:\Salukat\Purificador\SoftwareDevelopment\Atmel_Microchip\SAMD21_BSP\SAMD21_BSP\Release\libSAMD21_BSP.a(hal_ext_irq.o)
 .text.ext_irq_init
                0x00001438       0x24 C:\Salukat\Purificador\SoftwareDevelopment\Atmel_Microchip\SAMD21_BSP\SAMD21_BSP\Release\libSAMD21_BSP.a(hal_ext_irq.o)
                0x00001438                ext_irq_init
 .text.io_write
                0x0000145c        0x8 C:\Salukat\Purificador\SoftwareDevelopment\Atmel_Microchip\SAMD21_BSP\SAMD21_BSP\Release\libSAMD21_BSP.a(hal_io.o)
                0x0000145c                io_write
 .text.io_read  0x00001464        0x8 C:\Salukat\Purificador\SoftwareDevelopment\Atmel_Microchip\SAMD21_BSP\SAMD21_BSP\Release\libSAMD21_BSP.a(hal_io.o)
                0x00001464                io_read
 .text.spi_m_sync_init
                0x0000146c       0x30 C:\Salukat\Purificador\SoftwareDevelopment\Atmel_Microchip\SAMD21_BSP\SAMD21_BSP\Release\libSAMD21_BSP.a(hal_spi_m_sync.o)
                0x0000146c                spi_m_sync_init
 .text.spi_m_sync_enable
                0x0000149c       0x10 C:\Salukat\Purificador\SoftwareDevelopment\Atmel_Microchip\SAMD21_BSP\SAMD21_BSP\Release\libSAMD21_BSP.a(hal_spi_m_sync.o)
                0x0000149c                spi_m_sync_enable
 .text.spi_m_sync_transfer
                0x000014ac       0x20 C:\Salukat\Purificador\SoftwareDevelopment\Atmel_Microchip\SAMD21_BSP\SAMD21_BSP\Release\libSAMD21_BSP.a(hal_spi_m_sync.o)
                0x000014ac                spi_m_sync_transfer
 .text._spi_m_sync_io_write
                0x000014cc       0x1c C:\Salukat\Purificador\SoftwareDevelopment\Atmel_Microchip\SAMD21_BSP\SAMD21_BSP\Release\libSAMD21_BSP.a(hal_spi_m_sync.o)
 .text._spi_m_sync_io_read
                0x000014e8       0x1c C:\Salukat\Purificador\SoftwareDevelopment\Atmel_Microchip\SAMD21_BSP\SAMD21_BSP\Release\libSAMD21_BSP.a(hal_spi_m_sync.o)
 .text.spi_m_sync_get_io_descriptor
                0x00001504        0x8 C:\Salukat\Purificador\SoftwareDevelopment\Atmel_Microchip\SAMD21_BSP\SAMD21_BSP\Release\libSAMD21_BSP.a(hal_spi_m_sync.o)
                0x00001504                spi_m_sync_get_io_descriptor
 .text.timer_add_timer_task
                0x0000150c       0x58 C:\Salukat\Purificador\SoftwareDevelopment\Atmel_Microchip\SAMD21_BSP\SAMD21_BSP\Release\libSAMD21_BSP.a(hal_timer.o)
 .text.timer_process_counted
                0x00001564       0x60 C:\Salukat\Purificador\SoftwareDevelopment\Atmel_Microchip\SAMD21_BSP\SAMD21_BSP\Release\libSAMD21_BSP.a(hal_timer.o)
 .text.timer_init
                0x000015c4       0x1c C:\Salukat\Purificador\SoftwareDevelopment\Atmel_Microchip\SAMD21_BSP\SAMD21_BSP\Release\libSAMD21_BSP.a(hal_timer.o)
                0x000015c4                timer_init
 .text.usart_transmission_complete
                0x000015e0       0x12 C:\Salukat\Purificador\SoftwareDevelopment\Atmel_Microchip\SAMD21_BSP\SAMD21_BSP\Release\libSAMD21_BSP.a(hal_usart_async.o)
 .text.usart_error
                0x000015f2       0x12 C:\Salukat\Purificador\SoftwareDevelopment\Atmel_Microchip\SAMD21_BSP\SAMD21_BSP\Release\libSAMD21_BSP.a(hal_usart_async.o)
 .text.usart_fill_rx_buffer
                0x00001604       0x1c C:\Salukat\Purificador\SoftwareDevelopment\Atmel_Microchip\SAMD21_BSP\SAMD21_BSP\Release\libSAMD21_BSP.a(hal_usart_async.o)
 .text.usart_async_write
                0x00001620       0x34 C:\Salukat\Purificador\SoftwareDevelopment\Atmel_Microchip\SAMD21_BSP\SAMD21_BSP\Release\libSAMD21_BSP.a(hal_usart_async.o)
 .text.usart_process_byte_sent
                0x00001654       0x3c C:\Salukat\Purificador\SoftwareDevelopment\Atmel_Microchip\SAMD21_BSP\SAMD21_BSP\Release\libSAMD21_BSP.a(hal_usart_async.o)
 .text.usart_async_read
                0x00001690       0x58 C:\Salukat\Purificador\SoftwareDevelopment\Atmel_Microchip\SAMD21_BSP\SAMD21_BSP\Release\libSAMD21_BSP.a(hal_usart_async.o)
 .text.usart_async_init
                0x000016e8       0x64 C:\Salukat\Purificador\SoftwareDevelopment\Atmel_Microchip\SAMD21_BSP\SAMD21_BSP\Release\libSAMD21_BSP.a(hal_usart_async.o)
                0x000016e8                usart_async_init
 .text._usb_d_find_ep
                0x0000174c       0x34 C:\Salukat\Purificador\SoftwareDevelopment\Atmel_Microchip\SAMD21_BSP\SAMD21_BSP\Release\libSAMD21_BSP.a(hal_usb_device.o)
 .text.usb_d_dummy_cb_false
                0x00001780        0x4 C:\Salukat\Purificador\SoftwareDevelopment\Atmel_Microchip\SAMD21_BSP\SAMD21_BSP\Release\libSAMD21_BSP.a(hal_usb_device.o)
 .text.usb_d_cb_trans_more
                0x00001784       0x2c C:\Salukat\Purificador\SoftwareDevelopment\Atmel_Microchip\SAMD21_BSP\SAMD21_BSP\Release\libSAMD21_BSP.a(hal_usb_device.o)
 .text._usb_d_cb_trans_done
                0x000017b0       0xf8 C:\Salukat\Purificador\SoftwareDevelopment\Atmel_Microchip\SAMD21_BSP\SAMD21_BSP\Release\libSAMD21_BSP.a(hal_usb_device.o)
 .text.usb_d_cb_trans_setup
                0x000018a8       0x84 C:\Salukat\Purificador\SoftwareDevelopment\Atmel_Microchip\SAMD21_BSP\SAMD21_BSP\Release\libSAMD21_BSP.a(hal_usb_device.o)
 .text.usb_d_init
                0x0000192c       0x68 C:\Salukat\Purificador\SoftwareDevelopment\Atmel_Microchip\SAMD21_BSP\SAMD21_BSP\Release\libSAMD21_BSP.a(hal_usb_device.o)
                0x0000192c                usb_d_init
 .text.usb_d_register_callback
                0x00001994        0xc C:\Salukat\Purificador\SoftwareDevelopment\Atmel_Microchip\SAMD21_BSP\SAMD21_BSP\Release\libSAMD21_BSP.a(hal_usb_device.o)
                0x00001994                usb_d_register_callback
 .text.usb_d_enable
                0x000019a0        0xc C:\Salukat\Purificador\SoftwareDevelopment\Atmel_Microchip\SAMD21_BSP\SAMD21_BSP\Release\libSAMD21_BSP.a(hal_usb_device.o)
                0x000019a0                usb_d_enable
 .text.usb_d_attach
                0x000019ac        0xc C:\Salukat\Purificador\SoftwareDevelopment\Atmel_Microchip\SAMD21_BSP\SAMD21_BSP\Release\libSAMD21_BSP.a(hal_usb_device.o)
                0x000019ac                usb_d_attach
 .text.usb_d_set_address
                0x000019b8        0xc C:\Salukat\Purificador\SoftwareDevelopment\Atmel_Microchip\SAMD21_BSP\SAMD21_BSP\Release\libSAMD21_BSP.a(hal_usb_device.o)
                0x000019b8                usb_d_set_address
 .text.usb_d_ep_init
                0x000019c4       0x50 C:\Salukat\Purificador\SoftwareDevelopment\Atmel_Microchip\SAMD21_BSP\SAMD21_BSP\Release\libSAMD21_BSP.a(hal_usb_device.o)
                0x000019c4                usb_d_ep_init
 .text.usb_d_ep0_init
                0x00001a14       0x14 C:\Salukat\Purificador\SoftwareDevelopment\Atmel_Microchip\SAMD21_BSP\SAMD21_BSP\Release\libSAMD21_BSP.a(hal_usb_device.o)
                0x00001a14                usb_d_ep0_init
 .text.usb_d_ep_deinit
                0x00001a28       0x2c C:\Salukat\Purificador\SoftwareDevelopment\Atmel_Microchip\SAMD21_BSP\SAMD21_BSP\Release\libSAMD21_BSP.a(hal_usb_device.o)
                0x00001a28                usb_d_ep_deinit
 .text.usb_d_ep_enable
                0x00001a54       0x40 C:\Salukat\Purificador\SoftwareDevelopment\Atmel_Microchip\SAMD21_BSP\SAMD21_BSP\Release\libSAMD21_BSP.a(hal_usb_device.o)
                0x00001a54                usb_d_ep_enable
 .text.usb_d_ep_transfer
                0x00001a94       0xf8 C:\Salukat\Purificador\SoftwareDevelopment\Atmel_Microchip\SAMD21_BSP\SAMD21_BSP\Release\libSAMD21_BSP.a(hal_usb_device.o)
                0x00001a94                usb_d_ep_transfer
 .text.usb_d_ep_halt
                0x00001b8c       0x60 C:\Salukat\Purificador\SoftwareDevelopment\Atmel_Microchip\SAMD21_BSP\SAMD21_BSP\Release\libSAMD21_BSP.a(hal_usb_device.o)
                0x00001b8c                usb_d_ep_halt
 .text.usb_d_ep_register_callback
                0x00001bec       0x4c C:\Salukat\Purificador\SoftwareDevelopment\Atmel_Microchip\SAMD21_BSP\SAMD21_BSP\Release\libSAMD21_BSP.a(hal_usb_device.o)
                0x00001bec                usb_d_ep_register_callback
 .text.list_insert_as_head
                0x00001c38        0x8 C:\Salukat\Purificador\SoftwareDevelopment\Atmel_Microchip\SAMD21_BSP\SAMD21_BSP\Release\libSAMD21_BSP.a(utils_list.o)
                0x00001c38                list_insert_as_head
 .text.list_insert_after
                0x00001c40        0x8 C:\Salukat\Purificador\SoftwareDevelopment\Atmel_Microchip\SAMD21_BSP\SAMD21_BSP\Release\libSAMD21_BSP.a(utils_list.o)
                0x00001c40                list_insert_after
 .text.list_insert_at_end
                0x00001c48       0x1a C:\Salukat\Purificador\SoftwareDevelopment\Atmel_Microchip\SAMD21_BSP\SAMD21_BSP\Release\libSAMD21_BSP.a(utils_list.o)
                0x00001c48                list_insert_at_end
 .text.list_remove_head
                0x00001c62        0xe C:\Salukat\Purificador\SoftwareDevelopment\Atmel_Microchip\SAMD21_BSP\SAMD21_BSP\Release\libSAMD21_BSP.a(utils_list.o)
                0x00001c62                list_remove_head
 .text.ringbuffer_init
                0x00001c70       0x18 C:\Salukat\Purificador\SoftwareDevelopment\Atmel_Microchip\SAMD21_BSP\SAMD21_BSP\Release\libSAMD21_BSP.a(utils_ringbuffer.o)
                0x00001c70                ringbuffer_init
 .text.ringbuffer_get
                0x00001c88       0x22 C:\Salukat\Purificador\SoftwareDevelopment\Atmel_Microchip\SAMD21_BSP\SAMD21_BSP\Release\libSAMD21_BSP.a(utils_ringbuffer.o)
                0x00001c88                ringbuffer_get
 .text.ringbuffer_put
                0x00001caa       0x22 C:\Salukat\Purificador\SoftwareDevelopment\Atmel_Microchip\SAMD21_BSP\SAMD21_BSP\Release\libSAMD21_BSP.a(utils_ringbuffer.o)
                0x00001caa                ringbuffer_put
 .text.ringbuffer_num
                0x00001ccc        0x8 C:\Salukat\Purificador\SoftwareDevelopment\Atmel_Microchip\SAMD21_BSP\SAMD21_BSP\Release\libSAMD21_BSP.a(utils_ringbuffer.o)
                0x00001ccc                ringbuffer_num
 .text._get_cycles_for_ms
                0x00001cd4        0xc C:\Salukat\Purificador\SoftwareDevelopment\Atmel_Microchip\SAMD21_BSP\SAMD21_BSP\Release\libSAMD21_BSP.a(hpl_core_m0plus_base.o)
                0x00001cd4                _get_cycles_for_ms
 .text._init_chip
                0x00001ce0       0x30 C:\Salukat\Purificador\SoftwareDevelopment\Atmel_Microchip\SAMD21_BSP\SAMD21_BSP\Release\libSAMD21_BSP.a(hpl_init.o)
                0x00001ce0                _init_chip
 .text.hri_dac_wait_for_sync
                0x00001d10        0x8 C:\Salukat\Purificador\SoftwareDevelopment\Atmel_Microchip\SAMD21_BSP\SAMD21_BSP\Release\libSAMD21_BSP.a(hpl_dac.o)
 .text._dac_init
                0x00001d18       0x40 C:\Salukat\Purificador\SoftwareDevelopment\Atmel_Microchip\SAMD21_BSP\SAMD21_BSP\Release\libSAMD21_BSP.a(hpl_dac.o)
 .text._dac_sync_init
                0x00001d58       0x10 C:\Salukat\Purificador\SoftwareDevelopment\Atmel_Microchip\SAMD21_BSP\SAMD21_BSP\Release\libSAMD21_BSP.a(hpl_dac.o)
                0x00001d58                _dac_sync_init
 .text.hri_eic_wait_for_sync.constprop.3
                0x00001d68       0x10 C:\Salukat\Purificador\SoftwareDevelopment\Atmel_Microchip\SAMD21_BSP\SAMD21_BSP\Release\libSAMD21_BSP.a(hpl_eic.o)
 .text._ext_irq_init
                0x00001d78       0x6c C:\Salukat\Purificador\SoftwareDevelopment\Atmel_Microchip\SAMD21_BSP\SAMD21_BSP\Release\libSAMD21_BSP.a(hpl_eic.o)
                0x00001d78                _ext_irq_init
 .text.EIC_Handler
                0x00001de4       0x8c C:\Salukat\Purificador\SoftwareDevelopment\Atmel_Microchip\SAMD21_BSP\SAMD21_BSP\Release\libSAMD21_BSP.a(hpl_eic.o)
                0x00001de4                EIC_Handler
 .text.hri_gclk_wait_for_sync.constprop.0
                0x00001e70       0x10 C:\Salukat\Purificador\SoftwareDevelopment\Atmel_Microchip\SAMD21_BSP\SAMD21_BSP\Release\libSAMD21_BSP.a(hpl_gclk.o)
 .text._gclk_init_generators_by_fref
                0x00001e80       0xc0 C:\Salukat\Purificador\SoftwareDevelopment\Atmel_Microchip\SAMD21_BSP\SAMD21_BSP\Release\libSAMD21_BSP.a(hpl_gclk.o)
                0x00001e80                _gclk_init_generators_by_fref
 .text._pm_init
                0x00001f40       0x20 C:\Salukat\Purificador\SoftwareDevelopment\Atmel_Microchip\SAMD21_BSP\SAMD21_BSP\Release\libSAMD21_BSP.a(hpl_pm.o)
                0x00001f40                _pm_init
 .text.__NVIC_EnableIRQ
                0x00001f60       0x18 C:\Salukat\Purificador\SoftwareDevelopment\Atmel_Microchip\SAMD21_BSP\SAMD21_BSP\Release\libSAMD21_BSP.a(hpl_sercom.o)
 .text.__NVIC_DisableIRQ
                0x00001f78       0x20 C:\Salukat\Purificador\SoftwareDevelopment\Atmel_Microchip\SAMD21_BSP\SAMD21_BSP\Release\libSAMD21_BSP.a(hpl_sercom.o)
 .text.__NVIC_ClearPendingIRQ
                0x00001f98       0x1c C:\Salukat\Purificador\SoftwareDevelopment\Atmel_Microchip\SAMD21_BSP\SAMD21_BSP\Release\libSAMD21_BSP.a(hpl_sercom.o)
 .text.hri_sercomspi_wait_for_sync
                0x00001fb4        0x8 C:\Salukat\Purificador\SoftwareDevelopment\Atmel_Microchip\SAMD21_BSP\SAMD21_BSP\Release\libSAMD21_BSP.a(hpl_sercom.o)
 .text.hri_sercomusart_wait_for_sync
                0x00001fbc        0x8 C:\Salukat\Purificador\SoftwareDevelopment\Atmel_Microchip\SAMD21_BSP\SAMD21_BSP\Release\libSAMD21_BSP.a(hpl_sercom.o)
 .text.hri_sercomusart_clear_CTRLA_ENABLE_bit
                0x00001fc4       0x18 C:\Salukat\Purificador\SoftwareDevelopment\Atmel_Microchip\SAMD21_BSP\SAMD21_BSP\Release\libSAMD21_BSP.a(hpl_sercom.o)
 .text._spi_sync_enable
                0x00001fdc       0x28 C:\Salukat\Purificador\SoftwareDevelopment\Atmel_Microchip\SAMD21_BSP\SAMD21_BSP\Release\libSAMD21_BSP.a(hpl_sercom.o)
 .text._usart_init
                0x00002004       0x68 C:\Salukat\Purificador\SoftwareDevelopment\Atmel_Microchip\SAMD21_BSP\SAMD21_BSP\Release\libSAMD21_BSP.a(hpl_sercom.o)
 .text._usart_async_init
                0x0000206c       0x58 C:\Salukat\Purificador\SoftwareDevelopment\Atmel_Microchip\SAMD21_BSP\SAMD21_BSP\Release\libSAMD21_BSP.a(hpl_sercom.o)
                0x0000206c                _usart_async_init
 .text._usart_async_write_byte
                0x000020c4        0x8 C:\Salukat\Purificador\SoftwareDevelopment\Atmel_Microchip\SAMD21_BSP\SAMD21_BSP\Release\libSAMD21_BSP.a(hpl_sercom.o)
                0x000020c4                _usart_async_write_byte
 .text._usart_async_enable_byte_sent_irq
                0x000020cc        0x8 C:\Salukat\Purificador\SoftwareDevelopment\Atmel_Microchip\SAMD21_BSP\SAMD21_BSP\Release\libSAMD21_BSP.a(hpl_sercom.o)
                0x000020cc                _usart_async_enable_byte_sent_irq
 .text._usart_async_enable_tx_done_irq
                0x000020d4        0x8 C:\Salukat\Purificador\SoftwareDevelopment\Atmel_Microchip\SAMD21_BSP\SAMD21_BSP\Release\libSAMD21_BSP.a(hpl_sercom.o)
                0x000020d4                _usart_async_enable_tx_done_irq
 .text.SERCOM3_Handler
                0x000020dc       0x6c C:\Salukat\Purificador\SoftwareDevelopment\Atmel_Microchip\SAMD21_BSP\SAMD21_BSP\Release\libSAMD21_BSP.a(hpl_sercom.o)
                0x000020dc                SERCOM3_Handler
 .text._spi_m_sync_init
                0x00002148       0xcc C:\Salukat\Purificador\SoftwareDevelopment\Atmel_Microchip\SAMD21_BSP\SAMD21_BSP\Release\libSAMD21_BSP.a(hpl_sercom.o)
                0x00002148                _spi_m_sync_init
 .text._spi_s_sync_enable
                0x00002214       0x10 C:\Salukat\Purificador\SoftwareDevelopment\Atmel_Microchip\SAMD21_BSP\SAMD21_BSP\Release\libSAMD21_BSP.a(hpl_sercom.o)
                0x00002214                _spi_s_sync_enable
 .text._spi_m_sync_enable
                0x00002224        0xc C:\Salukat\Purificador\SoftwareDevelopment\Atmel_Microchip\SAMD21_BSP\SAMD21_BSP\Release\libSAMD21_BSP.a(hpl_sercom.o)
                0x00002224                _spi_m_sync_enable
 .text._spi_m_sync_trans
                0x00002230       0xc0 C:\Salukat\Purificador\SoftwareDevelopment\Atmel_Microchip\SAMD21_BSP\SAMD21_BSP\Release\libSAMD21_BSP.a(hpl_sercom.o)
                0x00002230                _spi_m_sync_trans
 .text._sysctrl_init_sources
                0x000022f0       0x50 C:\Salukat\Purificador\SoftwareDevelopment\Atmel_Microchip\SAMD21_BSP\SAMD21_BSP\Release\libSAMD21_BSP.a(hpl_sysctrl.o)
                0x000022f0                _sysctrl_init_sources
 .text._sysctrl_init_referenced_generators
                0x00002340       0x9c C:\Salukat\Purificador\SoftwareDevelopment\Atmel_Microchip\SAMD21_BSP\SAMD21_BSP\Release\libSAMD21_BSP.a(hpl_sysctrl.o)
                0x00002340                _sysctrl_init_referenced_generators
 .text._delay_init
                0x000023dc       0x14 C:\Salukat\Purificador\SoftwareDevelopment\Atmel_Microchip\SAMD21_BSP\SAMD21_BSP\Release\libSAMD21_BSP.a(hpl_systick.o)
                0x000023dc                _delay_init
 .text._delay_cycles
                0x000023f0       0x40 C:\Salukat\Purificador\SoftwareDevelopment\Atmel_Microchip\SAMD21_BSP\SAMD21_BSP\Release\libSAMD21_BSP.a(hpl_systick.o)
                0x000023f0                _delay_cycles
 .text.tc_interrupt_handler
                0x00002430       0x14 C:\Salukat\Purificador\SoftwareDevelopment\Atmel_Microchip\SAMD21_BSP\SAMD21_BSP\Release\libSAMD21_BSP.a(hpl_tc.o)
 .text._timer_init
                0x00002444       0xec C:\Salukat\Purificador\SoftwareDevelopment\Atmel_Microchip\SAMD21_BSP\SAMD21_BSP\Release\libSAMD21_BSP.a(hpl_tc.o)
                0x00002444                _timer_init
 .text._tc_get_timer
                0x00002530        0x4 C:\Salukat\Purificador\SoftwareDevelopment\Atmel_Microchip\SAMD21_BSP\SAMD21_BSP\Release\libSAMD21_BSP.a(hpl_tc.o)
                0x00002530                _tc_get_timer
 .text.TC3_Handler
                0x00002534       0x14 C:\Salukat\Purificador\SoftwareDevelopment\Atmel_Microchip\SAMD21_BSP\SAMD21_BSP\Release\libSAMD21_BSP.a(hpl_tc.o)
                0x00002534                TC3_Handler
 .text.TC4_Handler
                0x00002548       0x14 C:\Salukat\Purificador\SoftwareDevelopment\Atmel_Microchip\SAMD21_BSP\SAMD21_BSP\Release\libSAMD21_BSP.a(hpl_tc.o)
                0x00002548                TC4_Handler
 .text._dummy_func_no_return
                0x0000255c        0x4 C:\Salukat\Purificador\SoftwareDevelopment\Atmel_Microchip\SAMD21_BSP\SAMD21_BSP\Release\libSAMD21_BSP.a(hpl_usb.o)
 .text._usb_d_dev_wait_dfll_rdy
                0x00002560       0x24 C:\Salukat\Purificador\SoftwareDevelopment\Atmel_Microchip\SAMD21_BSP\SAMD21_BSP\Release\libSAMD21_BSP.a(hpl_usb.o)
 .text._usb_d_dev_ept
                0x00002584       0x1c C:\Salukat\Purificador\SoftwareDevelopment\Atmel_Microchip\SAMD21_BSP\SAMD21_BSP\Release\libSAMD21_BSP.a(hpl_usb.o)
 .text._usb_d_dev_handle_setup
                0x000025a0       0x7c C:\Salukat\Purificador\SoftwareDevelopment\Atmel_Microchip\SAMD21_BSP\SAMD21_BSP\Release\libSAMD21_BSP.a(hpl_usb.o)
 .text._usb_d_dev_handle_stall
                0x0000261c       0x2c C:\Salukat\Purificador\SoftwareDevelopment\Atmel_Microchip\SAMD21_BSP\SAMD21_BSP\Release\libSAMD21_BSP.a(hpl_usb.o)
 .text._usb_d_dev_trans_done
                0x00002648       0x24 C:\Salukat\Purificador\SoftwareDevelopment\Atmel_Microchip\SAMD21_BSP\SAMD21_BSP\Release\libSAMD21_BSP.a(hpl_usb.o)
 .text._usb_d_dev_trans_stop
                0x0000266c       0x60 C:\Salukat\Purificador\SoftwareDevelopment\Atmel_Microchip\SAMD21_BSP\SAMD21_BSP\Release\libSAMD21_BSP.a(hpl_usb.o)
 .text._usb_d_dev_handle_trfail
                0x000026cc       0xe4 C:\Salukat\Purificador\SoftwareDevelopment\Atmel_Microchip\SAMD21_BSP\SAMD21_BSP\Release\libSAMD21_BSP.a(hpl_usb.o)
 .text._usb_d_dev_reset_epts
                0x000027b0       0x3c C:\Salukat\Purificador\SoftwareDevelopment\Atmel_Microchip\SAMD21_BSP\SAMD21_BSP\Release\libSAMD21_BSP.a(hpl_usb.o)
 .text._usb_d_dev_in_next
                0x000027ec      0x170 C:\Salukat\Purificador\SoftwareDevelopment\Atmel_Microchip\SAMD21_BSP\SAMD21_BSP\Release\libSAMD21_BSP.a(hpl_usb.o)
 .text._usb_d_dev_out_next
                0x0000295c      0x1d4 C:\Salukat\Purificador\SoftwareDevelopment\Atmel_Microchip\SAMD21_BSP\SAMD21_BSP\Release\libSAMD21_BSP.a(hpl_usb.o)
 .text._usbd_ep_pcksize_size
                0x00002b30       0x38 C:\Salukat\Purificador\SoftwareDevelopment\Atmel_Microchip\SAMD21_BSP\SAMD21_BSP\Release\libSAMD21_BSP.a(hpl_usb.o)
 .text._usb_d_dev_init
                0x00002b68       0xc4 C:\Salukat\Purificador\SoftwareDevelopment\Atmel_Microchip\SAMD21_BSP\SAMD21_BSP\Release\libSAMD21_BSP.a(hpl_usb.o)
                0x00002b68                _usb_d_dev_init
 .text._usb_d_dev_enable
                0x00002c2c       0x48 C:\Salukat\Purificador\SoftwareDevelopment\Atmel_Microchip\SAMD21_BSP\SAMD21_BSP\Release\libSAMD21_BSP.a(hpl_usb.o)
                0x00002c2c                _usb_d_dev_enable
 .text._usb_d_dev_attach
                0x00002c74       0x10 C:\Salukat\Purificador\SoftwareDevelopment\Atmel_Microchip\SAMD21_BSP\SAMD21_BSP\Release\libSAMD21_BSP.a(hpl_usb.o)
                0x00002c74                _usb_d_dev_attach
 .text._usb_d_dev_set_address
                0x00002c84       0x10 C:\Salukat\Purificador\SoftwareDevelopment\Atmel_Microchip\SAMD21_BSP\SAMD21_BSP\Release\libSAMD21_BSP.a(hpl_usb.o)
                0x00002c84                _usb_d_dev_set_address
 .text._usb_d_dev_ep_init
                0x00002c94       0xc8 C:\Salukat\Purificador\SoftwareDevelopment\Atmel_Microchip\SAMD21_BSP\SAMD21_BSP\Release\libSAMD21_BSP.a(hpl_usb.o)
                0x00002c94                _usb_d_dev_ep_init
 .text._usb_d_dev_ep_deinit
                0x00002d5c       0x7c C:\Salukat\Purificador\SoftwareDevelopment\Atmel_Microchip\SAMD21_BSP\SAMD21_BSP\Release\libSAMD21_BSP.a(hpl_usb.o)
                0x00002d5c                _usb_d_dev_ep_deinit
 .text._usb_d_dev_ep_enable
                0x00002dd8      0x13c C:\Salukat\Purificador\SoftwareDevelopment\Atmel_Microchip\SAMD21_BSP\SAMD21_BSP\Release\libSAMD21_BSP.a(hpl_usb.o)
                0x00002dd8                _usb_d_dev_ep_enable
 .text._usb_d_dev_ep_stall
                0x00002f14       0xd0 C:\Salukat\Purificador\SoftwareDevelopment\Atmel_Microchip\SAMD21_BSP\SAMD21_BSP\Release\libSAMD21_BSP.a(hpl_usb.o)
                0x00002f14                _usb_d_dev_ep_stall
 .text._usb_d_dev_ep_read_req
                0x00002fe4       0x58 C:\Salukat\Purificador\SoftwareDevelopment\Atmel_Microchip\SAMD21_BSP\SAMD21_BSP\Release\libSAMD21_BSP.a(hpl_usb.o)
                0x00002fe4                _usb_d_dev_ep_read_req
 .text._usb_d_dev_ep_trans
                0x0000303c      0x118 C:\Salukat\Purificador\SoftwareDevelopment\Atmel_Microchip\SAMD21_BSP\SAMD21_BSP\Release\libSAMD21_BSP.a(hpl_usb.o)
                0x0000303c                _usb_d_dev_ep_trans
 .text._usb_d_dev_register_callback
                0x00003154       0x24 C:\Salukat\Purificador\SoftwareDevelopment\Atmel_Microchip\SAMD21_BSP\SAMD21_BSP\Release\libSAMD21_BSP.a(hpl_usb.o)
                0x00003154                _usb_d_dev_register_callback
 .text._usb_d_dev_register_ep_callback
                0x00003178       0x2c C:\Salukat\Purificador\SoftwareDevelopment\Atmel_Microchip\SAMD21_BSP\SAMD21_BSP\Release\libSAMD21_BSP.a(hpl_usb.o)
                0x00003178                _usb_d_dev_register_ep_callback
 .text.USB_Handler
                0x000031a4      0x1d0 C:\Salukat\Purificador\SoftwareDevelopment\Atmel_Microchip\SAMD21_BSP\SAMD21_BSP\Release\libSAMD21_BSP.a(hpl_usb.o)
                0x000031a4                USB_Handler
 .text.cdc_device_acm_init
                0x00003374       0x34 C:\Salukat\Purificador\SoftwareDevelopment\Atmel_Microchip\SAMD21_BSP\SAMD21_BSP\Release\libSAMD21_BSP.a(usb_start.o)
                0x00003374                cdc_device_acm_init
 .text.usb_init
                0x000033a8        0xc C:\Salukat\Purificador\SoftwareDevelopment\Atmel_Microchip\SAMD21_BSP\SAMD21_BSP\Release\libSAMD21_BSP.a(usb_start.o)
                0x000033a8                usb_init
 .text.cdcdf_acm_req
                0x000033b4       0xdc C:\Salukat\Purificador\SoftwareDevelopment\Atmel_Microchip\SAMD21_BSP\SAMD21_BSP\Release\libSAMD21_BSP.a(cdcdf_acm.o)
 .text.cdcdf_acm_ctrl
                0x00003490      0x124 C:\Salukat\Purificador\SoftwareDevelopment\Atmel_Microchip\SAMD21_BSP\SAMD21_BSP\Release\libSAMD21_BSP.a(cdcdf_acm.o)
 .text.cdcdf_acm_init
                0x000035b4       0x44 C:\Salukat\Purificador\SoftwareDevelopment\Atmel_Microchip\SAMD21_BSP\SAMD21_BSP\Release\libSAMD21_BSP.a(cdcdf_acm.o)
                0x000035b4                cdcdf_acm_init
 .text.usbdc_unconfig
                0x000035f8       0x20 C:\Salukat\Purificador\SoftwareDevelopment\Atmel_Microchip\SAMD21_BSP\SAMD21_BSP\Release\libSAMD21_BSP.a(usbdc.o)
 .text.usbdc_change_notify
                0x00003618       0x24 C:\Salukat\Purificador\SoftwareDevelopment\Atmel_Microchip\SAMD21_BSP\SAMD21_BSP\Release\libSAMD21_BSP.a(usbdc.o)
 .text.usbdc_request_handler
                0x0000363c       0x3c C:\Salukat\Purificador\SoftwareDevelopment\Atmel_Microchip\SAMD21_BSP\SAMD21_BSP\Release\libSAMD21_BSP.a(usbdc.o)
 .text.usbd_sof_cb
                0x00003678       0x1c C:\Salukat\Purificador\SoftwareDevelopment\Atmel_Microchip\SAMD21_BSP\SAMD21_BSP\Release\libSAMD21_BSP.a(usbdc.o)
 .text.usbdc_cb_ctl_done
                0x00003694       0x70 C:\Salukat\Purificador\SoftwareDevelopment\Atmel_Microchip\SAMD21_BSP\SAMD21_BSP\Release\libSAMD21_BSP.a(usbdc.o)
 .text.usbdc_reset
                0x00003704       0x58 C:\Salukat\Purificador\SoftwareDevelopment\Atmel_Microchip\SAMD21_BSP\SAMD21_BSP\Release\libSAMD21_BSP.a(usbdc.o)
                0x00003704                usbdc_reset
 .text.usbd_event_cb
                0x0000375c       0x20 C:\Salukat\Purificador\SoftwareDevelopment\Atmel_Microchip\SAMD21_BSP\SAMD21_BSP\Release\libSAMD21_BSP.a(usbdc.o)
 .text.usbdc_xfer
                0x0000377c       0x1c C:\Salukat\Purificador\SoftwareDevelopment\Atmel_Microchip\SAMD21_BSP\SAMD21_BSP\Release\libSAMD21_BSP.a(usbdc.o)
                0x0000377c                usbdc_xfer
 .text.usbdc_cb_ctl_req
                0x00003798      0x31c C:\Salukat\Purificador\SoftwareDevelopment\Atmel_Microchip\SAMD21_BSP\SAMD21_BSP\Release\libSAMD21_BSP.a(usbdc.o)
 .text.usbdc_register_handler
                0x00003ab4       0x30 C:\Salukat\Purificador\SoftwareDevelopment\Atmel_Microchip\SAMD21_BSP\SAMD21_BSP\Release\libSAMD21_BSP.a(usbdc.o)
                0x00003ab4                usbdc_register_handler
 .text.usbdc_init
                0x00003ae4       0x44 C:\Salukat\Purificador\SoftwareDevelopment\Atmel_Microchip\SAMD21_BSP\SAMD21_BSP\Release\libSAMD21_BSP.a(usbdc.o)
                0x00003ae4                usbdc_init
 .text.usbdc_register_function
                0x00003b28       0x18 C:\Salukat\Purificador\SoftwareDevelopment\Atmel_Microchip\SAMD21_BSP\SAMD21_BSP\Release\libSAMD21_BSP.a(usbdc.o)
                0x00003b28                usbdc_register_function
 .text.usbdc_start
                0x00003b40       0x34 C:\Salukat\Purificador\SoftwareDevelopment\Atmel_Microchip\SAMD21_BSP\SAMD21_BSP\Release\libSAMD21_BSP.a(usbdc.o)
                0x00003b40                usbdc_start
 .text.usbdc_attach
                0x00003b74        0xc C:\Salukat\Purificador\SoftwareDevelopment\Atmel_Microchip\SAMD21_BSP\SAMD21_BSP\Release\libSAMD21_BSP.a(usbdc.o)
                0x00003b74                usbdc_attach
 .text.usbdc_get_ctrl_buffer
                0x00003b80        0xc C:\Salukat\Purificador\SoftwareDevelopment\Atmel_Microchip\SAMD21_BSP\SAMD21_BSP\Release\libSAMD21_BSP.a(usbdc.o)
                0x00003b80                usbdc_get_ctrl_buffer
 .text.usbdc_get_state
                0x00003b8c       0x14 C:\Salukat\Purificador\SoftwareDevelopment\Atmel_Microchip\SAMD21_BSP\SAMD21_BSP\Release\libSAMD21_BSP.a(usbdc.o)
                0x00003b8c                usbdc_get_state
 .text.usb_find_desc
                0x00003ba0       0x1a C:\Salukat\Purificador\SoftwareDevelopment\Atmel_Microchip\SAMD21_BSP\SAMD21_BSP\Release\libSAMD21_BSP.a(usb_protocol.o)
                0x00003ba0                usb_find_desc
 .text.usb_find_ep_desc
                0x00003bba       0x1c C:\Salukat\Purificador\SoftwareDevelopment\Atmel_Microchip\SAMD21_BSP\SAMD21_BSP\Release\libSAMD21_BSP.a(usb_protocol.o)
                0x00003bba                usb_find_ep_desc
 *fill*         0x00003bd6        0x2 
 .text.usb_find_cfg_desc
                0x00003bd8       0x3c C:\Salukat\Purificador\SoftwareDevelopment\Atmel_Microchip\SAMD21_BSP\SAMD21_BSP\Release\libSAMD21_BSP.a(usb_protocol.o)
                0x00003bd8                usb_find_cfg_desc
 .text.usb_find_str_desc
                0x00003c14       0x30 C:\Salukat\Purificador\SoftwareDevelopment\Atmel_Microchip\SAMD21_BSP\SAMD21_BSP\Release\libSAMD21_BSP.a(usb_protocol.o)
                0x00003c14                usb_find_str_desc
 .text.__aeabi_atexit
                0x00003c44       0x10 c:/program files (x86)/atmel/studio/7.0/toolchain/arm/arm-gnu-toolchain/bin/../lib/gcc/arm-none-eabi/6.3.1/../../../../arm-none-eabi/lib/thumb/v6-m\libstdc++.a(atexit_arm.o)
                0x00003c44                __aeabi_atexit
 .text.floor    0x00003c54      0x130 c:/program files (x86)/atmel/studio/7.0/toolchain/arm/arm-gnu-toolchain/bin/../lib/gcc/arm-none-eabi/6.3.1/../../../../arm-none-eabi/lib/thumb/v6-m\libm.a(lib_a-s_floor.o)
                0x00003c54                floor
 .text.log      0x00003d84      0x110 c:/program files (x86)/atmel/studio/7.0/toolchain/arm/arm-gnu-toolchain/bin/../lib/gcc/arm-none-eabi/6.3.1/../../../../arm-none-eabi/lib/thumb/v6-m\libm.a(lib_a-w_log.o)
                0x00003d84                log
 .text.pow      0x00003e94      0x358 c:/program files (x86)/atmel/studio/7.0/toolchain/arm/arm-gnu-toolchain/bin/../lib/gcc/arm-none-eabi/6.3.1/../../../../arm-none-eabi/lib/thumb/v6-m\libm.a(lib_a-w_pow.o)
                0x00003e94                pow
 .text.__ieee754_log
                0x000041ec      0x404 c:/program files (x86)/atmel/studio/7.0/toolchain/arm/arm-gnu-toolchain/bin/../lib/gcc/arm-none-eabi/6.3.1/../../../../arm-none-eabi/lib/thumb/v6-m\libm.a(lib_a-e_log.o)
                0x000041ec                __ieee754_log
 .text.__ieee754_pow
                0x000045f0      0xa6c c:/program files (x86)/atmel/studio/7.0/toolchain/arm/arm-gnu-toolchain/bin/../lib/gcc/arm-none-eabi/6.3.1/../../../../arm-none-eabi/lib/thumb/v6-m\libm.a(lib_a-e_pow.o)
                0x000045f0                __ieee754_pow
 .text.__ieee754_sqrt
                0x0000505c      0x1c0 c:/program files (x86)/atmel/studio/7.0/toolchain/arm/arm-gnu-toolchain/bin/../lib/gcc/arm-none-eabi/6.3.1/../../../../arm-none-eabi/lib/thumb/v6-m\libm.a(lib_a-e_sqrt.o)
                0x0000505c                __ieee754_sqrt
 .text.fabs     0x0000521c        0x8 c:/program files (x86)/atmel/studio/7.0/toolchain/arm/arm-gnu-toolchain/bin/../lib/gcc/arm-none-eabi/6.3.1/../../../../arm-none-eabi/lib/thumb/v6-m\libm.a(lib_a-s_fabs.o)
                0x0000521c                fabs
 .text.finite   0x00005224       0x14 c:/program files (x86)/atmel/studio/7.0/toolchain/arm/arm-gnu-toolchain/bin/../lib/gcc/arm-none-eabi/6.3.1/../../../../arm-none-eabi/lib/thumb/v6-m\libm.a(lib_a-s_finite.o)
                0x00005224                finite
 .text.matherr  0x00005238        0x4 c:/program files (x86)/atmel/studio/7.0/toolchain/arm/arm-gnu-toolchain/bin/../lib/gcc/arm-none-eabi/6.3.1/../../../../arm-none-eabi/lib/thumb/v6-m\libm.a(lib_a-s_matherr.o)
                0x00005238                matherr
 .text.nan      0x0000523c        0xc c:/program files (x86)/atmel/studio/7.0/toolchain/arm/arm-gnu-toolchain/bin/../lib/gcc/arm-none-eabi/6.3.1/../../../../arm-none-eabi/lib/thumb/v6-m\libm.a(lib_a-s_nan.o)
                0x0000523c                nan
 .text.rint     0x00005248      0x144 c:/program files (x86)/atmel/studio/7.0/toolchain/arm/arm-gnu-toolchain/bin/../lib/gcc/arm-none-eabi/6.3.1/../../../../arm-none-eabi/lib/thumb/v6-m\libm.a(lib_a-s_rint.o)
                0x00005248                rint
 .text.scalbn   0x0000538c       0xd0 c:/program files (x86)/atmel/studio/7.0/toolchain/arm/arm-gnu-toolchain/bin/../lib/gcc/arm-none-eabi/6.3.1/../../../../arm-none-eabi/lib/thumb/v6-m\libm.a(lib_a-s_scalbn.o)
                0x0000538c                scalbn
 .text.copysign
                0x0000545c       0x10 c:/program files (x86)/atmel/studio/7.0/toolchain/arm/arm-gnu-toolchain/bin/../lib/gcc/arm-none-eabi/6.3.1/../../../../arm-none-eabi/lib/thumb/v6-m\libm.a(lib_a-s_copysign.o)
                0x0000545c                copysign
 .text          0x0000546c       0x14 c:/program files (x86)/atmel/studio/7.0/toolchain/arm/arm-gnu-toolchain/bin/../lib/gcc/arm-none-eabi/6.3.1/thumb/v6-m\libgcc.a(_thumb1_case_sqi.o)
                0x0000546c                __gnu_thumb1_case_sqi
 .text          0x00005480       0x14 c:/program files (x86)/atmel/studio/7.0/toolchain/arm/arm-gnu-toolchain/bin/../lib/gcc/arm-none-eabi/6.3.1/thumb/v6-m\libgcc.a(_thumb1_case_shi.o)
                0x00005480                __gnu_thumb1_case_shi
 .text          0x00005494      0x114 c:/program files (x86)/atmel/studio/7.0/toolchain/arm/arm-gnu-toolchain/bin/../lib/gcc/arm-none-eabi/6.3.1/thumb/v6-m\libgcc.a(_udivsi3.o)
                0x00005494                __aeabi_uidiv
                0x00005494                __udivsi3
                0x000055a0                __aeabi_uidivmod
 .text          0x000055a8      0x1d4 c:/program files (x86)/atmel/studio/7.0/toolchain/arm/arm-gnu-toolchain/bin/../lib/gcc/arm-none-eabi/6.3.1/thumb/v6-m\libgcc.a(_divsi3.o)
                0x000055a8                __divsi3
                0x000055a8                __aeabi_idiv
                0x00005774                __aeabi_idivmod
 .text          0x0000577c        0x4 c:/program files (x86)/atmel/studio/7.0/toolchain/arm/arm-gnu-toolchain/bin/../lib/gcc/arm-none-eabi/6.3.1/thumb/v6-m\libgcc.a(_dvmd_tls.o)
                0x0000577c                __aeabi_idiv0
                0x0000577c                __aeabi_ldiv0
 .text          0x00005780       0x7c c:/program files (x86)/atmel/studio/7.0/toolchain/arm/arm-gnu-toolchain/bin/../lib/gcc/arm-none-eabi/6.3.1/thumb/v6-m\libgcc.a(_arm_cmpdf2.o)
                0x00005780                __aeabi_cdrcmple
                0x00005790                __aeabi_cdcmple
                0x00005790                __aeabi_cdcmpeq
                0x000057a0                __aeabi_dcmpeq
                0x000057ac                __aeabi_dcmplt
                0x000057c0                __aeabi_dcmple
                0x000057d4                __aeabi_dcmpgt
                0x000057e8                __aeabi_dcmpge
 .text          0x000057fc       0x74 c:/program files (x86)/atmel/studio/7.0/toolchain/arm/arm-gnu-toolchain/bin/../lib/gcc/arm-none-eabi/6.3.1/thumb/v6-m\libgcc.a(_arm_cmpsf2.o)
                0x000057fc                __aeabi_cfrcmple
                0x00005804                __aeabi_cfcmpeq
                0x00005804                __aeabi_cfcmple
                0x00005814                __aeabi_fcmpeq
                0x00005820                __aeabi_fcmplt
                0x00005834                __aeabi_fcmple
                0x00005848                __aeabi_fcmpgt
                0x0000585c                __aeabi_fcmpge
 .text          0x00005870       0x40 c:/program files (x86)/atmel/studio/7.0/toolchain/arm/arm-gnu-toolchain/bin/../lib/gcc/arm-none-eabi/6.3.1/thumb/v6-m\libgcc.a(_aeabi_uldivmod.o)
                0x00005870                __aeabi_uldivmod
 .text          0x000058b0       0x14 c:/program files (x86)/atmel/studio/7.0/toolchain/arm/arm-gnu-toolchain/bin/../lib/gcc/arm-none-eabi/6.3.1/thumb/v6-m\libgcc.a(_ffssi2.o)
                0x000058b0                __ffssi2
 .text          0x000058c4       0x3c c:/program files (x86)/atmel/studio/7.0/toolchain/arm/arm-gnu-toolchain/bin/../lib/gcc/arm-none-eabi/6.3.1/thumb/v6-m\libgcc.a(_fixunsdfsi.o)
                0x000058c4                __aeabi_d2uiz
                0x000058c4                __fixunsdfsi
 .text          0x00005900      0x180 c:/program files (x86)/atmel/studio/7.0/toolchain/arm/arm-gnu-toolchain/bin/../lib/gcc/arm-none-eabi/6.3.1/thumb/v6-m\libgcc.a(_udivmoddi4.o)
                0x00005900                __udivmoddi4
 .text          0x00005a80      0x324 c:/program files (x86)/atmel/studio/7.0/toolchain/arm/arm-gnu-toolchain/bin/../lib/gcc/arm-none-eabi/6.3.1/thumb/v6-m\libgcc.a(addsf3.o)
                0x00005a80                __aeabi_fadd
 .text          0x00005da4       0x4c c:/program files (x86)/atmel/studio/7.0/toolchain/arm/arm-gnu-toolchain/bin/../lib/gcc/arm-none-eabi/6.3.1/thumb/v6-m\libgcc.a(eqsf2.o)
                0x00005da4                __eqsf2
                0x00005da4                __nesf2
 .text          0x00005df0       0x80 c:/program files (x86)/atmel/studio/7.0/toolchain/arm/arm-gnu-toolchain/bin/../lib/gcc/arm-none-eabi/6.3.1/thumb/v6-m\libgcc.a(gesf2.o)
                0x00005df0                __gesf2
                0x00005df0                __gtsf2
 .text          0x00005e70       0x84 c:/program files (x86)/atmel/studio/7.0/toolchain/arm/arm-gnu-toolchain/bin/../lib/gcc/arm-none-eabi/6.3.1/thumb/v6-m\libgcc.a(lesf2.o)
                0x00005e70                __ltsf2
                0x00005e70                __lesf2
 .text          0x00005ef4      0x240 c:/program files (x86)/atmel/studio/7.0/toolchain/arm/arm-gnu-toolchain/bin/../lib/gcc/arm-none-eabi/6.3.1/thumb/v6-m\libgcc.a(mulsf3.o)
                0x00005ef4                __aeabi_fmul
 .text          0x00006134      0x338 c:/program files (x86)/atmel/studio/7.0/toolchain/arm/arm-gnu-toolchain/bin/../lib/gcc/arm-none-eabi/6.3.1/thumb/v6-m\libgcc.a(subsf3.o)
                0x00006134                __aeabi_fsub
 .text          0x0000646c       0xa0 c:/program files (x86)/atmel/studio/7.0/toolchain/arm/arm-gnu-toolchain/bin/../lib/gcc/arm-none-eabi/6.3.1/thumb/v6-m\libgcc.a(floatsisf.o)
                0x0000646c                __aeabi_i2f
 .text          0x0000650c      0x620 c:/program files (x86)/atmel/studio/7.0/toolchain/arm/arm-gnu-toolchain/bin/../lib/gcc/arm-none-eabi/6.3.1/thumb/v6-m\libgcc.a(adddf3.o)
                0x0000650c                __aeabi_dadd
 .text          0x00006b2c      0x668 c:/program files (x86)/atmel/studio/7.0/toolchain/arm/arm-gnu-toolchain/bin/../lib/gcc/arm-none-eabi/6.3.1/thumb/v6-m\libgcc.a(divdf3.o)
                0x00006b2c                __aeabi_ddiv
 .text          0x00007194       0x74 c:/program files (x86)/atmel/studio/7.0/toolchain/arm/arm-gnu-toolchain/bin/../lib/gcc/arm-none-eabi/6.3.1/thumb/v6-m\libgcc.a(eqdf2.o)
                0x00007194                __nedf2
                0x00007194                __eqdf2
 .text          0x00007208       0xc8 c:/program files (x86)/atmel/studio/7.0/toolchain/arm/arm-gnu-toolchain/bin/../lib/gcc/arm-none-eabi/6.3.1/thumb/v6-m\libgcc.a(gedf2.o)
                0x00007208                __gedf2
                0x00007208                __gtdf2
 .text          0x000072d0       0xc4 c:/program files (x86)/atmel/studio/7.0/toolchain/arm/arm-gnu-toolchain/bin/../lib/gcc/arm-none-eabi/6.3.1/thumb/v6-m\libgcc.a(ledf2.o)
                0x000072d0                __ledf2
                0x000072d0                __ltdf2
 .text          0x00007394      0x500 c:/program files (x86)/atmel/studio/7.0/toolchain/arm/arm-gnu-toolchain/bin/../lib/gcc/arm-none-eabi/6.3.1/thumb/v6-m\libgcc.a(muldf3.o)
                0x00007394                __aeabi_dmul
 .text          0x00007894      0x62c c:/program files (x86)/atmel/studio/7.0/toolchain/arm/arm-gnu-toolchain/bin/../lib/gcc/arm-none-eabi/6.3.1/thumb/v6-m\libgcc.a(subdf3.o)
                0x00007894                __aeabi_dsub
 .text          0x00007ec0       0x40 c:/program files (x86)/atmel/studio/7.0/toolchain/arm/arm-gnu-toolchain/bin/../lib/gcc/arm-none-eabi/6.3.1/thumb/v6-m\libgcc.a(unorddf2.o)
                0x00007ec0                __aeabi_dcmpun
 .text          0x00007f00       0x68 c:/program files (x86)/atmel/studio/7.0/toolchain/arm/arm-gnu-toolchain/bin/../lib/gcc/arm-none-eabi/6.3.1/thumb/v6-m\libgcc.a(fixdfsi.o)
                0x00007f00                __aeabi_d2iz
 .text          0x00007f68       0x84 c:/program files (x86)/atmel/studio/7.0/toolchain/arm/arm-gnu-toolchain/bin/../lib/gcc/arm-none-eabi/6.3.1/thumb/v6-m\libgcc.a(floatsidf.o)
                0x00007f68                __aeabi_i2d
 .text          0x00007fec       0x70 c:/program files (x86)/atmel/studio/7.0/toolchain/arm/arm-gnu-toolchain/bin/../lib/gcc/arm-none-eabi/6.3.1/thumb/v6-m\libgcc.a(floatunsidf.o)
                0x00007fec                __aeabi_ui2d
 .text          0x0000805c       0xa4 c:/program files (x86)/atmel/studio/7.0/toolchain/arm/arm-gnu-toolchain/bin/../lib/gcc/arm-none-eabi/6.3.1/thumb/v6-m\libgcc.a(extendsfdf2.o)
                0x0000805c                __aeabi_f2d
 .text          0x00008100       0x3c c:/program files (x86)/atmel/studio/7.0/toolchain/arm/arm-gnu-toolchain/bin/../lib/gcc/arm-none-eabi/6.3.1/thumb/v6-m\libgcc.a(_clzsi2.o)
                0x00008100                __clzsi2
 .text          0x0000813c       0x18 c:/program files (x86)/atmel/studio/7.0/toolchain/arm/arm-gnu-toolchain/bin/../lib/gcc/arm-none-eabi/6.3.1/thumb/v6-m\libgcc.a(_clzdi2.o)
                0x0000813c                __clzdi2
 .text          0x00008154       0x40 c:/program files (x86)/atmel/studio/7.0/toolchain/arm/arm-gnu-toolchain/bin/../lib/gcc/arm-none-eabi/6.3.1/thumb/v6-m\libgcc.a(_ctzsi2.o)
                0x00008154                __ctzsi2
 .text.__cxa_atexit
                0x00008194       0x10 c:/program files (x86)/atmel/studio/7.0/toolchain/arm/arm-gnu-toolchain/bin/../lib/gcc/arm-none-eabi/6.3.1/../../../../arm-none-eabi/lib/thumb/v6-m\libc.a(lib_a-cxa_atexit.o)
                0x00008194                __cxa_atexit
 .text.__errno  0x000081a4        0xc c:/program files (x86)/atmel/studio/7.0/toolchain/arm/arm-gnu-toolchain/bin/../lib/gcc/arm-none-eabi/6.3.1/../../../../arm-none-eabi/lib/thumb/v6-m\libc.a(lib_a-errno.o)
                0x000081a4                __errno
 .text.__libc_init_array
                0x000081b0       0x48 c:/program files (x86)/atmel/studio/7.0/toolchain/arm/arm-gnu-toolchain/bin/../lib/gcc/arm-none-eabi/6.3.1/../../../../arm-none-eabi/lib/thumb/v6-m\libc.a(lib_a-init.o)
                0x000081b0                __libc_init_array
 .text.memcpy   0x000081f8       0x84 c:/program files (x86)/atmel/studio/7.0/toolchain/arm/arm-gnu-toolchain/bin/../lib/gcc/arm-none-eabi/6.3.1/../../../../arm-none-eabi/lib/thumb/v6-m\libc.a(lib_a-memcpy-stub.o)
                0x000081f8                memcpy
 .text.memset   0x0000827c       0x94 c:/program files (x86)/atmel/studio/7.0/toolchain/arm/arm-gnu-toolchain/bin/../lib/gcc/arm-none-eabi/6.3.1/../../../../arm-none-eabi/lib/thumb/v6-m\libc.a(lib_a-memset.o)
                0x0000827c                memset
 .text.printf   0x00008310       0x24 c:/program files (x86)/atmel/studio/7.0/toolchain/arm/arm-gnu-toolchain/bin/../lib/gcc/arm-none-eabi/6.3.1/../../../../arm-none-eabi/lib/thumb/v6-m\libc.a(lib_a-printf.o)
                0x00008310                printf
 .text._puts_r  0x00008334       0xa0 c:/program files (x86)/atmel/studio/7.0/toolchain/arm/arm-gnu-toolchain/bin/../lib/gcc/arm-none-eabi/6.3.1/../../../../arm-none-eabi/lib/thumb/v6-m\libc.a(lib_a-puts.o)
                0x00008334                _puts_r
 .text.puts     0x000083d4       0x14 c:/program files (x86)/atmel/studio/7.0/toolchain/arm/arm-gnu-toolchain/bin/../lib/gcc/arm-none-eabi/6.3.1/../../../../arm-none-eabi/lib/thumb/v6-m\libc.a(lib_a-puts.o)
                0x000083d4                puts
 .text.strlen   0x000083e8       0x64 c:/program files (x86)/atmel/studio/7.0/toolchain/arm/arm-gnu-toolchain/bin/../lib/gcc/arm-none-eabi/6.3.1/../../../../arm-none-eabi/lib/thumb/v6-m\libc.a(lib_a-strlen-stub.o)
                0x000083e8                strlen
 .text._vfprintf_r
                0x0000844c     0x16d8 c:/program files (x86)/atmel/studio/7.0/toolchain/arm/arm-gnu-toolchain/bin/../lib/gcc/arm-none-eabi/6.3.1/../../../../arm-none-eabi/lib/thumb/v6-m\libc.a(lib_a-vfprintf.o)
                0x0000844c                _vfprintf_r
 .text.__sbprintf
                0x00009b24       0x88 c:/program files (x86)/atmel/studio/7.0/toolchain/arm/arm-gnu-toolchain/bin/../lib/gcc/arm-none-eabi/6.3.1/../../../../arm-none-eabi/lib/thumb/v6-m\libc.a(lib_a-vfprintf.o)
 .text.__swsetup_r
                0x00009bac       0xd4 c:/program files (x86)/atmel/studio/7.0/toolchain/arm/arm-gnu-toolchain/bin/../lib/gcc/arm-none-eabi/6.3.1/../../../../arm-none-eabi/lib/thumb/v6-m\libc.a(lib_a-wsetup.o)
                0x00009bac                __swsetup_r
 .text.__register_exitproc
                0x00009c80       0xf4 c:/program files (x86)/atmel/studio/7.0/toolchain/arm/arm-gnu-toolchain/bin/../lib/gcc/arm-none-eabi/6.3.1/../../../../arm-none-eabi/lib/thumb/v6-m\libc.a(lib_a-__atexit.o)
                0x00009c80                __register_exitproc
 .text.startup.register_fini
                0x00009d74       0x18 c:/program files (x86)/atmel/studio/7.0/toolchain/arm/arm-gnu-toolchain/bin/../lib/gcc/arm-none-eabi/6.3.1/../../../../arm-none-eabi/lib/thumb/v6-m\libc.a(lib_a-__call_atexit.o)
 .text.atexit   0x00009d8c       0x10 c:/program files (x86)/atmel/studio/7.0/toolchain/arm/arm-gnu-toolchain/bin/../lib/gcc/arm-none-eabi/6.3.1/../../../../arm-none-eabi/lib/thumb/v6-m\libc.a(lib_a-atexit.o)
                0x00009d8c                atexit
 .text.quorem   0x00009d9c      0x154 c:/program files (x86)/atmel/studio/7.0/toolchain/arm/arm-gnu-toolchain/bin/../lib/gcc/arm-none-eabi/6.3.1/../../../../arm-none-eabi/lib/thumb/v6-m\libc.a(lib_a-dtoa.o)
 .text._dtoa_r  0x00009ef0      0xf88 c:/program files (x86)/atmel/studio/7.0/toolchain/arm/arm-gnu-toolchain/bin/../lib/gcc/arm-none-eabi/6.3.1/../../../../arm-none-eabi/lib/thumb/v6-m\libc.a(lib_a-dtoa.o)
                0x00009ef0                _dtoa_r
 .text.__sflush_r
                0x0000ae78      0x150 c:/program files (x86)/atmel/studio/7.0/toolchain/arm/arm-gnu-toolchain/bin/../lib/gcc/arm-none-eabi/6.3.1/../../../../arm-none-eabi/lib/thumb/v6-m\libc.a(lib_a-fflush.o)
                0x0000ae78                __sflush_r
 .text._fflush_r
                0x0000afc8       0x54 c:/program files (x86)/atmel/studio/7.0/toolchain/arm/arm-gnu-toolchain/bin/../lib/gcc/arm-none-eabi/6.3.1/../../../../arm-none-eabi/lib/thumb/v6-m\libc.a(lib_a-fflush.o)
                0x0000afc8                _fflush_r
 .text._cleanup_r
                0x0000b01c       0x10 c:/program files (x86)/atmel/studio/7.0/toolchain/arm/arm-gnu-toolchain/bin/../lib/gcc/arm-none-eabi/6.3.1/../../../../arm-none-eabi/lib/thumb/v6-m\libc.a(lib_a-findfp.o)
                0x0000b01c                _cleanup_r
 .text.std.isra.0
                0x0000b02c       0x50 c:/program files (x86)/atmel/studio/7.0/toolchain/arm/arm-gnu-toolchain/bin/../lib/gcc/arm-none-eabi/6.3.1/../../../../arm-none-eabi/lib/thumb/v6-m\libc.a(lib_a-findfp.o)
 .text.__sinit  0x0000b07c       0x60 c:/program files (x86)/atmel/studio/7.0/toolchain/arm/arm-gnu-toolchain/bin/../lib/gcc/arm-none-eabi/6.3.1/../../../../arm-none-eabi/lib/thumb/v6-m\libc.a(lib_a-findfp.o)
                0x0000b07c                __sinit
 .text.__sfp_lock_acquire
                0x0000b0dc       0x10 c:/program files (x86)/atmel/studio/7.0/toolchain/arm/arm-gnu-toolchain/bin/../lib/gcc/arm-none-eabi/6.3.1/../../../../arm-none-eabi/lib/thumb/v6-m\libc.a(lib_a-findfp.o)
                0x0000b0dc                __sfp_lock_acquire
 .text.__sfp_lock_release
                0x0000b0ec       0x10 c:/program files (x86)/atmel/studio/7.0/toolchain/arm/arm-gnu-toolchain/bin/../lib/gcc/arm-none-eabi/6.3.1/../../../../arm-none-eabi/lib/thumb/v6-m\libc.a(lib_a-findfp.o)
                0x0000b0ec                __sfp_lock_release
 .text.__libc_fini_array
                0x0000b0fc       0x34 c:/program files (x86)/atmel/studio/7.0/toolchain/arm/arm-gnu-toolchain/bin/../lib/gcc/arm-none-eabi/6.3.1/../../../../arm-none-eabi/lib/thumb/v6-m\libc.a(lib_a-fini.o)
                0x0000b0fc                __libc_fini_array
 .text._malloc_trim_r
                0x0000b130       0xa0 c:/program files (x86)/atmel/studio/7.0/toolchain/arm/arm-gnu-toolchain/bin/../lib/gcc/arm-none-eabi/6.3.1/../../../../arm-none-eabi/lib/thumb/v6-m\libc.a(lib_a-freer.o)
                0x0000b130                _malloc_trim_r
 .text._free_r  0x0000b1d0      0x1bc c:/program files (x86)/atmel/studio/7.0/toolchain/arm/arm-gnu-toolchain/bin/../lib/gcc/arm-none-eabi/6.3.1/../../../../arm-none-eabi/lib/thumb/v6-m\libc.a(lib_a-freer.o)
                0x0000b1d0                _free_r
 .text.__sfvwrite_r
                0x0000b38c      0x304 c:/program files (x86)/atmel/studio/7.0/toolchain/arm/arm-gnu-toolchain/bin/../lib/gcc/arm-none-eabi/6.3.1/../../../../arm-none-eabi/lib/thumb/v6-m\libc.a(lib_a-fvwrite.o)
                0x0000b38c                __sfvwrite_r
 .text._fwalk_reent
                0x0000b690       0x4c c:/program files (x86)/atmel/studio/7.0/toolchain/arm/arm-gnu-toolchain/bin/../lib/gcc/arm-none-eabi/6.3.1/../../../../arm-none-eabi/lib/thumb/v6-m\libc.a(lib_a-fwalk.o)
                0x0000b690                _fwalk_reent
 .text._localeconv_r
                0x0000b6dc       0x1c c:/program files (x86)/atmel/studio/7.0/toolchain/arm/arm-gnu-toolchain/bin/../lib/gcc/arm-none-eabi/6.3.1/../../../../arm-none-eabi/lib/thumb/v6-m\libc.a(lib_a-localeconv.o)
                0x0000b6dc                _localeconv_r
 .text.__retarget_lock_init_recursive
                0x0000b6f8        0x4 c:/program files (x86)/atmel/studio/7.0/toolchain/arm/arm-gnu-toolchain/bin/../lib/gcc/arm-none-eabi/6.3.1/../../../../arm-none-eabi/lib/thumb/v6-m\libc.a(lib_a-lock.o)
                0x0000b6f8                __retarget_lock_init_recursive
 .text.__retarget_lock_close_recursive
                0x0000b6fc        0x4 c:/program files (x86)/atmel/studio/7.0/toolchain/arm/arm-gnu-toolchain/bin/../lib/gcc/arm-none-eabi/6.3.1/../../../../arm-none-eabi/lib/thumb/v6-m\libc.a(lib_a-lock.o)
                0x0000b6fc                __retarget_lock_close_recursive
 .text.__retarget_lock_acquire_recursive
                0x0000b700        0x4 c:/program files (x86)/atmel/studio/7.0/toolchain/arm/arm-gnu-toolchain/bin/../lib/gcc/arm-none-eabi/6.3.1/../../../../arm-none-eabi/lib/thumb/v6-m\libc.a(lib_a-lock.o)
                0x0000b700                __retarget_lock_acquire_recursive
 .text.__retarget_lock_release_recursive
                0x0000b704        0x4 c:/program files (x86)/atmel/studio/7.0/toolchain/arm/arm-gnu-toolchain/bin/../lib/gcc/arm-none-eabi/6.3.1/../../../../arm-none-eabi/lib/thumb/v6-m\libc.a(lib_a-lock.o)
                0x0000b704                __retarget_lock_release_recursive
 .text.__swhatbuf_r
                0x0000b708       0x60 c:/program files (x86)/atmel/studio/7.0/toolchain/arm/arm-gnu-toolchain/bin/../lib/gcc/arm-none-eabi/6.3.1/../../../../arm-none-eabi/lib/thumb/v6-m\libc.a(lib_a-makebuf.o)
                0x0000b708                __swhatbuf_r
 .text.__smakebuf_r
                0x0000b768       0x90 c:/program files (x86)/atmel/studio/7.0/toolchain/arm/arm-gnu-toolchain/bin/../lib/gcc/arm-none-eabi/6.3.1/../../../../arm-none-eabi/lib/thumb/v6-m\libc.a(lib_a-makebuf.o)
                0x0000b768                __smakebuf_r
 .text._malloc_r
                0x0000b7f8      0x568 c:/program files (x86)/atmel/studio/7.0/toolchain/arm/arm-gnu-toolchain/bin/../lib/gcc/arm-none-eabi/6.3.1/../../../../arm-none-eabi/lib/thumb/v6-m\libc.a(lib_a-mallocr.o)
                0x0000b7f8                _malloc_r
 .text.memchr   0x0000bd60       0x80 c:/program files (x86)/atmel/studio/7.0/toolchain/arm/arm-gnu-toolchain/bin/../lib/gcc/arm-none-eabi/6.3.1/../../../../arm-none-eabi/lib/thumb/v6-m\libc.a(lib_a-memchr-stub.o)
                0x0000bd60                memchr
 .text.memmove  0x0000bde0       0xa0 c:/program files (x86)/atmel/studio/7.0/toolchain/arm/arm-gnu-toolchain/bin/../lib/gcc/arm-none-eabi/6.3.1/../../../../arm-none-eabi/lib/thumb/v6-m\libc.a(lib_a-memmove.o)
                0x0000bde0                memmove
 .text.__malloc_lock
                0x0000be80       0x10 c:/program files (x86)/atmel/studio/7.0/toolchain/arm/arm-gnu-toolchain/bin/../lib/gcc/arm-none-eabi/6.3.1/../../../../arm-none-eabi/lib/thumb/v6-m\libc.a(lib_a-mlock.o)
                0x0000be80                __malloc_lock
 .text.__malloc_unlock
                0x0000be90       0x10 c:/program files (x86)/atmel/studio/7.0/toolchain/arm/arm-gnu-toolchain/bin/../lib/gcc/arm-none-eabi/6.3.1/../../../../arm-none-eabi/lib/thumb/v6-m\libc.a(lib_a-mlock.o)
                0x0000be90                __malloc_unlock
 .text._Balloc  0x0000bea0       0x50 c:/program files (x86)/atmel/studio/7.0/toolchain/arm/arm-gnu-toolchain/bin/../lib/gcc/arm-none-eabi/6.3.1/../../../../arm-none-eabi/lib/thumb/v6-m\libc.a(lib_a-mprec.o)
                0x0000bea0                _Balloc
 .text._Bfree   0x0000bef0       0x14 c:/program files (x86)/atmel/studio/7.0/toolchain/arm/arm-gnu-toolchain/bin/../lib/gcc/arm-none-eabi/6.3.1/../../../../arm-none-eabi/lib/thumb/v6-m\libc.a(lib_a-mprec.o)
                0x0000bef0                _Bfree
 .text.__multadd
                0x0000bf04       0x8c c:/program files (x86)/atmel/studio/7.0/toolchain/arm/arm-gnu-toolchain/bin/../lib/gcc/arm-none-eabi/6.3.1/../../../../arm-none-eabi/lib/thumb/v6-m\libc.a(lib_a-mprec.o)
                0x0000bf04                __multadd
 .text.__hi0bits
                0x0000bf90       0x34 c:/program files (x86)/atmel/studio/7.0/toolchain/arm/arm-gnu-toolchain/bin/../lib/gcc/arm-none-eabi/6.3.1/../../../../arm-none-eabi/lib/thumb/v6-m\libc.a(lib_a-mprec.o)
                0x0000bf90                __hi0bits
 .text.__lo0bits
                0x0000bfc4       0x5c c:/program files (x86)/atmel/studio/7.0/toolchain/arm/arm-gnu-toolchain/bin/../lib/gcc/arm-none-eabi/6.3.1/../../../../arm-none-eabi/lib/thumb/v6-m\libc.a(lib_a-mprec.o)
                0x0000bfc4                __lo0bits
 .text.__i2b    0x0000c020       0x14 c:/program files (x86)/atmel/studio/7.0/toolchain/arm/arm-gnu-toolchain/bin/../lib/gcc/arm-none-eabi/6.3.1/../../../../arm-none-eabi/lib/thumb/v6-m\libc.a(lib_a-mprec.o)
                0x0000c020                __i2b
 .text.__multiply
                0x0000c034      0x154 c:/program files (x86)/atmel/studio/7.0/toolchain/arm/arm-gnu-toolchain/bin/../lib/gcc/arm-none-eabi/6.3.1/../../../../arm-none-eabi/lib/thumb/v6-m\libc.a(lib_a-mprec.o)
                0x0000c034                __multiply
 .text.__pow5mult
                0x0000c188       0xc0 c:/program files (x86)/atmel/studio/7.0/toolchain/arm/arm-gnu-toolchain/bin/../lib/gcc/arm-none-eabi/6.3.1/../../../../arm-none-eabi/lib/thumb/v6-m\libc.a(lib_a-mprec.o)
                0x0000c188                __pow5mult
 .text.__lshift
                0x0000c248       0xc0 c:/program files (x86)/atmel/studio/7.0/toolchain/arm/arm-gnu-toolchain/bin/../lib/gcc/arm-none-eabi/6.3.1/../../../../arm-none-eabi/lib/thumb/v6-m\libc.a(lib_a-mprec.o)
                0x0000c248                __lshift
 .text.__mcmp   0x0000c308       0x34 c:/program files (x86)/atmel/studio/7.0/toolchain/arm/arm-gnu-toolchain/bin/../lib/gcc/arm-none-eabi/6.3.1/../../../../arm-none-eabi/lib/thumb/v6-m\libc.a(lib_a-mprec.o)
                0x0000c308                __mcmp
 .text.__mdiff  0x0000c33c      0x138 c:/program files (x86)/atmel/studio/7.0/toolchain/arm/arm-gnu-toolchain/bin/../lib/gcc/arm-none-eabi/6.3.1/../../../../arm-none-eabi/lib/thumb/v6-m\libc.a(lib_a-mprec.o)
                0x0000c33c                __mdiff
 .text.__d2b    0x0000c474       0xbc c:/program files (x86)/atmel/studio/7.0/toolchain/arm/arm-gnu-toolchain/bin/../lib/gcc/arm-none-eabi/6.3.1/../../../../arm-none-eabi/lib/thumb/v6-m\libc.a(lib_a-mprec.o)
                0x0000c474                __d2b
 .text._realloc_r
                0x0000c530      0x37c c:/program files (x86)/atmel/studio/7.0/toolchain/arm/arm-gnu-toolchain/bin/../lib/gcc/arm-none-eabi/6.3.1/../../../../arm-none-eabi/lib/thumb/v6-m\libc.a(lib_a-reallocr.o)
                0x0000c530                _realloc_r
 .text._sbrk_r  0x0000c8ac       0x24 c:/program files (x86)/atmel/studio/7.0/toolchain/arm/arm-gnu-toolchain/bin/../lib/gcc/arm-none-eabi/6.3.1/../../../../arm-none-eabi/lib/thumb/v6-m\libc.a(lib_a-sbrkr.o)
                0x0000c8ac                _sbrk_r
 .text.__sread  0x0000c8d0       0x28 c:/program files (x86)/atmel/studio/7.0/toolchain/arm/arm-gnu-toolchain/bin/../lib/gcc/arm-none-eabi/6.3.1/../../../../arm-none-eabi/lib/thumb/v6-m\libc.a(lib_a-stdio.o)
                0x0000c8d0                __sread
 .text.__swrite
                0x0000c8f8       0x3c c:/program files (x86)/atmel/studio/7.0/toolchain/arm/arm-gnu-toolchain/bin/../lib/gcc/arm-none-eabi/6.3.1/../../../../arm-none-eabi/lib/thumb/v6-m\libc.a(lib_a-stdio.o)
                0x0000c8f8                __swrite
 .text.__sseek  0x0000c934       0x2c c:/program files (x86)/atmel/studio/7.0/toolchain/arm/arm-gnu-toolchain/bin/../lib/gcc/arm-none-eabi/6.3.1/../../../../arm-none-eabi/lib/thumb/v6-m\libc.a(lib_a-stdio.o)
                0x0000c934                __sseek
 .text.__sclose
                0x0000c960        0xc c:/program files (x86)/atmel/studio/7.0/toolchain/arm/arm-gnu-toolchain/bin/../lib/gcc/arm-none-eabi/6.3.1/../../../../arm-none-eabi/lib/thumb/v6-m\libc.a(lib_a-stdio.o)
                0x0000c960                __sclose
 .text.__sprint_r.part.0
                0x0000c96c       0x84 c:/program files (x86)/atmel/studio/7.0/toolchain/arm/arm-gnu-toolchain/bin/../lib/gcc/arm-none-eabi/6.3.1/../../../../arm-none-eabi/lib/thumb/v6-m\libc.a(lib_a-vfiprintf.o)
 .text.__sprint_r
                0x0000c9f0       0x14 c:/program files (x86)/atmel/studio/7.0/toolchain/arm/arm-gnu-toolchain/bin/../lib/gcc/arm-none-eabi/6.3.1/../../../../arm-none-eabi/lib/thumb/v6-m\libc.a(lib_a-vfiprintf.o)
                0x0000c9f0                __sprint_r
 .text._write_r
                0x0000ca04       0x28 c:/program files (x86)/atmel/studio/7.0/toolchain/arm/arm-gnu-toolchain/bin/../lib/gcc/arm-none-eabi/6.3.1/../../../../arm-none-eabi/lib/thumb/v6-m\libc.a(lib_a-writer.o)
                0x0000ca04                _write_r
 .text._calloc_r
                0x0000ca2c       0x58 c:/program files (x86)/atmel/studio/7.0/toolchain/arm/arm-gnu-toolchain/bin/../lib/gcc/arm-none-eabi/6.3.1/../../../../arm-none-eabi/lib/thumb/v6-m\libc.a(lib_a-callocr.o)
                0x0000ca2c                _calloc_r
 .text._close_r
                0x0000ca84       0x24 c:/program files (x86)/atmel/studio/7.0/toolchain/arm/arm-gnu-toolchain/bin/../lib/gcc/arm-none-eabi/6.3.1/../../../../arm-none-eabi/lib/thumb/v6-m\libc.a(lib_a-closer.o)
                0x0000ca84                _close_r
 .text._fclose_r
                0x0000caa8       0xcc c:/program files (x86)/atmel/studio/7.0/toolchain/arm/arm-gnu-toolchain/bin/../lib/gcc/arm-none-eabi/6.3.1/../../../../arm-none-eabi/lib/thumb/v6-m\libc.a(lib_a-fclose.o)
                0x0000caa8                _fclose_r
 .text.__fputwc
                0x0000cb74       0x98 c:/program files (x86)/atmel/studio/7.0/toolchain/arm/arm-gnu-toolchain/bin/../lib/gcc/arm-none-eabi/6.3.1/../../../../arm-none-eabi/lib/thumb/v6-m\libc.a(lib_a-fputwc.o)
                0x0000cb74                __fputwc
 .text._fputwc_r
                0x0000cc0c       0x5c c:/program files (x86)/atmel/studio/7.0/toolchain/arm/arm-gnu-toolchain/bin/../lib/gcc/arm-none-eabi/6.3.1/../../../../arm-none-eabi/lib/thumb/v6-m\libc.a(lib_a-fputwc.o)
                0x0000cc0c                _fputwc_r
 .text._fstat_r
                0x0000cc68       0x28 c:/program files (x86)/atmel/studio/7.0/toolchain/arm/arm-gnu-toolchain/bin/../lib/gcc/arm-none-eabi/6.3.1/../../../../arm-none-eabi/lib/thumb/v6-m\libc.a(lib_a-fstatr.o)
                0x0000cc68                _fstat_r
 .text._isatty_r
                0x0000cc90       0x24 c:/program files (x86)/atmel/studio/7.0/toolchain/arm/arm-gnu-toolchain/bin/../lib/gcc/arm-none-eabi/6.3.1/../../../../arm-none-eabi/lib/thumb/v6-m\libc.a(lib_a-isattyr.o)
                0x0000cc90                _isatty_r
 .text.__locale_mb_cur_max
                0x0000ccb4       0x20 c:/program files (x86)/atmel/studio/7.0/toolchain/arm/arm-gnu-toolchain/bin/../lib/gcc/arm-none-eabi/6.3.1/../../../../arm-none-eabi/lib/thumb/v6-m\libc.a(lib_a-locale.o)
                0x0000ccb4                __locale_mb_cur_max
 .text._lseek_r
                0x0000ccd4       0x28 c:/program files (x86)/atmel/studio/7.0/toolchain/arm/arm-gnu-toolchain/bin/../lib/gcc/arm-none-eabi/6.3.1/../../../../arm-none-eabi/lib/thumb/v6-m\libc.a(lib_a-lseekr.o)
                0x0000ccd4                _lseek_r
 .text.__ascii_mbtowc
                0x0000ccfc       0x2c c:/program files (x86)/atmel/studio/7.0/toolchain/arm/arm-gnu-toolchain/bin/../lib/gcc/arm-none-eabi/6.3.1/../../../../arm-none-eabi/lib/thumb/v6-m\libc.a(lib_a-mbtowc_r.o)
                0x0000ccfc                __ascii_mbtowc
 .text._read_r  0x0000cd28       0x28 c:/program files (x86)/atmel/studio/7.0/toolchain/arm/arm-gnu-toolchain/bin/../lib/gcc/arm-none-eabi/6.3.1/../../../../arm-none-eabi/lib/thumb/v6-m\libc.a(lib_a-readr.o)
                0x0000cd28                _read_r
 .text.__swbuf_r
                0x0000cd50       0xbc c:/program files (x86)/atmel/studio/7.0/toolchain/arm/arm-gnu-toolchain/bin/../lib/gcc/arm-none-eabi/6.3.1/../../../../arm-none-eabi/lib/thumb/v6-m\libc.a(lib_a-wbuf.o)
                0x0000cd50                __swbuf_r
 .text._wcrtomb_r
                0x0000ce0c       0x54 c:/program files (x86)/atmel/studio/7.0/toolchain/arm/arm-gnu-toolchain/bin/../lib/gcc/arm-none-eabi/6.3.1/../../../../arm-none-eabi/lib/thumb/v6-m\libc.a(lib_a-wcrtomb.o)
                0x0000ce0c                _wcrtomb_r
 .text.__ascii_wctomb
                0x0000ce60       0x1c c:/program files (x86)/atmel/studio/7.0/toolchain/arm/arm-gnu-toolchain/bin/../lib/gcc/arm-none-eabi/6.3.1/../../../../arm-none-eabi/lib/thumb/v6-m\libc.a(lib_a-wctomb_r.o)
                0x0000ce60                __ascii_wctomb
 .text._close   0x0000ce7c       0x10 c:/program files (x86)/atmel/studio/7.0/toolchain/arm/arm-gnu-toolchain/bin/../lib/gcc/arm-none-eabi/6.3.1/../../../../arm-none-eabi/lib/thumb/v6-m\libnosys.a(close.o)
                0x0000ce7c                _close
 .text._fstat   0x0000ce8c       0x10 c:/program files (x86)/atmel/studio/7.0/toolchain/arm/arm-gnu-toolchain/bin/../lib/gcc/arm-none-eabi/6.3.1/../../../../arm-none-eabi/lib/thumb/v6-m\libnosys.a(fstat.o)
                0x0000ce8c                _fstat
 .text._isatty  0x0000ce9c       0x10 c:/program files (x86)/atmel/studio/7.0/toolchain/arm/arm-gnu-toolchain/bin/../lib/gcc/arm-none-eabi/6.3.1/../../../../arm-none-eabi/lib/thumb/v6-m\libnosys.a(isatty.o)
                0x0000ce9c                _isatty
 .text._lseek   0x0000ceac       0x10 c:/program files (x86)/atmel/studio/7.0/toolchain/arm/arm-gnu-toolchain/bin/../lib/gcc/arm-none-eabi/6.3.1/../../../../arm-none-eabi/lib/thumb/v6-m\libnosys.a(lseek.o)
                0x0000ceac                _lseek
 .text._read    0x0000cebc       0x10 c:/program files (x86)/atmel/studio/7.0/toolchain/arm/arm-gnu-toolchain/bin/../lib/gcc/arm-none-eabi/6.3.1/../../../../arm-none-eabi/lib/thumb/v6-m\libnosys.a(read.o)
                0x0000cebc                _read
 .text._sbrk    0x0000cecc       0x1c c:/program files (x86)/atmel/studio/7.0/toolchain/arm/arm-gnu-toolchain/bin/../lib/gcc/arm-none-eabi/6.3.1/../../../../arm-none-eabi/lib/thumb/v6-m\libnosys.a(sbrk.o)
                0x0000cecc                _sbrk
 .text._write   0x0000cee8       0x10 c:/program files (x86)/atmel/studio/7.0/toolchain/arm/arm-gnu-toolchain/bin/../lib/gcc/arm-none-eabi/6.3.1/../../../../arm-none-eabi/lib/thumb/v6-m\libnosys.a(write.o)
                0x0000cee8                _write
 *(.glue_7t)
 .glue_7t       0x0000cef8        0x0 linker stubs
 *(.glue_7)
 .glue_7        0x0000cef8        0x0 linker stubs
 *(.rodata .rodata* .gnu.linkonce.r.*)
 .rodata        0x0000cef8       0xac ADF5610Driver.o
 .rodata.str1.4
                0x0000cfa4       0x9f ADF5610Driver.o
 *fill*         0x0000d043        0x1 
 .rodata        0x0000d044        0x8 C:\Salukat\Purificador\SoftwareDevelopment\Atmel_Microchip\SAMD21_BSP\SAMD21_BSP\Release\libSAMD21_BSP.a(hpl_eic.o)
 .rodata        0x0000d04c       0x4b C:\Salukat\Purificador\SoftwareDevelopment\Atmel_Microchip\SAMD21_BSP\SAMD21_BSP\Release\libSAMD21_BSP.a(hpl_sercom.o)
 *fill*         0x0000d097        0x1 
 .rodata        0x0000d098       0x28 C:\Salukat\Purificador\SoftwareDevelopment\Atmel_Microchip\SAMD21_BSP\SAMD21_BSP\Release\libSAMD21_BSP.a(hpl_tc.o)
 .rodata        0x0000d0c0       0x3c C:\Salukat\Purificador\SoftwareDevelopment\Atmel_Microchip\SAMD21_BSP\SAMD21_BSP\Release\libSAMD21_BSP.a(hpl_usb.o)
 .rodata.log.str1.4
                0x0000d0fc        0x4 c:/program files (x86)/atmel/studio/7.0/toolchain/arm/arm-gnu-toolchain/bin/../lib/gcc/arm-none-eabi/6.3.1/../../../../arm-none-eabi/lib/thumb/v6-m\libm.a(lib_a-w_log.o)
                                  0x5 (size before relaxing)
 .rodata.pow.str1.4
                0x0000d100        0x4 c:/program files (x86)/atmel/studio/7.0/toolchain/arm/arm-gnu-toolchain/bin/../lib/gcc/arm-none-eabi/6.3.1/../../../../arm-none-eabi/lib/thumb/v6-m\libm.a(lib_a-w_pow.o)
 .rodata.__ieee754_pow.str1.4
                0x0000d104        0x1 c:/program files (x86)/atmel/studio/7.0/toolchain/arm/arm-gnu-toolchain/bin/../lib/gcc/arm-none-eabi/6.3.1/../../../../arm-none-eabi/lib/thumb/v6-m\libm.a(lib_a-e_pow.o)
 *fill*         0x0000d104        0x4 
 .rodata.TWO52  0x0000d108       0x10 c:/program files (x86)/atmel/studio/7.0/toolchain/arm/arm-gnu-toolchain/bin/../lib/gcc/arm-none-eabi/6.3.1/../../../../arm-none-eabi/lib/thumb/v6-m\libm.a(lib_a-s_rint.o)
 .rodata        0x0000d118       0x40 c:/program files (x86)/atmel/studio/7.0/toolchain/arm/arm-gnu-toolchain/bin/../lib/gcc/arm-none-eabi/6.3.1/thumb/v6-m\libgcc.a(mulsf3.o)
 .rodata        0x0000d158       0x40 c:/program files (x86)/atmel/studio/7.0/toolchain/arm/arm-gnu-toolchain/bin/../lib/gcc/arm-none-eabi/6.3.1/thumb/v6-m\libgcc.a(divdf3.o)
 .rodata        0x0000d198       0x40 c:/program files (x86)/atmel/studio/7.0/toolchain/arm/arm-gnu-toolchain/bin/../lib/gcc/arm-none-eabi/6.3.1/thumb/v6-m\libgcc.a(muldf3.o)
 .rodata._global_impure_ptr
                0x0000d1d8        0x4 c:/program files (x86)/atmel/studio/7.0/toolchain/arm/arm-gnu-toolchain/bin/../lib/gcc/arm-none-eabi/6.3.1/../../../../arm-none-eabi/lib/thumb/v6-m\libc.a(lib_a-impure.o)
                0x0000d1d8                _global_impure_ptr
 .rodata._puts_r.str1.4
                0x0000d1dc        0x2 c:/program files (x86)/atmel/studio/7.0/toolchain/arm/arm-gnu-toolchain/bin/../lib/gcc/arm-none-eabi/6.3.1/../../../../arm-none-eabi/lib/thumb/v6-m\libc.a(lib_a-puts.o)
 *fill*         0x0000d1de        0x2 
 .rodata._vfprintf_r
                0x0000d1e0      0x164 c:/program files (x86)/atmel/studio/7.0/toolchain/arm/arm-gnu-toolchain/bin/../lib/gcc/arm-none-eabi/6.3.1/../../../../arm-none-eabi/lib/thumb/v6-m\libc.a(lib_a-vfprintf.o)
 .rodata._vfprintf_r.str1.4
                0x0000d344       0x42 c:/program files (x86)/atmel/studio/7.0/toolchain/arm/arm-gnu-toolchain/bin/../lib/gcc/arm-none-eabi/6.3.1/../../../../arm-none-eabi/lib/thumb/v6-m\libc.a(lib_a-vfprintf.o)
 *fill*         0x0000d386        0x2 
 .rodata.blanks.7238
                0x0000d388       0x10 c:/program files (x86)/atmel/studio/7.0/toolchain/arm/arm-gnu-toolchain/bin/../lib/gcc/arm-none-eabi/6.3.1/../../../../arm-none-eabi/lib/thumb/v6-m\libc.a(lib_a-vfprintf.o)
 .rodata.zeroes.7239
                0x0000d398       0x10 c:/program files (x86)/atmel/studio/7.0/toolchain/arm/arm-gnu-toolchain/bin/../lib/gcc/arm-none-eabi/6.3.1/../../../../arm-none-eabi/lib/thumb/v6-m\libc.a(lib_a-vfprintf.o)
 .rodata._dtoa_r.str1.4
                0x0000d3a8       0x10 c:/program files (x86)/atmel/studio/7.0/toolchain/arm/arm-gnu-toolchain/bin/../lib/gcc/arm-none-eabi/6.3.1/../../../../arm-none-eabi/lib/thumb/v6-m\libc.a(lib_a-dtoa.o)
                                 0x12 (size before relaxing)
 .rodata.__mprec_bigtens
                0x0000d3b8       0x28 c:/program files (x86)/atmel/studio/7.0/toolchain/arm/arm-gnu-toolchain/bin/../lib/gcc/arm-none-eabi/6.3.1/../../../../arm-none-eabi/lib/thumb/v6-m\libc.a(lib_a-mprec.o)
                0x0000d3b8                __mprec_bigtens
 .rodata.__mprec_tens
                0x0000d3e0       0xc8 c:/program files (x86)/atmel/studio/7.0/toolchain/arm/arm-gnu-toolchain/bin/../lib/gcc/arm-none-eabi/6.3.1/../../../../arm-none-eabi/lib/thumb/v6-m\libc.a(lib_a-mprec.o)
                0x0000d3e0                __mprec_tens
 .rodata.p05.6055
                0x0000d4a8        0xc c:/program files (x86)/atmel/studio/7.0/toolchain/arm/arm-gnu-toolchain/bin/../lib/gcc/arm-none-eabi/6.3.1/../../../../arm-none-eabi/lib/thumb/v6-m\libc.a(lib_a-mprec.o)
 .rodata._setlocale_r.str1.4
                0x0000d4b4        0xa c:/program files (x86)/atmel/studio/7.0/toolchain/arm/arm-gnu-toolchain/bin/../lib/gcc/arm-none-eabi/6.3.1/../../../../arm-none-eabi/lib/thumb/v6-m\libc.a(lib_a-locale.o)
                                  0xd (size before relaxing)
 *fill*         0x0000d4be        0x2 
 .rodata.str1.4
                0x0000d4c0        0x4 c:/program files (x86)/atmel/studio/7.0/toolchain/arm/arm-gnu-toolchain/bin/../lib/gcc/arm-none-eabi/6.3.1/../../../../arm-none-eabi/lib/thumb/v6-m\libc.a(lib_a-locale.o)
                                  0x2 (size before relaxing)
 .rodata._ctype_
                0x0000d4c4      0x101 c:/program files (x86)/atmel/studio/7.0/toolchain/arm/arm-gnu-toolchain/bin/../lib/gcc/arm-none-eabi/6.3.1/../../../../arm-none-eabi/lib/thumb/v6-m\libc.a(lib_a-ctype_.o)
                0x0000d4c4                _ctype_
 *(.ARM.extab* .gnu.linkonce.armextab.*)
                0x0000d5c8                . = ALIGN (0x4)
 *fill*         0x0000d5c5        0x3 
 *(.init)
 .init          0x0000d5c8        0x4 c:/program files (x86)/atmel/studio/7.0/toolchain/arm/arm-gnu-toolchain/bin/../lib/gcc/arm-none-eabi/6.3.1/thumb/v6-m/crti.o
                0x0000d5c8                _init
 .init          0x0000d5cc        0x8 c:/program files (x86)/atmel/studio/7.0/toolchain/arm/arm-gnu-toolchain/bin/../lib/gcc/arm-none-eabi/6.3.1/thumb/v6-m/crtn.o
                0x0000d5d4                . = ALIGN (0x4)
                0x0000d5d4                __preinit_array_start = .
 *(.preinit_array)
                0x0000d5d4                __preinit_array_end = .
                0x0000d5d4                . = ALIGN (0x4)
                0x0000d5d4                __init_array_start = .
 *(SORT(.init_array.*))
 .init_array.00000
                0x0000d5d4        0x4 c:/program files (x86)/atmel/studio/7.0/toolchain/arm/arm-gnu-toolchain/bin/../lib/gcc/arm-none-eabi/6.3.1/../../../../arm-none-eabi/lib/thumb/v6-m\libc.a(lib_a-__call_atexit.o)
 *(.init_array)
 .init_array    0x0000d5d8        0x4 c:/program files (x86)/atmel/studio/7.0/toolchain/arm/arm-gnu-toolchain/bin/../lib/gcc/arm-none-eabi/6.3.1/thumb/v6-m/crtbegin.o
 .init_array    0x0000d5dc        0x4 ADF5610Driver.o
 .init_array    0x0000d5e0        0x4 main.o
                0x0000d5e4                __init_array_end = .
                0x0000d5e4                . = ALIGN (0x4)
 *crtbegin.o(.ctors)
 *(EXCLUDE_FILE(*crtend.o) .ctors)
 *(SORT(.ctors.*))
 *crtend.o(.ctors)
                0x0000d5e4                . = ALIGN (0x4)
 *(.fini)
 .fini          0x0000d5e4        0x4 c:/program files (x86)/atmel/studio/7.0/toolchain/arm/arm-gnu-toolchain/bin/../lib/gcc/arm-none-eabi/6.3.1/thumb/v6-m/crti.o
                0x0000d5e4                _fini
 .fini          0x0000d5e8        0x8 c:/program files (x86)/atmel/studio/7.0/toolchain/arm/arm-gnu-toolchain/bin/../lib/gcc/arm-none-eabi/6.3.1/thumb/v6-m/crtn.o
                0x0000d5f0                . = ALIGN (0x4)
                0x0000d5f0                __fini_array_start = .
 *(.fini_array)
 .fini_array    0x0000d5f0        0x4 c:/program files (x86)/atmel/studio/7.0/toolchain/arm/arm-gnu-toolchain/bin/../lib/gcc/arm-none-eabi/6.3.1/thumb/v6-m/crtbegin.o
 *(SORT(.fini_array.*))
                0x0000d5f4                __fini_array_end = .
 *crtbegin.o(.dtors)
 *(EXCLUDE_FILE(*crtend.o) .dtors)
 *(SORT(.dtors.*))
 *crtend.o(.dtors)
                0x0000d5f4                . = ALIGN (0x4)
                0x0000d5f4                _efixed = .
                [!provide]                PROVIDE (__exidx_start, .)

.vfp11_veneer   0x0000d5f4        0x0
 .vfp11_veneer  0x0000d5f4        0x0 linker stubs

.v4_bx          0x0000d5f4        0x0
 .v4_bx         0x0000d5f4        0x0 linker stubs

.iplt           0x0000d5f4        0x0
 .iplt          0x0000d5f4        0x0 c:/program files (x86)/atmel/studio/7.0/toolchain/arm/arm-gnu-toolchain/bin/../lib/gcc/arm-none-eabi/6.3.1/thumb/v6-m/crtbegin.o

.ARM.exidx      0x0000d5f4        0x8
 *(.ARM.exidx* .gnu.linkonce.armexidx.*)
 .ARM.exidx.text.__aeabi_atexit
                0x0000d5f4        0x8 c:/program files (x86)/atmel/studio/7.0/toolchain/arm/arm-gnu-toolchain/bin/../lib/gcc/arm-none-eabi/6.3.1/../../../../arm-none-eabi/lib/thumb/v6-m\libstdc++.a(atexit_arm.o)
 .ARM.exidx     0x0000d5fc        0x0 c:/program files (x86)/atmel/studio/7.0/toolchain/arm/arm-gnu-toolchain/bin/../lib/gcc/arm-none-eabi/6.3.1/thumb/v6-m\libgcc.a(_udivmoddi4.o)
                                  0x8 (size before relaxing)
                [!provide]                PROVIDE (__exidx_end, .)

.eh_frame       0x0000d5fc        0x0
 .eh_frame      0x0000d5fc        0x0 c:/program files (x86)/atmel/studio/7.0/toolchain/arm/arm-gnu-toolchain/bin/../lib/gcc/arm-none-eabi/6.3.1/thumb/v6-m/crtbegin.o

.rel.dyn        0x0000d5fc        0x0
 .rel.iplt      0x0000d5fc        0x0 c:/program files (x86)/atmel/studio/7.0/toolchain/arm/arm-gnu-toolchain/bin/../lib/gcc/arm-none-eabi/6.3.1/thumb/v6-m/crtbegin.o

.jcr            0x0000d5fc        0x0
 .jcr           0x0000d5fc        0x0 c:/program files (x86)/atmel/studio/7.0/toolchain/arm/arm-gnu-toolchain/bin/../lib/gcc/arm-none-eabi/6.3.1/thumb/v6-m/crtbegin.o

.igot.plt       0x0000d5fc        0x0
 .igot.plt      0x0000d5fc        0x0 c:/program files (x86)/atmel/studio/7.0/toolchain/arm/arm-gnu-toolchain/bin/../lib/gcc/arm-none-eabi/6.3.1/thumb/v6-m/crtbegin.o
                0x0000d5fc                . = ALIGN (0x4)
                0x0000d5fc                _etext = .

.relocate       0x20000000      0xa20 load address 0x0000d5fc
                0x20000000                . = ALIGN (0x4)
                0x20000000                _srelocate = .
 *(.ramfunc .ramfunc.*)
 *(.data .data.*)
 .data          0x20000000        0x4 c:/program files (x86)/atmel/studio/7.0/toolchain/arm/arm-gnu-toolchain/bin/../lib/gcc/arm-none-eabi/6.3.1/thumb/v6-m/crtbegin.o
                0x20000000                __dso_handle
 .data          0x20000004       0x5d C:\Salukat\Purificador\SoftwareDevelopment\Atmel_Microchip\SAMD21_BSP\SAMD21_BSP\Release\libSAMD21_BSP.a(usb_start.o)
 *fill*         0x20000061        0x3 
 .data          0x20000064        0x8 C:\Salukat\Purificador\SoftwareDevelopment\Atmel_Microchip\SAMD21_BSP\SAMD21_BSP\Release\libSAMD21_BSP.a(cdcdf_acm.o)
 .data.__fdlib_version
                0x2000006c        0x1 c:/program files (x86)/atmel/studio/7.0/toolchain/arm/arm-gnu-toolchain/bin/../lib/gcc/arm-none-eabi/6.3.1/../../../../arm-none-eabi/lib/thumb/v6-m\libm.a(lib_a-s_lib_ver.o)
                0x2000006c                __fdlib_version
 *fill*         0x2000006d        0x3 
 .data._impure_ptr
                0x20000070        0x4 c:/program files (x86)/atmel/studio/7.0/toolchain/arm/arm-gnu-toolchain/bin/../lib/gcc/arm-none-eabi/6.3.1/../../../../arm-none-eabi/lib/thumb/v6-m\libc.a(lib_a-impure.o)
                0x20000070                _impure_ptr
 *fill*         0x20000074        0x4 
 .data.impure_data
                0x20000078      0x428 c:/program files (x86)/atmel/studio/7.0/toolchain/arm/arm-gnu-toolchain/bin/../lib/gcc/arm-none-eabi/6.3.1/../../../../arm-none-eabi/lib/thumb/v6-m\libc.a(lib_a-impure.o)
 .data.__atexit_recursive_mutex
                0x200004a0        0x4 c:/program files (x86)/atmel/studio/7.0/toolchain/arm/arm-gnu-toolchain/bin/../lib/gcc/arm-none-eabi/6.3.1/../../../../arm-none-eabi/lib/thumb/v6-m\libc.a(lib_a-__call_atexit.o)
                0x200004a0                __atexit_recursive_mutex
 .data.__malloc_av_
                0x200004a4      0x408 c:/program files (x86)/atmel/studio/7.0/toolchain/arm/arm-gnu-toolchain/bin/../lib/gcc/arm-none-eabi/6.3.1/../../../../arm-none-eabi/lib/thumb/v6-m\libc.a(lib_a-mallocr.o)
                0x200004a4                __malloc_av_
 .data.__malloc_sbrk_base
                0x200008ac        0x4 c:/program files (x86)/atmel/studio/7.0/toolchain/arm/arm-gnu-toolchain/bin/../lib/gcc/arm-none-eabi/6.3.1/../../../../arm-none-eabi/lib/thumb/v6-m\libc.a(lib_a-mallocr.o)
                0x200008ac                __malloc_sbrk_base
 .data.__malloc_trim_threshold
                0x200008b0        0x4 c:/program files (x86)/atmel/studio/7.0/toolchain/arm/arm-gnu-toolchain/bin/../lib/gcc/arm-none-eabi/6.3.1/../../../../arm-none-eabi/lib/thumb/v6-m\libc.a(lib_a-mallocr.o)
                0x200008b0                __malloc_trim_threshold
 .data.__global_locale
                0x200008b4      0x16c c:/program files (x86)/atmel/studio/7.0/toolchain/arm/arm-gnu-toolchain/bin/../lib/gcc/arm-none-eabi/6.3.1/../../../../arm-none-eabi/lib/thumb/v6-m\libc.a(lib_a-locale.o)
                0x200008b4                __global_locale
                0x20000a20                . = ALIGN (0x4)
                0x20000a20                _erelocate = .

.bss            0x20000a20      0x7d0 load address 0x0000e020
                0x20000a20                . = ALIGN (0x4)
                0x20000a20                _sbss = .
                0x20000a20                _szero = .
 *(.bss .bss.*)
 .bss           0x20000a20       0x1c c:/program files (x86)/atmel/studio/7.0/toolchain/arm/arm-gnu-toolchain/bin/../lib/gcc/arm-none-eabi/6.3.1/thumb/v6-m/crtbegin.o
 .bss           0x20000a3c       0x10 ADF5610Driver.o
 *fill*         0x20000a4c        0x4 
 .bss           0x20000a50      0x188 main.o
                0x20000a50                adf
 .bss           0x20000bd8        0x4 SPI_Syn_Class_ADF.o
                0x20000bd8                ptrSPISync_adf
 .bss           0x20000bdc       0x10 C:\Salukat\Purificador\SoftwareDevelopment\Atmel_Microchip\SAMD21_BSP\SAMD21_BSP\Release\libSAMD21_BSP.a(driver_init.o)
 .bss           0x20000bec        0x4 C:\Salukat\Purificador\SoftwareDevelopment\Atmel_Microchip\SAMD21_BSP\SAMD21_BSP\Release\libSAMD21_BSP.a(hal_delay.o)
 .bss           0x20000bf0        0x8 C:\Salukat\Purificador\SoftwareDevelopment\Atmel_Microchip\SAMD21_BSP\SAMD21_BSP\Release\libSAMD21_BSP.a(hal_ext_irq.o)
 .bss           0x20000bf8       0x80 C:\Salukat\Purificador\SoftwareDevelopment\Atmel_Microchip\SAMD21_BSP\SAMD21_BSP\Release\libSAMD21_BSP.a(hal_usb_device.o)
 .bss           0x20000c78        0x4 C:\Salukat\Purificador\SoftwareDevelopment\Atmel_Microchip\SAMD21_BSP\SAMD21_BSP\Release\libSAMD21_BSP.a(hpl_eic.o)
 .bss           0x20000c7c        0x4 C:\Salukat\Purificador\SoftwareDevelopment\Atmel_Microchip\SAMD21_BSP\SAMD21_BSP\Release\libSAMD21_BSP.a(hpl_sercom.o)
 .bss           0x20000c80        0x8 C:\Salukat\Purificador\SoftwareDevelopment\Atmel_Microchip\SAMD21_BSP\SAMD21_BSP\Release\libSAMD21_BSP.a(hpl_tc.o)
 .bss           0x20000c88      0x368 C:\Salukat\Purificador\SoftwareDevelopment\Atmel_Microchip\SAMD21_BSP\SAMD21_BSP\Release\libSAMD21_BSP.a(hpl_usb.o)
 .bss           0x20000ff0       0x80 C:\Salukat\Purificador\SoftwareDevelopment\Atmel_Microchip\SAMD21_BSP\SAMD21_BSP\Release\libSAMD21_BSP.a(usb_start.o)
 .bss           0x20001070       0x24 C:\Salukat\Purificador\SoftwareDevelopment\Atmel_Microchip\SAMD21_BSP\SAMD21_BSP\Release\libSAMD21_BSP.a(cdcdf_acm.o)
 .bss           0x20001094       0x20 C:\Salukat\Purificador\SoftwareDevelopment\Atmel_Microchip\SAMD21_BSP\SAMD21_BSP\Release\libSAMD21_BSP.a(usbdc.o)
 .bss.__malloc_current_mallinfo
                0x200010b4       0x28 c:/program files (x86)/atmel/studio/7.0/toolchain/arm/arm-gnu-toolchain/bin/../lib/gcc/arm-none-eabi/6.3.1/../../../../arm-none-eabi/lib/thumb/v6-m\libc.a(lib_a-mallocr.o)
                0x200010b4                __malloc_current_mallinfo
 .bss.__malloc_max_sbrked_mem
                0x200010dc        0x4 c:/program files (x86)/atmel/studio/7.0/toolchain/arm/arm-gnu-toolchain/bin/../lib/gcc/arm-none-eabi/6.3.1/../../../../arm-none-eabi/lib/thumb/v6-m\libc.a(lib_a-mallocr.o)
                0x200010dc                __malloc_max_sbrked_mem
 .bss.__malloc_max_total_mem
                0x200010e0        0x4 c:/program files (x86)/atmel/studio/7.0/toolchain/arm/arm-gnu-toolchain/bin/../lib/gcc/arm-none-eabi/6.3.1/../../../../arm-none-eabi/lib/thumb/v6-m\libc.a(lib_a-mallocr.o)
                0x200010e0                __malloc_max_total_mem
 .bss.__malloc_top_pad
                0x200010e4        0x4 c:/program files (x86)/atmel/studio/7.0/toolchain/arm/arm-gnu-toolchain/bin/../lib/gcc/arm-none-eabi/6.3.1/../../../../arm-none-eabi/lib/thumb/v6-m\libc.a(lib_a-mallocr.o)
                0x200010e4                __malloc_top_pad
 .bss.heap_end.4116
                0x200010e8        0x4 c:/program files (x86)/atmel/studio/7.0/toolchain/arm/arm-gnu-toolchain/bin/../lib/gcc/arm-none-eabi/6.3.1/../../../../arm-none-eabi/lib/thumb/v6-m\libnosys.a(sbrk.o)
 *(COMMON)
 COMMON         0x200010ec       0xdc C:\Salukat\Purificador\SoftwareDevelopment\Atmel_Microchip\SAMD21_BSP\SAMD21_BSP\Release\libSAMD21_BSP.a(driver_init.o)
                0x200010ec                TIMER_ZCD
                0x20001108                SPI_LMX
                0x20001120                DAC_0
                0x2000112c                USART_0
                0x2000117c                SPI_ADF
                0x20001194                SPI_ZCD
                0x200011ac                TIMER_USB
 COMMON         0x200011c8       0x21 c:/program files (x86)/atmel/studio/7.0/toolchain/arm/arm-gnu-toolchain/bin/../lib/gcc/arm-none-eabi/6.3.1/../../../../arm-none-eabi/lib/thumb/v6-m\libc.a(lib_a-lock.o)
                0x200011c8                __lock___atexit_recursive_mutex
                0x200011cc                __lock___arc4random_mutex
                0x200011d0                __lock___env_recursive_mutex
                0x200011d4                __lock___sinit_recursive_mutex
                0x200011d8                __lock___malloc_recursive_mutex
                0x200011dc                __lock___at_quick_exit_mutex
                0x200011e0                __lock___dd_hash_mutex
                0x200011e4                __lock___tz_mutex
                0x200011e8                __lock___sfp_recursive_mutex
 *fill*         0x200011e9        0x3 
 COMMON         0x200011ec        0x4 c:/program files (x86)/atmel/studio/7.0/toolchain/arm/arm-gnu-toolchain/bin/../lib/gcc/arm-none-eabi/6.3.1/../../../../arm-none-eabi/lib/thumb/v6-m\libc.a(lib_a-reent.o)
                0x200011ec                errno
                0x200011f0                . = ALIGN (0x4)
                0x200011f0                _ebss = .
                0x200011f0                _ezero = .

.stack          0x200011f0     0x2000 load address 0x0000e7f0
                0x200011f0                . = ALIGN (0x8)
                0x200011f0                _sstack = .
                0x200031f0                . = (. + STACK_SIZE)
 *fill*         0x200011f0     0x2000 
                0x200031f0                . = ALIGN (0x8)
                0x200031f0                _estack = .
                0x200031f0                . = ALIGN (0x4)
                0x200031f0                end = .
OUTPUT(ADF_SAMD21_LIB.elf elf32-littlearm)

.ARM.attributes
                0x00000000       0x28
 .ARM.attributes
                0x00000000       0x1e c:/program files (x86)/atmel/studio/7.0/toolchain/arm/arm-gnu-toolchain/bin/../lib/gcc/arm-none-eabi/6.3.1/thumb/v6-m/crti.o
 .ARM.attributes
                0x0000001e       0x2c c:/program files (x86)/atmel/studio/7.0/toolchain/arm/arm-gnu-toolchain/bin/../lib/gcc/arm-none-eabi/6.3.1/thumb/v6-m/crtbegin.o
 .ARM.attributes
                0x0000004a       0x32 ADF5610Driver.o
 .ARM.attributes
                0x0000007c       0x32 Device_Startup/startup_samd21.o
 .ARM.attributes
                0x000000ae       0x32 main.o
 .ARM.attributes
                0x000000e0       0x32 SPI_Syn_Class_ADF.o
 .ARM.attributes
                0x00000112       0x32 C:\Salukat\Purificador\SoftwareDevelopment\Atmel_Microchip\SAMD21_BSP\SAMD21_BSP\Release\libSAMD21_BSP.a(atmel_start.o)
 .ARM.attributes
                0x00000144       0x32 C:\Salukat\Purificador\SoftwareDevelopment\Atmel_Microchip\SAMD21_BSP\SAMD21_BSP\Release\libSAMD21_BSP.a(driver_init.o)
 .ARM.attributes
                0x00000176       0x32 C:\Salukat\Purificador\SoftwareDevelopment\Atmel_Microchip\SAMD21_BSP\SAMD21_BSP\Release\libSAMD21_BSP.a(hal_atomic.o)
 .ARM.attributes
                0x000001a8       0x32 C:\Salukat\Purificador\SoftwareDevelopment\Atmel_Microchip\SAMD21_BSP\SAMD21_BSP\Release\libSAMD21_BSP.a(hal_dac_sync.o)
 .ARM.attributes
                0x000001da       0x32 C:\Salukat\Purificador\SoftwareDevelopment\Atmel_Microchip\SAMD21_BSP\SAMD21_BSP\Release\libSAMD21_BSP.a(hal_delay.o)
 .ARM.attributes
                0x0000020c       0x32 C:\Salukat\Purificador\SoftwareDevelopment\Atmel_Microchip\SAMD21_BSP\SAMD21_BSP\Release\libSAMD21_BSP.a(hal_ext_irq.o)
 .ARM.attributes
                0x0000023e       0x32 C:\Salukat\Purificador\SoftwareDevelopment\Atmel_Microchip\SAMD21_BSP\SAMD21_BSP\Release\libSAMD21_BSP.a(hal_io.o)
 .ARM.attributes
                0x00000270       0x32 C:\Salukat\Purificador\SoftwareDevelopment\Atmel_Microchip\SAMD21_BSP\SAMD21_BSP\Release\libSAMD21_BSP.a(hal_spi_m_sync.o)
 .ARM.attributes
                0x000002a2       0x32 C:\Salukat\Purificador\SoftwareDevelopment\Atmel_Microchip\SAMD21_BSP\SAMD21_BSP\Release\libSAMD21_BSP.a(hal_timer.o)
 .ARM.attributes
                0x000002d4       0x32 C:\Salukat\Purificador\SoftwareDevelopment\Atmel_Microchip\SAMD21_BSP\SAMD21_BSP\Release\libSAMD21_BSP.a(hal_usart_async.o)
 .ARM.attributes
                0x00000306       0x32 C:\Salukat\Purificador\SoftwareDevelopment\Atmel_Microchip\SAMD21_BSP\SAMD21_BSP\Release\libSAMD21_BSP.a(hal_usb_device.o)
 .ARM.attributes
                0x00000338       0x32 C:\Salukat\Purificador\SoftwareDevelopment\Atmel_Microchip\SAMD21_BSP\SAMD21_BSP\Release\libSAMD21_BSP.a(utils_list.o)
 .ARM.attributes
                0x0000036a       0x32 C:\Salukat\Purificador\SoftwareDevelopment\Atmel_Microchip\SAMD21_BSP\SAMD21_BSP\Release\libSAMD21_BSP.a(utils_ringbuffer.o)
 .ARM.attributes
                0x0000039c       0x32 C:\Salukat\Purificador\SoftwareDevelopment\Atmel_Microchip\SAMD21_BSP\SAMD21_BSP\Release\libSAMD21_BSP.a(hpl_core_m0plus_base.o)
 .ARM.attributes
                0x000003ce       0x32 C:\Salukat\Purificador\SoftwareDevelopment\Atmel_Microchip\SAMD21_BSP\SAMD21_BSP\Release\libSAMD21_BSP.a(hpl_init.o)
 .ARM.attributes
                0x00000400       0x32 C:\Salukat\Purificador\SoftwareDevelopment\Atmel_Microchip\SAMD21_BSP\SAMD21_BSP\Release\libSAMD21_BSP.a(hpl_dac.o)
 .ARM.attributes
                0x00000432       0x32 C:\Salukat\Purificador\SoftwareDevelopment\Atmel_Microchip\SAMD21_BSP\SAMD21_BSP\Release\libSAMD21_BSP.a(hpl_eic.o)
 .ARM.attributes
                0x00000464       0x32 C:\Salukat\Purificador\SoftwareDevelopment\Atmel_Microchip\SAMD21_BSP\SAMD21_BSP\Release\libSAMD21_BSP.a(hpl_gclk.o)
 .ARM.attributes
                0x00000496       0x32 C:\Salukat\Purificador\SoftwareDevelopment\Atmel_Microchip\SAMD21_BSP\SAMD21_BSP\Release\libSAMD21_BSP.a(hpl_pm.o)
 .ARM.attributes
                0x000004c8       0x32 C:\Salukat\Purificador\SoftwareDevelopment\Atmel_Microchip\SAMD21_BSP\SAMD21_BSP\Release\libSAMD21_BSP.a(hpl_sercom.o)
 .ARM.attributes
                0x000004fa       0x32 C:\Salukat\Purificador\SoftwareDevelopment\Atmel_Microchip\SAMD21_BSP\SAMD21_BSP\Release\libSAMD21_BSP.a(hpl_sysctrl.o)
 .ARM.attributes
                0x0000052c       0x32 C:\Salukat\Purificador\SoftwareDevelopment\Atmel_Microchip\SAMD21_BSP\SAMD21_BSP\Release\libSAMD21_BSP.a(hpl_systick.o)
 .ARM.attributes
                0x0000055e       0x32 C:\Salukat\Purificador\SoftwareDevelopment\Atmel_Microchip\SAMD21_BSP\SAMD21_BSP\Release\libSAMD21_BSP.a(hpl_tc.o)
 .ARM.attributes
                0x00000590       0x32 C:\Salukat\Purificador\SoftwareDevelopment\Atmel_Microchip\SAMD21_BSP\SAMD21_BSP\Release\libSAMD21_BSP.a(hpl_usb.o)
 .ARM.attributes
                0x000005c2       0x32 C:\Salukat\Purificador\SoftwareDevelopment\Atmel_Microchip\SAMD21_BSP\SAMD21_BSP\Release\libSAMD21_BSP.a(usb_start.o)
 .ARM.attributes
                0x000005f4       0x32 C:\Salukat\Purificador\SoftwareDevelopment\Atmel_Microchip\SAMD21_BSP\SAMD21_BSP\Release\libSAMD21_BSP.a(cdcdf_acm.o)
 .ARM.attributes
                0x00000626       0x32 C:\Salukat\Purificador\SoftwareDevelopment\Atmel_Microchip\SAMD21_BSP\SAMD21_BSP\Release\libSAMD21_BSP.a(usbdc.o)
 .ARM.attributes
                0x00000658       0x32 C:\Salukat\Purificador\SoftwareDevelopment\Atmel_Microchip\SAMD21_BSP\SAMD21_BSP\Release\libSAMD21_BSP.a(usb_protocol.o)
 .ARM.attributes
                0x0000068a       0x2c c:/program files (x86)/atmel/studio/7.0/toolchain/arm/arm-gnu-toolchain/bin/../lib/gcc/arm-none-eabi/6.3.1/../../../../arm-none-eabi/lib/thumb/v6-m\libstdc++.a(atexit_arm.o)
 .ARM.attributes
                0x000006b6       0x2c c:/program files (x86)/atmel/studio/7.0/toolchain/arm/arm-gnu-toolchain/bin/../lib/gcc/arm-none-eabi/6.3.1/../../../../arm-none-eabi/lib/thumb/v6-m\libm.a(lib_a-s_floor.o)
 .ARM.attributes
                0x000006e2       0x2c c:/program files (x86)/atmel/studio/7.0/toolchain/arm/arm-gnu-toolchain/bin/../lib/gcc/arm-none-eabi/6.3.1/../../../../arm-none-eabi/lib/thumb/v6-m\libm.a(lib_a-w_log.o)
 .ARM.attributes
                0x0000070e       0x2c c:/program files (x86)/atmel/studio/7.0/toolchain/arm/arm-gnu-toolchain/bin/../lib/gcc/arm-none-eabi/6.3.1/../../../../arm-none-eabi/lib/thumb/v6-m\libm.a(lib_a-w_pow.o)
 .ARM.attributes
                0x0000073a       0x2c c:/program files (x86)/atmel/studio/7.0/toolchain/arm/arm-gnu-toolchain/bin/../lib/gcc/arm-none-eabi/6.3.1/../../../../arm-none-eabi/lib/thumb/v6-m\libm.a(lib_a-e_log.o)
 .ARM.attributes
                0x00000766       0x2c c:/program files (x86)/atmel/studio/7.0/toolchain/arm/arm-gnu-toolchain/bin/../lib/gcc/arm-none-eabi/6.3.1/../../../../arm-none-eabi/lib/thumb/v6-m\libm.a(lib_a-e_pow.o)
 .ARM.attributes
                0x00000792       0x2c c:/program files (x86)/atmel/studio/7.0/toolchain/arm/arm-gnu-toolchain/bin/../lib/gcc/arm-none-eabi/6.3.1/../../../../arm-none-eabi/lib/thumb/v6-m\libm.a(lib_a-e_sqrt.o)
 .ARM.attributes
                0x000007be       0x2c c:/program files (x86)/atmel/studio/7.0/toolchain/arm/arm-gnu-toolchain/bin/../lib/gcc/arm-none-eabi/6.3.1/../../../../arm-none-eabi/lib/thumb/v6-m\libm.a(lib_a-s_fabs.o)
 .ARM.attributes
                0x000007ea       0x2c c:/program files (x86)/atmel/studio/7.0/toolchain/arm/arm-gnu-toolchain/bin/../lib/gcc/arm-none-eabi/6.3.1/../../../../arm-none-eabi/lib/thumb/v6-m\libm.a(lib_a-s_finite.o)
 .ARM.attributes
                0x00000816       0x2c c:/program files (x86)/atmel/studio/7.0/toolchain/arm/arm-gnu-toolchain/bin/../lib/gcc/arm-none-eabi/6.3.1/../../../../arm-none-eabi/lib/thumb/v6-m\libm.a(lib_a-s_lib_ver.o)
 .ARM.attributes
                0x00000842       0x2c c:/program files (x86)/atmel/studio/7.0/toolchain/arm/arm-gnu-toolchain/bin/../lib/gcc/arm-none-eabi/6.3.1/../../../../arm-none-eabi/lib/thumb/v6-m\libm.a(lib_a-s_matherr.o)
 .ARM.attributes
                0x0000086e       0x2c c:/program files (x86)/atmel/studio/7.0/toolchain/arm/arm-gnu-toolchain/bin/../lib/gcc/arm-none-eabi/6.3.1/../../../../arm-none-eabi/lib/thumb/v6-m\libm.a(lib_a-s_nan.o)
 .ARM.attributes
                0x0000089a       0x2c c:/program files (x86)/atmel/studio/7.0/toolchain/arm/arm-gnu-toolchain/bin/../lib/gcc/arm-none-eabi/6.3.1/../../../../arm-none-eabi/lib/thumb/v6-m\libm.a(lib_a-s_rint.o)
 .ARM.attributes
                0x000008c6       0x2c c:/program files (x86)/atmel/studio/7.0/toolchain/arm/arm-gnu-toolchain/bin/../lib/gcc/arm-none-eabi/6.3.1/../../../../arm-none-eabi/lib/thumb/v6-m\libm.a(lib_a-s_scalbn.o)
 .ARM.attributes
                0x000008f2       0x2c c:/program files (x86)/atmel/studio/7.0/toolchain/arm/arm-gnu-toolchain/bin/../lib/gcc/arm-none-eabi/6.3.1/../../../../arm-none-eabi/lib/thumb/v6-m\libm.a(lib_a-s_copysign.o)
 .ARM.attributes
                0x0000091e       0x1e c:/program files (x86)/atmel/studio/7.0/toolchain/arm/arm-gnu-toolchain/bin/../lib/gcc/arm-none-eabi/6.3.1/thumb/v6-m\libgcc.a(_thumb1_case_sqi.o)
 .ARM.attributes
                0x0000093c       0x1e c:/program files (x86)/atmel/studio/7.0/toolchain/arm/arm-gnu-toolchain/bin/../lib/gcc/arm-none-eabi/6.3.1/thumb/v6-m\libgcc.a(_thumb1_case_shi.o)
 .ARM.attributes
                0x0000095a       0x1e c:/program files (x86)/atmel/studio/7.0/toolchain/arm/arm-gnu-toolchain/bin/../lib/gcc/arm-none-eabi/6.3.1/thumb/v6-m\libgcc.a(_udivsi3.o)
 .ARM.attributes
                0x00000978       0x1e c:/program files (x86)/atmel/studio/7.0/toolchain/arm/arm-gnu-toolchain/bin/../lib/gcc/arm-none-eabi/6.3.1/thumb/v6-m\libgcc.a(_divsi3.o)
 .ARM.attributes
                0x00000996       0x1e c:/program files (x86)/atmel/studio/7.0/toolchain/arm/arm-gnu-toolchain/bin/../lib/gcc/arm-none-eabi/6.3.1/thumb/v6-m\libgcc.a(_dvmd_tls.o)
 .ARM.attributes
                0x000009b4       0x1e c:/program files (x86)/atmel/studio/7.0/toolchain/arm/arm-gnu-toolchain/bin/../lib/gcc/arm-none-eabi/6.3.1/thumb/v6-m\libgcc.a(_arm_cmpdf2.o)
 .ARM.attributes
                0x000009d2       0x1e c:/program files (x86)/atmel/studio/7.0/toolchain/arm/arm-gnu-toolchain/bin/../lib/gcc/arm-none-eabi/6.3.1/thumb/v6-m\libgcc.a(_arm_cmpsf2.o)
 .ARM.attributes
                0x000009f0       0x1e c:/program files (x86)/atmel/studio/7.0/toolchain/arm/arm-gnu-toolchain/bin/../lib/gcc/arm-none-eabi/6.3.1/thumb/v6-m\libgcc.a(_aeabi_uldivmod.o)
 .ARM.attributes
                0x00000a0e       0x2c c:/program files (x86)/atmel/studio/7.0/toolchain/arm/arm-gnu-toolchain/bin/../lib/gcc/arm-none-eabi/6.3.1/thumb/v6-m\libgcc.a(_ffssi2.o)
 .ARM.attributes
                0x00000a3a       0x2c c:/program files (x86)/atmel/studio/7.0/toolchain/arm/arm-gnu-toolchain/bin/../lib/gcc/arm-none-eabi/6.3.1/thumb/v6-m\libgcc.a(_fixunsdfsi.o)
 .ARM.attributes
                0x00000a66       0x2c c:/program files (x86)/atmel/studio/7.0/toolchain/arm/arm-gnu-toolchain/bin/../lib/gcc/arm-none-eabi/6.3.1/thumb/v6-m\libgcc.a(_udivmoddi4.o)
 .ARM.attributes
                0x00000a92       0x2c c:/program files (x86)/atmel/studio/7.0/toolchain/arm/arm-gnu-toolchain/bin/../lib/gcc/arm-none-eabi/6.3.1/thumb/v6-m\libgcc.a(addsf3.o)
 .ARM.attributes
                0x00000abe       0x2c c:/program files (x86)/atmel/studio/7.0/toolchain/arm/arm-gnu-toolchain/bin/../lib/gcc/arm-none-eabi/6.3.1/thumb/v6-m\libgcc.a(eqsf2.o)
 .ARM.attributes
                0x00000aea       0x2c c:/program files (x86)/atmel/studio/7.0/toolchain/arm/arm-gnu-toolchain/bin/../lib/gcc/arm-none-eabi/6.3.1/thumb/v6-m\libgcc.a(gesf2.o)
 .ARM.attributes
                0x00000b16       0x2c c:/program files (x86)/atmel/studio/7.0/toolchain/arm/arm-gnu-toolchain/bin/../lib/gcc/arm-none-eabi/6.3.1/thumb/v6-m\libgcc.a(lesf2.o)
 .ARM.attributes
                0x00000b42       0x2c c:/program files (x86)/atmel/studio/7.0/toolchain/arm/arm-gnu-toolchain/bin/../lib/gcc/arm-none-eabi/6.3.1/thumb/v6-m\libgcc.a(mulsf3.o)
 .ARM.attributes
                0x00000b6e       0x2c c:/program files (x86)/atmel/studio/7.0/toolchain/arm/arm-gnu-toolchain/bin/../lib/gcc/arm-none-eabi/6.3.1/thumb/v6-m\libgcc.a(subsf3.o)
 .ARM.attributes
                0x00000b9a       0x2c c:/program files (x86)/atmel/studio/7.0/toolchain/arm/arm-gnu-toolchain/bin/../lib/gcc/arm-none-eabi/6.3.1/thumb/v6-m\libgcc.a(floatsisf.o)
 .ARM.attributes
                0x00000bc6       0x2c c:/program files (x86)/atmel/studio/7.0/toolchain/arm/arm-gnu-toolchain/bin/../lib/gcc/arm-none-eabi/6.3.1/thumb/v6-m\libgcc.a(adddf3.o)
 .ARM.attributes
                0x00000bf2       0x2c c:/program files (x86)/atmel/studio/7.0/toolchain/arm/arm-gnu-toolchain/bin/../lib/gcc/arm-none-eabi/6.3.1/thumb/v6-m\libgcc.a(divdf3.o)
 .ARM.attributes
                0x00000c1e       0x2c c:/program files (x86)/atmel/studio/7.0/toolchain/arm/arm-gnu-toolchain/bin/../lib/gcc/arm-none-eabi/6.3.1/thumb/v6-m\libgcc.a(eqdf2.o)
 .ARM.attributes
                0x00000c4a       0x2c c:/program files (x86)/atmel/studio/7.0/toolchain/arm/arm-gnu-toolchain/bin/../lib/gcc/arm-none-eabi/6.3.1/thumb/v6-m\libgcc.a(gedf2.o)
 .ARM.attributes
                0x00000c76       0x2c c:/program files (x86)/atmel/studio/7.0/toolchain/arm/arm-gnu-toolchain/bin/../lib/gcc/arm-none-eabi/6.3.1/thumb/v6-m\libgcc.a(ledf2.o)
 .ARM.attributes
                0x00000ca2       0x2c c:/program files (x86)/atmel/studio/7.0/toolchain/arm/arm-gnu-toolchain/bin/../lib/gcc/arm-none-eabi/6.3.1/thumb/v6-m\libgcc.a(muldf3.o)
 .ARM.attributes
                0x00000cce       0x2c c:/program files (x86)/atmel/studio/7.0/toolchain/arm/arm-gnu-toolchain/bin/../lib/gcc/arm-none-eabi/6.3.1/thumb/v6-m\libgcc.a(subdf3.o)
 .ARM.attributes
                0x00000cfa       0x2c c:/program files (x86)/atmel/studio/7.0/toolchain/arm/arm-gnu-toolchain/bin/../lib/gcc/arm-none-eabi/6.3.1/thumb/v6-m\libgcc.a(unorddf2.o)
 .ARM.attributes
                0x00000d26       0x2c c:/program files (x86)/atmel/studio/7.0/toolchain/arm/arm-gnu-toolchain/bin/../lib/gcc/arm-none-eabi/6.3.1/thumb/v6-m\libgcc.a(fixdfsi.o)
 .ARM.attributes
                0x00000d52       0x2c c:/program files (x86)/atmel/studio/7.0/toolchain/arm/arm-gnu-toolchain/bin/../lib/gcc/arm-none-eabi/6.3.1/thumb/v6-m\libgcc.a(floatsidf.o)
 .ARM.attributes
                0x00000d7e       0x2c c:/program files (x86)/atmel/studio/7.0/toolchain/arm/arm-gnu-toolchain/bin/../lib/gcc/arm-none-eabi/6.3.1/thumb/v6-m\libgcc.a(floatunsidf.o)
 .ARM.attributes
                0x00000daa       0x2c c:/program files (x86)/atmel/studio/7.0/toolchain/arm/arm-gnu-toolchain/bin/../lib/gcc/arm-none-eabi/6.3.1/thumb/v6-m\libgcc.a(extendsfdf2.o)
 .ARM.attributes
                0x00000dd6       0x1e c:/program files (x86)/atmel/studio/7.0/toolchain/arm/arm-gnu-toolchain/bin/../lib/gcc/arm-none-eabi/6.3.1/thumb/v6-m\libgcc.a(_clzsi2.o)
 .ARM.attributes
                0x00000df4       0x1e c:/program files (x86)/atmel/studio/7.0/toolchain/arm/arm-gnu-toolchain/bin/../lib/gcc/arm-none-eabi/6.3.1/thumb/v6-m\libgcc.a(_clzdi2.o)
 .ARM.attributes
                0x00000e12       0x1e c:/program files (x86)/atmel/studio/7.0/toolchain/arm/arm-gnu-toolchain/bin/../lib/gcc/arm-none-eabi/6.3.1/thumb/v6-m\libgcc.a(_ctzsi2.o)
 .ARM.attributes
                0x00000e30       0x2c c:/program files (x86)/atmel/studio/7.0/toolchain/arm/arm-gnu-toolchain/bin/../lib/gcc/arm-none-eabi/6.3.1/../../../../arm-none-eabi/lib/thumb/v6-m\libc.a(lib_a-cxa_atexit.o)
 .ARM.attributes
                0x00000e5c       0x2c c:/program files (x86)/atmel/studio/7.0/toolchain/arm/arm-gnu-toolchain/bin/../lib/gcc/arm-none-eabi/6.3.1/../../../../arm-none-eabi/lib/thumb/v6-m\libc.a(lib_a-errno.o)
 .ARM.attributes
                0x00000e88       0x2c c:/program files (x86)/atmel/studio/7.0/toolchain/arm/arm-gnu-toolchain/bin/../lib/gcc/arm-none-eabi/6.3.1/../../../../arm-none-eabi/lib/thumb/v6-m\libc.a(lib_a-impure.o)
 .ARM.attributes
                0x00000eb4       0x2c c:/program files (x86)/atmel/studio/7.0/toolchain/arm/arm-gnu-toolchain/bin/../lib/gcc/arm-none-eabi/6.3.1/../../../../arm-none-eabi/lib/thumb/v6-m\libc.a(lib_a-init.o)
 .ARM.attributes
                0x00000ee0       0x2c c:/program files (x86)/atmel/studio/7.0/toolchain/arm/arm-gnu-toolchain/bin/../lib/gcc/arm-none-eabi/6.3.1/../../../../arm-none-eabi/lib/thumb/v6-m\libc.a(lib_a-memcpy-stub.o)
 .ARM.attributes
                0x00000f0c       0x2c c:/program files (x86)/atmel/studio/7.0/toolchain/arm/arm-gnu-toolchain/bin/../lib/gcc/arm-none-eabi/6.3.1/../../../../arm-none-eabi/lib/thumb/v6-m\libc.a(lib_a-memset.o)
 .ARM.attributes
                0x00000f38       0x2c c:/program files (x86)/atmel/studio/7.0/toolchain/arm/arm-gnu-toolchain/bin/../lib/gcc/arm-none-eabi/6.3.1/../../../../arm-none-eabi/lib/thumb/v6-m\libc.a(lib_a-printf.o)
 .ARM.attributes
                0x00000f64       0x2c c:/program files (x86)/atmel/studio/7.0/toolchain/arm/arm-gnu-toolchain/bin/../lib/gcc/arm-none-eabi/6.3.1/../../../../arm-none-eabi/lib/thumb/v6-m\libc.a(lib_a-puts.o)
 .ARM.attributes
                0x00000f90       0x2c c:/program files (x86)/atmel/studio/7.0/toolchain/arm/arm-gnu-toolchain/bin/../lib/gcc/arm-none-eabi/6.3.1/../../../../arm-none-eabi/lib/thumb/v6-m\libc.a(lib_a-strlen-stub.o)
 .ARM.attributes
                0x00000fbc       0x2c c:/program files (x86)/atmel/studio/7.0/toolchain/arm/arm-gnu-toolchain/bin/../lib/gcc/arm-none-eabi/6.3.1/../../../../arm-none-eabi/lib/thumb/v6-m\libc.a(lib_a-vfprintf.o)
 .ARM.attributes
                0x00000fe8       0x2c c:/program files (x86)/atmel/studio/7.0/toolchain/arm/arm-gnu-toolchain/bin/../lib/gcc/arm-none-eabi/6.3.1/../../../../arm-none-eabi/lib/thumb/v6-m\libc.a(lib_a-wsetup.o)
 .ARM.attributes
                0x00001014       0x2c c:/program files (x86)/atmel/studio/7.0/toolchain/arm/arm-gnu-toolchain/bin/../lib/gcc/arm-none-eabi/6.3.1/../../../../arm-none-eabi/lib/thumb/v6-m\libc.a(lib_a-__atexit.o)
 .ARM.attributes
                0x00001040       0x2c c:/program files (x86)/atmel/studio/7.0/toolchain/arm/arm-gnu-toolchain/bin/../lib/gcc/arm-none-eabi/6.3.1/../../../../arm-none-eabi/lib/thumb/v6-m\libc.a(lib_a-__call_atexit.o)
 .ARM.attributes
                0x0000106c       0x2c c:/program files (x86)/atmel/studio/7.0/toolchain/arm/arm-gnu-toolchain/bin/../lib/gcc/arm-none-eabi/6.3.1/../../../../arm-none-eabi/lib/thumb/v6-m\libc.a(lib_a-atexit.o)
 .ARM.attributes
                0x00001098       0x2c c:/program files (x86)/atmel/studio/7.0/toolchain/arm/arm-gnu-toolchain/bin/../lib/gcc/arm-none-eabi/6.3.1/../../../../arm-none-eabi/lib/thumb/v6-m\libc.a(lib_a-dtoa.o)
 .ARM.attributes
                0x000010c4       0x2c c:/program files (x86)/atmel/studio/7.0/toolchain/arm/arm-gnu-toolchain/bin/../lib/gcc/arm-none-eabi/6.3.1/../../../../arm-none-eabi/lib/thumb/v6-m\libc.a(lib_a-fflush.o)
 .ARM.attributes
                0x000010f0       0x2c c:/program files (x86)/atmel/studio/7.0/toolchain/arm/arm-gnu-toolchain/bin/../lib/gcc/arm-none-eabi/6.3.1/../../../../arm-none-eabi/lib/thumb/v6-m\libc.a(lib_a-findfp.o)
 .ARM.attributes
                0x0000111c       0x2c c:/program files (x86)/atmel/studio/7.0/toolchain/arm/arm-gnu-toolchain/bin/../lib/gcc/arm-none-eabi/6.3.1/../../../../arm-none-eabi/lib/thumb/v6-m\libc.a(lib_a-fini.o)
 .ARM.attributes
                0x00001148       0x2c c:/program files (x86)/atmel/studio/7.0/toolchain/arm/arm-gnu-toolchain/bin/../lib/gcc/arm-none-eabi/6.3.1/../../../../arm-none-eabi/lib/thumb/v6-m\libc.a(lib_a-freer.o)
 .ARM.attributes
                0x00001174       0x2c c:/program files (x86)/atmel/studio/7.0/toolchain/arm/arm-gnu-toolchain/bin/../lib/gcc/arm-none-eabi/6.3.1/../../../../arm-none-eabi/lib/thumb/v6-m\libc.a(lib_a-fvwrite.o)
 .ARM.attributes
                0x000011a0       0x2c c:/program files (x86)/atmel/studio/7.0/toolchain/arm/arm-gnu-toolchain/bin/../lib/gcc/arm-none-eabi/6.3.1/../../../../arm-none-eabi/lib/thumb/v6-m\libc.a(lib_a-fwalk.o)
 .ARM.attributes
                0x000011cc       0x2c c:/program files (x86)/atmel/studio/7.0/toolchain/arm/arm-gnu-toolchain/bin/../lib/gcc/arm-none-eabi/6.3.1/../../../../arm-none-eabi/lib/thumb/v6-m\libc.a(lib_a-localeconv.o)
 .ARM.attributes
                0x000011f8       0x2c c:/program files (x86)/atmel/studio/7.0/toolchain/arm/arm-gnu-toolchain/bin/../lib/gcc/arm-none-eabi/6.3.1/../../../../arm-none-eabi/lib/thumb/v6-m\libc.a(lib_a-lock.o)
 .ARM.attributes
                0x00001224       0x2c c:/program files (x86)/atmel/studio/7.0/toolchain/arm/arm-gnu-toolchain/bin/../lib/gcc/arm-none-eabi/6.3.1/../../../../arm-none-eabi/lib/thumb/v6-m\libc.a(lib_a-makebuf.o)
 .ARM.attributes
                0x00001250       0x2c c:/program files (x86)/atmel/studio/7.0/toolchain/arm/arm-gnu-toolchain/bin/../lib/gcc/arm-none-eabi/6.3.1/../../../../arm-none-eabi/lib/thumb/v6-m\libc.a(lib_a-mallocr.o)
 .ARM.attributes
                0x0000127c       0x2c c:/program files (x86)/atmel/studio/7.0/toolchain/arm/arm-gnu-toolchain/bin/../lib/gcc/arm-none-eabi/6.3.1/../../../../arm-none-eabi/lib/thumb/v6-m\libc.a(lib_a-memchr-stub.o)
 .ARM.attributes
                0x000012a8       0x2c c:/program files (x86)/atmel/studio/7.0/toolchain/arm/arm-gnu-toolchain/bin/../lib/gcc/arm-none-eabi/6.3.1/../../../../arm-none-eabi/lib/thumb/v6-m\libc.a(lib_a-memmove.o)
 .ARM.attributes
                0x000012d4       0x2c c:/program files (x86)/atmel/studio/7.0/toolchain/arm/arm-gnu-toolchain/bin/../lib/gcc/arm-none-eabi/6.3.1/../../../../arm-none-eabi/lib/thumb/v6-m\libc.a(lib_a-mlock.o)
 .ARM.attributes
                0x00001300       0x2c c:/program files (x86)/atmel/studio/7.0/toolchain/arm/arm-gnu-toolchain/bin/../lib/gcc/arm-none-eabi/6.3.1/../../../../arm-none-eabi/lib/thumb/v6-m\libc.a(lib_a-mprec.o)
 .ARM.attributes
                0x0000132c       0x2c c:/program files (x86)/atmel/studio/7.0/toolchain/arm/arm-gnu-toolchain/bin/../lib/gcc/arm-none-eabi/6.3.1/../../../../arm-none-eabi/lib/thumb/v6-m\libc.a(lib_a-reallocr.o)
 .ARM.attributes
                0x00001358       0x2c c:/program files (x86)/atmel/studio/7.0/toolchain/arm/arm-gnu-toolchain/bin/../lib/gcc/arm-none-eabi/6.3.1/../../../../arm-none-eabi/lib/thumb/v6-m\libc.a(lib_a-sbrkr.o)
 .ARM.attributes
                0x00001384       0x2c c:/program files (x86)/atmel/studio/7.0/toolchain/arm/arm-gnu-toolchain/bin/../lib/gcc/arm-none-eabi/6.3.1/../../../../arm-none-eabi/lib/thumb/v6-m\libc.a(lib_a-stdio.o)
 .ARM.attributes
                0x000013b0       0x2c c:/program files (x86)/atmel/studio/7.0/toolchain/arm/arm-gnu-toolchain/bin/../lib/gcc/arm-none-eabi/6.3.1/../../../../arm-none-eabi/lib/thumb/v6-m\libc.a(lib_a-vfiprintf.o)
 .ARM.attributes
                0x000013dc       0x2c c:/program files (x86)/atmel/studio/7.0/toolchain/arm/arm-gnu-toolchain/bin/../lib/gcc/arm-none-eabi/6.3.1/../../../../arm-none-eabi/lib/thumb/v6-m\libc.a(lib_a-writer.o)
 .ARM.attributes
                0x00001408       0x2c c:/program files (x86)/atmel/studio/7.0/toolchain/arm/arm-gnu-toolchain/bin/../lib/gcc/arm-none-eabi/6.3.1/../../../../arm-none-eabi/lib/thumb/v6-m\libc.a(lib_a-callocr.o)
 .ARM.attributes
                0x00001434       0x2c c:/program files (x86)/atmel/studio/7.0/toolchain/arm/arm-gnu-toolchain/bin/../lib/gcc/arm-none-eabi/6.3.1/../../../../arm-none-eabi/lib/thumb/v6-m\libc.a(lib_a-closer.o)
 .ARM.attributes
                0x00001460       0x2c c:/program files (x86)/atmel/studio/7.0/toolchain/arm/arm-gnu-toolchain/bin/../lib/gcc/arm-none-eabi/6.3.1/../../../../arm-none-eabi/lib/thumb/v6-m\libc.a(lib_a-fclose.o)
 .ARM.attributes
                0x0000148c       0x2c c:/program files (x86)/atmel/studio/7.0/toolchain/arm/arm-gnu-toolchain/bin/../lib/gcc/arm-none-eabi/6.3.1/../../../../arm-none-eabi/lib/thumb/v6-m\libc.a(lib_a-fputwc.o)
 .ARM.attributes
                0x000014b8       0x2c c:/program files (x86)/atmel/studio/7.0/toolchain/arm/arm-gnu-toolchain/bin/../lib/gcc/arm-none-eabi/6.3.1/../../../../arm-none-eabi/lib/thumb/v6-m\libc.a(lib_a-fstatr.o)
 .ARM.attributes
                0x000014e4       0x2c c:/program files (x86)/atmel/studio/7.0/toolchain/arm/arm-gnu-toolchain/bin/../lib/gcc/arm-none-eabi/6.3.1/../../../../arm-none-eabi/lib/thumb/v6-m\libc.a(lib_a-isattyr.o)
 .ARM.attributes
                0x00001510       0x2c c:/program files (x86)/atmel/studio/7.0/toolchain/arm/arm-gnu-toolchain/bin/../lib/gcc/arm-none-eabi/6.3.1/../../../../arm-none-eabi/lib/thumb/v6-m\libc.a(lib_a-locale.o)
 .ARM.attributes
                0x0000153c       0x2c c:/program files (x86)/atmel/studio/7.0/toolchain/arm/arm-gnu-toolchain/bin/../lib/gcc/arm-none-eabi/6.3.1/../../../../arm-none-eabi/lib/thumb/v6-m\libc.a(lib_a-lseekr.o)
 .ARM.attributes
                0x00001568       0x2c c:/program files (x86)/atmel/studio/7.0/toolchain/arm/arm-gnu-toolchain/bin/../lib/gcc/arm-none-eabi/6.3.1/../../../../arm-none-eabi/lib/thumb/v6-m\libc.a(lib_a-mbtowc_r.o)
 .ARM.attributes
                0x00001594       0x2c c:/program files (x86)/atmel/studio/7.0/toolchain/arm/arm-gnu-toolchain/bin/../lib/gcc/arm-none-eabi/6.3.1/../../../../arm-none-eabi/lib/thumb/v6-m\libc.a(lib_a-readr.o)
 .ARM.attributes
                0x000015c0       0x2c c:/program files (x86)/atmel/studio/7.0/toolchain/arm/arm-gnu-toolchain/bin/../lib/gcc/arm-none-eabi/6.3.1/../../../../arm-none-eabi/lib/thumb/v6-m\libc.a(lib_a-reent.o)
 .ARM.attributes
                0x000015ec       0x2c c:/program files (x86)/atmel/studio/7.0/toolchain/arm/arm-gnu-toolchain/bin/../lib/gcc/arm-none-eabi/6.3.1/../../../../arm-none-eabi/lib/thumb/v6-m\libc.a(lib_a-wbuf.o)
 .ARM.attributes
                0x00001618       0x2c c:/program files (x86)/atmel/studio/7.0/toolchain/arm/arm-gnu-toolchain/bin/../lib/gcc/arm-none-eabi/6.3.1/../../../../arm-none-eabi/lib/thumb/v6-m\libc.a(lib_a-wcrtomb.o)
 .ARM.attributes
                0x00001644       0x2c c:/program files (x86)/atmel/studio/7.0/toolchain/arm/arm-gnu-toolchain/bin/../lib/gcc/arm-none-eabi/6.3.1/../../../../arm-none-eabi/lib/thumb/v6-m\libc.a(lib_a-wctomb_r.o)
 .ARM.attributes
                0x00001670       0x2c c:/program files (x86)/atmel/studio/7.0/toolchain/arm/arm-gnu-toolchain/bin/../lib/gcc/arm-none-eabi/6.3.1/../../../../arm-none-eabi/lib/thumb/v6-m\libc.a(lib_a-ctype_.o)
 .ARM.attributes
                0x0000169c       0x2c c:/program files (x86)/atmel/studio/7.0/toolchain/arm/arm-gnu-toolchain/bin/../lib/gcc/arm-none-eabi/6.3.1/../../../../arm-none-eabi/lib/thumb/v6-m\libnosys.a(close.o)
 .ARM.attributes
                0x000016c8       0x2c c:/program files (x86)/atmel/studio/7.0/toolchain/arm/arm-gnu-toolchain/bin/../lib/gcc/arm-none-eabi/6.3.1/../../../../arm-none-eabi/lib/thumb/v6-m\libnosys.a(fstat.o)
 .ARM.attributes
                0x000016f4       0x2c c:/program files (x86)/atmel/studio/7.0/toolchain/arm/arm-gnu-toolchain/bin/../lib/gcc/arm-none-eabi/6.3.1/../../../../arm-none-eabi/lib/thumb/v6-m\libnosys.a(isatty.o)
 .ARM.attributes
                0x00001720       0x2c c:/program files (x86)/atmel/studio/7.0/toolchain/arm/arm-gnu-toolchain/bin/../lib/gcc/arm-none-eabi/6.3.1/../../../../arm-none-eabi/lib/thumb/v6-m\libnosys.a(lseek.o)
 .ARM.attributes
                0x0000174c       0x2c c:/program files (x86)/atmel/studio/7.0/toolchain/arm/arm-gnu-toolchain/bin/../lib/gcc/arm-none-eabi/6.3.1/../../../../arm-none-eabi/lib/thumb/v6-m\libnosys.a(read.o)
 .ARM.attributes
                0x00001778       0x2c c:/program files (x86)/atmel/studio/7.0/toolchain/arm/arm-gnu-toolchain/bin/../lib/gcc/arm-none-eabi/6.3.1/../../../../arm-none-eabi/lib/thumb/v6-m\libnosys.a(sbrk.o)
 .ARM.attributes
                0x000017a4       0x2c c:/program files (x86)/atmel/studio/7.0/toolchain/arm/arm-gnu-toolchain/bin/../lib/gcc/arm-none-eabi/6.3.1/../../../../arm-none-eabi/lib/thumb/v6-m\libnosys.a(write.o)
 .ARM.attributes
                0x000017d0       0x1e c:/program files (x86)/atmel/studio/7.0/toolchain/arm/arm-gnu-toolchain/bin/../lib/gcc/arm-none-eabi/6.3.1/thumb/v6-m/crtn.o

.comment        0x00000000       0x59
 .comment       0x00000000       0x59 ADF5610Driver.o
                                 0x5a (size before relaxing)
 .comment       0x00000059       0x5a Device_Startup/startup_samd21.o
 .comment       0x00000059       0x5a main.o
 .comment       0x00000059       0x5a SPI_Syn_Class_ADF.o
 .comment       0x00000059       0x5a C:\Salukat\Purificador\SoftwareDevelopment\Atmel_Microchip\SAMD21_BSP\SAMD21_BSP\Release\libSAMD21_BSP.a(atmel_start.o)
 .comment       0x00000059       0x5a C:\Salukat\Purificador\SoftwareDevelopment\Atmel_Microchip\SAMD21_BSP\SAMD21_BSP\Release\libSAMD21_BSP.a(driver_init.o)
 .comment       0x00000059       0x5a C:\Salukat\Purificador\SoftwareDevelopment\Atmel_Microchip\SAMD21_BSP\SAMD21_BSP\Release\libSAMD21_BSP.a(hal_atomic.o)
 .comment       0x00000059       0x5a C:\Salukat\Purificador\SoftwareDevelopment\Atmel_Microchip\SAMD21_BSP\SAMD21_BSP\Release\libSAMD21_BSP.a(hal_dac_sync.o)
 .comment       0x00000059       0x5a C:\Salukat\Purificador\SoftwareDevelopment\Atmel_Microchip\SAMD21_BSP\SAMD21_BSP\Release\libSAMD21_BSP.a(hal_delay.o)
 .comment       0x00000059       0x5a C:\Salukat\Purificador\SoftwareDevelopment\Atmel_Microchip\SAMD21_BSP\SAMD21_BSP\Release\libSAMD21_BSP.a(hal_ext_irq.o)
 .comment       0x00000059       0x5a C:\Salukat\Purificador\SoftwareDevelopment\Atmel_Microchip\SAMD21_BSP\SAMD21_BSP\Release\libSAMD21_BSP.a(hal_io.o)
 .comment       0x00000059       0x5a C:\Salukat\Purificador\SoftwareDevelopment\Atmel_Microchip\SAMD21_BSP\SAMD21_BSP\Release\libSAMD21_BSP.a(hal_spi_m_sync.o)
 .comment       0x00000059       0x5a C:\Salukat\Purificador\SoftwareDevelopment\Atmel_Microchip\SAMD21_BSP\SAMD21_BSP\Release\libSAMD21_BSP.a(hal_timer.o)
 .comment       0x00000059       0x5a C:\Salukat\Purificador\SoftwareDevelopment\Atmel_Microchip\SAMD21_BSP\SAMD21_BSP\Release\libSAMD21_BSP.a(hal_usart_async.o)
 .comment       0x00000059       0x5a C:\Salukat\Purificador\SoftwareDevelopment\Atmel_Microchip\SAMD21_BSP\SAMD21_BSP\Release\libSAMD21_BSP.a(hal_usb_device.o)
 .comment       0x00000059       0x5a C:\Salukat\Purificador\SoftwareDevelopment\Atmel_Microchip\SAMD21_BSP\SAMD21_BSP\Release\libSAMD21_BSP.a(utils_list.o)
 .comment       0x00000059       0x5a C:\Salukat\Purificador\SoftwareDevelopment\Atmel_Microchip\SAMD21_BSP\SAMD21_BSP\Release\libSAMD21_BSP.a(utils_ringbuffer.o)
 .comment       0x00000059       0x5a C:\Salukat\Purificador\SoftwareDevelopment\Atmel_Microchip\SAMD21_BSP\SAMD21_BSP\Release\libSAMD21_BSP.a(hpl_core_m0plus_base.o)
 .comment       0x00000059       0x5a C:\Salukat\Purificador\SoftwareDevelopment\Atmel_Microchip\SAMD21_BSP\SAMD21_BSP\Release\libSAMD21_BSP.a(hpl_init.o)
 .comment       0x00000059       0x5a C:\Salukat\Purificador\SoftwareDevelopment\Atmel_Microchip\SAMD21_BSP\SAMD21_BSP\Release\libSAMD21_BSP.a(hpl_dac.o)
 .comment       0x00000059       0x5a C:\Salukat\Purificador\SoftwareDevelopment\Atmel_Microchip\SAMD21_BSP\SAMD21_BSP\Release\libSAMD21_BSP.a(hpl_eic.o)
 .comment       0x00000059       0x5a C:\Salukat\Purificador\SoftwareDevelopment\Atmel_Microchip\SAMD21_BSP\SAMD21_BSP\Release\libSAMD21_BSP.a(hpl_gclk.o)
 .comment       0x00000059       0x5a C:\Salukat\Purificador\SoftwareDevelopment\Atmel_Microchip\SAMD21_BSP\SAMD21_BSP\Release\libSAMD21_BSP.a(hpl_pm.o)
 .comment       0x00000059       0x5a C:\Salukat\Purificador\SoftwareDevelopment\Atmel_Microchip\SAMD21_BSP\SAMD21_BSP\Release\libSAMD21_BSP.a(hpl_sercom.o)
 .comment       0x00000059       0x5a C:\Salukat\Purificador\SoftwareDevelopment\Atmel_Microchip\SAMD21_BSP\SAMD21_BSP\Release\libSAMD21_BSP.a(hpl_sysctrl.o)
 .comment       0x00000059       0x5a C:\Salukat\Purificador\SoftwareDevelopment\Atmel_Microchip\SAMD21_BSP\SAMD21_BSP\Release\libSAMD21_BSP.a(hpl_systick.o)
 .comment       0x00000059       0x5a C:\Salukat\Purificador\SoftwareDevelopment\Atmel_Microchip\SAMD21_BSP\SAMD21_BSP\Release\libSAMD21_BSP.a(hpl_tc.o)
 .comment       0x00000059       0x5a C:\Salukat\Purificador\SoftwareDevelopment\Atmel_Microchip\SAMD21_BSP\SAMD21_BSP\Release\libSAMD21_BSP.a(hpl_usb.o)
 .comment       0x00000059       0x5a C:\Salukat\Purificador\SoftwareDevelopment\Atmel_Microchip\SAMD21_BSP\SAMD21_BSP\Release\libSAMD21_BSP.a(usb_start.o)
 .comment       0x00000059       0x5a C:\Salukat\Purificador\SoftwareDevelopment\Atmel_Microchip\SAMD21_BSP\SAMD21_BSP\Release\libSAMD21_BSP.a(cdcdf_acm.o)
 .comment       0x00000059       0x5a C:\Salukat\Purificador\SoftwareDevelopment\Atmel_Microchip\SAMD21_BSP\SAMD21_BSP\Release\libSAMD21_BSP.a(usbdc.o)
 .comment       0x00000059       0x5a C:\Salukat\Purificador\SoftwareDevelopment\Atmel_Microchip\SAMD21_BSP\SAMD21_BSP\Release\libSAMD21_BSP.a(usb_protocol.o)

.debug_info     0x00000000     0x9696
 .debug_info    0x00000000     0x3246 ADF5610Driver.o
 .debug_info    0x00003246     0x3a2c Device_Startup/startup_samd21.o
 .debug_info    0x00006c72     0x1759 main.o
 .debug_info    0x000083cb     0x12cb SPI_Syn_Class_ADF.o

.debug_abbrev   0x00000000     0x10d3
 .debug_abbrev  0x00000000      0x73a ADF5610Driver.o
 .debug_abbrev  0x0000073a      0x227 Device_Startup/startup_samd21.o
 .debug_abbrev  0x00000961      0x355 main.o
 .debug_abbrev  0x00000cb6      0x41d SPI_Syn_Class_ADF.o

.debug_loc      0x00000000     0x13b5
 .debug_loc     0x00000000      0xfb5 ADF5610Driver.o
 .debug_loc     0x00000fb5       0x78 Device_Startup/startup_samd21.o
 .debug_loc     0x0000102d       0xd4 main.o
 .debug_loc     0x00001101      0x2b4 SPI_Syn_Class_ADF.o

.debug_aranges  0x00000000      0x1a8
 .debug_aranges
                0x00000000       0xf0 ADF5610Driver.o
 .debug_aranges
                0x000000f0       0x28 Device_Startup/startup_samd21.o
 .debug_aranges
                0x00000118       0x30 main.o
 .debug_aranges
                0x00000148       0x60 SPI_Syn_Class_ADF.o

.debug_ranges   0x00000000      0x1c8
 .debug_ranges  0x00000000      0x128 ADF5610Driver.o
 .debug_ranges  0x00000128       0x18 Device_Startup/startup_samd21.o
 .debug_ranges  0x00000140       0x20 main.o
 .debug_ranges  0x00000160       0x68 SPI_Syn_Class_ADF.o

.debug_macro    0x00000000    0x16ac4
 .debug_macro   0x00000000      0x822 ADF5610Driver.o
 .debug_macro   0x00000822      0x970 ADF5610Driver.o
 .debug_macro   0x00001192      0x17b ADF5610Driver.o
 .debug_macro   0x0000130d       0x1c ADF5610Driver.o
 .debug_macro   0x00001329       0x22 ADF5610Driver.o
 .debug_macro   0x0000134b       0x87 ADF5610Driver.o
 .debug_macro   0x000013d2       0x51 ADF5610Driver.o
 .debug_macro   0x00001423       0xef ADF5610Driver.o
 .debug_macro   0x00001512       0x6a ADF5610Driver.o
 .debug_macro   0x0000157c      0x1df ADF5610Driver.o
 .debug_macro   0x0000175b       0x16 ADF5610Driver.o
 .debug_macro   0x00001771       0x3f ADF5610Driver.o
 .debug_macro   0x000017b0       0x1c ADF5610Driver.o
 .debug_macro   0x000017cc       0x22 ADF5610Driver.o
 .debug_macro   0x000017ee       0xb5 ADF5610Driver.o
 .debug_macro   0x000018a3      0x3ad ADF5610Driver.o
 .debug_macro   0x00001c50      0x67e ADF5610Driver.o
 .debug_macro   0x000022ce      0x8b1 ADF5610Driver.o
 .debug_macro   0x00002b7f      0x22e ADF5610Driver.o
 .debug_macro   0x00002dad      0xd5c ADF5610Driver.o
 .debug_macro   0x00003b09      0x4dc ADF5610Driver.o
 .debug_macro   0x00003fe5      0x9f6 ADF5610Driver.o
 .debug_macro   0x000049db      0x82b ADF5610Driver.o
 .debug_macro   0x00005206      0x45f ADF5610Driver.o
 .debug_macro   0x00005665       0x5e ADF5610Driver.o
 .debug_macro   0x000056c3      0x8f9 ADF5610Driver.o
 .debug_macro   0x00005fbc      0x21c ADF5610Driver.o
 .debug_macro   0x000061d8      0x735 ADF5610Driver.o
 .debug_macro   0x0000690d       0x5e ADF5610Driver.o
 .debug_macro   0x0000696b      0x632 ADF5610Driver.o
 .debug_macro   0x00006f9d      0x3ac ADF5610Driver.o
 .debug_macro   0x00007349      0xc76 ADF5610Driver.o
 .debug_macro   0x00007fbf     0x1092 ADF5610Driver.o
 .debug_macro   0x00009051      0xc4a ADF5610Driver.o
 .debug_macro   0x00009c9b      0x6ba ADF5610Driver.o
 .debug_macro   0x0000a355     0x1b3d ADF5610Driver.o
 .debug_macro   0x0000be92     0x143c ADF5610Driver.o
 .debug_macro   0x0000d2ce      0x340 ADF5610Driver.o
 .debug_macro   0x0000d60e       0x7c ADF5610Driver.o
 .debug_macro   0x0000d68a       0xa0 ADF5610Driver.o
 .debug_macro   0x0000d72a       0x4c ADF5610Driver.o
 .debug_macro   0x0000d776       0xca ADF5610Driver.o
 .debug_macro   0x0000d840       0x94 ADF5610Driver.o
 .debug_macro   0x0000d8d4       0x58 ADF5610Driver.o
 .debug_macro   0x0000d92c      0x341 ADF5610Driver.o
 .debug_macro   0x0000dc6d       0x82 ADF5610Driver.o
 .debug_macro   0x0000dcef      0x189 ADF5610Driver.o
 .debug_macro   0x0000de78       0xb8 ADF5610Driver.o
 .debug_macro   0x0000df30       0xa0 ADF5610Driver.o
 .debug_macro   0x0000dfd0       0xb2 ADF5610Driver.o
 .debug_macro   0x0000e082       0x1c ADF5610Driver.o
 .debug_macro   0x0000e09e       0x1c ADF5610Driver.o
 .debug_macro   0x0000e0ba       0x1c ADF5610Driver.o
 .debug_macro   0x0000e0d6       0x7c ADF5610Driver.o
 .debug_macro   0x0000e152      0x15a ADF5610Driver.o
 .debug_macro   0x0000e2ac       0x10 ADF5610Driver.o
 .debug_macro   0x0000e2bc       0xdc ADF5610Driver.o
 .debug_macro   0x0000e398      0x124 ADF5610Driver.o
 .debug_macro   0x0000e4bc      0x124 ADF5610Driver.o
 .debug_macro   0x0000e5e0      0x124 ADF5610Driver.o
 .debug_macro   0x0000e704      0x124 ADF5610Driver.o
 .debug_macro   0x0000e828      0x124 ADF5610Driver.o
 .debug_macro   0x0000e94c      0x124 ADF5610Driver.o
 .debug_macro   0x0000ea70      0x124 ADF5610Driver.o
 .debug_macro   0x0000eb94       0xe2 ADF5610Driver.o
 .debug_macro   0x0000ec76       0xe2 ADF5610Driver.o
 .debug_macro   0x0000ed58       0xe2 ADF5610Driver.o
 .debug_macro   0x0000ee3a       0xe2 ADF5610Driver.o
 .debug_macro   0x0000ef1c       0xe2 ADF5610Driver.o
 .debug_macro   0x0000effe      0x12a ADF5610Driver.o
 .debug_macro   0x0000f128      0x100 ADF5610Driver.o
 .debug_macro   0x0000f228       0xf4 ADF5610Driver.o
 .debug_macro   0x0000f31c      0x40f ADF5610Driver.o
 .debug_macro   0x0000f72b       0x40 ADF5610Driver.o
 .debug_macro   0x0000f76b      0x392 ADF5610Driver.o
 .debug_macro   0x0000fafd     0x1fb0 ADF5610Driver.o
 .debug_macro   0x00011aad       0x6d ADF5610Driver.o
 .debug_macro   0x00011b1a       0x10 ADF5610Driver.o
 .debug_macro   0x00011b2a       0x10 ADF5610Driver.o
 .debug_macro   0x00011b3a       0x16 ADF5610Driver.o
 .debug_macro   0x00011b50       0x16 ADF5610Driver.o
 .debug_macro   0x00011b66       0x16 ADF5610Driver.o
 .debug_macro   0x00011b7c       0x16 ADF5610Driver.o
 .debug_macro   0x00011b92       0x16 ADF5610Driver.o
 .debug_macro   0x00011ba8       0x16 ADF5610Driver.o
 .debug_macro   0x00011bbe       0x16 ADF5610Driver.o
 .debug_macro   0x00011bd4       0x16 ADF5610Driver.o
 .debug_macro   0x00011bea       0x16 ADF5610Driver.o
 .debug_macro   0x00011c00       0x16 ADF5610Driver.o
 .debug_macro   0x00011c16       0x16 ADF5610Driver.o
 .debug_macro   0x00011c2c       0x16 ADF5610Driver.o
 .debug_macro   0x00011c42       0x16 ADF5610Driver.o
 .debug_macro   0x00011c58       0x16 ADF5610Driver.o
 .debug_macro   0x00011c6e      0x4c3 ADF5610Driver.o
 .debug_macro   0x00012131       0x94 ADF5610Driver.o
 .debug_macro   0x000121c5       0x16 ADF5610Driver.o
 .debug_macro   0x000121db       0x6a ADF5610Driver.o
 .debug_macro   0x00012245      0x28c ADF5610Driver.o
 .debug_macro   0x000124d1      0x4d8 ADF5610Driver.o
 .debug_macro   0x000129a9       0x16 ADF5610Driver.o
 .debug_macro   0x000129bf       0xca ADF5610Driver.o
 .debug_macro   0x00012a89       0x1c ADF5610Driver.o
 .debug_macro   0x00012aa5       0x16 ADF5610Driver.o
 .debug_macro   0x00012abb       0xb2 ADF5610Driver.o
 .debug_macro   0x00012b6d       0xc9 ADF5610Driver.o
 .debug_macro   0x00012c36       0x10 ADF5610Driver.o
 .debug_macro   0x00012c46       0xd1 ADF5610Driver.o
 .debug_macro   0x00012d17       0xee ADF5610Driver.o
 .debug_macro   0x00012e05       0x58 ADF5610Driver.o
 .debug_macro   0x00012e5d       0x35 ADF5610Driver.o
 .debug_macro   0x00012e92       0x9c ADF5610Driver.o
 .debug_macro   0x00012f2e       0x16 ADF5610Driver.o
 .debug_macro   0x00012f44       0x35 ADF5610Driver.o
 .debug_macro   0x00012f79      0x34d ADF5610Driver.o
 .debug_macro   0x000132c6       0x10 ADF5610Driver.o
 .debug_macro   0x000132d6       0x58 ADF5610Driver.o
 .debug_macro   0x0001332e       0x1f ADF5610Driver.o
 .debug_macro   0x0001334d       0x43 ADF5610Driver.o
 .debug_macro   0x00013390       0x20 ADF5610Driver.o
 .debug_macro   0x000133b0      0x187 ADF5610Driver.o
 .debug_macro   0x00013537       0x10 ADF5610Driver.o
 .debug_macro   0x00013547       0x1c ADF5610Driver.o
 .debug_macro   0x00013563       0x52 ADF5610Driver.o
 .debug_macro   0x000135b5       0x40 ADF5610Driver.o
 .debug_macro   0x000135f5       0x10 ADF5610Driver.o
 .debug_macro   0x00013605       0x40 ADF5610Driver.o
 .debug_macro   0x00013645       0xd7 ADF5610Driver.o
 .debug_macro   0x0001371c       0x16 ADF5610Driver.o
 .debug_macro   0x00013732      0x18b ADF5610Driver.o
 .debug_macro   0x000138bd      0x143 ADF5610Driver.o
 .debug_macro   0x00013a00       0x10 ADF5610Driver.o
 .debug_macro   0x00013a10      0x3c3 ADF5610Driver.o
 .debug_macro   0x00013dd3       0x18 ADF5610Driver.o
 .debug_macro   0x00013deb      0x1da ADF5610Driver.o
 .debug_macro   0x00013fc5      0x3d3 ADF5610Driver.o
 .debug_macro   0x00014398       0x16 ADF5610Driver.o
 .debug_macro   0x000143ae       0x10 ADF5610Driver.o
 .debug_macro   0x000143be      0x45d ADF5610Driver.o
 .debug_macro   0x0001481b      0x310 Device_Startup/startup_samd21.o
 .debug_macro   0x00014b2b      0x89e Device_Startup/startup_samd21.o
 .debug_macro   0x000153c9       0x87 Device_Startup/startup_samd21.o
 .debug_macro   0x00015450       0x39 Device_Startup/startup_samd21.o
 .debug_macro   0x00015489      0x3ad Device_Startup/startup_samd21.o
 .debug_macro   0x00015836      0x72f main.o
 .debug_macro   0x00015f65       0x10 main.o
 .debug_macro   0x00015f75       0x76 main.o
 .debug_macro   0x00015feb      0x11b main.o
 .debug_macro   0x00016106      0x12b main.o
 .debug_macro   0x00016231      0x256 main.o
 .debug_macro   0x00016487       0x4c main.o
 .debug_macro   0x000164d3      0x5f1 SPI_Syn_Class_ADF.o

.debug_line     0x00000000     0x3750
 .debug_line    0x00000000     0x1479 ADF5610Driver.o
 .debug_line    0x00001479      0x70c Device_Startup/startup_samd21.o
 .debug_line    0x00001b85      0xea0 main.o
 .debug_line    0x00002a25      0xd2b SPI_Syn_Class_ADF.o

.debug_str      0x00000000    0x86893
 .debug_str     0x00000000    0x82640 ADF5610Driver.o
                              0x82dcc (size before relaxing)
 .debug_str     0x00082640     0x1244 Device_Startup/startup_samd21.o
                              0x717ac (size before relaxing)
 .debug_str     0x00083884     0x2eea main.o
                              0x810a6 (size before relaxing)
 .debug_str     0x0008676e      0x125 SPI_Syn_Class_ADF.o
                              0x7b313 (size before relaxing)

.debug_frame    0x00000000     0x1c7c
 .debug_frame   0x00000000      0x2f0 ADF5610Driver.o
 .debug_frame   0x000002f0       0x40 Device_Startup/startup_samd21.o
 .debug_frame   0x00000330       0x58 main.o
 .debug_frame   0x00000388       0xc8 SPI_Syn_Class_ADF.o
 .debug_frame   0x00000450       0x28 c:/program files (x86)/atmel/studio/7.0/toolchain/arm/arm-gnu-toolchain/bin/../lib/gcc/arm-none-eabi/6.3.1/../../../../arm-none-eabi/lib/thumb/v6-m\libstdc++.a(atexit_arm.o)
 .debug_frame   0x00000478       0x3c c:/program files (x86)/atmel/studio/7.0/toolchain/arm/arm-gnu-toolchain/bin/../lib/gcc/arm-none-eabi/6.3.1/../../../../arm-none-eabi/lib/thumb/v6-m\libm.a(lib_a-s_floor.o)
 .debug_frame   0x000004b4       0x38 c:/program files (x86)/atmel/studio/7.0/toolchain/arm/arm-gnu-toolchain/bin/../lib/gcc/arm-none-eabi/6.3.1/../../../../arm-none-eabi/lib/thumb/v6-m\libm.a(lib_a-w_log.o)
 .debug_frame   0x000004ec       0x3c c:/program files (x86)/atmel/studio/7.0/toolchain/arm/arm-gnu-toolchain/bin/../lib/gcc/arm-none-eabi/6.3.1/../../../../arm-none-eabi/lib/thumb/v6-m\libm.a(lib_a-w_pow.o)
 .debug_frame   0x00000528       0x3c c:/program files (x86)/atmel/studio/7.0/toolchain/arm/arm-gnu-toolchain/bin/../lib/gcc/arm-none-eabi/6.3.1/../../../../arm-none-eabi/lib/thumb/v6-m\libm.a(lib_a-e_log.o)
 .debug_frame   0x00000564       0x3c c:/program files (x86)/atmel/studio/7.0/toolchain/arm/arm-gnu-toolchain/bin/../lib/gcc/arm-none-eabi/6.3.1/../../../../arm-none-eabi/lib/thumb/v6-m\libm.a(lib_a-e_pow.o)
 .debug_frame   0x000005a0       0x38 c:/program files (x86)/atmel/studio/7.0/toolchain/arm/arm-gnu-toolchain/bin/../lib/gcc/arm-none-eabi/6.3.1/../../../../arm-none-eabi/lib/thumb/v6-m\libm.a(lib_a-e_sqrt.o)
 .debug_frame   0x000005d8       0x20 c:/program files (x86)/atmel/studio/7.0/toolchain/arm/arm-gnu-toolchain/bin/../lib/gcc/arm-none-eabi/6.3.1/../../../../arm-none-eabi/lib/thumb/v6-m\libm.a(lib_a-s_fabs.o)
 .debug_frame   0x000005f8       0x20 c:/program files (x86)/atmel/studio/7.0/toolchain/arm/arm-gnu-toolchain/bin/../lib/gcc/arm-none-eabi/6.3.1/../../../../arm-none-eabi/lib/thumb/v6-m\libm.a(lib_a-s_finite.o)
 .debug_frame   0x00000618       0x20 c:/program files (x86)/atmel/studio/7.0/toolchain/arm/arm-gnu-toolchain/bin/../lib/gcc/arm-none-eabi/6.3.1/../../../../arm-none-eabi/lib/thumb/v6-m\libm.a(lib_a-s_matherr.o)
 .debug_frame   0x00000638       0x20 c:/program files (x86)/atmel/studio/7.0/toolchain/arm/arm-gnu-toolchain/bin/../lib/gcc/arm-none-eabi/6.3.1/../../../../arm-none-eabi/lib/thumb/v6-m\libm.a(lib_a-s_nan.o)
 .debug_frame   0x00000658       0x38 c:/program files (x86)/atmel/studio/7.0/toolchain/arm/arm-gnu-toolchain/bin/../lib/gcc/arm-none-eabi/6.3.1/../../../../arm-none-eabi/lib/thumb/v6-m\libm.a(lib_a-s_rint.o)
 .debug_frame   0x00000690       0x2c c:/program files (x86)/atmel/studio/7.0/toolchain/arm/arm-gnu-toolchain/bin/../lib/gcc/arm-none-eabi/6.3.1/../../../../arm-none-eabi/lib/thumb/v6-m\libm.a(lib_a-s_scalbn.o)
 .debug_frame   0x000006bc       0x2c c:/program files (x86)/atmel/studio/7.0/toolchain/arm/arm-gnu-toolchain/bin/../lib/gcc/arm-none-eabi/6.3.1/../../../../arm-none-eabi/lib/thumb/v6-m\libm.a(lib_a-s_copysign.o)
 .debug_frame   0x000006e8       0x20 c:/program files (x86)/atmel/studio/7.0/toolchain/arm/arm-gnu-toolchain/bin/../lib/gcc/arm-none-eabi/6.3.1/thumb/v6-m\libgcc.a(_udivsi3.o)
 .debug_frame   0x00000708       0x20 c:/program files (x86)/atmel/studio/7.0/toolchain/arm/arm-gnu-toolchain/bin/../lib/gcc/arm-none-eabi/6.3.1/thumb/v6-m\libgcc.a(_divsi3.o)
 .debug_frame   0x00000728       0x28 c:/program files (x86)/atmel/studio/7.0/toolchain/arm/arm-gnu-toolchain/bin/../lib/gcc/arm-none-eabi/6.3.1/thumb/v6-m\libgcc.a(_ffssi2.o)
 .debug_frame   0x00000750       0x2c c:/program files (x86)/atmel/studio/7.0/toolchain/arm/arm-gnu-toolchain/bin/../lib/gcc/arm-none-eabi/6.3.1/thumb/v6-m\libgcc.a(_fixunsdfsi.o)
 .debug_frame   0x0000077c       0x3c c:/program files (x86)/atmel/studio/7.0/toolchain/arm/arm-gnu-toolchain/bin/../lib/gcc/arm-none-eabi/6.3.1/thumb/v6-m\libgcc.a(_udivmoddi4.o)
 .debug_frame   0x000007b8       0x34 c:/program files (x86)/atmel/studio/7.0/toolchain/arm/arm-gnu-toolchain/bin/../lib/gcc/arm-none-eabi/6.3.1/thumb/v6-m\libgcc.a(addsf3.o)
 .debug_frame   0x000007ec       0x2c c:/program files (x86)/atmel/studio/7.0/toolchain/arm/arm-gnu-toolchain/bin/../lib/gcc/arm-none-eabi/6.3.1/thumb/v6-m\libgcc.a(eqsf2.o)
 .debug_frame   0x00000818       0x30 c:/program files (x86)/atmel/studio/7.0/toolchain/arm/arm-gnu-toolchain/bin/../lib/gcc/arm-none-eabi/6.3.1/thumb/v6-m\libgcc.a(gesf2.o)
 .debug_frame   0x00000848       0x30 c:/program files (x86)/atmel/studio/7.0/toolchain/arm/arm-gnu-toolchain/bin/../lib/gcc/arm-none-eabi/6.3.1/thumb/v6-m\libgcc.a(lesf2.o)
 .debug_frame   0x00000878       0x3c c:/program files (x86)/atmel/studio/7.0/toolchain/arm/arm-gnu-toolchain/bin/../lib/gcc/arm-none-eabi/6.3.1/thumb/v6-m\libgcc.a(mulsf3.o)
 .debug_frame   0x000008b4       0x38 c:/program files (x86)/atmel/studio/7.0/toolchain/arm/arm-gnu-toolchain/bin/../lib/gcc/arm-none-eabi/6.3.1/thumb/v6-m\libgcc.a(subsf3.o)
 .debug_frame   0x000008ec       0x2c c:/program files (x86)/atmel/studio/7.0/toolchain/arm/arm-gnu-toolchain/bin/../lib/gcc/arm-none-eabi/6.3.1/thumb/v6-m\libgcc.a(floatsisf.o)
 .debug_frame   0x00000918       0x3c c:/program files (x86)/atmel/studio/7.0/toolchain/arm/arm-gnu-toolchain/bin/../lib/gcc/arm-none-eabi/6.3.1/thumb/v6-m\libgcc.a(adddf3.o)
 .debug_frame   0x00000954       0x3c c:/program files (x86)/atmel/studio/7.0/toolchain/arm/arm-gnu-toolchain/bin/../lib/gcc/arm-none-eabi/6.3.1/thumb/v6-m\libgcc.a(divdf3.o)
 .debug_frame   0x00000990       0x38 c:/program files (x86)/atmel/studio/7.0/toolchain/arm/arm-gnu-toolchain/bin/../lib/gcc/arm-none-eabi/6.3.1/thumb/v6-m\libgcc.a(eqdf2.o)
 .debug_frame   0x000009c8       0x38 c:/program files (x86)/atmel/studio/7.0/toolchain/arm/arm-gnu-toolchain/bin/../lib/gcc/arm-none-eabi/6.3.1/thumb/v6-m\libgcc.a(gedf2.o)
 .debug_frame   0x00000a00       0x38 c:/program files (x86)/atmel/studio/7.0/toolchain/arm/arm-gnu-toolchain/bin/../lib/gcc/arm-none-eabi/6.3.1/thumb/v6-m\libgcc.a(ledf2.o)
 .debug_frame   0x00000a38       0x3c c:/program files (x86)/atmel/studio/7.0/toolchain/arm/arm-gnu-toolchain/bin/../lib/gcc/arm-none-eabi/6.3.1/thumb/v6-m\libgcc.a(muldf3.o)
 .debug_frame   0x00000a74       0x38 c:/program files (x86)/atmel/studio/7.0/toolchain/arm/arm-gnu-toolchain/bin/../lib/gcc/arm-none-eabi/6.3.1/thumb/v6-m\libgcc.a(subdf3.o)
 .debug_frame   0x00000aac       0x2c c:/program files (x86)/atmel/studio/7.0/toolchain/arm/arm-gnu-toolchain/bin/../lib/gcc/arm-none-eabi/6.3.1/thumb/v6-m\libgcc.a(unorddf2.o)
 .debug_frame   0x00000ad8       0x2c c:/program files (x86)/atmel/studio/7.0/toolchain/arm/arm-gnu-toolchain/bin/../lib/gcc/arm-none-eabi/6.3.1/thumb/v6-m\libgcc.a(fixdfsi.o)
 .debug_frame   0x00000b04       0x2c c:/program files (x86)/atmel/studio/7.0/toolchain/arm/arm-gnu-toolchain/bin/../lib/gcc/arm-none-eabi/6.3.1/thumb/v6-m\libgcc.a(floatsidf.o)
 .debug_frame   0x00000b30       0x28 c:/program files (x86)/atmel/studio/7.0/toolchain/arm/arm-gnu-toolchain/bin/../lib/gcc/arm-none-eabi/6.3.1/thumb/v6-m\libgcc.a(floatunsidf.o)
 .debug_frame   0x00000b58       0x2c c:/program files (x86)/atmel/studio/7.0/toolchain/arm/arm-gnu-toolchain/bin/../lib/gcc/arm-none-eabi/6.3.1/thumb/v6-m\libgcc.a(extendsfdf2.o)
 .debug_frame   0x00000b84       0x28 c:/program files (x86)/atmel/studio/7.0/toolchain/arm/arm-gnu-toolchain/bin/../lib/gcc/arm-none-eabi/6.3.1/../../../../arm-none-eabi/lib/thumb/v6-m\libc.a(lib_a-cxa_atexit.o)
 .debug_frame   0x00000bac       0x20 c:/program files (x86)/atmel/studio/7.0/toolchain/arm/arm-gnu-toolchain/bin/../lib/gcc/arm-none-eabi/6.3.1/../../../../arm-none-eabi/lib/thumb/v6-m\libc.a(lib_a-errno.o)
 .debug_frame   0x00000bcc       0x2c c:/program files (x86)/atmel/studio/7.0/toolchain/arm/arm-gnu-toolchain/bin/../lib/gcc/arm-none-eabi/6.3.1/../../../../arm-none-eabi/lib/thumb/v6-m\libc.a(lib_a-init.o)
 .debug_frame   0x00000bf8       0x30 c:/program files (x86)/atmel/studio/7.0/toolchain/arm/arm-gnu-toolchain/bin/../lib/gcc/arm-none-eabi/6.3.1/../../../../arm-none-eabi/lib/thumb/v6-m\libc.a(lib_a-memcpy-stub.o)
 .debug_frame   0x00000c28       0x30 c:/program files (x86)/atmel/studio/7.0/toolchain/arm/arm-gnu-toolchain/bin/../lib/gcc/arm-none-eabi/6.3.1/../../../../arm-none-eabi/lib/thumb/v6-m\libc.a(lib_a-memset.o)
 .debug_frame   0x00000c58       0x48 c:/program files (x86)/atmel/studio/7.0/toolchain/arm/arm-gnu-toolchain/bin/../lib/gcc/arm-none-eabi/6.3.1/../../../../arm-none-eabi/lib/thumb/v6-m\libc.a(lib_a-printf.o)
 .debug_frame   0x00000ca0       0x44 c:/program files (x86)/atmel/studio/7.0/toolchain/arm/arm-gnu-toolchain/bin/../lib/gcc/arm-none-eabi/6.3.1/../../../../arm-none-eabi/lib/thumb/v6-m\libc.a(lib_a-puts.o)
 .debug_frame   0x00000ce4       0x28 c:/program files (x86)/atmel/studio/7.0/toolchain/arm/arm-gnu-toolchain/bin/../lib/gcc/arm-none-eabi/6.3.1/../../../../arm-none-eabi/lib/thumb/v6-m\libc.a(lib_a-strlen-stub.o)
 .debug_frame   0x00000d0c       0x78 c:/program files (x86)/atmel/studio/7.0/toolchain/arm/arm-gnu-toolchain/bin/../lib/gcc/arm-none-eabi/6.3.1/../../../../arm-none-eabi/lib/thumb/v6-m\libc.a(lib_a-vfprintf.o)
 .debug_frame   0x00000d84       0x2c c:/program files (x86)/atmel/studio/7.0/toolchain/arm/arm-gnu-toolchain/bin/../lib/gcc/arm-none-eabi/6.3.1/../../../../arm-none-eabi/lib/thumb/v6-m\libc.a(lib_a-wsetup.o)
 .debug_frame   0x00000db0       0x3c c:/program files (x86)/atmel/studio/7.0/toolchain/arm/arm-gnu-toolchain/bin/../lib/gcc/arm-none-eabi/6.3.1/../../../../arm-none-eabi/lib/thumb/v6-m\libc.a(lib_a-__atexit.o)
 .debug_frame   0x00000dec       0x54 c:/program files (x86)/atmel/studio/7.0/toolchain/arm/arm-gnu-toolchain/bin/../lib/gcc/arm-none-eabi/6.3.1/../../../../arm-none-eabi/lib/thumb/v6-m\libc.a(lib_a-__call_atexit.o)
 .debug_frame   0x00000e40       0x28 c:/program files (x86)/atmel/studio/7.0/toolchain/arm/arm-gnu-toolchain/bin/../lib/gcc/arm-none-eabi/6.3.1/../../../../arm-none-eabi/lib/thumb/v6-m\libc.a(lib_a-atexit.o)
 .debug_frame   0x00000e68       0x68 c:/program files (x86)/atmel/studio/7.0/toolchain/arm/arm-gnu-toolchain/bin/../lib/gcc/arm-none-eabi/6.3.1/../../../../arm-none-eabi/lib/thumb/v6-m\libc.a(lib_a-dtoa.o)
 .debug_frame   0x00000ed0       0x68 c:/program files (x86)/atmel/studio/7.0/toolchain/arm/arm-gnu-toolchain/bin/../lib/gcc/arm-none-eabi/6.3.1/../../../../arm-none-eabi/lib/thumb/v6-m\libc.a(lib_a-fflush.o)
 .debug_frame   0x00000f38      0x170 c:/program files (x86)/atmel/studio/7.0/toolchain/arm/arm-gnu-toolchain/bin/../lib/gcc/arm-none-eabi/6.3.1/../../../../arm-none-eabi/lib/thumb/v6-m\libc.a(lib_a-findfp.o)
 .debug_frame   0x000010a8       0x2c c:/program files (x86)/atmel/studio/7.0/toolchain/arm/arm-gnu-toolchain/bin/../lib/gcc/arm-none-eabi/6.3.1/../../../../arm-none-eabi/lib/thumb/v6-m\libc.a(lib_a-fini.o)
 .debug_frame   0x000010d4       0x50 c:/program files (x86)/atmel/studio/7.0/toolchain/arm/arm-gnu-toolchain/bin/../lib/gcc/arm-none-eabi/6.3.1/../../../../arm-none-eabi/lib/thumb/v6-m\libc.a(lib_a-freer.o)
 .debug_frame   0x00001124       0x3c c:/program files (x86)/atmel/studio/7.0/toolchain/arm/arm-gnu-toolchain/bin/../lib/gcc/arm-none-eabi/6.3.1/../../../../arm-none-eabi/lib/thumb/v6-m\libc.a(lib_a-fvwrite.o)
 .debug_frame   0x00001160       0x5c c:/program files (x86)/atmel/studio/7.0/toolchain/arm/arm-gnu-toolchain/bin/../lib/gcc/arm-none-eabi/6.3.1/../../../../arm-none-eabi/lib/thumb/v6-m\libc.a(lib_a-fwalk.o)
 .debug_frame   0x000011bc       0x40 c:/program files (x86)/atmel/studio/7.0/toolchain/arm/arm-gnu-toolchain/bin/../lib/gcc/arm-none-eabi/6.3.1/../../../../arm-none-eabi/lib/thumb/v6-m\libc.a(lib_a-localeconv.o)
 .debug_frame   0x000011fc       0xb0 c:/program files (x86)/atmel/studio/7.0/toolchain/arm/arm-gnu-toolchain/bin/../lib/gcc/arm-none-eabi/6.3.1/../../../../arm-none-eabi/lib/thumb/v6-m\libc.a(lib_a-lock.o)
 .debug_frame   0x000012ac       0x50 c:/program files (x86)/atmel/studio/7.0/toolchain/arm/arm-gnu-toolchain/bin/../lib/gcc/arm-none-eabi/6.3.1/../../../../arm-none-eabi/lib/thumb/v6-m\libc.a(lib_a-makebuf.o)
 .debug_frame   0x000012fc       0x3c c:/program files (x86)/atmel/studio/7.0/toolchain/arm/arm-gnu-toolchain/bin/../lib/gcc/arm-none-eabi/6.3.1/../../../../arm-none-eabi/lib/thumb/v6-m\libc.a(lib_a-mallocr.o)
 .debug_frame   0x00001338       0x2c c:/program files (x86)/atmel/studio/7.0/toolchain/arm/arm-gnu-toolchain/bin/../lib/gcc/arm-none-eabi/6.3.1/../../../../arm-none-eabi/lib/thumb/v6-m\libc.a(lib_a-memchr-stub.o)
 .debug_frame   0x00001364       0x30 c:/program files (x86)/atmel/studio/7.0/toolchain/arm/arm-gnu-toolchain/bin/../lib/gcc/arm-none-eabi/6.3.1/../../../../arm-none-eabi/lib/thumb/v6-m\libc.a(lib_a-memmove.o)
 .debug_frame   0x00001394       0x40 c:/program files (x86)/atmel/studio/7.0/toolchain/arm/arm-gnu-toolchain/bin/../lib/gcc/arm-none-eabi/6.3.1/../../../../arm-none-eabi/lib/thumb/v6-m\libc.a(lib_a-mlock.o)
 .debug_frame   0x000013d4      0x260 c:/program files (x86)/atmel/studio/7.0/toolchain/arm/arm-gnu-toolchain/bin/../lib/gcc/arm-none-eabi/6.3.1/../../../../arm-none-eabi/lib/thumb/v6-m\libc.a(lib_a-mprec.o)
 .debug_frame   0x00001634       0x3c c:/program files (x86)/atmel/studio/7.0/toolchain/arm/arm-gnu-toolchain/bin/../lib/gcc/arm-none-eabi/6.3.1/../../../../arm-none-eabi/lib/thumb/v6-m\libc.a(lib_a-reallocr.o)
 .debug_frame   0x00001670       0x2c c:/program files (x86)/atmel/studio/7.0/toolchain/arm/arm-gnu-toolchain/bin/../lib/gcc/arm-none-eabi/6.3.1/../../../../arm-none-eabi/lib/thumb/v6-m\libc.a(lib_a-sbrkr.o)
 .debug_frame   0x0000169c       0x90 c:/program files (x86)/atmel/studio/7.0/toolchain/arm/arm-gnu-toolchain/bin/../lib/gcc/arm-none-eabi/6.3.1/../../../../arm-none-eabi/lib/thumb/v6-m\libc.a(lib_a-stdio.o)
 .debug_frame   0x0000172c       0xbc c:/program files (x86)/atmel/studio/7.0/toolchain/arm/arm-gnu-toolchain/bin/../lib/gcc/arm-none-eabi/6.3.1/../../../../arm-none-eabi/lib/thumb/v6-m\libc.a(lib_a-vfiprintf.o)
 .debug_frame   0x000017e8       0x2c c:/program files (x86)/atmel/studio/7.0/toolchain/arm/arm-gnu-toolchain/bin/../lib/gcc/arm-none-eabi/6.3.1/../../../../arm-none-eabi/lib/thumb/v6-m\libc.a(lib_a-writer.o)
 .debug_frame   0x00001814       0x28 c:/program files (x86)/atmel/studio/7.0/toolchain/arm/arm-gnu-toolchain/bin/../lib/gcc/arm-none-eabi/6.3.1/../../../../arm-none-eabi/lib/thumb/v6-m\libc.a(lib_a-callocr.o)
 .debug_frame   0x0000183c       0x2c c:/program files (x86)/atmel/studio/7.0/toolchain/arm/arm-gnu-toolchain/bin/../lib/gcc/arm-none-eabi/6.3.1/../../../../arm-none-eabi/lib/thumb/v6-m\libc.a(lib_a-closer.o)
 .debug_frame   0x00001868       0x44 c:/program files (x86)/atmel/studio/7.0/toolchain/arm/arm-gnu-toolchain/bin/../lib/gcc/arm-none-eabi/6.3.1/../../../../arm-none-eabi/lib/thumb/v6-m\libc.a(lib_a-fclose.o)
 .debug_frame   0x000018ac       0x70 c:/program files (x86)/atmel/studio/7.0/toolchain/arm/arm-gnu-toolchain/bin/../lib/gcc/arm-none-eabi/6.3.1/../../../../arm-none-eabi/lib/thumb/v6-m\libc.a(lib_a-fputwc.o)
 .debug_frame   0x0000191c       0x2c c:/program files (x86)/atmel/studio/7.0/toolchain/arm/arm-gnu-toolchain/bin/../lib/gcc/arm-none-eabi/6.3.1/../../../../arm-none-eabi/lib/thumb/v6-m\libc.a(lib_a-fstatr.o)
 .debug_frame   0x00001948       0x2c c:/program files (x86)/atmel/studio/7.0/toolchain/arm/arm-gnu-toolchain/bin/../lib/gcc/arm-none-eabi/6.3.1/../../../../arm-none-eabi/lib/thumb/v6-m\libc.a(lib_a-isattyr.o)
 .debug_frame   0x00001974       0x74 c:/program files (x86)/atmel/studio/7.0/toolchain/arm/arm-gnu-toolchain/bin/../lib/gcc/arm-none-eabi/6.3.1/../../../../arm-none-eabi/lib/thumb/v6-m\libc.a(lib_a-locale.o)
 .debug_frame   0x000019e8       0x2c c:/program files (x86)/atmel/studio/7.0/toolchain/arm/arm-gnu-toolchain/bin/../lib/gcc/arm-none-eabi/6.3.1/../../../../arm-none-eabi/lib/thumb/v6-m\libc.a(lib_a-lseekr.o)
 .debug_frame   0x00001a14       0x40 c:/program files (x86)/atmel/studio/7.0/toolchain/arm/arm-gnu-toolchain/bin/../lib/gcc/arm-none-eabi/6.3.1/../../../../arm-none-eabi/lib/thumb/v6-m\libc.a(lib_a-mbtowc_r.o)
 .debug_frame   0x00001a54       0x2c c:/program files (x86)/atmel/studio/7.0/toolchain/arm/arm-gnu-toolchain/bin/../lib/gcc/arm-none-eabi/6.3.1/../../../../arm-none-eabi/lib/thumb/v6-m\libc.a(lib_a-readr.o)
 .debug_frame   0x00001a80       0x48 c:/program files (x86)/atmel/studio/7.0/toolchain/arm/arm-gnu-toolchain/bin/../lib/gcc/arm-none-eabi/6.3.1/../../../../arm-none-eabi/lib/thumb/v6-m\libc.a(lib_a-reent.o)
 .debug_frame   0x00001ac8       0x48 c:/program files (x86)/atmel/studio/7.0/toolchain/arm/arm-gnu-toolchain/bin/../lib/gcc/arm-none-eabi/6.3.1/../../../../arm-none-eabi/lib/thumb/v6-m\libc.a(lib_a-wbuf.o)
 .debug_frame   0x00001b10       0x50 c:/program files (x86)/atmel/studio/7.0/toolchain/arm/arm-gnu-toolchain/bin/../lib/gcc/arm-none-eabi/6.3.1/../../../../arm-none-eabi/lib/thumb/v6-m\libc.a(lib_a-wcrtomb.o)
 .debug_frame   0x00001b60       0x3c c:/program files (x86)/atmel/studio/7.0/toolchain/arm/arm-gnu-toolchain/bin/../lib/gcc/arm-none-eabi/6.3.1/../../../../arm-none-eabi/lib/thumb/v6-m\libc.a(lib_a-wctomb_r.o)
 .debug_frame   0x00001b9c       0x20 c:/program files (x86)/atmel/studio/7.0/toolchain/arm/arm-gnu-toolchain/bin/../lib/gcc/arm-none-eabi/6.3.1/../../../../arm-none-eabi/lib/thumb/v6-m\libnosys.a(close.o)
 .debug_frame   0x00001bbc       0x20 c:/program files (x86)/atmel/studio/7.0/toolchain/arm/arm-gnu-toolchain/bin/../lib/gcc/arm-none-eabi/6.3.1/../../../../arm-none-eabi/lib/thumb/v6-m\libnosys.a(fstat.o)
 .debug_frame   0x00001bdc       0x20 c:/program files (x86)/atmel/studio/7.0/toolchain/arm/arm-gnu-toolchain/bin/../lib/gcc/arm-none-eabi/6.3.1/../../../../arm-none-eabi/lib/thumb/v6-m\libnosys.a(isatty.o)
 .debug_frame   0x00001bfc       0x20 c:/program files (x86)/atmel/studio/7.0/toolchain/arm/arm-gnu-toolchain/bin/../lib/gcc/arm-none-eabi/6.3.1/../../../../arm-none-eabi/lib/thumb/v6-m\libnosys.a(lseek.o)
 .debug_frame   0x00001c1c       0x20 c:/program files (x86)/atmel/studio/7.0/toolchain/arm/arm-gnu-toolchain/bin/../lib/gcc/arm-none-eabi/6.3.1/../../../../arm-none-eabi/lib/thumb/v6-m\libnosys.a(read.o)
 .debug_frame   0x00001c3c       0x20 c:/program files (x86)/atmel/studio/7.0/toolchain/arm/arm-gnu-toolchain/bin/../lib/gcc/arm-none-eabi/6.3.1/../../../../arm-none-eabi/lib/thumb/v6-m\libnosys.a(sbrk.o)
 .debug_frame   0x00001c5c       0x20 c:/program files (x86)/atmel/studio/7.0/toolchain/arm/arm-gnu-toolchain/bin/../lib/gcc/arm-none-eabi/6.3.1/../../../../arm-none-eabi/lib/thumb/v6-m\libnosys.a(write.o)

.stab           0x00000000       0x9c
 .stab          0x00000000       0x24 c:/program files (x86)/atmel/studio/7.0/toolchain/arm/arm-gnu-toolchain/bin/../lib/gcc/arm-none-eabi/6.3.1/../../../../arm-none-eabi/lib/thumb/v6-m\libnosys.a(close.o)
 .stab          0x00000024       0x18 c:/program files (x86)/atmel/studio/7.0/toolchain/arm/arm-gnu-toolchain/bin/../lib/gcc/arm-none-eabi/6.3.1/../../../../arm-none-eabi/lib/thumb/v6-m\libnosys.a(fstat.o)
                                 0x24 (size before relaxing)
 .stab          0x0000003c       0x18 c:/program files (x86)/atmel/studio/7.0/toolchain/arm/arm-gnu-toolchain/bin/../lib/gcc/arm-none-eabi/6.3.1/../../../../arm-none-eabi/lib/thumb/v6-m\libnosys.a(isatty.o)
                                 0x24 (size before relaxing)
 .stab          0x00000054       0x18 c:/program files (x86)/atmel/studio/7.0/toolchain/arm/arm-gnu-toolchain/bin/../lib/gcc/arm-none-eabi/6.3.1/../../../../arm-none-eabi/lib/thumb/v6-m\libnosys.a(lseek.o)
                                 0x24 (size before relaxing)
 .stab          0x0000006c       0x18 c:/program files (x86)/atmel/studio/7.0/toolchain/arm/arm-gnu-toolchain/bin/../lib/gcc/arm-none-eabi/6.3.1/../../../../arm-none-eabi/lib/thumb/v6-m\libnosys.a(read.o)
                                 0x24 (size before relaxing)
 .stab          0x00000084       0x18 c:/program files (x86)/atmel/studio/7.0/toolchain/arm/arm-gnu-toolchain/bin/../lib/gcc/arm-none-eabi/6.3.1/../../../../arm-none-eabi/lib/thumb/v6-m\libnosys.a(write.o)
                                 0x24 (size before relaxing)

.stabstr        0x00000000      0x14d
 .stabstr       0x00000000      0x14d c:/program files (x86)/atmel/studio/7.0/toolchain/arm/arm-gnu-toolchain/bin/../lib/gcc/arm-none-eabi/6.3.1/../../../../arm-none-eabi/lib/thumb/v6-m\libnosys.a(close.o)
